ARM GAS  C:\Users\thewo\AppData\Local\Temp\cc4HA2jG.s 			page 1


   1              		.cpu cortex-m7
   2              		.arch armv7e-m
   3              		.fpu fpv5-d16
   4              		.eabi_attribute 28, 1
   5              		.eabi_attribute 20, 1
   6              		.eabi_attribute 21, 1
   7              		.eabi_attribute 23, 3
   8              		.eabi_attribute 24, 1
   9              		.eabi_attribute 25, 1
  10              		.eabi_attribute 26, 1
  11              		.eabi_attribute 30, 1
  12              		.eabi_attribute 34, 1
  13              		.eabi_attribute 18, 4
  14              		.file	"fmac.c"
  15              		.text
  16              	.Ltext0:
  17              		.cfi_sections	.debug_frame
  18              		.file 1 "Core/Src/fmac.c"
  19              		.section	.text.MX_FMAC_Init,"ax",%progbits
  20              		.align	1
  21              		.global	MX_FMAC_Init
  22              		.syntax unified
  23              		.thumb
  24              		.thumb_func
  26              	MX_FMAC_Init:
  27              	.LFB350:
   1:Core/Src/fmac.c **** /* USER CODE BEGIN Header */
   2:Core/Src/fmac.c **** /**
   3:Core/Src/fmac.c ****   ******************************************************************************
   4:Core/Src/fmac.c ****   * @file    fmac.c
   5:Core/Src/fmac.c ****   * @brief   This file provides code for the configuration
   6:Core/Src/fmac.c ****   *          of the FMAC instances.
   7:Core/Src/fmac.c ****   ******************************************************************************
   8:Core/Src/fmac.c ****   * @attention
   9:Core/Src/fmac.c ****   *
  10:Core/Src/fmac.c ****   * Copyright (c) 2025 STMicroelectronics.
  11:Core/Src/fmac.c ****   * All rights reserved.
  12:Core/Src/fmac.c ****   *
  13:Core/Src/fmac.c ****   * This software is licensed under terms that can be found in the LICENSE file
  14:Core/Src/fmac.c ****   * in the root directory of this software component.
  15:Core/Src/fmac.c ****   * If no LICENSE file comes with this software, it is provided AS-IS.
  16:Core/Src/fmac.c ****   *
  17:Core/Src/fmac.c ****   ******************************************************************************
  18:Core/Src/fmac.c ****   */
  19:Core/Src/fmac.c **** /* USER CODE END Header */
  20:Core/Src/fmac.c **** /* Includes ------------------------------------------------------------------*/
  21:Core/Src/fmac.c **** #include "fmac.h"
  22:Core/Src/fmac.c **** 
  23:Core/Src/fmac.c **** /* USER CODE BEGIN 0 */
  24:Core/Src/fmac.c **** 
  25:Core/Src/fmac.c **** /* USER CODE END 0 */
  26:Core/Src/fmac.c **** 
  27:Core/Src/fmac.c **** FMAC_HandleTypeDef hfmac;
  28:Core/Src/fmac.c **** 
  29:Core/Src/fmac.c **** /* FMAC init function */
  30:Core/Src/fmac.c **** void MX_FMAC_Init(void)
  31:Core/Src/fmac.c **** {
ARM GAS  C:\Users\thewo\AppData\Local\Temp\cc4HA2jG.s 			page 2


  28              		.loc 1 31 1 view -0
  29              		.cfi_startproc
  30              		@ args = 0, pretend = 0, frame = 0
  31              		@ frame_needed = 0, uses_anonymous_args = 0
  32 0000 08B5     		push	{r3, lr}
  33              		.cfi_def_cfa_offset 8
  34              		.cfi_offset 3, -8
  35              		.cfi_offset 14, -4
  32:Core/Src/fmac.c **** 
  33:Core/Src/fmac.c ****   /* USER CODE BEGIN FMAC_Init 0 */
  34:Core/Src/fmac.c **** 
  35:Core/Src/fmac.c ****   /* USER CODE END FMAC_Init 0 */
  36:Core/Src/fmac.c **** 
  37:Core/Src/fmac.c ****   /* USER CODE BEGIN FMAC_Init 1 */
  38:Core/Src/fmac.c **** 
  39:Core/Src/fmac.c ****   /* USER CODE END FMAC_Init 1 */
  40:Core/Src/fmac.c ****   hfmac.Instance = FMAC;
  36              		.loc 1 40 3 view .LVU1
  37              		.loc 1 40 18 is_stmt 0 view .LVU2
  38 0002 0548     		ldr	r0, .L5
  39 0004 054B     		ldr	r3, .L5+4
  40 0006 0360     		str	r3, [r0]
  41:Core/Src/fmac.c ****   if (HAL_FMAC_Init(&hfmac) != HAL_OK)
  41              		.loc 1 41 3 is_stmt 1 view .LVU3
  42              		.loc 1 41 7 is_stmt 0 view .LVU4
  43 0008 FFF7FEFF 		bl	HAL_FMAC_Init
  44              	.LVL0:
  45              		.loc 1 41 6 discriminator 1 view .LVU5
  46 000c 00B9     		cbnz	r0, .L4
  47              	.L1:
  42:Core/Src/fmac.c ****   {
  43:Core/Src/fmac.c ****     Error_Handler();
  44:Core/Src/fmac.c ****   }
  45:Core/Src/fmac.c ****   /* USER CODE BEGIN FMAC_Init 2 */
  46:Core/Src/fmac.c **** 
  47:Core/Src/fmac.c ****   /* USER CODE END FMAC_Init 2 */
  48:Core/Src/fmac.c **** 
  49:Core/Src/fmac.c **** }
  48              		.loc 1 49 1 view .LVU6
  49 000e 08BD     		pop	{r3, pc}
  50              	.L4:
  43:Core/Src/fmac.c ****   }
  51              		.loc 1 43 5 is_stmt 1 view .LVU7
  52 0010 FFF7FEFF 		bl	Error_Handler
  53              	.LVL1:
  54              		.loc 1 49 1 is_stmt 0 view .LVU8
  55 0014 FBE7     		b	.L1
  56              	.L6:
  57 0016 00BF     		.align	2
  58              	.L5:
  59 0018 00000000 		.word	hfmac
  60 001c 00400248 		.word	1208107008
  61              		.cfi_endproc
  62              	.LFE350:
  64              		.section	.text.HAL_FMAC_MspInit,"ax",%progbits
  65              		.align	1
  66              		.global	HAL_FMAC_MspInit
ARM GAS  C:\Users\thewo\AppData\Local\Temp\cc4HA2jG.s 			page 3


  67              		.syntax unified
  68              		.thumb
  69              		.thumb_func
  71              	HAL_FMAC_MspInit:
  72              	.LVL2:
  73              	.LFB351:
  50:Core/Src/fmac.c **** 
  51:Core/Src/fmac.c **** void HAL_FMAC_MspInit(FMAC_HandleTypeDef* fmacHandle)
  52:Core/Src/fmac.c **** {
  74              		.loc 1 52 1 is_stmt 1 view -0
  75              		.cfi_startproc
  76              		@ args = 0, pretend = 0, frame = 8
  77              		@ frame_needed = 0, uses_anonymous_args = 0
  78              		@ link register save eliminated.
  53:Core/Src/fmac.c **** 
  54:Core/Src/fmac.c ****   if(fmacHandle->Instance==FMAC)
  79              		.loc 1 54 3 view .LVU10
  80              		.loc 1 54 16 is_stmt 0 view .LVU11
  81 0000 0268     		ldr	r2, [r0]
  82              		.loc 1 54 5 view .LVU12
  83 0002 0A4B     		ldr	r3, .L14
  84 0004 9A42     		cmp	r2, r3
  85 0006 00D0     		beq	.L13
  86 0008 7047     		bx	lr
  87              	.L13:
  52:Core/Src/fmac.c **** 
  88              		.loc 1 52 1 view .LVU13
  89 000a 82B0     		sub	sp, sp, #8
  90              		.cfi_def_cfa_offset 8
  55:Core/Src/fmac.c ****   {
  56:Core/Src/fmac.c ****   /* USER CODE BEGIN FMAC_MspInit 0 */
  57:Core/Src/fmac.c **** 
  58:Core/Src/fmac.c ****   /* USER CODE END FMAC_MspInit 0 */
  59:Core/Src/fmac.c ****     /* FMAC clock enable */
  60:Core/Src/fmac.c ****     __HAL_RCC_FMAC_CLK_ENABLE();
  91              		.loc 1 60 5 is_stmt 1 view .LVU14
  92              	.LBB2:
  93              		.loc 1 60 5 view .LVU15
  94              		.loc 1 60 5 view .LVU16
  95 000c 084B     		ldr	r3, .L14+4
  96 000e D3F8DC20 		ldr	r2, [r3, #220]
  97 0012 42F48032 		orr	r2, r2, #65536
  98 0016 C3F8DC20 		str	r2, [r3, #220]
  99              		.loc 1 60 5 view .LVU17
 100 001a D3F8DC30 		ldr	r3, [r3, #220]
 101 001e 03F48033 		and	r3, r3, #65536
 102 0022 0193     		str	r3, [sp, #4]
 103              		.loc 1 60 5 view .LVU18
 104 0024 019B     		ldr	r3, [sp, #4]
 105              	.LBE2:
 106              		.loc 1 60 5 discriminator 1 view .LVU19
  61:Core/Src/fmac.c ****   /* USER CODE BEGIN FMAC_MspInit 1 */
  62:Core/Src/fmac.c **** 
  63:Core/Src/fmac.c ****   /* USER CODE END FMAC_MspInit 1 */
  64:Core/Src/fmac.c ****   }
  65:Core/Src/fmac.c **** }
 107              		.loc 1 65 1 is_stmt 0 view .LVU20
ARM GAS  C:\Users\thewo\AppData\Local\Temp\cc4HA2jG.s 			page 4


 108 0026 02B0     		add	sp, sp, #8
 109              		.cfi_def_cfa_offset 0
 110              		@ sp needed
 111 0028 7047     		bx	lr
 112              	.L15:
 113 002a 00BF     		.align	2
 114              	.L14:
 115 002c 00400248 		.word	1208107008
 116 0030 00440258 		.word	1476543488
 117              		.cfi_endproc
 118              	.LFE351:
 120              		.section	.text.HAL_FMAC_MspDeInit,"ax",%progbits
 121              		.align	1
 122              		.global	HAL_FMAC_MspDeInit
 123              		.syntax unified
 124              		.thumb
 125              		.thumb_func
 127              	HAL_FMAC_MspDeInit:
 128              	.LVL3:
 129              	.LFB352:
  66:Core/Src/fmac.c **** 
  67:Core/Src/fmac.c **** void HAL_FMAC_MspDeInit(FMAC_HandleTypeDef* fmacHandle)
  68:Core/Src/fmac.c **** {
 130              		.loc 1 68 1 is_stmt 1 view -0
 131              		.cfi_startproc
 132              		@ args = 0, pretend = 0, frame = 0
 133              		@ frame_needed = 0, uses_anonymous_args = 0
 134              		@ link register save eliminated.
  69:Core/Src/fmac.c **** 
  70:Core/Src/fmac.c ****   if(fmacHandle->Instance==FMAC)
 135              		.loc 1 70 3 view .LVU22
 136              		.loc 1 70 16 is_stmt 0 view .LVU23
 137 0000 0268     		ldr	r2, [r0]
 138              		.loc 1 70 5 view .LVU24
 139 0002 064B     		ldr	r3, .L19
 140 0004 9A42     		cmp	r2, r3
 141 0006 00D0     		beq	.L18
 142              	.L16:
  71:Core/Src/fmac.c ****   {
  72:Core/Src/fmac.c ****   /* USER CODE BEGIN FMAC_MspDeInit 0 */
  73:Core/Src/fmac.c **** 
  74:Core/Src/fmac.c ****   /* USER CODE END FMAC_MspDeInit 0 */
  75:Core/Src/fmac.c ****     /* Peripheral clock disable */
  76:Core/Src/fmac.c ****     __HAL_RCC_FMAC_CLK_DISABLE();
  77:Core/Src/fmac.c ****   /* USER CODE BEGIN FMAC_MspDeInit 1 */
  78:Core/Src/fmac.c **** 
  79:Core/Src/fmac.c ****   /* USER CODE END FMAC_MspDeInit 1 */
  80:Core/Src/fmac.c ****   }
  81:Core/Src/fmac.c **** }
 143              		.loc 1 81 1 view .LVU25
 144 0008 7047     		bx	lr
 145              	.L18:
  76:Core/Src/fmac.c ****   /* USER CODE BEGIN FMAC_MspDeInit 1 */
 146              		.loc 1 76 5 is_stmt 1 view .LVU26
 147 000a 054A     		ldr	r2, .L19+4
 148 000c D2F8DC30 		ldr	r3, [r2, #220]
 149 0010 23F48033 		bic	r3, r3, #65536
ARM GAS  C:\Users\thewo\AppData\Local\Temp\cc4HA2jG.s 			page 5


 150 0014 C2F8DC30 		str	r3, [r2, #220]
 151              		.loc 1 81 1 is_stmt 0 view .LVU27
 152 0018 F6E7     		b	.L16
 153              	.L20:
 154 001a 00BF     		.align	2
 155              	.L19:
 156 001c 00400248 		.word	1208107008
 157 0020 00440258 		.word	1476543488
 158              		.cfi_endproc
 159              	.LFE352:
 161              		.global	hfmac
 162              		.section	.bss.hfmac,"aw",%nobits
 163              		.align	2
 166              	hfmac:
 167 0000 00000000 		.space	56
 167      00000000 
 167      00000000 
 167      00000000 
 167      00000000 
 168              		.text
 169              	.Letext0:
 170              		.file 2 "C:/Users/thewo/AppData/Roaming/Code/User/globalStorage/bmd.stm32-for-vscode/@xpack-dev-to
 171              		.file 3 "C:/Users/thewo/AppData/Roaming/Code/User/globalStorage/bmd.stm32-for-vscode/@xpack-dev-to
 172              		.file 4 "Drivers/CMSIS/Device/ST/STM32H7xx/Include/stm32h725xx.h"
 173              		.file 5 "Drivers/STM32H7xx_HAL_Driver/Inc/stm32h7xx_hal_def.h"
 174              		.file 6 "Drivers/STM32H7xx_HAL_Driver/Inc/stm32h7xx_hal_dma.h"
 175              		.file 7 "Drivers/STM32H7xx_HAL_Driver/Inc/stm32h7xx_hal_fmac.h"
 176              		.file 8 "Core/Inc/fmac.h"
 177              		.file 9 "Core/Inc/main.h"
ARM GAS  C:\Users\thewo\AppData\Local\Temp\cc4HA2jG.s 			page 6

