ARM GAS  C:\Users\thewo\AppData\Local\Temp\ccu1yGO3.s 			page 1


   1              		.cpu cortex-m7
   2              		.arch armv7e-m
   3              		.fpu fpv5-d16
   4              		.eabi_attribute 28, 1
   5              		.eabi_attribute 20, 1
   6              		.eabi_attribute 21, 1
   7              		.eabi_attribute 23, 3
   8              		.eabi_attribute 24, 1
   9              		.eabi_attribute 25, 1
  10              		.eabi_attribute 26, 1
  11              		.eabi_attribute 30, 1
  12              		.eabi_attribute 34, 1
  13              		.eabi_attribute 18, 4
  14              		.file	"stm32h7xx_hal.c"
  15              		.text
  16              	.Ltext0:
  17              		.cfi_sections	.debug_frame
  18              		.file 1 "Drivers/STM32H7xx_HAL_Driver/Src/stm32h7xx_hal.c"
  19              		.section	.text.HAL_MspInit,"ax",%progbits
  20              		.align	1
  21              		.weak	HAL_MspInit
  22              		.syntax unified
  23              		.thumb
  24              		.thumb_func
  26              	HAL_MspInit:
  27              	.LFB352:
   1:Drivers/STM32H7xx_HAL_Driver/Src/stm32h7xx_hal.c **** /**
   2:Drivers/STM32H7xx_HAL_Driver/Src/stm32h7xx_hal.c ****   ******************************************************************************
   3:Drivers/STM32H7xx_HAL_Driver/Src/stm32h7xx_hal.c ****   * @file    stm32h7xx_hal.c
   4:Drivers/STM32H7xx_HAL_Driver/Src/stm32h7xx_hal.c ****   * @author  MCD Application Team
   5:Drivers/STM32H7xx_HAL_Driver/Src/stm32h7xx_hal.c ****   * @brief   HAL module driver.
   6:Drivers/STM32H7xx_HAL_Driver/Src/stm32h7xx_hal.c ****   *          This is the common part of the HAL initialization
   7:Drivers/STM32H7xx_HAL_Driver/Src/stm32h7xx_hal.c ****   *
   8:Drivers/STM32H7xx_HAL_Driver/Src/stm32h7xx_hal.c ****   ******************************************************************************
   9:Drivers/STM32H7xx_HAL_Driver/Src/stm32h7xx_hal.c ****   * @attention
  10:Drivers/STM32H7xx_HAL_Driver/Src/stm32h7xx_hal.c ****   *
  11:Drivers/STM32H7xx_HAL_Driver/Src/stm32h7xx_hal.c ****   * Copyright (c) 2017 STMicroelectronics.
  12:Drivers/STM32H7xx_HAL_Driver/Src/stm32h7xx_hal.c ****   * All rights reserved.
  13:Drivers/STM32H7xx_HAL_Driver/Src/stm32h7xx_hal.c ****   *
  14:Drivers/STM32H7xx_HAL_Driver/Src/stm32h7xx_hal.c ****   * This software is licensed under terms that can be found in the LICENSE file
  15:Drivers/STM32H7xx_HAL_Driver/Src/stm32h7xx_hal.c ****   * in the root directory of this software component.
  16:Drivers/STM32H7xx_HAL_Driver/Src/stm32h7xx_hal.c ****   * If no LICENSE file comes with this software, it is provided AS-IS.
  17:Drivers/STM32H7xx_HAL_Driver/Src/stm32h7xx_hal.c ****   *
  18:Drivers/STM32H7xx_HAL_Driver/Src/stm32h7xx_hal.c ****   ******************************************************************************
  19:Drivers/STM32H7xx_HAL_Driver/Src/stm32h7xx_hal.c ****   @verbatim
  20:Drivers/STM32H7xx_HAL_Driver/Src/stm32h7xx_hal.c ****   ==============================================================================
  21:Drivers/STM32H7xx_HAL_Driver/Src/stm32h7xx_hal.c ****                      ##### How to use this driver #####
  22:Drivers/STM32H7xx_HAL_Driver/Src/stm32h7xx_hal.c ****   ==============================================================================
  23:Drivers/STM32H7xx_HAL_Driver/Src/stm32h7xx_hal.c ****     [..]
  24:Drivers/STM32H7xx_HAL_Driver/Src/stm32h7xx_hal.c ****     The common HAL driver contains a set of generic and common APIs that can be
  25:Drivers/STM32H7xx_HAL_Driver/Src/stm32h7xx_hal.c ****     used by the PPP peripheral drivers and the user to start using the HAL.
  26:Drivers/STM32H7xx_HAL_Driver/Src/stm32h7xx_hal.c ****     [..]
  27:Drivers/STM32H7xx_HAL_Driver/Src/stm32h7xx_hal.c ****     The HAL contains two APIs' categories:
  28:Drivers/STM32H7xx_HAL_Driver/Src/stm32h7xx_hal.c ****          (+) Common HAL APIs
  29:Drivers/STM32H7xx_HAL_Driver/Src/stm32h7xx_hal.c ****          (+) Services HAL APIs
  30:Drivers/STM32H7xx_HAL_Driver/Src/stm32h7xx_hal.c **** 
  31:Drivers/STM32H7xx_HAL_Driver/Src/stm32h7xx_hal.c ****   @endverbatim
ARM GAS  C:\Users\thewo\AppData\Local\Temp\ccu1yGO3.s 			page 2


  32:Drivers/STM32H7xx_HAL_Driver/Src/stm32h7xx_hal.c ****   ******************************************************************************
  33:Drivers/STM32H7xx_HAL_Driver/Src/stm32h7xx_hal.c ****   */
  34:Drivers/STM32H7xx_HAL_Driver/Src/stm32h7xx_hal.c **** 
  35:Drivers/STM32H7xx_HAL_Driver/Src/stm32h7xx_hal.c **** /* Includes ------------------------------------------------------------------*/
  36:Drivers/STM32H7xx_HAL_Driver/Src/stm32h7xx_hal.c **** #include "stm32h7xx_hal.h"
  37:Drivers/STM32H7xx_HAL_Driver/Src/stm32h7xx_hal.c **** 
  38:Drivers/STM32H7xx_HAL_Driver/Src/stm32h7xx_hal.c **** /** @addtogroup STM32H7xx_HAL_Driver
  39:Drivers/STM32H7xx_HAL_Driver/Src/stm32h7xx_hal.c ****   * @{
  40:Drivers/STM32H7xx_HAL_Driver/Src/stm32h7xx_hal.c ****   */
  41:Drivers/STM32H7xx_HAL_Driver/Src/stm32h7xx_hal.c **** 
  42:Drivers/STM32H7xx_HAL_Driver/Src/stm32h7xx_hal.c **** /** @defgroup HAL  HAL
  43:Drivers/STM32H7xx_HAL_Driver/Src/stm32h7xx_hal.c ****   * @brief HAL module driver.
  44:Drivers/STM32H7xx_HAL_Driver/Src/stm32h7xx_hal.c ****   * @{
  45:Drivers/STM32H7xx_HAL_Driver/Src/stm32h7xx_hal.c ****   */
  46:Drivers/STM32H7xx_HAL_Driver/Src/stm32h7xx_hal.c **** 
  47:Drivers/STM32H7xx_HAL_Driver/Src/stm32h7xx_hal.c **** /* Private typedef -----------------------------------------------------------*/
  48:Drivers/STM32H7xx_HAL_Driver/Src/stm32h7xx_hal.c **** /* Private define ------------------------------------------------------------*/
  49:Drivers/STM32H7xx_HAL_Driver/Src/stm32h7xx_hal.c **** /**
  50:Drivers/STM32H7xx_HAL_Driver/Src/stm32h7xx_hal.c ****  * @brief STM32H7xx HAL Driver version number
  51:Drivers/STM32H7xx_HAL_Driver/Src/stm32h7xx_hal.c ****    */
  52:Drivers/STM32H7xx_HAL_Driver/Src/stm32h7xx_hal.c **** #define __STM32H7xx_HAL_VERSION_MAIN   (0x01UL) /*!< [31:24] main version */
  53:Drivers/STM32H7xx_HAL_Driver/Src/stm32h7xx_hal.c **** #define __STM32H7xx_HAL_VERSION_SUB1   (0x0BUL) /*!< [23:16] sub1 version */
  54:Drivers/STM32H7xx_HAL_Driver/Src/stm32h7xx_hal.c **** #define __STM32H7xx_HAL_VERSION_SUB2   (0x05UL) /*!< [15:8]  sub2 version */
  55:Drivers/STM32H7xx_HAL_Driver/Src/stm32h7xx_hal.c **** #define __STM32H7xx_HAL_VERSION_RC     (0x00UL) /*!< [7:0]  release candidate */
  56:Drivers/STM32H7xx_HAL_Driver/Src/stm32h7xx_hal.c **** #define __STM32H7xx_HAL_VERSION         ((__STM32H7xx_HAL_VERSION_MAIN << 24)\
  57:Drivers/STM32H7xx_HAL_Driver/Src/stm32h7xx_hal.c ****                                         |(__STM32H7xx_HAL_VERSION_SUB1 << 16)\
  58:Drivers/STM32H7xx_HAL_Driver/Src/stm32h7xx_hal.c ****                                         |(__STM32H7xx_HAL_VERSION_SUB2 << 8 )\
  59:Drivers/STM32H7xx_HAL_Driver/Src/stm32h7xx_hal.c ****                                         |(__STM32H7xx_HAL_VERSION_RC))
  60:Drivers/STM32H7xx_HAL_Driver/Src/stm32h7xx_hal.c **** 
  61:Drivers/STM32H7xx_HAL_Driver/Src/stm32h7xx_hal.c **** #define IDCODE_DEVID_MASK    ((uint32_t)0x00000FFF)
  62:Drivers/STM32H7xx_HAL_Driver/Src/stm32h7xx_hal.c **** #define VREFBUF_TIMEOUT_VALUE     (uint32_t)10   /* 10 ms  */
  63:Drivers/STM32H7xx_HAL_Driver/Src/stm32h7xx_hal.c **** 
  64:Drivers/STM32H7xx_HAL_Driver/Src/stm32h7xx_hal.c **** /* Private macro -------------------------------------------------------------*/
  65:Drivers/STM32H7xx_HAL_Driver/Src/stm32h7xx_hal.c **** /* Private variables ---------------------------------------------------------*/
  66:Drivers/STM32H7xx_HAL_Driver/Src/stm32h7xx_hal.c **** /* Exported variables --------------------------------------------------------*/
  67:Drivers/STM32H7xx_HAL_Driver/Src/stm32h7xx_hal.c **** 
  68:Drivers/STM32H7xx_HAL_Driver/Src/stm32h7xx_hal.c **** /** @defgroup HAL_Exported_Variables HAL Exported Variables
  69:Drivers/STM32H7xx_HAL_Driver/Src/stm32h7xx_hal.c ****   * @{
  70:Drivers/STM32H7xx_HAL_Driver/Src/stm32h7xx_hal.c ****   */
  71:Drivers/STM32H7xx_HAL_Driver/Src/stm32h7xx_hal.c **** __IO uint32_t uwTick;
  72:Drivers/STM32H7xx_HAL_Driver/Src/stm32h7xx_hal.c **** uint32_t uwTickPrio   = (1UL << __NVIC_PRIO_BITS); /* Invalid PRIO */
  73:Drivers/STM32H7xx_HAL_Driver/Src/stm32h7xx_hal.c **** HAL_TickFreqTypeDef uwTickFreq = HAL_TICK_FREQ_DEFAULT;  /* 1KHz */
  74:Drivers/STM32H7xx_HAL_Driver/Src/stm32h7xx_hal.c **** /**
  75:Drivers/STM32H7xx_HAL_Driver/Src/stm32h7xx_hal.c ****   * @}
  76:Drivers/STM32H7xx_HAL_Driver/Src/stm32h7xx_hal.c ****   */
  77:Drivers/STM32H7xx_HAL_Driver/Src/stm32h7xx_hal.c **** 
  78:Drivers/STM32H7xx_HAL_Driver/Src/stm32h7xx_hal.c **** /* Private function prototypes -----------------------------------------------*/
  79:Drivers/STM32H7xx_HAL_Driver/Src/stm32h7xx_hal.c **** /* Private functions ---------------------------------------------------------*/
  80:Drivers/STM32H7xx_HAL_Driver/Src/stm32h7xx_hal.c **** 
  81:Drivers/STM32H7xx_HAL_Driver/Src/stm32h7xx_hal.c **** /** @addtogroup HAL_Exported_Functions
  82:Drivers/STM32H7xx_HAL_Driver/Src/stm32h7xx_hal.c ****   * @{
  83:Drivers/STM32H7xx_HAL_Driver/Src/stm32h7xx_hal.c ****   */
  84:Drivers/STM32H7xx_HAL_Driver/Src/stm32h7xx_hal.c **** 
  85:Drivers/STM32H7xx_HAL_Driver/Src/stm32h7xx_hal.c **** /** @addtogroup HAL_Group1
  86:Drivers/STM32H7xx_HAL_Driver/Src/stm32h7xx_hal.c ****  *  @brief    Initialization and de-initialization functions
  87:Drivers/STM32H7xx_HAL_Driver/Src/stm32h7xx_hal.c ****  *
  88:Drivers/STM32H7xx_HAL_Driver/Src/stm32h7xx_hal.c **** @verbatim
ARM GAS  C:\Users\thewo\AppData\Local\Temp\ccu1yGO3.s 			page 3


  89:Drivers/STM32H7xx_HAL_Driver/Src/stm32h7xx_hal.c ****  ===============================================================================
  90:Drivers/STM32H7xx_HAL_Driver/Src/stm32h7xx_hal.c ****               ##### Initialization and de-initialization functions #####
  91:Drivers/STM32H7xx_HAL_Driver/Src/stm32h7xx_hal.c ****  ===============================================================================
  92:Drivers/STM32H7xx_HAL_Driver/Src/stm32h7xx_hal.c ****     [..]  This section provides functions allowing to:
  93:Drivers/STM32H7xx_HAL_Driver/Src/stm32h7xx_hal.c ****       (+) Initializes the Flash interface the NVIC allocation and initial clock
  94:Drivers/STM32H7xx_HAL_Driver/Src/stm32h7xx_hal.c ****           configuration. It initializes the systick also when timeout is needed
  95:Drivers/STM32H7xx_HAL_Driver/Src/stm32h7xx_hal.c ****           and the backup domain when enabled.
  96:Drivers/STM32H7xx_HAL_Driver/Src/stm32h7xx_hal.c ****       (+) De-Initializes common part of the HAL.
  97:Drivers/STM32H7xx_HAL_Driver/Src/stm32h7xx_hal.c ****       (+) Configure The time base source to have 1ms time base with a dedicated
  98:Drivers/STM32H7xx_HAL_Driver/Src/stm32h7xx_hal.c ****           Tick interrupt priority.
  99:Drivers/STM32H7xx_HAL_Driver/Src/stm32h7xx_hal.c ****         (++) SysTick timer is used by default as source of time base, but user
 100:Drivers/STM32H7xx_HAL_Driver/Src/stm32h7xx_hal.c ****              can eventually implement his proper time base source (a general purpose
 101:Drivers/STM32H7xx_HAL_Driver/Src/stm32h7xx_hal.c ****              timer for example or other time source), keeping in mind that Time base
 102:Drivers/STM32H7xx_HAL_Driver/Src/stm32h7xx_hal.c ****              duration should be kept 1ms since PPP_TIMEOUT_VALUEs are defined and
 103:Drivers/STM32H7xx_HAL_Driver/Src/stm32h7xx_hal.c ****              handled in milliseconds basis.
 104:Drivers/STM32H7xx_HAL_Driver/Src/stm32h7xx_hal.c ****         (++) Time base configuration function (HAL_InitTick ()) is called automatically
 105:Drivers/STM32H7xx_HAL_Driver/Src/stm32h7xx_hal.c ****              at the beginning of the program after reset by HAL_Init() or at any time
 106:Drivers/STM32H7xx_HAL_Driver/Src/stm32h7xx_hal.c ****              when clock is configured, by HAL_RCC_ClockConfig().
 107:Drivers/STM32H7xx_HAL_Driver/Src/stm32h7xx_hal.c ****         (++) Source of time base is configured  to generate interrupts at regular
 108:Drivers/STM32H7xx_HAL_Driver/Src/stm32h7xx_hal.c ****              time intervals. Care must be taken if HAL_Delay() is called from a
 109:Drivers/STM32H7xx_HAL_Driver/Src/stm32h7xx_hal.c ****              peripheral ISR process, the Tick interrupt line must have higher priority
 110:Drivers/STM32H7xx_HAL_Driver/Src/stm32h7xx_hal.c ****             (numerically lower) than the peripheral interrupt. Otherwise the caller
 111:Drivers/STM32H7xx_HAL_Driver/Src/stm32h7xx_hal.c ****             ISR process will be blocked.
 112:Drivers/STM32H7xx_HAL_Driver/Src/stm32h7xx_hal.c ****        (++) functions affecting time base configurations are declared as __weak
 113:Drivers/STM32H7xx_HAL_Driver/Src/stm32h7xx_hal.c ****              to make  override possible  in case of other  implementations in user file.
 114:Drivers/STM32H7xx_HAL_Driver/Src/stm32h7xx_hal.c **** @endverbatim
 115:Drivers/STM32H7xx_HAL_Driver/Src/stm32h7xx_hal.c ****   * @{
 116:Drivers/STM32H7xx_HAL_Driver/Src/stm32h7xx_hal.c ****   */
 117:Drivers/STM32H7xx_HAL_Driver/Src/stm32h7xx_hal.c **** 
 118:Drivers/STM32H7xx_HAL_Driver/Src/stm32h7xx_hal.c **** /**
 119:Drivers/STM32H7xx_HAL_Driver/Src/stm32h7xx_hal.c ****   * @brief  This function is used to initialize the HAL Library; it must be the first
 120:Drivers/STM32H7xx_HAL_Driver/Src/stm32h7xx_hal.c ****   *         instruction to be executed in the main program (before to call any other
 121:Drivers/STM32H7xx_HAL_Driver/Src/stm32h7xx_hal.c ****   *         HAL function), it performs the following:
 122:Drivers/STM32H7xx_HAL_Driver/Src/stm32h7xx_hal.c ****   *           Configures the SysTick to generate an interrupt each 1 millisecond,
 123:Drivers/STM32H7xx_HAL_Driver/Src/stm32h7xx_hal.c ****   *           which is clocked by the HSI (at this stage, the clock is not yet
 124:Drivers/STM32H7xx_HAL_Driver/Src/stm32h7xx_hal.c ****   *           configured and thus the system is running from the internal HSI at 16 MHz).
 125:Drivers/STM32H7xx_HAL_Driver/Src/stm32h7xx_hal.c ****   *           Set NVIC Group Priority to 4.
 126:Drivers/STM32H7xx_HAL_Driver/Src/stm32h7xx_hal.c ****   *           Calls the HAL_MspInit() callback function defined in user file
 127:Drivers/STM32H7xx_HAL_Driver/Src/stm32h7xx_hal.c ****   *           "stm32h7xx_hal_msp.c" to do the global low level hardware initialization
 128:Drivers/STM32H7xx_HAL_Driver/Src/stm32h7xx_hal.c ****   *
 129:Drivers/STM32H7xx_HAL_Driver/Src/stm32h7xx_hal.c ****   * @note   SysTick is used as time base for the HAL_Delay() function, the application
 130:Drivers/STM32H7xx_HAL_Driver/Src/stm32h7xx_hal.c ****   *         need to ensure that the SysTick time base is always set to 1 millisecond
 131:Drivers/STM32H7xx_HAL_Driver/Src/stm32h7xx_hal.c ****   *         to have correct HAL operation.
 132:Drivers/STM32H7xx_HAL_Driver/Src/stm32h7xx_hal.c ****   * @retval HAL status
 133:Drivers/STM32H7xx_HAL_Driver/Src/stm32h7xx_hal.c ****   */
 134:Drivers/STM32H7xx_HAL_Driver/Src/stm32h7xx_hal.c **** HAL_StatusTypeDef HAL_Init(void)
 135:Drivers/STM32H7xx_HAL_Driver/Src/stm32h7xx_hal.c **** {
 136:Drivers/STM32H7xx_HAL_Driver/Src/stm32h7xx_hal.c **** 
 137:Drivers/STM32H7xx_HAL_Driver/Src/stm32h7xx_hal.c **** uint32_t common_system_clock;
 138:Drivers/STM32H7xx_HAL_Driver/Src/stm32h7xx_hal.c **** 
 139:Drivers/STM32H7xx_HAL_Driver/Src/stm32h7xx_hal.c **** #if defined(DUAL_CORE) && defined(CORE_CM4)
 140:Drivers/STM32H7xx_HAL_Driver/Src/stm32h7xx_hal.c ****    /* Configure Cortex-M4 Instruction cache through ART accelerator */
 141:Drivers/STM32H7xx_HAL_Driver/Src/stm32h7xx_hal.c ****    __HAL_RCC_ART_CLK_ENABLE();                   /* Enable the Cortex-M4 ART Clock */
 142:Drivers/STM32H7xx_HAL_Driver/Src/stm32h7xx_hal.c ****    __HAL_ART_CONFIG_BASE_ADDRESS(0x08100000UL);  /* Configure the Cortex-M4 ART Base address to the
 143:Drivers/STM32H7xx_HAL_Driver/Src/stm32h7xx_hal.c ****    __HAL_ART_ENABLE();                           /* Enable the Cortex-M4 ART */
 144:Drivers/STM32H7xx_HAL_Driver/Src/stm32h7xx_hal.c **** #endif /* DUAL_CORE &&  CORE_CM4 */
 145:Drivers/STM32H7xx_HAL_Driver/Src/stm32h7xx_hal.c **** 
ARM GAS  C:\Users\thewo\AppData\Local\Temp\ccu1yGO3.s 			page 4


 146:Drivers/STM32H7xx_HAL_Driver/Src/stm32h7xx_hal.c ****   /* Set Interrupt Group Priority */
 147:Drivers/STM32H7xx_HAL_Driver/Src/stm32h7xx_hal.c ****   HAL_NVIC_SetPriorityGrouping(NVIC_PRIORITYGROUP_4);
 148:Drivers/STM32H7xx_HAL_Driver/Src/stm32h7xx_hal.c **** 
 149:Drivers/STM32H7xx_HAL_Driver/Src/stm32h7xx_hal.c ****   /* Update the SystemCoreClock global variable */
 150:Drivers/STM32H7xx_HAL_Driver/Src/stm32h7xx_hal.c **** #if defined(RCC_D1CFGR_D1CPRE)
 151:Drivers/STM32H7xx_HAL_Driver/Src/stm32h7xx_hal.c ****   common_system_clock = HAL_RCC_GetSysClockFreq() >> ((D1CorePrescTable[(RCC->D1CFGR & RCC_D1CFGR_D
 152:Drivers/STM32H7xx_HAL_Driver/Src/stm32h7xx_hal.c **** #else
 153:Drivers/STM32H7xx_HAL_Driver/Src/stm32h7xx_hal.c ****   common_system_clock = HAL_RCC_GetSysClockFreq() >> ((D1CorePrescTable[(RCC->CDCFGR1 & RCC_CDCFGR1
 154:Drivers/STM32H7xx_HAL_Driver/Src/stm32h7xx_hal.c **** #endif
 155:Drivers/STM32H7xx_HAL_Driver/Src/stm32h7xx_hal.c **** 
 156:Drivers/STM32H7xx_HAL_Driver/Src/stm32h7xx_hal.c ****   /* Update the SystemD2Clock global variable */
 157:Drivers/STM32H7xx_HAL_Driver/Src/stm32h7xx_hal.c **** #if defined(RCC_D1CFGR_HPRE)
 158:Drivers/STM32H7xx_HAL_Driver/Src/stm32h7xx_hal.c ****   SystemD2Clock = (common_system_clock >> ((D1CorePrescTable[(RCC->D1CFGR & RCC_D1CFGR_HPRE)>> RCC_
 159:Drivers/STM32H7xx_HAL_Driver/Src/stm32h7xx_hal.c **** #else
 160:Drivers/STM32H7xx_HAL_Driver/Src/stm32h7xx_hal.c ****   SystemD2Clock = (common_system_clock >> ((D1CorePrescTable[(RCC->CDCFGR1 & RCC_CDCFGR1_HPRE)>> RC
 161:Drivers/STM32H7xx_HAL_Driver/Src/stm32h7xx_hal.c **** #endif
 162:Drivers/STM32H7xx_HAL_Driver/Src/stm32h7xx_hal.c **** 
 163:Drivers/STM32H7xx_HAL_Driver/Src/stm32h7xx_hal.c **** #if defined(DUAL_CORE) && defined(CORE_CM4)
 164:Drivers/STM32H7xx_HAL_Driver/Src/stm32h7xx_hal.c ****   SystemCoreClock = SystemD2Clock;
 165:Drivers/STM32H7xx_HAL_Driver/Src/stm32h7xx_hal.c **** #else
 166:Drivers/STM32H7xx_HAL_Driver/Src/stm32h7xx_hal.c ****   SystemCoreClock = common_system_clock;
 167:Drivers/STM32H7xx_HAL_Driver/Src/stm32h7xx_hal.c **** #endif /* DUAL_CORE && CORE_CM4 */
 168:Drivers/STM32H7xx_HAL_Driver/Src/stm32h7xx_hal.c **** 
 169:Drivers/STM32H7xx_HAL_Driver/Src/stm32h7xx_hal.c ****   /* Use systick as time base source and configure 1ms tick (default clock after Reset is HSI) */
 170:Drivers/STM32H7xx_HAL_Driver/Src/stm32h7xx_hal.c ****   if(HAL_InitTick(TICK_INT_PRIORITY) != HAL_OK)
 171:Drivers/STM32H7xx_HAL_Driver/Src/stm32h7xx_hal.c ****   {
 172:Drivers/STM32H7xx_HAL_Driver/Src/stm32h7xx_hal.c ****     return HAL_ERROR;
 173:Drivers/STM32H7xx_HAL_Driver/Src/stm32h7xx_hal.c ****   }
 174:Drivers/STM32H7xx_HAL_Driver/Src/stm32h7xx_hal.c **** 
 175:Drivers/STM32H7xx_HAL_Driver/Src/stm32h7xx_hal.c ****   /* Init the low level hardware */
 176:Drivers/STM32H7xx_HAL_Driver/Src/stm32h7xx_hal.c ****   HAL_MspInit();
 177:Drivers/STM32H7xx_HAL_Driver/Src/stm32h7xx_hal.c **** 
 178:Drivers/STM32H7xx_HAL_Driver/Src/stm32h7xx_hal.c ****   /* Return function status */
 179:Drivers/STM32H7xx_HAL_Driver/Src/stm32h7xx_hal.c ****   return HAL_OK;
 180:Drivers/STM32H7xx_HAL_Driver/Src/stm32h7xx_hal.c **** }
 181:Drivers/STM32H7xx_HAL_Driver/Src/stm32h7xx_hal.c **** 
 182:Drivers/STM32H7xx_HAL_Driver/Src/stm32h7xx_hal.c **** /**
 183:Drivers/STM32H7xx_HAL_Driver/Src/stm32h7xx_hal.c ****   * @brief  This function de-Initializes common part of the HAL and stops the systick.
 184:Drivers/STM32H7xx_HAL_Driver/Src/stm32h7xx_hal.c ****   *         This function is optional.
 185:Drivers/STM32H7xx_HAL_Driver/Src/stm32h7xx_hal.c ****   * @retval HAL status
 186:Drivers/STM32H7xx_HAL_Driver/Src/stm32h7xx_hal.c ****   */
 187:Drivers/STM32H7xx_HAL_Driver/Src/stm32h7xx_hal.c **** HAL_StatusTypeDef HAL_DeInit(void)
 188:Drivers/STM32H7xx_HAL_Driver/Src/stm32h7xx_hal.c **** {
 189:Drivers/STM32H7xx_HAL_Driver/Src/stm32h7xx_hal.c ****   /* Reset of all peripherals */
 190:Drivers/STM32H7xx_HAL_Driver/Src/stm32h7xx_hal.c ****   __HAL_RCC_AHB3_FORCE_RESET();
 191:Drivers/STM32H7xx_HAL_Driver/Src/stm32h7xx_hal.c ****   __HAL_RCC_AHB3_RELEASE_RESET();
 192:Drivers/STM32H7xx_HAL_Driver/Src/stm32h7xx_hal.c **** 
 193:Drivers/STM32H7xx_HAL_Driver/Src/stm32h7xx_hal.c ****   __HAL_RCC_AHB1_FORCE_RESET();
 194:Drivers/STM32H7xx_HAL_Driver/Src/stm32h7xx_hal.c ****   __HAL_RCC_AHB1_RELEASE_RESET();
 195:Drivers/STM32H7xx_HAL_Driver/Src/stm32h7xx_hal.c **** 
 196:Drivers/STM32H7xx_HAL_Driver/Src/stm32h7xx_hal.c ****   __HAL_RCC_AHB2_FORCE_RESET();
 197:Drivers/STM32H7xx_HAL_Driver/Src/stm32h7xx_hal.c ****   __HAL_RCC_AHB2_RELEASE_RESET();
 198:Drivers/STM32H7xx_HAL_Driver/Src/stm32h7xx_hal.c **** 
 199:Drivers/STM32H7xx_HAL_Driver/Src/stm32h7xx_hal.c ****   __HAL_RCC_AHB4_FORCE_RESET();
 200:Drivers/STM32H7xx_HAL_Driver/Src/stm32h7xx_hal.c ****  __HAL_RCC_AHB4_RELEASE_RESET();
 201:Drivers/STM32H7xx_HAL_Driver/Src/stm32h7xx_hal.c **** 
 202:Drivers/STM32H7xx_HAL_Driver/Src/stm32h7xx_hal.c ****   __HAL_RCC_APB3_FORCE_RESET();
ARM GAS  C:\Users\thewo\AppData\Local\Temp\ccu1yGO3.s 			page 5


 203:Drivers/STM32H7xx_HAL_Driver/Src/stm32h7xx_hal.c ****   __HAL_RCC_APB3_RELEASE_RESET();
 204:Drivers/STM32H7xx_HAL_Driver/Src/stm32h7xx_hal.c **** 
 205:Drivers/STM32H7xx_HAL_Driver/Src/stm32h7xx_hal.c ****   __HAL_RCC_APB1L_FORCE_RESET();
 206:Drivers/STM32H7xx_HAL_Driver/Src/stm32h7xx_hal.c ****   __HAL_RCC_APB1L_RELEASE_RESET();
 207:Drivers/STM32H7xx_HAL_Driver/Src/stm32h7xx_hal.c **** 
 208:Drivers/STM32H7xx_HAL_Driver/Src/stm32h7xx_hal.c ****   __HAL_RCC_APB1H_FORCE_RESET();
 209:Drivers/STM32H7xx_HAL_Driver/Src/stm32h7xx_hal.c ****   __HAL_RCC_APB1H_RELEASE_RESET();
 210:Drivers/STM32H7xx_HAL_Driver/Src/stm32h7xx_hal.c **** 
 211:Drivers/STM32H7xx_HAL_Driver/Src/stm32h7xx_hal.c ****    __HAL_RCC_APB2_FORCE_RESET();
 212:Drivers/STM32H7xx_HAL_Driver/Src/stm32h7xx_hal.c ****    __HAL_RCC_APB2_RELEASE_RESET();
 213:Drivers/STM32H7xx_HAL_Driver/Src/stm32h7xx_hal.c **** 
 214:Drivers/STM32H7xx_HAL_Driver/Src/stm32h7xx_hal.c ****   __HAL_RCC_APB4_FORCE_RESET();
 215:Drivers/STM32H7xx_HAL_Driver/Src/stm32h7xx_hal.c ****   __HAL_RCC_APB4_RELEASE_RESET();
 216:Drivers/STM32H7xx_HAL_Driver/Src/stm32h7xx_hal.c **** 
 217:Drivers/STM32H7xx_HAL_Driver/Src/stm32h7xx_hal.c ****   /* De-Init the low level hardware */
 218:Drivers/STM32H7xx_HAL_Driver/Src/stm32h7xx_hal.c ****   HAL_MspDeInit();
 219:Drivers/STM32H7xx_HAL_Driver/Src/stm32h7xx_hal.c **** 
 220:Drivers/STM32H7xx_HAL_Driver/Src/stm32h7xx_hal.c ****   /* Return function status */
 221:Drivers/STM32H7xx_HAL_Driver/Src/stm32h7xx_hal.c ****   return HAL_OK;
 222:Drivers/STM32H7xx_HAL_Driver/Src/stm32h7xx_hal.c **** }
 223:Drivers/STM32H7xx_HAL_Driver/Src/stm32h7xx_hal.c **** 
 224:Drivers/STM32H7xx_HAL_Driver/Src/stm32h7xx_hal.c **** /**
 225:Drivers/STM32H7xx_HAL_Driver/Src/stm32h7xx_hal.c ****   * @brief  Initializes the MSP.
 226:Drivers/STM32H7xx_HAL_Driver/Src/stm32h7xx_hal.c ****   * @retval None
 227:Drivers/STM32H7xx_HAL_Driver/Src/stm32h7xx_hal.c ****   */
 228:Drivers/STM32H7xx_HAL_Driver/Src/stm32h7xx_hal.c **** __weak void HAL_MspInit(void)
 229:Drivers/STM32H7xx_HAL_Driver/Src/stm32h7xx_hal.c **** {
  28              		.loc 1 229 1 view -0
  29              		.cfi_startproc
  30              		@ args = 0, pretend = 0, frame = 0
  31              		@ frame_needed = 0, uses_anonymous_args = 0
  32              		@ link register save eliminated.
 230:Drivers/STM32H7xx_HAL_Driver/Src/stm32h7xx_hal.c ****   /* NOTE : This function Should not be modified, when the callback is needed,
 231:Drivers/STM32H7xx_HAL_Driver/Src/stm32h7xx_hal.c ****             the HAL_MspInit could be implemented in the user file
 232:Drivers/STM32H7xx_HAL_Driver/Src/stm32h7xx_hal.c ****    */
 233:Drivers/STM32H7xx_HAL_Driver/Src/stm32h7xx_hal.c **** }
  33              		.loc 1 233 1 view .LVU1
  34 0000 7047     		bx	lr
  35              		.cfi_endproc
  36              	.LFE352:
  38              		.section	.text.HAL_MspDeInit,"ax",%progbits
  39              		.align	1
  40              		.weak	HAL_MspDeInit
  41              		.syntax unified
  42              		.thumb
  43              		.thumb_func
  45              	HAL_MspDeInit:
  46              	.LFB353:
 234:Drivers/STM32H7xx_HAL_Driver/Src/stm32h7xx_hal.c **** 
 235:Drivers/STM32H7xx_HAL_Driver/Src/stm32h7xx_hal.c **** /**
 236:Drivers/STM32H7xx_HAL_Driver/Src/stm32h7xx_hal.c ****   * @brief  DeInitializes the MSP.
 237:Drivers/STM32H7xx_HAL_Driver/Src/stm32h7xx_hal.c ****   * @retval None
 238:Drivers/STM32H7xx_HAL_Driver/Src/stm32h7xx_hal.c ****   */
 239:Drivers/STM32H7xx_HAL_Driver/Src/stm32h7xx_hal.c **** __weak void HAL_MspDeInit(void)
 240:Drivers/STM32H7xx_HAL_Driver/Src/stm32h7xx_hal.c **** {
  47              		.loc 1 240 1 view -0
  48              		.cfi_startproc
ARM GAS  C:\Users\thewo\AppData\Local\Temp\ccu1yGO3.s 			page 6


  49              		@ args = 0, pretend = 0, frame = 0
  50              		@ frame_needed = 0, uses_anonymous_args = 0
  51              		@ link register save eliminated.
 241:Drivers/STM32H7xx_HAL_Driver/Src/stm32h7xx_hal.c ****   /* NOTE : This function Should not be modified, when the callback is needed,
 242:Drivers/STM32H7xx_HAL_Driver/Src/stm32h7xx_hal.c ****             the HAL_MspDeInit could be implemented in the user file
 243:Drivers/STM32H7xx_HAL_Driver/Src/stm32h7xx_hal.c ****    */
 244:Drivers/STM32H7xx_HAL_Driver/Src/stm32h7xx_hal.c **** }
  52              		.loc 1 244 1 view .LVU3
  53 0000 7047     		bx	lr
  54              		.cfi_endproc
  55              	.LFE353:
  57              		.section	.text.HAL_DeInit,"ax",%progbits
  58              		.align	1
  59              		.global	HAL_DeInit
  60              		.syntax unified
  61              		.thumb
  62              		.thumb_func
  64              	HAL_DeInit:
  65              	.LFB351:
 188:Drivers/STM32H7xx_HAL_Driver/Src/stm32h7xx_hal.c ****   /* Reset of all peripherals */
  66              		.loc 1 188 1 view -0
  67              		.cfi_startproc
  68              		@ args = 0, pretend = 0, frame = 0
  69              		@ frame_needed = 0, uses_anonymous_args = 0
  70 0000 10B5     		push	{r4, lr}
  71              		.cfi_def_cfa_offset 8
  72              		.cfi_offset 4, -8
  73              		.cfi_offset 14, -4
 190:Drivers/STM32H7xx_HAL_Driver/Src/stm32h7xx_hal.c ****   __HAL_RCC_AHB3_RELEASE_RESET();
  74              		.loc 1 190 3 view .LVU5
  75 0002 1B4B     		ldr	r3, .L5
  76 0004 1B4A     		ldr	r2, .L5+4
  77 0006 DA67     		str	r2, [r3, #124]
 191:Drivers/STM32H7xx_HAL_Driver/Src/stm32h7xx_hal.c **** 
  78              		.loc 1 191 3 view .LVU6
  79 0008 0024     		movs	r4, #0
  80 000a DC67     		str	r4, [r3, #124]
 193:Drivers/STM32H7xx_HAL_Driver/Src/stm32h7xx_hal.c ****   __HAL_RCC_AHB1_RELEASE_RESET();
  81              		.loc 1 193 3 view .LVU7
  82 000c 1A4A     		ldr	r2, .L5+8
  83 000e C3F88020 		str	r2, [r3, #128]
 194:Drivers/STM32H7xx_HAL_Driver/Src/stm32h7xx_hal.c **** 
  84              		.loc 1 194 3 view .LVU8
  85 0012 C3F88040 		str	r4, [r3, #128]
 196:Drivers/STM32H7xx_HAL_Driver/Src/stm32h7xx_hal.c ****   __HAL_RCC_AHB2_RELEASE_RESET();
  86              		.loc 1 196 3 view .LVU9
  87 0016 194A     		ldr	r2, .L5+12
  88 0018 C3F88420 		str	r2, [r3, #132]
 197:Drivers/STM32H7xx_HAL_Driver/Src/stm32h7xx_hal.c **** 
  89              		.loc 1 197 3 view .LVU10
  90 001c C3F88440 		str	r4, [r3, #132]
 199:Drivers/STM32H7xx_HAL_Driver/Src/stm32h7xx_hal.c ****  __HAL_RCC_AHB4_RELEASE_RESET();
  91              		.loc 1 199 3 view .LVU11
  92 0020 174A     		ldr	r2, .L5+16
  93 0022 C3F88820 		str	r2, [r3, #136]
 200:Drivers/STM32H7xx_HAL_Driver/Src/stm32h7xx_hal.c **** 
  94              		.loc 1 200 2 view .LVU12
ARM GAS  C:\Users\thewo\AppData\Local\Temp\ccu1yGO3.s 			page 7


  95 0026 C3F88840 		str	r4, [r3, #136]
 202:Drivers/STM32H7xx_HAL_Driver/Src/stm32h7xx_hal.c ****   __HAL_RCC_APB3_RELEASE_RESET();
  96              		.loc 1 202 3 view .LVU13
  97 002a 0822     		movs	r2, #8
  98 002c C3F88C20 		str	r2, [r3, #140]
 203:Drivers/STM32H7xx_HAL_Driver/Src/stm32h7xx_hal.c **** 
  99              		.loc 1 203 3 view .LVU14
 100 0030 C3F88C40 		str	r4, [r3, #140]
 205:Drivers/STM32H7xx_HAL_Driver/Src/stm32h7xx_hal.c ****   __HAL_RCC_APB1L_RELEASE_RESET();
 101              		.loc 1 205 3 view .LVU15
 102 0034 134A     		ldr	r2, .L5+20
 103 0036 C3F89020 		str	r2, [r3, #144]
 206:Drivers/STM32H7xx_HAL_Driver/Src/stm32h7xx_hal.c **** 
 104              		.loc 1 206 3 view .LVU16
 105 003a C3F89040 		str	r4, [r3, #144]
 208:Drivers/STM32H7xx_HAL_Driver/Src/stm32h7xx_hal.c ****   __HAL_RCC_APB1H_RELEASE_RESET();
 106              		.loc 1 208 3 view .LVU17
 107 003e 124A     		ldr	r2, .L5+24
 108 0040 C3F89420 		str	r2, [r3, #148]
 209:Drivers/STM32H7xx_HAL_Driver/Src/stm32h7xx_hal.c **** 
 109              		.loc 1 209 3 view .LVU18
 110 0044 C3F89440 		str	r4, [r3, #148]
 211:Drivers/STM32H7xx_HAL_Driver/Src/stm32h7xx_hal.c ****    __HAL_RCC_APB2_RELEASE_RESET();
 111              		.loc 1 211 4 view .LVU19
 112 0048 02F17552 		add	r2, r2, #1027604480
 113 004c 02F5B912 		add	r2, r2, #1515520
 114 0050 02F6BD72 		addw	r2, r2, #4029
 115 0054 C3F89820 		str	r2, [r3, #152]
 212:Drivers/STM32H7xx_HAL_Driver/Src/stm32h7xx_hal.c **** 
 116              		.loc 1 212 4 view .LVU20
 117 0058 C3F89840 		str	r4, [r3, #152]
 214:Drivers/STM32H7xx_HAL_Driver/Src/stm32h7xx_hal.c ****   __HAL_RCC_APB4_RELEASE_RESET();
 118              		.loc 1 214 3 view .LVU21
 119 005c 0B4A     		ldr	r2, .L5+28
 120 005e C3F89C20 		str	r2, [r3, #156]
 215:Drivers/STM32H7xx_HAL_Driver/Src/stm32h7xx_hal.c **** 
 121              		.loc 1 215 3 view .LVU22
 122 0062 C3F89C40 		str	r4, [r3, #156]
 218:Drivers/STM32H7xx_HAL_Driver/Src/stm32h7xx_hal.c **** 
 123              		.loc 1 218 3 view .LVU23
 124 0066 FFF7FEFF 		bl	HAL_MspDeInit
 125              	.LVL0:
 221:Drivers/STM32H7xx_HAL_Driver/Src/stm32h7xx_hal.c **** }
 126              		.loc 1 221 3 view .LVU24
 222:Drivers/STM32H7xx_HAL_Driver/Src/stm32h7xx_hal.c **** 
 127              		.loc 1 222 1 is_stmt 0 view .LVU25
 128 006a 2046     		mov	r0, r4
 129 006c 10BD     		pop	{r4, pc}
 130              	.L6:
 131 006e 00BF     		.align	2
 132              	.L5:
 133 0070 00440258 		.word	1476543488
 134 0074 1150E900 		.word	15290385
 135 0078 23800002 		.word	33587235
 136 007c 71020300 		.word	197233
 137 0080 FF062803 		.word	52954879
 138 0084 FFC3FFEA 		.word	-352336897
ARM GAS  C:\Users\thewo\AppData\Local\Temp\ccu1yGO3.s 			page 8


 139 0088 36010003 		.word	50331958
 140 008c AADE2004 		.word	69263018
 141              		.cfi_endproc
 142              	.LFE351:
 144              		.section	.text.HAL_InitTick,"ax",%progbits
 145              		.align	1
 146              		.weak	HAL_InitTick
 147              		.syntax unified
 148              		.thumb
 149              		.thumb_func
 151              	HAL_InitTick:
 152              	.LVL1:
 153              	.LFB354:
 245:Drivers/STM32H7xx_HAL_Driver/Src/stm32h7xx_hal.c **** 
 246:Drivers/STM32H7xx_HAL_Driver/Src/stm32h7xx_hal.c **** /**
 247:Drivers/STM32H7xx_HAL_Driver/Src/stm32h7xx_hal.c ****   * @brief This function configures the source of the time base.
 248:Drivers/STM32H7xx_HAL_Driver/Src/stm32h7xx_hal.c ****   *        The time source is configured  to have 1ms time base with a dedicated
 249:Drivers/STM32H7xx_HAL_Driver/Src/stm32h7xx_hal.c ****   *        Tick interrupt priority.
 250:Drivers/STM32H7xx_HAL_Driver/Src/stm32h7xx_hal.c ****   * @note This function is called  automatically at the beginning of program after
 251:Drivers/STM32H7xx_HAL_Driver/Src/stm32h7xx_hal.c ****   *       reset by HAL_Init() or at any time when clock is reconfigured  by HAL_RCC_ClockConfig().
 252:Drivers/STM32H7xx_HAL_Driver/Src/stm32h7xx_hal.c ****   * @note In the default implementation, SysTick timer is the source of time base.
 253:Drivers/STM32H7xx_HAL_Driver/Src/stm32h7xx_hal.c ****   *       It is used to generate interrupts at regular time intervals.
 254:Drivers/STM32H7xx_HAL_Driver/Src/stm32h7xx_hal.c ****   *       Care must be taken if HAL_Delay() is called from a peripheral ISR process,
 255:Drivers/STM32H7xx_HAL_Driver/Src/stm32h7xx_hal.c ****   *       the SysTick interrupt must have higher priority (numerically lower)
 256:Drivers/STM32H7xx_HAL_Driver/Src/stm32h7xx_hal.c ****   *       than the peripheral interrupt. Otherwise the caller ISR process will be blocked.
 257:Drivers/STM32H7xx_HAL_Driver/Src/stm32h7xx_hal.c ****   *       The function is declared as __weak  to be overwritten  in case of other
 258:Drivers/STM32H7xx_HAL_Driver/Src/stm32h7xx_hal.c ****   *       implementation  in user file.
 259:Drivers/STM32H7xx_HAL_Driver/Src/stm32h7xx_hal.c ****   * @param TickPriority: Tick interrupt priority.
 260:Drivers/STM32H7xx_HAL_Driver/Src/stm32h7xx_hal.c ****   * @retval HAL status
 261:Drivers/STM32H7xx_HAL_Driver/Src/stm32h7xx_hal.c ****   */
 262:Drivers/STM32H7xx_HAL_Driver/Src/stm32h7xx_hal.c **** __weak HAL_StatusTypeDef HAL_InitTick(uint32_t TickPriority)
 263:Drivers/STM32H7xx_HAL_Driver/Src/stm32h7xx_hal.c **** {
 154              		.loc 1 263 1 is_stmt 1 view -0
 155              		.cfi_startproc
 156              		@ args = 0, pretend = 0, frame = 0
 157              		@ frame_needed = 0, uses_anonymous_args = 0
 264:Drivers/STM32H7xx_HAL_Driver/Src/stm32h7xx_hal.c ****   /* Check uwTickFreq for MisraC 2012 (even if uwTickFreq is a enum type that don't take the value 
 265:Drivers/STM32H7xx_HAL_Driver/Src/stm32h7xx_hal.c ****   if((uint32_t)uwTickFreq == 0UL)
 158              		.loc 1 265 3 view .LVU27
 159              		.loc 1 265 27 is_stmt 0 view .LVU28
 160 0000 104B     		ldr	r3, .L18
 161 0002 1B78     		ldrb	r3, [r3]	@ zero_extendqisi2
 162              		.loc 1 265 5 view .LVU29
 163 0004 0BB9     		cbnz	r3, .L16
 266:Drivers/STM32H7xx_HAL_Driver/Src/stm32h7xx_hal.c ****   {
 267:Drivers/STM32H7xx_HAL_Driver/Src/stm32h7xx_hal.c ****     return HAL_ERROR;
 164              		.loc 1 267 12 view .LVU30
 165 0006 0120     		movs	r0, #1
 166              	.LVL2:
 268:Drivers/STM32H7xx_HAL_Driver/Src/stm32h7xx_hal.c ****   }
 269:Drivers/STM32H7xx_HAL_Driver/Src/stm32h7xx_hal.c **** 
 270:Drivers/STM32H7xx_HAL_Driver/Src/stm32h7xx_hal.c ****     /* Configure the SysTick to have interrupt in 1ms time basis*/
 271:Drivers/STM32H7xx_HAL_Driver/Src/stm32h7xx_hal.c ****     if (HAL_SYSTICK_Config(SystemCoreClock / (1000UL / (uint32_t)uwTickFreq)) > 0U)
 272:Drivers/STM32H7xx_HAL_Driver/Src/stm32h7xx_hal.c ****     {
 273:Drivers/STM32H7xx_HAL_Driver/Src/stm32h7xx_hal.c ****       return HAL_ERROR;
 274:Drivers/STM32H7xx_HAL_Driver/Src/stm32h7xx_hal.c ****     }
 275:Drivers/STM32H7xx_HAL_Driver/Src/stm32h7xx_hal.c **** 
ARM GAS  C:\Users\thewo\AppData\Local\Temp\ccu1yGO3.s 			page 9


 276:Drivers/STM32H7xx_HAL_Driver/Src/stm32h7xx_hal.c ****   /* Configure the SysTick IRQ priority */
 277:Drivers/STM32H7xx_HAL_Driver/Src/stm32h7xx_hal.c ****   if (TickPriority < (1UL << __NVIC_PRIO_BITS))
 278:Drivers/STM32H7xx_HAL_Driver/Src/stm32h7xx_hal.c ****   {
 279:Drivers/STM32H7xx_HAL_Driver/Src/stm32h7xx_hal.c ****     HAL_NVIC_SetPriority(SysTick_IRQn, TickPriority, 0U);
 280:Drivers/STM32H7xx_HAL_Driver/Src/stm32h7xx_hal.c ****     uwTickPrio = TickPriority;
 281:Drivers/STM32H7xx_HAL_Driver/Src/stm32h7xx_hal.c ****   }
 282:Drivers/STM32H7xx_HAL_Driver/Src/stm32h7xx_hal.c ****   else
 283:Drivers/STM32H7xx_HAL_Driver/Src/stm32h7xx_hal.c ****   {
 284:Drivers/STM32H7xx_HAL_Driver/Src/stm32h7xx_hal.c ****     return HAL_ERROR;
 285:Drivers/STM32H7xx_HAL_Driver/Src/stm32h7xx_hal.c ****   }
 286:Drivers/STM32H7xx_HAL_Driver/Src/stm32h7xx_hal.c **** 
 287:Drivers/STM32H7xx_HAL_Driver/Src/stm32h7xx_hal.c ****   /* Return function status */
 288:Drivers/STM32H7xx_HAL_Driver/Src/stm32h7xx_hal.c ****   return HAL_OK;
 289:Drivers/STM32H7xx_HAL_Driver/Src/stm32h7xx_hal.c **** }
 167              		.loc 1 289 1 view .LVU31
 168 0008 7047     		bx	lr
 169              	.LVL3:
 170              	.L16:
 263:Drivers/STM32H7xx_HAL_Driver/Src/stm32h7xx_hal.c ****   /* Check uwTickFreq for MisraC 2012 (even if uwTickFreq is a enum type that don't take the value 
 171              		.loc 1 263 1 view .LVU32
 172 000a 10B5     		push	{r4, lr}
 173              		.cfi_def_cfa_offset 8
 174              		.cfi_offset 4, -8
 175              		.cfi_offset 14, -4
 176 000c 0446     		mov	r4, r0
 271:Drivers/STM32H7xx_HAL_Driver/Src/stm32h7xx_hal.c ****     {
 177              		.loc 1 271 5 is_stmt 1 view .LVU33
 271:Drivers/STM32H7xx_HAL_Driver/Src/stm32h7xx_hal.c ****     {
 178              		.loc 1 271 54 is_stmt 0 view .LVU34
 179 000e 4FF47A70 		mov	r0, #1000
 180              	.LVL4:
 271:Drivers/STM32H7xx_HAL_Driver/Src/stm32h7xx_hal.c ****     {
 181              		.loc 1 271 54 view .LVU35
 182 0012 B0FBF3F3 		udiv	r3, r0, r3
 271:Drivers/STM32H7xx_HAL_Driver/Src/stm32h7xx_hal.c ****     {
 183              		.loc 1 271 9 view .LVU36
 184 0016 0C4A     		ldr	r2, .L18+4
 185 0018 1068     		ldr	r0, [r2]
 186 001a B0FBF3F0 		udiv	r0, r0, r3
 187 001e FFF7FEFF 		bl	HAL_SYSTICK_Config
 188              	.LVL5:
 271:Drivers/STM32H7xx_HAL_Driver/Src/stm32h7xx_hal.c ****     {
 189              		.loc 1 271 8 discriminator 1 view .LVU37
 190 0022 68B9     		cbnz	r0, .L10
 277:Drivers/STM32H7xx_HAL_Driver/Src/stm32h7xx_hal.c ****   {
 191              		.loc 1 277 3 is_stmt 1 view .LVU38
 277:Drivers/STM32H7xx_HAL_Driver/Src/stm32h7xx_hal.c ****   {
 192              		.loc 1 277 6 is_stmt 0 view .LVU39
 193 0024 0F2C     		cmp	r4, #15
 194 0026 01D9     		bls	.L17
 284:Drivers/STM32H7xx_HAL_Driver/Src/stm32h7xx_hal.c ****   }
 195              		.loc 1 284 12 view .LVU40
 196 0028 0120     		movs	r0, #1
 197 002a 0AE0     		b	.L8
 198              	.L17:
 279:Drivers/STM32H7xx_HAL_Driver/Src/stm32h7xx_hal.c ****     uwTickPrio = TickPriority;
 199              		.loc 1 279 5 is_stmt 1 view .LVU41
ARM GAS  C:\Users\thewo\AppData\Local\Temp\ccu1yGO3.s 			page 10


 200 002c 0022     		movs	r2, #0
 201 002e 2146     		mov	r1, r4
 202 0030 4FF0FF30 		mov	r0, #-1
 203 0034 FFF7FEFF 		bl	HAL_NVIC_SetPriority
 204              	.LVL6:
 280:Drivers/STM32H7xx_HAL_Driver/Src/stm32h7xx_hal.c ****   }
 205              		.loc 1 280 5 view .LVU42
 280:Drivers/STM32H7xx_HAL_Driver/Src/stm32h7xx_hal.c ****   }
 206              		.loc 1 280 16 is_stmt 0 view .LVU43
 207 0038 044B     		ldr	r3, .L18+8
 208 003a 1C60     		str	r4, [r3]
 288:Drivers/STM32H7xx_HAL_Driver/Src/stm32h7xx_hal.c **** }
 209              		.loc 1 288 3 is_stmt 1 view .LVU44
 288:Drivers/STM32H7xx_HAL_Driver/Src/stm32h7xx_hal.c **** }
 210              		.loc 1 288 10 is_stmt 0 view .LVU45
 211 003c 0020     		movs	r0, #0
 212 003e 00E0     		b	.L8
 213              	.L10:
 273:Drivers/STM32H7xx_HAL_Driver/Src/stm32h7xx_hal.c ****     }
 214              		.loc 1 273 14 view .LVU46
 215 0040 0120     		movs	r0, #1
 216              	.L8:
 217              		.loc 1 289 1 view .LVU47
 218 0042 10BD     		pop	{r4, pc}
 219              	.LVL7:
 220              	.L19:
 221              		.loc 1 289 1 view .LVU48
 222              		.align	2
 223              	.L18:
 224 0044 00000000 		.word	uwTickFreq
 225 0048 00000000 		.word	SystemCoreClock
 226 004c 00000000 		.word	uwTickPrio
 227              		.cfi_endproc
 228              	.LFE354:
 230              		.section	.text.HAL_Init,"ax",%progbits
 231              		.align	1
 232              		.global	HAL_Init
 233              		.syntax unified
 234              		.thumb
 235              		.thumb_func
 237              	HAL_Init:
 238              	.LFB350:
 135:Drivers/STM32H7xx_HAL_Driver/Src/stm32h7xx_hal.c **** 
 239              		.loc 1 135 1 is_stmt 1 view -0
 240              		.cfi_startproc
 241              		@ args = 0, pretend = 0, frame = 0
 242              		@ frame_needed = 0, uses_anonymous_args = 0
 243 0000 10B5     		push	{r4, lr}
 244              		.cfi_def_cfa_offset 8
 245              		.cfi_offset 4, -8
 246              		.cfi_offset 14, -4
 137:Drivers/STM32H7xx_HAL_Driver/Src/stm32h7xx_hal.c **** 
 247              		.loc 1 137 1 view .LVU50
 147:Drivers/STM32H7xx_HAL_Driver/Src/stm32h7xx_hal.c **** 
 248              		.loc 1 147 3 view .LVU51
 249 0002 0320     		movs	r0, #3
 250 0004 FFF7FEFF 		bl	HAL_NVIC_SetPriorityGrouping
ARM GAS  C:\Users\thewo\AppData\Local\Temp\ccu1yGO3.s 			page 11


 251              	.LVL8:
 151:Drivers/STM32H7xx_HAL_Driver/Src/stm32h7xx_hal.c **** #else
 252              		.loc 1 151 3 view .LVU52
 151:Drivers/STM32H7xx_HAL_Driver/Src/stm32h7xx_hal.c **** #else
 253              		.loc 1 151 25 is_stmt 0 view .LVU53
 254 0008 FFF7FEFF 		bl	HAL_RCC_GetSysClockFreq
 255              	.LVL9:
 151:Drivers/STM32H7xx_HAL_Driver/Src/stm32h7xx_hal.c **** #else
 256              		.loc 1 151 77 discriminator 1 view .LVU54
 257 000c 0F49     		ldr	r1, .L25
 258 000e 8B69     		ldr	r3, [r1, #24]
 151:Drivers/STM32H7xx_HAL_Driver/Src/stm32h7xx_hal.c **** #else
 259              		.loc 1 151 106 discriminator 1 view .LVU55
 260 0010 C3F30323 		ubfx	r3, r3, #8, #4
 151:Drivers/STM32H7xx_HAL_Driver/Src/stm32h7xx_hal.c **** #else
 261              		.loc 1 151 72 discriminator 1 view .LVU56
 262 0014 0E4A     		ldr	r2, .L25+4
 263 0016 D35C     		ldrb	r3, [r2, r3]	@ zero_extendqisi2
 151:Drivers/STM32H7xx_HAL_Driver/Src/stm32h7xx_hal.c **** #else
 264              		.loc 1 151 133 discriminator 1 view .LVU57
 265 0018 03F01F03 		and	r3, r3, #31
 151:Drivers/STM32H7xx_HAL_Driver/Src/stm32h7xx_hal.c **** #else
 266              		.loc 1 151 23 discriminator 1 view .LVU58
 267 001c D840     		lsrs	r0, r0, r3
 268              	.LVL10:
 158:Drivers/STM32H7xx_HAL_Driver/Src/stm32h7xx_hal.c **** #else
 269              		.loc 1 158 3 is_stmt 1 view .LVU59
 158:Drivers/STM32H7xx_HAL_Driver/Src/stm32h7xx_hal.c **** #else
 270              		.loc 1 158 66 is_stmt 0 view .LVU60
 271 001e 8B69     		ldr	r3, [r1, #24]
 158:Drivers/STM32H7xx_HAL_Driver/Src/stm32h7xx_hal.c **** #else
 272              		.loc 1 158 93 view .LVU61
 273 0020 03F00F03 		and	r3, r3, #15
 158:Drivers/STM32H7xx_HAL_Driver/Src/stm32h7xx_hal.c **** #else
 274              		.loc 1 158 61 view .LVU62
 275 0024 D35C     		ldrb	r3, [r2, r3]	@ zero_extendqisi2
 158:Drivers/STM32H7xx_HAL_Driver/Src/stm32h7xx_hal.c **** #else
 276              		.loc 1 158 118 view .LVU63
 277 0026 03F01F03 		and	r3, r3, #31
 158:Drivers/STM32H7xx_HAL_Driver/Src/stm32h7xx_hal.c **** #else
 278              		.loc 1 158 40 view .LVU64
 279 002a 20FA03F3 		lsr	r3, r0, r3
 158:Drivers/STM32H7xx_HAL_Driver/Src/stm32h7xx_hal.c **** #else
 280              		.loc 1 158 17 view .LVU65
 281 002e 094A     		ldr	r2, .L25+8
 282 0030 1360     		str	r3, [r2]
 166:Drivers/STM32H7xx_HAL_Driver/Src/stm32h7xx_hal.c **** #endif /* DUAL_CORE && CORE_CM4 */
 283              		.loc 1 166 3 is_stmt 1 view .LVU66
 166:Drivers/STM32H7xx_HAL_Driver/Src/stm32h7xx_hal.c **** #endif /* DUAL_CORE && CORE_CM4 */
 284              		.loc 1 166 19 is_stmt 0 view .LVU67
 285 0032 094B     		ldr	r3, .L25+12
 286 0034 1860     		str	r0, [r3]
 170:Drivers/STM32H7xx_HAL_Driver/Src/stm32h7xx_hal.c ****   {
 287              		.loc 1 170 3 is_stmt 1 view .LVU68
 170:Drivers/STM32H7xx_HAL_Driver/Src/stm32h7xx_hal.c ****   {
 288              		.loc 1 170 6 is_stmt 0 view .LVU69
 289 0036 0F20     		movs	r0, #15
ARM GAS  C:\Users\thewo\AppData\Local\Temp\ccu1yGO3.s 			page 12


 290              	.LVL11:
 170:Drivers/STM32H7xx_HAL_Driver/Src/stm32h7xx_hal.c ****   {
 291              		.loc 1 170 6 view .LVU70
 292 0038 FFF7FEFF 		bl	HAL_InitTick
 293              	.LVL12:
 170:Drivers/STM32H7xx_HAL_Driver/Src/stm32h7xx_hal.c ****   {
 294              		.loc 1 170 5 discriminator 1 view .LVU71
 295 003c 10B1     		cbz	r0, .L24
 172:Drivers/STM32H7xx_HAL_Driver/Src/stm32h7xx_hal.c ****   }
 296              		.loc 1 172 12 view .LVU72
 297 003e 0124     		movs	r4, #1
 298              	.L21:
 180:Drivers/STM32H7xx_HAL_Driver/Src/stm32h7xx_hal.c **** 
 299              		.loc 1 180 1 view .LVU73
 300 0040 2046     		mov	r0, r4
 301 0042 10BD     		pop	{r4, pc}
 302              	.L24:
 303 0044 0446     		mov	r4, r0
 176:Drivers/STM32H7xx_HAL_Driver/Src/stm32h7xx_hal.c **** 
 304              		.loc 1 176 3 is_stmt 1 view .LVU74
 305 0046 FFF7FEFF 		bl	HAL_MspInit
 306              	.LVL13:
 179:Drivers/STM32H7xx_HAL_Driver/Src/stm32h7xx_hal.c **** }
 307              		.loc 1 179 3 view .LVU75
 179:Drivers/STM32H7xx_HAL_Driver/Src/stm32h7xx_hal.c **** }
 308              		.loc 1 179 10 is_stmt 0 view .LVU76
 309 004a F9E7     		b	.L21
 310              	.L26:
 311              		.align	2
 312              	.L25:
 313 004c 00440258 		.word	1476543488
 314 0050 00000000 		.word	D1CorePrescTable
 315 0054 00000000 		.word	SystemD2Clock
 316 0058 00000000 		.word	SystemCoreClock
 317              		.cfi_endproc
 318              	.LFE350:
 320              		.section	.text.HAL_IncTick,"ax",%progbits
 321              		.align	1
 322              		.weak	HAL_IncTick
 323              		.syntax unified
 324              		.thumb
 325              		.thumb_func
 327              	HAL_IncTick:
 328              	.LFB355:
 290:Drivers/STM32H7xx_HAL_Driver/Src/stm32h7xx_hal.c **** 
 291:Drivers/STM32H7xx_HAL_Driver/Src/stm32h7xx_hal.c **** /**
 292:Drivers/STM32H7xx_HAL_Driver/Src/stm32h7xx_hal.c ****   * @}
 293:Drivers/STM32H7xx_HAL_Driver/Src/stm32h7xx_hal.c ****   */
 294:Drivers/STM32H7xx_HAL_Driver/Src/stm32h7xx_hal.c **** 
 295:Drivers/STM32H7xx_HAL_Driver/Src/stm32h7xx_hal.c **** /** @addtogroup HAL_Group2
 296:Drivers/STM32H7xx_HAL_Driver/Src/stm32h7xx_hal.c ****  *  @brief    HAL Control functions
 297:Drivers/STM32H7xx_HAL_Driver/Src/stm32h7xx_hal.c ****  *
 298:Drivers/STM32H7xx_HAL_Driver/Src/stm32h7xx_hal.c **** @verbatim
 299:Drivers/STM32H7xx_HAL_Driver/Src/stm32h7xx_hal.c ****  ===============================================================================
 300:Drivers/STM32H7xx_HAL_Driver/Src/stm32h7xx_hal.c ****                       ##### HAL Control functions #####
 301:Drivers/STM32H7xx_HAL_Driver/Src/stm32h7xx_hal.c ****  ===============================================================================
 302:Drivers/STM32H7xx_HAL_Driver/Src/stm32h7xx_hal.c ****     [..]  This section provides functions allowing to:
ARM GAS  C:\Users\thewo\AppData\Local\Temp\ccu1yGO3.s 			page 13


 303:Drivers/STM32H7xx_HAL_Driver/Src/stm32h7xx_hal.c ****       (+) Provide a tick value in millisecond
 304:Drivers/STM32H7xx_HAL_Driver/Src/stm32h7xx_hal.c ****       (+) Provide a blocking delay in millisecond
 305:Drivers/STM32H7xx_HAL_Driver/Src/stm32h7xx_hal.c ****       (+) Suspend the time base source interrupt
 306:Drivers/STM32H7xx_HAL_Driver/Src/stm32h7xx_hal.c ****       (+) Resume the time base source interrupt
 307:Drivers/STM32H7xx_HAL_Driver/Src/stm32h7xx_hal.c ****       (+) Get the HAL API driver version
 308:Drivers/STM32H7xx_HAL_Driver/Src/stm32h7xx_hal.c ****       (+) Get the device identifier
 309:Drivers/STM32H7xx_HAL_Driver/Src/stm32h7xx_hal.c ****       (+) Get the device revision identifier
 310:Drivers/STM32H7xx_HAL_Driver/Src/stm32h7xx_hal.c ****       (+) Enable/Disable Debug module during SLEEP mode
 311:Drivers/STM32H7xx_HAL_Driver/Src/stm32h7xx_hal.c ****       (+) Enable/Disable Debug module during STOP mode
 312:Drivers/STM32H7xx_HAL_Driver/Src/stm32h7xx_hal.c ****       (+) Enable/Disable Debug module during STANDBY mode
 313:Drivers/STM32H7xx_HAL_Driver/Src/stm32h7xx_hal.c **** 
 314:Drivers/STM32H7xx_HAL_Driver/Src/stm32h7xx_hal.c **** @endverbatim
 315:Drivers/STM32H7xx_HAL_Driver/Src/stm32h7xx_hal.c ****   * @{
 316:Drivers/STM32H7xx_HAL_Driver/Src/stm32h7xx_hal.c ****   */
 317:Drivers/STM32H7xx_HAL_Driver/Src/stm32h7xx_hal.c **** 
 318:Drivers/STM32H7xx_HAL_Driver/Src/stm32h7xx_hal.c **** /**
 319:Drivers/STM32H7xx_HAL_Driver/Src/stm32h7xx_hal.c ****   * @brief This function is called to increment  a global variable "uwTick"
 320:Drivers/STM32H7xx_HAL_Driver/Src/stm32h7xx_hal.c ****   *        used as application time base.
 321:Drivers/STM32H7xx_HAL_Driver/Src/stm32h7xx_hal.c ****   * @note In the default implementation, this variable is incremented each 1ms
 322:Drivers/STM32H7xx_HAL_Driver/Src/stm32h7xx_hal.c ****   *       in Systick ISR.
 323:Drivers/STM32H7xx_HAL_Driver/Src/stm32h7xx_hal.c ****  * @note This function is declared as __weak to be overwritten in case of other
 324:Drivers/STM32H7xx_HAL_Driver/Src/stm32h7xx_hal.c ****   *      implementations in user file.
 325:Drivers/STM32H7xx_HAL_Driver/Src/stm32h7xx_hal.c ****   * @retval None
 326:Drivers/STM32H7xx_HAL_Driver/Src/stm32h7xx_hal.c ****   */
 327:Drivers/STM32H7xx_HAL_Driver/Src/stm32h7xx_hal.c **** __weak void HAL_IncTick(void)
 328:Drivers/STM32H7xx_HAL_Driver/Src/stm32h7xx_hal.c **** {
 329              		.loc 1 328 1 is_stmt 1 view -0
 330              		.cfi_startproc
 331              		@ args = 0, pretend = 0, frame = 0
 332              		@ frame_needed = 0, uses_anonymous_args = 0
 333              		@ link register save eliminated.
 329:Drivers/STM32H7xx_HAL_Driver/Src/stm32h7xx_hal.c ****   uwTick += (uint32_t)uwTickFreq;
 334              		.loc 1 329 3 view .LVU78
 335              		.loc 1 329 13 is_stmt 0 view .LVU79
 336 0000 034B     		ldr	r3, .L28
 337 0002 1B78     		ldrb	r3, [r3]	@ zero_extendqisi2
 338              		.loc 1 329 10 view .LVU80
 339 0004 034A     		ldr	r2, .L28+4
 340 0006 1168     		ldr	r1, [r2]
 341 0008 0B44     		add	r3, r3, r1
 342 000a 1360     		str	r3, [r2]
 330:Drivers/STM32H7xx_HAL_Driver/Src/stm32h7xx_hal.c **** }
 343              		.loc 1 330 1 view .LVU81
 344 000c 7047     		bx	lr
 345              	.L29:
 346 000e 00BF     		.align	2
 347              	.L28:
 348 0010 00000000 		.word	uwTickFreq
 349 0014 00000000 		.word	uwTick
 350              		.cfi_endproc
 351              	.LFE355:
 353              		.section	.text.HAL_GetTick,"ax",%progbits
 354              		.align	1
 355              		.weak	HAL_GetTick
 356              		.syntax unified
 357              		.thumb
 358              		.thumb_func
ARM GAS  C:\Users\thewo\AppData\Local\Temp\ccu1yGO3.s 			page 14


 360              	HAL_GetTick:
 361              	.LFB356:
 331:Drivers/STM32H7xx_HAL_Driver/Src/stm32h7xx_hal.c **** 
 332:Drivers/STM32H7xx_HAL_Driver/Src/stm32h7xx_hal.c **** /**
 333:Drivers/STM32H7xx_HAL_Driver/Src/stm32h7xx_hal.c ****   * @brief Provides a tick value in millisecond.
 334:Drivers/STM32H7xx_HAL_Driver/Src/stm32h7xx_hal.c ****   * @note This function is declared as __weak to be overwritten in case of other
 335:Drivers/STM32H7xx_HAL_Driver/Src/stm32h7xx_hal.c ****   *       implementations in user file.
 336:Drivers/STM32H7xx_HAL_Driver/Src/stm32h7xx_hal.c ****   * @retval tick value
 337:Drivers/STM32H7xx_HAL_Driver/Src/stm32h7xx_hal.c ****   */
 338:Drivers/STM32H7xx_HAL_Driver/Src/stm32h7xx_hal.c **** __weak uint32_t HAL_GetTick(void)
 339:Drivers/STM32H7xx_HAL_Driver/Src/stm32h7xx_hal.c **** {
 362              		.loc 1 339 1 is_stmt 1 view -0
 363              		.cfi_startproc
 364              		@ args = 0, pretend = 0, frame = 0
 365              		@ frame_needed = 0, uses_anonymous_args = 0
 366              		@ link register save eliminated.
 340:Drivers/STM32H7xx_HAL_Driver/Src/stm32h7xx_hal.c ****   return uwTick;
 367              		.loc 1 340 3 view .LVU83
 368              		.loc 1 340 10 is_stmt 0 view .LVU84
 369 0000 014B     		ldr	r3, .L31
 370 0002 1868     		ldr	r0, [r3]
 341:Drivers/STM32H7xx_HAL_Driver/Src/stm32h7xx_hal.c **** }
 371              		.loc 1 341 1 view .LVU85
 372 0004 7047     		bx	lr
 373              	.L32:
 374 0006 00BF     		.align	2
 375              	.L31:
 376 0008 00000000 		.word	uwTick
 377              		.cfi_endproc
 378              	.LFE356:
 380              		.section	.text.HAL_GetTickPrio,"ax",%progbits
 381              		.align	1
 382              		.global	HAL_GetTickPrio
 383              		.syntax unified
 384              		.thumb
 385              		.thumb_func
 387              	HAL_GetTickPrio:
 388              	.LFB357:
 342:Drivers/STM32H7xx_HAL_Driver/Src/stm32h7xx_hal.c **** 
 343:Drivers/STM32H7xx_HAL_Driver/Src/stm32h7xx_hal.c **** /**
 344:Drivers/STM32H7xx_HAL_Driver/Src/stm32h7xx_hal.c ****   * @brief This function returns a tick priority.
 345:Drivers/STM32H7xx_HAL_Driver/Src/stm32h7xx_hal.c ****   * @retval tick priority
 346:Drivers/STM32H7xx_HAL_Driver/Src/stm32h7xx_hal.c ****   */
 347:Drivers/STM32H7xx_HAL_Driver/Src/stm32h7xx_hal.c **** uint32_t HAL_GetTickPrio(void)
 348:Drivers/STM32H7xx_HAL_Driver/Src/stm32h7xx_hal.c **** {
 389              		.loc 1 348 1 is_stmt 1 view -0
 390              		.cfi_startproc
 391              		@ args = 0, pretend = 0, frame = 0
 392              		@ frame_needed = 0, uses_anonymous_args = 0
 393              		@ link register save eliminated.
 349:Drivers/STM32H7xx_HAL_Driver/Src/stm32h7xx_hal.c ****   return uwTickPrio;
 394              		.loc 1 349 3 view .LVU87
 350:Drivers/STM32H7xx_HAL_Driver/Src/stm32h7xx_hal.c **** }
 395              		.loc 1 350 1 is_stmt 0 view .LVU88
 396 0000 014B     		ldr	r3, .L34
 397 0002 1868     		ldr	r0, [r3]
 398 0004 7047     		bx	lr
ARM GAS  C:\Users\thewo\AppData\Local\Temp\ccu1yGO3.s 			page 15


 399              	.L35:
 400 0006 00BF     		.align	2
 401              	.L34:
 402 0008 00000000 		.word	uwTickPrio
 403              		.cfi_endproc
 404              	.LFE357:
 406              		.section	.rodata.HAL_SetTickFreq.str1.4,"aMS",%progbits,1
 407              		.align	2
 408              	.LC0:
 409 0000 44726976 		.ascii	"Drivers/STM32H7xx_HAL_Driver/Src/stm32h7xx_hal.c\000"
 409      6572732F 
 409      53544D33 
 409      32483778 
 409      785F4841 
 410              		.section	.text.HAL_SetTickFreq,"ax",%progbits
 411              		.align	1
 412              		.global	HAL_SetTickFreq
 413              		.syntax unified
 414              		.thumb
 415              		.thumb_func
 417              	HAL_SetTickFreq:
 418              	.LVL14:
 419              	.LFB358:
 351:Drivers/STM32H7xx_HAL_Driver/Src/stm32h7xx_hal.c **** 
 352:Drivers/STM32H7xx_HAL_Driver/Src/stm32h7xx_hal.c **** /**
 353:Drivers/STM32H7xx_HAL_Driver/Src/stm32h7xx_hal.c ****   * @brief Set new tick Freq.
 354:Drivers/STM32H7xx_HAL_Driver/Src/stm32h7xx_hal.c ****   * @retval Status
 355:Drivers/STM32H7xx_HAL_Driver/Src/stm32h7xx_hal.c ****   */
 356:Drivers/STM32H7xx_HAL_Driver/Src/stm32h7xx_hal.c **** HAL_StatusTypeDef HAL_SetTickFreq(HAL_TickFreqTypeDef Freq)
 357:Drivers/STM32H7xx_HAL_Driver/Src/stm32h7xx_hal.c **** {
 420              		.loc 1 357 1 is_stmt 1 view -0
 421              		.cfi_startproc
 422              		@ args = 0, pretend = 0, frame = 0
 423              		@ frame_needed = 0, uses_anonymous_args = 0
 424              		.loc 1 357 1 is_stmt 0 view .LVU90
 425 0000 38B5     		push	{r3, r4, r5, lr}
 426              		.cfi_def_cfa_offset 16
 427              		.cfi_offset 3, -16
 428              		.cfi_offset 4, -12
 429              		.cfi_offset 5, -8
 430              		.cfi_offset 14, -4
 431 0002 0446     		mov	r4, r0
 358:Drivers/STM32H7xx_HAL_Driver/Src/stm32h7xx_hal.c ****   HAL_StatusTypeDef status  = HAL_OK;
 432              		.loc 1 358 3 is_stmt 1 view .LVU91
 433              	.LVL15:
 359:Drivers/STM32H7xx_HAL_Driver/Src/stm32h7xx_hal.c ****   HAL_TickFreqTypeDef prevTickFreq;
 434              		.loc 1 359 3 view .LVU92
 360:Drivers/STM32H7xx_HAL_Driver/Src/stm32h7xx_hal.c **** 
 361:Drivers/STM32H7xx_HAL_Driver/Src/stm32h7xx_hal.c ****   assert_param(IS_TICKFREQ(Freq));
 435              		.loc 1 361 3 view .LVU93
 436 0004 6428     		cmp	r0, #100
 437 0006 18BF     		it	ne
 438 0008 0A28     		cmpne	r0, #10
 439 000a 01D0     		beq	.L37
 440              		.loc 1 361 3 is_stmt 0 discriminator 1 view .LVU94
 441 000c 0128     		cmp	r0, #1
 442 000e 05D1     		bne	.L41
ARM GAS  C:\Users\thewo\AppData\Local\Temp\ccu1yGO3.s 			page 16


 443              	.LVL16:
 444              	.L37:
 362:Drivers/STM32H7xx_HAL_Driver/Src/stm32h7xx_hal.c **** 
 363:Drivers/STM32H7xx_HAL_Driver/Src/stm32h7xx_hal.c ****   if (uwTickFreq != Freq)
 445              		.loc 1 363 3 is_stmt 1 view .LVU95
 446              		.loc 1 363 18 is_stmt 0 view .LVU96
 447 0010 0A4B     		ldr	r3, .L43
 448 0012 1D78     		ldrb	r5, [r3]	@ zero_extendqisi2
 449              		.loc 1 363 6 view .LVU97
 450 0014 A542     		cmp	r5, r4
 451 0016 07D1     		bne	.L42
 358:Drivers/STM32H7xx_HAL_Driver/Src/stm32h7xx_hal.c ****   HAL_TickFreqTypeDef prevTickFreq;
 452              		.loc 1 358 21 view .LVU98
 453 0018 0020     		movs	r0, #0
 454              	.LVL17:
 455              	.L38:
 364:Drivers/STM32H7xx_HAL_Driver/Src/stm32h7xx_hal.c ****   {
 365:Drivers/STM32H7xx_HAL_Driver/Src/stm32h7xx_hal.c **** 
 366:Drivers/STM32H7xx_HAL_Driver/Src/stm32h7xx_hal.c ****     /* Back up uwTickFreq frequency */
 367:Drivers/STM32H7xx_HAL_Driver/Src/stm32h7xx_hal.c ****     prevTickFreq = uwTickFreq;
 368:Drivers/STM32H7xx_HAL_Driver/Src/stm32h7xx_hal.c **** 
 369:Drivers/STM32H7xx_HAL_Driver/Src/stm32h7xx_hal.c ****     /* Update uwTickFreq global variable used by HAL_InitTick() */
 370:Drivers/STM32H7xx_HAL_Driver/Src/stm32h7xx_hal.c ****     uwTickFreq = Freq;
 371:Drivers/STM32H7xx_HAL_Driver/Src/stm32h7xx_hal.c **** 
 372:Drivers/STM32H7xx_HAL_Driver/Src/stm32h7xx_hal.c ****     /* Apply the new tick Freq  */
 373:Drivers/STM32H7xx_HAL_Driver/Src/stm32h7xx_hal.c ****     status = HAL_InitTick(uwTickPrio);
 374:Drivers/STM32H7xx_HAL_Driver/Src/stm32h7xx_hal.c ****     if (status != HAL_OK)
 375:Drivers/STM32H7xx_HAL_Driver/Src/stm32h7xx_hal.c ****     {
 376:Drivers/STM32H7xx_HAL_Driver/Src/stm32h7xx_hal.c ****       /* Restore previous tick frequency */
 377:Drivers/STM32H7xx_HAL_Driver/Src/stm32h7xx_hal.c ****       uwTickFreq = prevTickFreq;
 378:Drivers/STM32H7xx_HAL_Driver/Src/stm32h7xx_hal.c ****     }
 379:Drivers/STM32H7xx_HAL_Driver/Src/stm32h7xx_hal.c ****   }
 380:Drivers/STM32H7xx_HAL_Driver/Src/stm32h7xx_hal.c **** 
 381:Drivers/STM32H7xx_HAL_Driver/Src/stm32h7xx_hal.c ****   return status;
 456              		.loc 1 381 3 is_stmt 1 view .LVU99
 382:Drivers/STM32H7xx_HAL_Driver/Src/stm32h7xx_hal.c **** }
 457              		.loc 1 382 1 is_stmt 0 view .LVU100
 458 001a 38BD     		pop	{r3, r4, r5, pc}
 459              	.LVL18:
 460              	.L41:
 361:Drivers/STM32H7xx_HAL_Driver/Src/stm32h7xx_hal.c **** 
 461              		.loc 1 361 3 discriminator 2 view .LVU101
 462 001c 40F26911 		movw	r1, #361
 463 0020 0748     		ldr	r0, .L43+4
 464              	.LVL19:
 361:Drivers/STM32H7xx_HAL_Driver/Src/stm32h7xx_hal.c **** 
 465              		.loc 1 361 3 discriminator 2 view .LVU102
 466 0022 FFF7FEFF 		bl	assert_failed
 467              	.LVL20:
 468 0026 F3E7     		b	.L37
 469              	.L42:
 367:Drivers/STM32H7xx_HAL_Driver/Src/stm32h7xx_hal.c **** 
 470              		.loc 1 367 5 is_stmt 1 view .LVU103
 471              	.LVL21:
 370:Drivers/STM32H7xx_HAL_Driver/Src/stm32h7xx_hal.c **** 
 472              		.loc 1 370 5 view .LVU104
 370:Drivers/STM32H7xx_HAL_Driver/Src/stm32h7xx_hal.c **** 
ARM GAS  C:\Users\thewo\AppData\Local\Temp\ccu1yGO3.s 			page 17


 473              		.loc 1 370 16 is_stmt 0 view .LVU105
 474 0028 1C70     		strb	r4, [r3]
 373:Drivers/STM32H7xx_HAL_Driver/Src/stm32h7xx_hal.c ****     if (status != HAL_OK)
 475              		.loc 1 373 5 is_stmt 1 view .LVU106
 373:Drivers/STM32H7xx_HAL_Driver/Src/stm32h7xx_hal.c ****     if (status != HAL_OK)
 476              		.loc 1 373 14 is_stmt 0 view .LVU107
 477 002a 064B     		ldr	r3, .L43+8
 478 002c 1868     		ldr	r0, [r3]
 479 002e FFF7FEFF 		bl	HAL_InitTick
 480              	.LVL22:
 374:Drivers/STM32H7xx_HAL_Driver/Src/stm32h7xx_hal.c ****     {
 481              		.loc 1 374 5 is_stmt 1 view .LVU108
 374:Drivers/STM32H7xx_HAL_Driver/Src/stm32h7xx_hal.c ****     {
 482              		.loc 1 374 8 is_stmt 0 view .LVU109
 483 0032 0028     		cmp	r0, #0
 484 0034 F1D0     		beq	.L38
 377:Drivers/STM32H7xx_HAL_Driver/Src/stm32h7xx_hal.c ****     }
 485              		.loc 1 377 7 is_stmt 1 view .LVU110
 377:Drivers/STM32H7xx_HAL_Driver/Src/stm32h7xx_hal.c ****     }
 486              		.loc 1 377 18 is_stmt 0 view .LVU111
 487 0036 014B     		ldr	r3, .L43
 488 0038 1D70     		strb	r5, [r3]
 489 003a EEE7     		b	.L38
 490              	.L44:
 491              		.align	2
 492              	.L43:
 493 003c 00000000 		.word	uwTickFreq
 494 0040 00000000 		.word	.LC0
 495 0044 00000000 		.word	uwTickPrio
 496              		.cfi_endproc
 497              	.LFE358:
 499              		.section	.text.HAL_GetTickFreq,"ax",%progbits
 500              		.align	1
 501              		.global	HAL_GetTickFreq
 502              		.syntax unified
 503              		.thumb
 504              		.thumb_func
 506              	HAL_GetTickFreq:
 507              	.LFB359:
 383:Drivers/STM32H7xx_HAL_Driver/Src/stm32h7xx_hal.c **** 
 384:Drivers/STM32H7xx_HAL_Driver/Src/stm32h7xx_hal.c **** /**
 385:Drivers/STM32H7xx_HAL_Driver/Src/stm32h7xx_hal.c ****   * @brief Return tick frequency.
 386:Drivers/STM32H7xx_HAL_Driver/Src/stm32h7xx_hal.c ****   * @retval Tick frequency.
 387:Drivers/STM32H7xx_HAL_Driver/Src/stm32h7xx_hal.c ****   *         Value of @ref HAL_TickFreqTypeDef.
 388:Drivers/STM32H7xx_HAL_Driver/Src/stm32h7xx_hal.c ****   */
 389:Drivers/STM32H7xx_HAL_Driver/Src/stm32h7xx_hal.c **** HAL_TickFreqTypeDef HAL_GetTickFreq(void)
 390:Drivers/STM32H7xx_HAL_Driver/Src/stm32h7xx_hal.c **** {
 508              		.loc 1 390 1 is_stmt 1 view -0
 509              		.cfi_startproc
 510              		@ args = 0, pretend = 0, frame = 0
 511              		@ frame_needed = 0, uses_anonymous_args = 0
 512              		@ link register save eliminated.
 391:Drivers/STM32H7xx_HAL_Driver/Src/stm32h7xx_hal.c ****   return uwTickFreq;
 513              		.loc 1 391 3 view .LVU113
 392:Drivers/STM32H7xx_HAL_Driver/Src/stm32h7xx_hal.c **** }
 514              		.loc 1 392 1 is_stmt 0 view .LVU114
 515 0000 014B     		ldr	r3, .L46
ARM GAS  C:\Users\thewo\AppData\Local\Temp\ccu1yGO3.s 			page 18


 516 0002 1878     		ldrb	r0, [r3]	@ zero_extendqisi2
 517 0004 7047     		bx	lr
 518              	.L47:
 519 0006 00BF     		.align	2
 520              	.L46:
 521 0008 00000000 		.word	uwTickFreq
 522              		.cfi_endproc
 523              	.LFE359:
 525              		.section	.text.HAL_Delay,"ax",%progbits
 526              		.align	1
 527              		.weak	HAL_Delay
 528              		.syntax unified
 529              		.thumb
 530              		.thumb_func
 532              	HAL_Delay:
 533              	.LVL23:
 534              	.LFB360:
 393:Drivers/STM32H7xx_HAL_Driver/Src/stm32h7xx_hal.c **** 
 394:Drivers/STM32H7xx_HAL_Driver/Src/stm32h7xx_hal.c **** /**
 395:Drivers/STM32H7xx_HAL_Driver/Src/stm32h7xx_hal.c ****   * @brief This function provides minimum delay (in milliseconds) based
 396:Drivers/STM32H7xx_HAL_Driver/Src/stm32h7xx_hal.c ****   *        on variable incremented.
 397:Drivers/STM32H7xx_HAL_Driver/Src/stm32h7xx_hal.c ****   * @note In the default implementation , SysTick timer is the source of time base.
 398:Drivers/STM32H7xx_HAL_Driver/Src/stm32h7xx_hal.c ****   *       It is used to generate interrupts at regular time intervals where uwTick
 399:Drivers/STM32H7xx_HAL_Driver/Src/stm32h7xx_hal.c ****   *       is incremented.
 400:Drivers/STM32H7xx_HAL_Driver/Src/stm32h7xx_hal.c ****   * @note This function is declared as __weak to be overwritten in case of other
 401:Drivers/STM32H7xx_HAL_Driver/Src/stm32h7xx_hal.c ****   *       implementations in user file.
 402:Drivers/STM32H7xx_HAL_Driver/Src/stm32h7xx_hal.c ****   * @param Delay  specifies the delay time length, in milliseconds.
 403:Drivers/STM32H7xx_HAL_Driver/Src/stm32h7xx_hal.c ****   * @retval None
 404:Drivers/STM32H7xx_HAL_Driver/Src/stm32h7xx_hal.c ****   */
 405:Drivers/STM32H7xx_HAL_Driver/Src/stm32h7xx_hal.c **** __weak void HAL_Delay(uint32_t Delay)
 406:Drivers/STM32H7xx_HAL_Driver/Src/stm32h7xx_hal.c **** {
 535              		.loc 1 406 1 is_stmt 1 view -0
 536              		.cfi_startproc
 537              		@ args = 0, pretend = 0, frame = 0
 538              		@ frame_needed = 0, uses_anonymous_args = 0
 539              		.loc 1 406 1 is_stmt 0 view .LVU116
 540 0000 38B5     		push	{r3, r4, r5, lr}
 541              		.cfi_def_cfa_offset 16
 542              		.cfi_offset 3, -16
 543              		.cfi_offset 4, -12
 544              		.cfi_offset 5, -8
 545              		.cfi_offset 14, -4
 546 0002 0446     		mov	r4, r0
 407:Drivers/STM32H7xx_HAL_Driver/Src/stm32h7xx_hal.c ****   uint32_t tickstart = HAL_GetTick();
 547              		.loc 1 407 3 is_stmt 1 view .LVU117
 548              		.loc 1 407 24 is_stmt 0 view .LVU118
 549 0004 FFF7FEFF 		bl	HAL_GetTick
 550              	.LVL24:
 551              		.loc 1 407 24 view .LVU119
 552 0008 0546     		mov	r5, r0
 553              	.LVL25:
 408:Drivers/STM32H7xx_HAL_Driver/Src/stm32h7xx_hal.c ****   uint32_t wait = Delay;
 554              		.loc 1 408 3 is_stmt 1 view .LVU120
 409:Drivers/STM32H7xx_HAL_Driver/Src/stm32h7xx_hal.c **** 
 410:Drivers/STM32H7xx_HAL_Driver/Src/stm32h7xx_hal.c ****   /* Add a freq to guarantee minimum wait */
 411:Drivers/STM32H7xx_HAL_Driver/Src/stm32h7xx_hal.c ****   if (wait < HAL_MAX_DELAY)
 555              		.loc 1 411 3 view .LVU121
ARM GAS  C:\Users\thewo\AppData\Local\Temp\ccu1yGO3.s 			page 19


 556              		.loc 1 411 6 is_stmt 0 view .LVU122
 557 000a B4F1FF3F 		cmp	r4, #-1
 558 000e 02D0     		beq	.L50
 412:Drivers/STM32H7xx_HAL_Driver/Src/stm32h7xx_hal.c ****   {
 413:Drivers/STM32H7xx_HAL_Driver/Src/stm32h7xx_hal.c ****     wait += (uint32_t)(uwTickFreq);
 559              		.loc 1 413 5 is_stmt 1 view .LVU123
 560              		.loc 1 413 13 is_stmt 0 view .LVU124
 561 0010 044B     		ldr	r3, .L52
 562 0012 1B78     		ldrb	r3, [r3]	@ zero_extendqisi2
 563              		.loc 1 413 10 view .LVU125
 564 0014 1C44     		add	r4, r4, r3
 565              	.LVL26:
 566              	.L50:
 414:Drivers/STM32H7xx_HAL_Driver/Src/stm32h7xx_hal.c ****   }
 415:Drivers/STM32H7xx_HAL_Driver/Src/stm32h7xx_hal.c **** 
 416:Drivers/STM32H7xx_HAL_Driver/Src/stm32h7xx_hal.c ****   while ((HAL_GetTick() - tickstart) < wait)
 417:Drivers/STM32H7xx_HAL_Driver/Src/stm32h7xx_hal.c ****   {
 418:Drivers/STM32H7xx_HAL_Driver/Src/stm32h7xx_hal.c ****   }
 567              		.loc 1 418 3 is_stmt 1 view .LVU126
 416:Drivers/STM32H7xx_HAL_Driver/Src/stm32h7xx_hal.c ****   {
 568              		.loc 1 416 38 discriminator 1 view .LVU127
 416:Drivers/STM32H7xx_HAL_Driver/Src/stm32h7xx_hal.c ****   {
 569              		.loc 1 416 11 is_stmt 0 discriminator 1 view .LVU128
 570 0016 FFF7FEFF 		bl	HAL_GetTick
 571              	.LVL27:
 416:Drivers/STM32H7xx_HAL_Driver/Src/stm32h7xx_hal.c ****   {
 572              		.loc 1 416 25 discriminator 1 view .LVU129
 573 001a 401B     		subs	r0, r0, r5
 416:Drivers/STM32H7xx_HAL_Driver/Src/stm32h7xx_hal.c ****   {
 574              		.loc 1 416 38 discriminator 1 view .LVU130
 575 001c A042     		cmp	r0, r4
 576 001e FAD3     		bcc	.L50
 419:Drivers/STM32H7xx_HAL_Driver/Src/stm32h7xx_hal.c **** }
 577              		.loc 1 419 1 view .LVU131
 578 0020 38BD     		pop	{r3, r4, r5, pc}
 579              	.LVL28:
 580              	.L53:
 581              		.loc 1 419 1 view .LVU132
 582 0022 00BF     		.align	2
 583              	.L52:
 584 0024 00000000 		.word	uwTickFreq
 585              		.cfi_endproc
 586              	.LFE360:
 588              		.section	.text.HAL_SuspendTick,"ax",%progbits
 589              		.align	1
 590              		.weak	HAL_SuspendTick
 591              		.syntax unified
 592              		.thumb
 593              		.thumb_func
 595              	HAL_SuspendTick:
 596              	.LFB361:
 420:Drivers/STM32H7xx_HAL_Driver/Src/stm32h7xx_hal.c **** 
 421:Drivers/STM32H7xx_HAL_Driver/Src/stm32h7xx_hal.c **** /**
 422:Drivers/STM32H7xx_HAL_Driver/Src/stm32h7xx_hal.c ****   * @brief Suspend Tick increment.
 423:Drivers/STM32H7xx_HAL_Driver/Src/stm32h7xx_hal.c ****   * @note In the default implementation , SysTick timer is the source of time base. It is
 424:Drivers/STM32H7xx_HAL_Driver/Src/stm32h7xx_hal.c ****   *       used to generate interrupts at regular time intervals. Once HAL_SuspendTick()
 425:Drivers/STM32H7xx_HAL_Driver/Src/stm32h7xx_hal.c ****   *       is called, the SysTick interrupt will be disabled and so Tick increment
ARM GAS  C:\Users\thewo\AppData\Local\Temp\ccu1yGO3.s 			page 20


 426:Drivers/STM32H7xx_HAL_Driver/Src/stm32h7xx_hal.c ****   *       is suspended.
 427:Drivers/STM32H7xx_HAL_Driver/Src/stm32h7xx_hal.c ****   * @note This function is declared as __weak to be overwritten in case of other
 428:Drivers/STM32H7xx_HAL_Driver/Src/stm32h7xx_hal.c ****   *       implementations in user file.
 429:Drivers/STM32H7xx_HAL_Driver/Src/stm32h7xx_hal.c ****   * @retval None
 430:Drivers/STM32H7xx_HAL_Driver/Src/stm32h7xx_hal.c ****   */
 431:Drivers/STM32H7xx_HAL_Driver/Src/stm32h7xx_hal.c **** __weak void HAL_SuspendTick(void)
 432:Drivers/STM32H7xx_HAL_Driver/Src/stm32h7xx_hal.c **** {
 597              		.loc 1 432 1 is_stmt 1 view -0
 598              		.cfi_startproc
 599              		@ args = 0, pretend = 0, frame = 0
 600              		@ frame_needed = 0, uses_anonymous_args = 0
 601              		@ link register save eliminated.
 433:Drivers/STM32H7xx_HAL_Driver/Src/stm32h7xx_hal.c ****   /* Disable SysTick Interrupt */
 434:Drivers/STM32H7xx_HAL_Driver/Src/stm32h7xx_hal.c ****   SysTick->CTRL &= ~SysTick_CTRL_TICKINT_Msk;
 602              		.loc 1 434 3 view .LVU134
 603              		.loc 1 434 10 is_stmt 0 view .LVU135
 604 0000 4FF0E022 		mov	r2, #-536813568
 605 0004 1369     		ldr	r3, [r2, #16]
 606              		.loc 1 434 17 view .LVU136
 607 0006 23F00203 		bic	r3, r3, #2
 608 000a 1361     		str	r3, [r2, #16]
 435:Drivers/STM32H7xx_HAL_Driver/Src/stm32h7xx_hal.c **** }
 609              		.loc 1 435 1 view .LVU137
 610 000c 7047     		bx	lr
 611              		.cfi_endproc
 612              	.LFE361:
 614              		.section	.text.HAL_ResumeTick,"ax",%progbits
 615              		.align	1
 616              		.weak	HAL_ResumeTick
 617              		.syntax unified
 618              		.thumb
 619              		.thumb_func
 621              	HAL_ResumeTick:
 622              	.LFB362:
 436:Drivers/STM32H7xx_HAL_Driver/Src/stm32h7xx_hal.c **** 
 437:Drivers/STM32H7xx_HAL_Driver/Src/stm32h7xx_hal.c **** /**
 438:Drivers/STM32H7xx_HAL_Driver/Src/stm32h7xx_hal.c ****   * @brief Resume Tick increment.
 439:Drivers/STM32H7xx_HAL_Driver/Src/stm32h7xx_hal.c ****   * @note In the default implementation , SysTick timer is the source of time base. It is
 440:Drivers/STM32H7xx_HAL_Driver/Src/stm32h7xx_hal.c ****   *       used to generate interrupts at regular time intervals. Once HAL_ResumeTick()
 441:Drivers/STM32H7xx_HAL_Driver/Src/stm32h7xx_hal.c ****   *       is called, the SysTick interrupt will be enabled and so Tick increment
 442:Drivers/STM32H7xx_HAL_Driver/Src/stm32h7xx_hal.c ****   *       is resumed.
 443:Drivers/STM32H7xx_HAL_Driver/Src/stm32h7xx_hal.c ****   * @note This function is declared as __weak to be overwritten in case of other
 444:Drivers/STM32H7xx_HAL_Driver/Src/stm32h7xx_hal.c ****   *       implementations in user file.
 445:Drivers/STM32H7xx_HAL_Driver/Src/stm32h7xx_hal.c ****   * @retval None
 446:Drivers/STM32H7xx_HAL_Driver/Src/stm32h7xx_hal.c ****   */
 447:Drivers/STM32H7xx_HAL_Driver/Src/stm32h7xx_hal.c **** __weak void HAL_ResumeTick(void)
 448:Drivers/STM32H7xx_HAL_Driver/Src/stm32h7xx_hal.c **** {
 623              		.loc 1 448 1 is_stmt 1 view -0
 624              		.cfi_startproc
 625              		@ args = 0, pretend = 0, frame = 0
 626              		@ frame_needed = 0, uses_anonymous_args = 0
 627              		@ link register save eliminated.
 449:Drivers/STM32H7xx_HAL_Driver/Src/stm32h7xx_hal.c ****   /* Enable SysTick Interrupt */
 450:Drivers/STM32H7xx_HAL_Driver/Src/stm32h7xx_hal.c ****   SysTick->CTRL  |= SysTick_CTRL_TICKINT_Msk;
 628              		.loc 1 450 3 view .LVU139
 629              		.loc 1 450 10 is_stmt 0 view .LVU140
 630 0000 4FF0E022 		mov	r2, #-536813568
ARM GAS  C:\Users\thewo\AppData\Local\Temp\ccu1yGO3.s 			page 21


 631 0004 1369     		ldr	r3, [r2, #16]
 632              		.loc 1 450 18 view .LVU141
 633 0006 43F00203 		orr	r3, r3, #2
 634 000a 1361     		str	r3, [r2, #16]
 451:Drivers/STM32H7xx_HAL_Driver/Src/stm32h7xx_hal.c **** }
 635              		.loc 1 451 1 view .LVU142
 636 000c 7047     		bx	lr
 637              		.cfi_endproc
 638              	.LFE362:
 640              		.section	.text.HAL_GetHalVersion,"ax",%progbits
 641              		.align	1
 642              		.global	HAL_GetHalVersion
 643              		.syntax unified
 644              		.thumb
 645              		.thumb_func
 647              	HAL_GetHalVersion:
 648              	.LFB363:
 452:Drivers/STM32H7xx_HAL_Driver/Src/stm32h7xx_hal.c **** 
 453:Drivers/STM32H7xx_HAL_Driver/Src/stm32h7xx_hal.c **** /**
 454:Drivers/STM32H7xx_HAL_Driver/Src/stm32h7xx_hal.c ****   * @brief  Returns the HAL revision
 455:Drivers/STM32H7xx_HAL_Driver/Src/stm32h7xx_hal.c ****   * @retval version : 0xXYZR (8bits for each decimal, R for RC)
 456:Drivers/STM32H7xx_HAL_Driver/Src/stm32h7xx_hal.c ****   */
 457:Drivers/STM32H7xx_HAL_Driver/Src/stm32h7xx_hal.c **** uint32_t HAL_GetHalVersion(void)
 458:Drivers/STM32H7xx_HAL_Driver/Src/stm32h7xx_hal.c **** {
 649              		.loc 1 458 1 is_stmt 1 view -0
 650              		.cfi_startproc
 651              		@ args = 0, pretend = 0, frame = 0
 652              		@ frame_needed = 0, uses_anonymous_args = 0
 653              		@ link register save eliminated.
 459:Drivers/STM32H7xx_HAL_Driver/Src/stm32h7xx_hal.c ****  return __STM32H7xx_HAL_VERSION;
 654              		.loc 1 459 2 view .LVU144
 460:Drivers/STM32H7xx_HAL_Driver/Src/stm32h7xx_hal.c **** }
 655              		.loc 1 460 1 is_stmt 0 view .LVU145
 656 0000 0048     		ldr	r0, .L57
 657 0002 7047     		bx	lr
 658              	.L58:
 659              		.align	2
 660              	.L57:
 661 0004 00050B01 		.word	17499392
 662              		.cfi_endproc
 663              	.LFE363:
 665              		.section	.text.HAL_GetREVID,"ax",%progbits
 666              		.align	1
 667              		.global	HAL_GetREVID
 668              		.syntax unified
 669              		.thumb
 670              		.thumb_func
 672              	HAL_GetREVID:
 673              	.LFB364:
 461:Drivers/STM32H7xx_HAL_Driver/Src/stm32h7xx_hal.c **** 
 462:Drivers/STM32H7xx_HAL_Driver/Src/stm32h7xx_hal.c **** /**
 463:Drivers/STM32H7xx_HAL_Driver/Src/stm32h7xx_hal.c ****   * @brief  Returns the device revision identifier.
 464:Drivers/STM32H7xx_HAL_Driver/Src/stm32h7xx_hal.c ****   * @retval Device revision identifier
 465:Drivers/STM32H7xx_HAL_Driver/Src/stm32h7xx_hal.c ****   */
 466:Drivers/STM32H7xx_HAL_Driver/Src/stm32h7xx_hal.c **** uint32_t HAL_GetREVID(void)
 467:Drivers/STM32H7xx_HAL_Driver/Src/stm32h7xx_hal.c **** {
 674              		.loc 1 467 1 is_stmt 1 view -0
ARM GAS  C:\Users\thewo\AppData\Local\Temp\ccu1yGO3.s 			page 22


 675              		.cfi_startproc
 676              		@ args = 0, pretend = 0, frame = 0
 677              		@ frame_needed = 0, uses_anonymous_args = 0
 678              		@ link register save eliminated.
 468:Drivers/STM32H7xx_HAL_Driver/Src/stm32h7xx_hal.c ****    return((DBGMCU->IDCODE) >> 16);
 679              		.loc 1 468 4 view .LVU147
 680              		.loc 1 468 18 is_stmt 0 view .LVU148
 681 0000 014B     		ldr	r3, .L60
 682 0002 1868     		ldr	r0, [r3]
 469:Drivers/STM32H7xx_HAL_Driver/Src/stm32h7xx_hal.c **** }
 683              		.loc 1 469 1 view .LVU149
 684 0004 000C     		lsrs	r0, r0, #16
 685 0006 7047     		bx	lr
 686              	.L61:
 687              		.align	2
 688              	.L60:
 689 0008 0010005C 		.word	1543507968
 690              		.cfi_endproc
 691              	.LFE364:
 693              		.section	.text.HAL_GetDEVID,"ax",%progbits
 694              		.align	1
 695              		.global	HAL_GetDEVID
 696              		.syntax unified
 697              		.thumb
 698              		.thumb_func
 700              	HAL_GetDEVID:
 701              	.LFB365:
 470:Drivers/STM32H7xx_HAL_Driver/Src/stm32h7xx_hal.c **** 
 471:Drivers/STM32H7xx_HAL_Driver/Src/stm32h7xx_hal.c **** /**
 472:Drivers/STM32H7xx_HAL_Driver/Src/stm32h7xx_hal.c ****   * @brief  Returns the device identifier.
 473:Drivers/STM32H7xx_HAL_Driver/Src/stm32h7xx_hal.c ****   * @retval Device identifier
 474:Drivers/STM32H7xx_HAL_Driver/Src/stm32h7xx_hal.c ****   */
 475:Drivers/STM32H7xx_HAL_Driver/Src/stm32h7xx_hal.c **** uint32_t HAL_GetDEVID(void)
 476:Drivers/STM32H7xx_HAL_Driver/Src/stm32h7xx_hal.c **** {
 702              		.loc 1 476 1 is_stmt 1 view -0
 703              		.cfi_startproc
 704              		@ args = 0, pretend = 0, frame = 0
 705              		@ frame_needed = 0, uses_anonymous_args = 0
 706              		@ link register save eliminated.
 477:Drivers/STM32H7xx_HAL_Driver/Src/stm32h7xx_hal.c ****    return((DBGMCU->IDCODE) & IDCODE_DEVID_MASK);
 707              		.loc 1 477 4 view .LVU151
 708              		.loc 1 477 18 is_stmt 0 view .LVU152
 709 0000 024B     		ldr	r3, .L63
 710 0002 1868     		ldr	r0, [r3]
 478:Drivers/STM32H7xx_HAL_Driver/Src/stm32h7xx_hal.c **** }
 711              		.loc 1 478 1 view .LVU153
 712 0004 C0F30B00 		ubfx	r0, r0, #0, #12
 713 0008 7047     		bx	lr
 714              	.L64:
 715 000a 00BF     		.align	2
 716              	.L63:
 717 000c 0010005C 		.word	1543507968
 718              		.cfi_endproc
 719              	.LFE365:
 721              		.section	.text.HAL_GetUIDw0,"ax",%progbits
 722              		.align	1
 723              		.global	HAL_GetUIDw0
ARM GAS  C:\Users\thewo\AppData\Local\Temp\ccu1yGO3.s 			page 23


 724              		.syntax unified
 725              		.thumb
 726              		.thumb_func
 728              	HAL_GetUIDw0:
 729              	.LFB366:
 479:Drivers/STM32H7xx_HAL_Driver/Src/stm32h7xx_hal.c **** 
 480:Drivers/STM32H7xx_HAL_Driver/Src/stm32h7xx_hal.c **** /**
 481:Drivers/STM32H7xx_HAL_Driver/Src/stm32h7xx_hal.c ****   * @brief  Return the first word of the unique device identifier (UID based on 96 bits)
 482:Drivers/STM32H7xx_HAL_Driver/Src/stm32h7xx_hal.c ****   * @retval Device identifier
 483:Drivers/STM32H7xx_HAL_Driver/Src/stm32h7xx_hal.c ****   */
 484:Drivers/STM32H7xx_HAL_Driver/Src/stm32h7xx_hal.c **** uint32_t HAL_GetUIDw0(void)
 485:Drivers/STM32H7xx_HAL_Driver/Src/stm32h7xx_hal.c **** {
 730              		.loc 1 485 1 is_stmt 1 view -0
 731              		.cfi_startproc
 732              		@ args = 0, pretend = 0, frame = 0
 733              		@ frame_needed = 0, uses_anonymous_args = 0
 734              		@ link register save eliminated.
 486:Drivers/STM32H7xx_HAL_Driver/Src/stm32h7xx_hal.c ****   return(READ_REG(*((uint32_t *)UID_BASE)));
 735              		.loc 1 486 3 view .LVU155
 487:Drivers/STM32H7xx_HAL_Driver/Src/stm32h7xx_hal.c **** }
 736              		.loc 1 487 1 is_stmt 0 view .LVU156
 737 0000 014B     		ldr	r3, .L66
 738 0002 D3F80008 		ldr	r0, [r3, #2048]
 739 0006 7047     		bx	lr
 740              	.L67:
 741              		.align	2
 742              	.L66:
 743 0008 00E0F11F 		.word	535945216
 744              		.cfi_endproc
 745              	.LFE366:
 747              		.section	.text.HAL_GetUIDw1,"ax",%progbits
 748              		.align	1
 749              		.global	HAL_GetUIDw1
 750              		.syntax unified
 751              		.thumb
 752              		.thumb_func
 754              	HAL_GetUIDw1:
 755              	.LFB367:
 488:Drivers/STM32H7xx_HAL_Driver/Src/stm32h7xx_hal.c **** 
 489:Drivers/STM32H7xx_HAL_Driver/Src/stm32h7xx_hal.c **** /**
 490:Drivers/STM32H7xx_HAL_Driver/Src/stm32h7xx_hal.c ****   * @brief  Return the second word of the unique device identifier (UID based on 96 bits)
 491:Drivers/STM32H7xx_HAL_Driver/Src/stm32h7xx_hal.c ****   * @retval Device identifier
 492:Drivers/STM32H7xx_HAL_Driver/Src/stm32h7xx_hal.c ****   */
 493:Drivers/STM32H7xx_HAL_Driver/Src/stm32h7xx_hal.c **** uint32_t HAL_GetUIDw1(void)
 494:Drivers/STM32H7xx_HAL_Driver/Src/stm32h7xx_hal.c **** {
 756              		.loc 1 494 1 is_stmt 1 view -0
 757              		.cfi_startproc
 758              		@ args = 0, pretend = 0, frame = 0
 759              		@ frame_needed = 0, uses_anonymous_args = 0
 760              		@ link register save eliminated.
 495:Drivers/STM32H7xx_HAL_Driver/Src/stm32h7xx_hal.c ****   return(READ_REG(*((uint32_t *)(UID_BASE + 4U))));
 761              		.loc 1 495 3 view .LVU158
 496:Drivers/STM32H7xx_HAL_Driver/Src/stm32h7xx_hal.c **** }
 762              		.loc 1 496 1 is_stmt 0 view .LVU159
 763 0000 014B     		ldr	r3, .L69
 764 0002 D3F80408 		ldr	r0, [r3, #2052]
 765 0006 7047     		bx	lr
ARM GAS  C:\Users\thewo\AppData\Local\Temp\ccu1yGO3.s 			page 24


 766              	.L70:
 767              		.align	2
 768              	.L69:
 769 0008 00E0F11F 		.word	535945216
 770              		.cfi_endproc
 771              	.LFE367:
 773              		.section	.text.HAL_GetUIDw2,"ax",%progbits
 774              		.align	1
 775              		.global	HAL_GetUIDw2
 776              		.syntax unified
 777              		.thumb
 778              		.thumb_func
 780              	HAL_GetUIDw2:
 781              	.LFB368:
 497:Drivers/STM32H7xx_HAL_Driver/Src/stm32h7xx_hal.c **** 
 498:Drivers/STM32H7xx_HAL_Driver/Src/stm32h7xx_hal.c **** /**
 499:Drivers/STM32H7xx_HAL_Driver/Src/stm32h7xx_hal.c ****   * @brief  Return the third word of the unique device identifier (UID based on 96 bits)
 500:Drivers/STM32H7xx_HAL_Driver/Src/stm32h7xx_hal.c ****   * @retval Device identifier
 501:Drivers/STM32H7xx_HAL_Driver/Src/stm32h7xx_hal.c ****   */
 502:Drivers/STM32H7xx_HAL_Driver/Src/stm32h7xx_hal.c **** uint32_t HAL_GetUIDw2(void)
 503:Drivers/STM32H7xx_HAL_Driver/Src/stm32h7xx_hal.c **** {
 782              		.loc 1 503 1 is_stmt 1 view -0
 783              		.cfi_startproc
 784              		@ args = 0, pretend = 0, frame = 0
 785              		@ frame_needed = 0, uses_anonymous_args = 0
 786              		@ link register save eliminated.
 504:Drivers/STM32H7xx_HAL_Driver/Src/stm32h7xx_hal.c ****   return(READ_REG(*((uint32_t *)(UID_BASE + 8U))));
 787              		.loc 1 504 3 view .LVU161
 505:Drivers/STM32H7xx_HAL_Driver/Src/stm32h7xx_hal.c **** }
 788              		.loc 1 505 1 is_stmt 0 view .LVU162
 789 0000 014B     		ldr	r3, .L72
 790 0002 D3F80808 		ldr	r0, [r3, #2056]
 791 0006 7047     		bx	lr
 792              	.L73:
 793              		.align	2
 794              	.L72:
 795 0008 00E0F11F 		.word	535945216
 796              		.cfi_endproc
 797              	.LFE368:
 799              		.section	.text.HAL_SYSCFG_VREFBUF_VoltageScalingConfig,"ax",%progbits
 800              		.align	1
 801              		.global	HAL_SYSCFG_VREFBUF_VoltageScalingConfig
 802              		.syntax unified
 803              		.thumb
 804              		.thumb_func
 806              	HAL_SYSCFG_VREFBUF_VoltageScalingConfig:
 807              	.LVL29:
 808              	.LFB369:
 506:Drivers/STM32H7xx_HAL_Driver/Src/stm32h7xx_hal.c **** 
 507:Drivers/STM32H7xx_HAL_Driver/Src/stm32h7xx_hal.c **** /**
 508:Drivers/STM32H7xx_HAL_Driver/Src/stm32h7xx_hal.c ****   * @brief Configure the internal voltage reference buffer voltage scale.
 509:Drivers/STM32H7xx_HAL_Driver/Src/stm32h7xx_hal.c ****   * @param VoltageScaling  specifies the output voltage to achieve
 510:Drivers/STM32H7xx_HAL_Driver/Src/stm32h7xx_hal.c ****   *          This parameter can be one of the following values:
 511:Drivers/STM32H7xx_HAL_Driver/Src/stm32h7xx_hal.c ****   *            @arg SYSCFG_VREFBUF_VOLTAGE_SCALE0: VREF_OUT1 around 2.5 V.
 512:Drivers/STM32H7xx_HAL_Driver/Src/stm32h7xx_hal.c ****   *                                                This requires VDDA equal to or higher than 2.8 V
 513:Drivers/STM32H7xx_HAL_Driver/Src/stm32h7xx_hal.c ****   *            @arg SYSCFG_VREFBUF_VOLTAGE_SCALE1: VREF_OUT2 around 2.048 V.
 514:Drivers/STM32H7xx_HAL_Driver/Src/stm32h7xx_hal.c ****   *                                                This requires VDDA equal to or higher than 2.4 V
ARM GAS  C:\Users\thewo\AppData\Local\Temp\ccu1yGO3.s 			page 25


 515:Drivers/STM32H7xx_HAL_Driver/Src/stm32h7xx_hal.c ****   *            @arg SYSCFG_VREFBUF_VOLTAGE_SCALE2: VREF_OUT3 around 1.8 V.
 516:Drivers/STM32H7xx_HAL_Driver/Src/stm32h7xx_hal.c ****   *                                                This requires VDDA equal to or higher than 2.1 V
 517:Drivers/STM32H7xx_HAL_Driver/Src/stm32h7xx_hal.c ****   *            @arg SYSCFG_VREFBUF_VOLTAGE_SCALE3: VREF_OUT4 around 1.5 V.
 518:Drivers/STM32H7xx_HAL_Driver/Src/stm32h7xx_hal.c ****   *                                                This requires VDDA equal to or higher than 1.8 V
 519:Drivers/STM32H7xx_HAL_Driver/Src/stm32h7xx_hal.c ****   * @retval None
 520:Drivers/STM32H7xx_HAL_Driver/Src/stm32h7xx_hal.c ****   */
 521:Drivers/STM32H7xx_HAL_Driver/Src/stm32h7xx_hal.c **** void HAL_SYSCFG_VREFBUF_VoltageScalingConfig(uint32_t VoltageScaling)
 522:Drivers/STM32H7xx_HAL_Driver/Src/stm32h7xx_hal.c **** {
 809              		.loc 1 522 1 is_stmt 1 view -0
 810              		.cfi_startproc
 811              		@ args = 0, pretend = 0, frame = 0
 812              		@ frame_needed = 0, uses_anonymous_args = 0
 813              		.loc 1 522 1 is_stmt 0 view .LVU164
 814 0000 10B5     		push	{r4, lr}
 815              		.cfi_def_cfa_offset 8
 816              		.cfi_offset 4, -8
 817              		.cfi_offset 14, -4
 818 0002 0446     		mov	r4, r0
 523:Drivers/STM32H7xx_HAL_Driver/Src/stm32h7xx_hal.c ****   /* Check the parameters */
 524:Drivers/STM32H7xx_HAL_Driver/Src/stm32h7xx_hal.c ****   assert_param(IS_SYSCFG_VREFBUF_VOLTAGE_SCALE(VoltageScaling));
 819              		.loc 1 524 3 is_stmt 1 view .LVU165
 820 0004 0028     		cmp	r0, #0
 821 0006 18BF     		it	ne
 822 0008 1028     		cmpne	r0, #16
 823 000a 06D0     		beq	.L75
 824              		.loc 1 524 3 is_stmt 0 discriminator 1 view .LVU166
 825 000c B0F13003 		subs	r3, r0, #48
 826 0010 18BF     		it	ne
 827 0012 0123     		movne	r3, #1
 828 0014 2028     		cmp	r0, #32
 829 0016 00D0     		beq	.L75
 830 0018 33B9     		cbnz	r3, .L77
 831              	.LVL30:
 832              	.L75:
 525:Drivers/STM32H7xx_HAL_Driver/Src/stm32h7xx_hal.c **** 
 526:Drivers/STM32H7xx_HAL_Driver/Src/stm32h7xx_hal.c ****   MODIFY_REG(VREFBUF->CSR, VREFBUF_CSR_VRS, VoltageScaling);
 833              		.loc 1 526 3 is_stmt 1 view .LVU167
 834 001a 064A     		ldr	r2, .L78
 835 001c 1368     		ldr	r3, [r2]
 836 001e 23F07003 		bic	r3, r3, #112
 837 0022 2343     		orrs	r3, r3, r4
 838 0024 1360     		str	r3, [r2]
 527:Drivers/STM32H7xx_HAL_Driver/Src/stm32h7xx_hal.c **** }
 839              		.loc 1 527 1 is_stmt 0 view .LVU168
 840 0026 10BD     		pop	{r4, pc}
 841              	.LVL31:
 842              	.L77:
 524:Drivers/STM32H7xx_HAL_Driver/Src/stm32h7xx_hal.c **** 
 843              		.loc 1 524 3 discriminator 2 view .LVU169
 844 0028 4FF40371 		mov	r1, #524
 845 002c 0248     		ldr	r0, .L78+4
 846              	.LVL32:
 524:Drivers/STM32H7xx_HAL_Driver/Src/stm32h7xx_hal.c **** 
 847              		.loc 1 524 3 discriminator 2 view .LVU170
 848 002e FFF7FEFF 		bl	assert_failed
 849              	.LVL33:
 850 0032 F2E7     		b	.L75
ARM GAS  C:\Users\thewo\AppData\Local\Temp\ccu1yGO3.s 			page 26


 851              	.L79:
 852              		.align	2
 853              	.L78:
 854 0034 003C0058 		.word	1476410368
 855 0038 00000000 		.word	.LC0
 856              		.cfi_endproc
 857              	.LFE369:
 859              		.section	.text.HAL_SYSCFG_VREFBUF_HighImpedanceConfig,"ax",%progbits
 860              		.align	1
 861              		.global	HAL_SYSCFG_VREFBUF_HighImpedanceConfig
 862              		.syntax unified
 863              		.thumb
 864              		.thumb_func
 866              	HAL_SYSCFG_VREFBUF_HighImpedanceConfig:
 867              	.LVL34:
 868              	.LFB370:
 528:Drivers/STM32H7xx_HAL_Driver/Src/stm32h7xx_hal.c **** 
 529:Drivers/STM32H7xx_HAL_Driver/Src/stm32h7xx_hal.c **** /**
 530:Drivers/STM32H7xx_HAL_Driver/Src/stm32h7xx_hal.c ****   * @brief Configure the internal voltage reference buffer high impedance mode.
 531:Drivers/STM32H7xx_HAL_Driver/Src/stm32h7xx_hal.c ****   * @param Mode  specifies the high impedance mode
 532:Drivers/STM32H7xx_HAL_Driver/Src/stm32h7xx_hal.c ****   *          This parameter can be one of the following values:
 533:Drivers/STM32H7xx_HAL_Driver/Src/stm32h7xx_hal.c ****   *            @arg SYSCFG_VREFBUF_HIGH_IMPEDANCE_DISABLE: VREF+ pin is internally connect to VREFI
 534:Drivers/STM32H7xx_HAL_Driver/Src/stm32h7xx_hal.c ****   *            @arg SYSCFG_VREFBUF_HIGH_IMPEDANCE_ENABLE: VREF+ pin is high impedance.
 535:Drivers/STM32H7xx_HAL_Driver/Src/stm32h7xx_hal.c ****   * @retval None
 536:Drivers/STM32H7xx_HAL_Driver/Src/stm32h7xx_hal.c ****   */
 537:Drivers/STM32H7xx_HAL_Driver/Src/stm32h7xx_hal.c **** void HAL_SYSCFG_VREFBUF_HighImpedanceConfig(uint32_t Mode)
 538:Drivers/STM32H7xx_HAL_Driver/Src/stm32h7xx_hal.c **** {
 869              		.loc 1 538 1 is_stmt 1 view -0
 870              		.cfi_startproc
 871              		@ args = 0, pretend = 0, frame = 0
 872              		@ frame_needed = 0, uses_anonymous_args = 0
 873              		.loc 1 538 1 is_stmt 0 view .LVU172
 874 0000 10B5     		push	{r4, lr}
 875              		.cfi_def_cfa_offset 8
 876              		.cfi_offset 4, -8
 877              		.cfi_offset 14, -4
 878 0002 0446     		mov	r4, r0
 539:Drivers/STM32H7xx_HAL_Driver/Src/stm32h7xx_hal.c ****   /* Check the parameters */
 540:Drivers/STM32H7xx_HAL_Driver/Src/stm32h7xx_hal.c ****   assert_param(IS_SYSCFG_VREFBUF_HIGH_IMPEDANCE(Mode));
 879              		.loc 1 540 3 is_stmt 1 view .LVU173
 880 0004 0028     		cmp	r0, #0
 881 0006 18BF     		it	ne
 882 0008 0228     		cmpne	r0, #2
 883 000a 06D1     		bne	.L83
 884              	.LVL35:
 885              	.L81:
 541:Drivers/STM32H7xx_HAL_Driver/Src/stm32h7xx_hal.c **** 
 542:Drivers/STM32H7xx_HAL_Driver/Src/stm32h7xx_hal.c ****   MODIFY_REG(VREFBUF->CSR, VREFBUF_CSR_HIZ, Mode);
 886              		.loc 1 542 3 view .LVU174
 887 000c 064A     		ldr	r2, .L84
 888 000e 1368     		ldr	r3, [r2]
 889 0010 23F00203 		bic	r3, r3, #2
 890 0014 2343     		orrs	r3, r3, r4
 891 0016 1360     		str	r3, [r2]
 543:Drivers/STM32H7xx_HAL_Driver/Src/stm32h7xx_hal.c **** }
 892              		.loc 1 543 1 is_stmt 0 view .LVU175
 893 0018 10BD     		pop	{r4, pc}
ARM GAS  C:\Users\thewo\AppData\Local\Temp\ccu1yGO3.s 			page 27


 894              	.LVL36:
 895              	.L83:
 540:Drivers/STM32H7xx_HAL_Driver/Src/stm32h7xx_hal.c **** 
 896              		.loc 1 540 3 discriminator 1 view .LVU176
 897 001a 4FF40771 		mov	r1, #540
 898 001e 0348     		ldr	r0, .L84+4
 899              	.LVL37:
 540:Drivers/STM32H7xx_HAL_Driver/Src/stm32h7xx_hal.c **** 
 900              		.loc 1 540 3 discriminator 1 view .LVU177
 901 0020 FFF7FEFF 		bl	assert_failed
 902              	.LVL38:
 903 0024 F2E7     		b	.L81
 904              	.L85:
 905 0026 00BF     		.align	2
 906              	.L84:
 907 0028 003C0058 		.word	1476410368
 908 002c 00000000 		.word	.LC0
 909              		.cfi_endproc
 910              	.LFE370:
 912              		.section	.text.HAL_SYSCFG_VREFBUF_TrimmingConfig,"ax",%progbits
 913              		.align	1
 914              		.global	HAL_SYSCFG_VREFBUF_TrimmingConfig
 915              		.syntax unified
 916              		.thumb
 917              		.thumb_func
 919              	HAL_SYSCFG_VREFBUF_TrimmingConfig:
 920              	.LVL39:
 921              	.LFB371:
 544:Drivers/STM32H7xx_HAL_Driver/Src/stm32h7xx_hal.c **** 
 545:Drivers/STM32H7xx_HAL_Driver/Src/stm32h7xx_hal.c **** /**
 546:Drivers/STM32H7xx_HAL_Driver/Src/stm32h7xx_hal.c ****   * @brief  Tune the Internal Voltage Reference buffer (VREFBUF).
 547:Drivers/STM32H7xx_HAL_Driver/Src/stm32h7xx_hal.c ****   * @retval None
 548:Drivers/STM32H7xx_HAL_Driver/Src/stm32h7xx_hal.c ****   */
 549:Drivers/STM32H7xx_HAL_Driver/Src/stm32h7xx_hal.c **** void HAL_SYSCFG_VREFBUF_TrimmingConfig(uint32_t TrimmingValue)
 550:Drivers/STM32H7xx_HAL_Driver/Src/stm32h7xx_hal.c **** {
 922              		.loc 1 550 1 is_stmt 1 view -0
 923              		.cfi_startproc
 924              		@ args = 0, pretend = 0, frame = 0
 925              		@ frame_needed = 0, uses_anonymous_args = 0
 926              		.loc 1 550 1 is_stmt 0 view .LVU179
 927 0000 10B5     		push	{r4, lr}
 928              		.cfi_def_cfa_offset 8
 929              		.cfi_offset 4, -8
 930              		.cfi_offset 14, -4
 931 0002 0446     		mov	r4, r0
 551:Drivers/STM32H7xx_HAL_Driver/Src/stm32h7xx_hal.c ****   /* Check the parameters */
 552:Drivers/STM32H7xx_HAL_Driver/Src/stm32h7xx_hal.c ****   assert_param(IS_SYSCFG_VREFBUF_TRIMMING(TrimmingValue));
 932              		.loc 1 552 3 is_stmt 1 view .LVU180
 933 0004 431E     		subs	r3, r0, #1
 934 0006 3E2B     		cmp	r3, #62
 935 0008 06D8     		bhi	.L89
 936              	.LVL40:
 937              	.L87:
 553:Drivers/STM32H7xx_HAL_Driver/Src/stm32h7xx_hal.c **** 
 554:Drivers/STM32H7xx_HAL_Driver/Src/stm32h7xx_hal.c ****   MODIFY_REG(VREFBUF->CCR, VREFBUF_CCR_TRIM, TrimmingValue);
 938              		.loc 1 554 3 view .LVU181
 939 000a 064A     		ldr	r2, .L90
ARM GAS  C:\Users\thewo\AppData\Local\Temp\ccu1yGO3.s 			page 28


 940 000c 5368     		ldr	r3, [r2, #4]
 941 000e 23F03F03 		bic	r3, r3, #63
 942 0012 2343     		orrs	r3, r3, r4
 943 0014 5360     		str	r3, [r2, #4]
 555:Drivers/STM32H7xx_HAL_Driver/Src/stm32h7xx_hal.c **** }
 944              		.loc 1 555 1 is_stmt 0 view .LVU182
 945 0016 10BD     		pop	{r4, pc}
 946              	.LVL41:
 947              	.L89:
 552:Drivers/STM32H7xx_HAL_Driver/Src/stm32h7xx_hal.c **** 
 948              		.loc 1 552 3 discriminator 1 view .LVU183
 949 0018 4FF40A71 		mov	r1, #552
 950 001c 0248     		ldr	r0, .L90+4
 951              	.LVL42:
 552:Drivers/STM32H7xx_HAL_Driver/Src/stm32h7xx_hal.c **** 
 952              		.loc 1 552 3 discriminator 1 view .LVU184
 953 001e FFF7FEFF 		bl	assert_failed
 954              	.LVL43:
 955 0022 F2E7     		b	.L87
 956              	.L91:
 957              		.align	2
 958              	.L90:
 959 0024 003C0058 		.word	1476410368
 960 0028 00000000 		.word	.LC0
 961              		.cfi_endproc
 962              	.LFE371:
 964              		.section	.text.HAL_SYSCFG_EnableVREFBUF,"ax",%progbits
 965              		.align	1
 966              		.global	HAL_SYSCFG_EnableVREFBUF
 967              		.syntax unified
 968              		.thumb
 969              		.thumb_func
 971              	HAL_SYSCFG_EnableVREFBUF:
 972              	.LFB372:
 556:Drivers/STM32H7xx_HAL_Driver/Src/stm32h7xx_hal.c **** 
 557:Drivers/STM32H7xx_HAL_Driver/Src/stm32h7xx_hal.c **** /**
 558:Drivers/STM32H7xx_HAL_Driver/Src/stm32h7xx_hal.c ****   * @brief  Enable the Internal Voltage Reference buffer (VREFBUF).
 559:Drivers/STM32H7xx_HAL_Driver/Src/stm32h7xx_hal.c ****   * @retval HAL_OK/HAL_TIMEOUT
 560:Drivers/STM32H7xx_HAL_Driver/Src/stm32h7xx_hal.c ****   */
 561:Drivers/STM32H7xx_HAL_Driver/Src/stm32h7xx_hal.c **** HAL_StatusTypeDef HAL_SYSCFG_EnableVREFBUF(void)
 562:Drivers/STM32H7xx_HAL_Driver/Src/stm32h7xx_hal.c **** {
 973              		.loc 1 562 1 is_stmt 1 view -0
 974              		.cfi_startproc
 975              		@ args = 0, pretend = 0, frame = 0
 976              		@ frame_needed = 0, uses_anonymous_args = 0
 977 0000 10B5     		push	{r4, lr}
 978              		.cfi_def_cfa_offset 8
 979              		.cfi_offset 4, -8
 980              		.cfi_offset 14, -4
 563:Drivers/STM32H7xx_HAL_Driver/Src/stm32h7xx_hal.c ****   uint32_t  tickstart;
 981              		.loc 1 563 3 view .LVU186
 564:Drivers/STM32H7xx_HAL_Driver/Src/stm32h7xx_hal.c **** 
 565:Drivers/STM32H7xx_HAL_Driver/Src/stm32h7xx_hal.c ****   SET_BIT(VREFBUF->CSR, VREFBUF_CSR_ENVR);
 982              		.loc 1 565 3 view .LVU187
 983 0002 0B4A     		ldr	r2, .L99
 984 0004 1368     		ldr	r3, [r2]
 985 0006 43F00103 		orr	r3, r3, #1
ARM GAS  C:\Users\thewo\AppData\Local\Temp\ccu1yGO3.s 			page 29


 986 000a 1360     		str	r3, [r2]
 566:Drivers/STM32H7xx_HAL_Driver/Src/stm32h7xx_hal.c **** 
 567:Drivers/STM32H7xx_HAL_Driver/Src/stm32h7xx_hal.c ****   /* Get Start Tick*/
 568:Drivers/STM32H7xx_HAL_Driver/Src/stm32h7xx_hal.c ****   tickstart = HAL_GetTick();
 987              		.loc 1 568 3 view .LVU188
 988              		.loc 1 568 15 is_stmt 0 view .LVU189
 989 000c FFF7FEFF 		bl	HAL_GetTick
 990              	.LVL44:
 991 0010 0446     		mov	r4, r0
 992              	.LVL45:
 569:Drivers/STM32H7xx_HAL_Driver/Src/stm32h7xx_hal.c **** 
 570:Drivers/STM32H7xx_HAL_Driver/Src/stm32h7xx_hal.c ****   /* Wait for VRR bit  */
 571:Drivers/STM32H7xx_HAL_Driver/Src/stm32h7xx_hal.c ****   while(READ_BIT(VREFBUF->CSR, VREFBUF_CSR_VRR) == 0UL)
 993              		.loc 1 571 3 is_stmt 1 view .LVU190
 994              	.L93:
 995              		.loc 1 571 49 view .LVU191
 996              		.loc 1 571 9 is_stmt 0 view .LVU192
 997 0012 074B     		ldr	r3, .L99
 998 0014 1B68     		ldr	r3, [r3]
 999              		.loc 1 571 49 view .LVU193
 1000 0016 13F0080F 		tst	r3, #8
 1001 001a 06D1     		bne	.L98
 572:Drivers/STM32H7xx_HAL_Driver/Src/stm32h7xx_hal.c ****   {
 573:Drivers/STM32H7xx_HAL_Driver/Src/stm32h7xx_hal.c ****     if((HAL_GetTick() - tickstart) > VREFBUF_TIMEOUT_VALUE)
 1002              		.loc 1 573 5 is_stmt 1 view .LVU194
 1003              		.loc 1 573 9 is_stmt 0 view .LVU195
 1004 001c FFF7FEFF 		bl	HAL_GetTick
 1005              	.LVL46:
 1006              		.loc 1 573 23 discriminator 1 view .LVU196
 1007 0020 001B     		subs	r0, r0, r4
 1008              		.loc 1 573 7 discriminator 1 view .LVU197
 1009 0022 0A28     		cmp	r0, #10
 1010 0024 F5D9     		bls	.L93
 574:Drivers/STM32H7xx_HAL_Driver/Src/stm32h7xx_hal.c ****     {
 575:Drivers/STM32H7xx_HAL_Driver/Src/stm32h7xx_hal.c ****       return HAL_TIMEOUT;
 1011              		.loc 1 575 14 view .LVU198
 1012 0026 0320     		movs	r0, #3
 1013 0028 00E0     		b	.L94
 1014              	.L98:
 576:Drivers/STM32H7xx_HAL_Driver/Src/stm32h7xx_hal.c ****     }
 577:Drivers/STM32H7xx_HAL_Driver/Src/stm32h7xx_hal.c ****   }
 578:Drivers/STM32H7xx_HAL_Driver/Src/stm32h7xx_hal.c **** 
 579:Drivers/STM32H7xx_HAL_Driver/Src/stm32h7xx_hal.c ****   return HAL_OK;
 1015              		.loc 1 579 10 view .LVU199
 1016 002a 0020     		movs	r0, #0
 1017              	.L94:
 580:Drivers/STM32H7xx_HAL_Driver/Src/stm32h7xx_hal.c **** }
 1018              		.loc 1 580 1 view .LVU200
 1019 002c 10BD     		pop	{r4, pc}
 1020              	.LVL47:
 1021              	.L100:
 1022              		.loc 1 580 1 view .LVU201
 1023 002e 00BF     		.align	2
 1024              	.L99:
 1025 0030 003C0058 		.word	1476410368
 1026              		.cfi_endproc
 1027              	.LFE372:
ARM GAS  C:\Users\thewo\AppData\Local\Temp\ccu1yGO3.s 			page 30


 1029              		.section	.text.HAL_SYSCFG_DisableVREFBUF,"ax",%progbits
 1030              		.align	1
 1031              		.global	HAL_SYSCFG_DisableVREFBUF
 1032              		.syntax unified
 1033              		.thumb
 1034              		.thumb_func
 1036              	HAL_SYSCFG_DisableVREFBUF:
 1037              	.LFB373:
 581:Drivers/STM32H7xx_HAL_Driver/Src/stm32h7xx_hal.c **** 
 582:Drivers/STM32H7xx_HAL_Driver/Src/stm32h7xx_hal.c **** /**
 583:Drivers/STM32H7xx_HAL_Driver/Src/stm32h7xx_hal.c ****   * @brief  Disable the Internal Voltage Reference buffer (VREFBUF).
 584:Drivers/STM32H7xx_HAL_Driver/Src/stm32h7xx_hal.c ****   *
 585:Drivers/STM32H7xx_HAL_Driver/Src/stm32h7xx_hal.c ****   * @retval None
 586:Drivers/STM32H7xx_HAL_Driver/Src/stm32h7xx_hal.c ****   */
 587:Drivers/STM32H7xx_HAL_Driver/Src/stm32h7xx_hal.c **** void HAL_SYSCFG_DisableVREFBUF(void)
 588:Drivers/STM32H7xx_HAL_Driver/Src/stm32h7xx_hal.c **** {
 1038              		.loc 1 588 1 is_stmt 1 view -0
 1039              		.cfi_startproc
 1040              		@ args = 0, pretend = 0, frame = 0
 1041              		@ frame_needed = 0, uses_anonymous_args = 0
 1042              		@ link register save eliminated.
 589:Drivers/STM32H7xx_HAL_Driver/Src/stm32h7xx_hal.c ****   CLEAR_BIT(VREFBUF->CSR, VREFBUF_CSR_ENVR);
 1043              		.loc 1 589 3 view .LVU203
 1044 0000 024A     		ldr	r2, .L102
 1045 0002 1368     		ldr	r3, [r2]
 1046 0004 23F00103 		bic	r3, r3, #1
 1047 0008 1360     		str	r3, [r2]
 590:Drivers/STM32H7xx_HAL_Driver/Src/stm32h7xx_hal.c **** }
 1048              		.loc 1 590 1 is_stmt 0 view .LVU204
 1049 000a 7047     		bx	lr
 1050              	.L103:
 1051              		.align	2
 1052              	.L102:
 1053 000c 003C0058 		.word	1476410368
 1054              		.cfi_endproc
 1055              	.LFE373:
 1057              		.section	.text.HAL_SYSCFG_ETHInterfaceSelect,"ax",%progbits
 1058              		.align	1
 1059              		.global	HAL_SYSCFG_ETHInterfaceSelect
 1060              		.syntax unified
 1061              		.thumb
 1062              		.thumb_func
 1064              	HAL_SYSCFG_ETHInterfaceSelect:
 1065              	.LVL48:
 1066              	.LFB374:
 591:Drivers/STM32H7xx_HAL_Driver/Src/stm32h7xx_hal.c **** 
 592:Drivers/STM32H7xx_HAL_Driver/Src/stm32h7xx_hal.c **** #if defined(SYSCFG_PMCR_EPIS_SEL)
 593:Drivers/STM32H7xx_HAL_Driver/Src/stm32h7xx_hal.c **** /**
 594:Drivers/STM32H7xx_HAL_Driver/Src/stm32h7xx_hal.c ****   * @brief  Ethernet PHY Interface Selection either MII or RMII
 595:Drivers/STM32H7xx_HAL_Driver/Src/stm32h7xx_hal.c ****   * @param  SYSCFG_ETHInterface: Selects the Ethernet PHY interface
 596:Drivers/STM32H7xx_HAL_Driver/Src/stm32h7xx_hal.c ****   *   This parameter can be one of the following values:
 597:Drivers/STM32H7xx_HAL_Driver/Src/stm32h7xx_hal.c ****   *   @arg SYSCFG_ETH_MII : Select the Media Independent Interface
 598:Drivers/STM32H7xx_HAL_Driver/Src/stm32h7xx_hal.c ****   *   @arg SYSCFG_ETH_RMII: Select the Reduced Media Independent Interface
 599:Drivers/STM32H7xx_HAL_Driver/Src/stm32h7xx_hal.c ****   * @retval None
 600:Drivers/STM32H7xx_HAL_Driver/Src/stm32h7xx_hal.c ****   */
 601:Drivers/STM32H7xx_HAL_Driver/Src/stm32h7xx_hal.c **** void HAL_SYSCFG_ETHInterfaceSelect(uint32_t SYSCFG_ETHInterface)
 602:Drivers/STM32H7xx_HAL_Driver/Src/stm32h7xx_hal.c **** {
ARM GAS  C:\Users\thewo\AppData\Local\Temp\ccu1yGO3.s 			page 31


 1067              		.loc 1 602 1 is_stmt 1 view -0
 1068              		.cfi_startproc
 1069              		@ args = 0, pretend = 0, frame = 0
 1070              		@ frame_needed = 0, uses_anonymous_args = 0
 1071              		.loc 1 602 1 is_stmt 0 view .LVU206
 1072 0000 10B5     		push	{r4, lr}
 1073              		.cfi_def_cfa_offset 8
 1074              		.cfi_offset 4, -8
 1075              		.cfi_offset 14, -4
 1076 0002 0446     		mov	r4, r0
 603:Drivers/STM32H7xx_HAL_Driver/Src/stm32h7xx_hal.c ****   /* Check the parameter */
 604:Drivers/STM32H7xx_HAL_Driver/Src/stm32h7xx_hal.c ****   assert_param(IS_SYSCFG_ETHERNET_CONFIG(SYSCFG_ETHInterface));
 1077              		.loc 1 604 3 is_stmt 1 view .LVU207
 1078 0004 0028     		cmp	r0, #0
 1079 0006 18BF     		it	ne
 1080 0008 B0F5000F 		cmpne	r0, #8388608
 1081 000c 06D1     		bne	.L107
 1082              	.LVL49:
 1083              	.L105:
 605:Drivers/STM32H7xx_HAL_Driver/Src/stm32h7xx_hal.c **** 
 606:Drivers/STM32H7xx_HAL_Driver/Src/stm32h7xx_hal.c ****   MODIFY_REG(SYSCFG->PMCR, SYSCFG_PMCR_EPIS_SEL, (uint32_t)(SYSCFG_ETHInterface));
 1084              		.loc 1 606 3 view .LVU208
 1085 000e 064A     		ldr	r2, .L108
 1086 0010 5368     		ldr	r3, [r2, #4]
 1087 0012 23F46003 		bic	r3, r3, #14680064
 1088 0016 2343     		orrs	r3, r3, r4
 1089 0018 5360     		str	r3, [r2, #4]
 607:Drivers/STM32H7xx_HAL_Driver/Src/stm32h7xx_hal.c **** }
 1090              		.loc 1 607 1 is_stmt 0 view .LVU209
 1091 001a 10BD     		pop	{r4, pc}
 1092              	.LVL50:
 1093              	.L107:
 604:Drivers/STM32H7xx_HAL_Driver/Src/stm32h7xx_hal.c **** 
 1094              		.loc 1 604 3 discriminator 1 view .LVU210
 1095 001c 4FF41771 		mov	r1, #604
 1096 0020 0248     		ldr	r0, .L108+4
 1097              	.LVL51:
 604:Drivers/STM32H7xx_HAL_Driver/Src/stm32h7xx_hal.c **** 
 1098              		.loc 1 604 3 discriminator 1 view .LVU211
 1099 0022 FFF7FEFF 		bl	assert_failed
 1100              	.LVL52:
 1101 0026 F2E7     		b	.L105
 1102              	.L109:
 1103              		.align	2
 1104              	.L108:
 1105 0028 00040058 		.word	1476396032
 1106 002c 00000000 		.word	.LC0
 1107              		.cfi_endproc
 1108              	.LFE374:
 1110              		.section	.text.HAL_SYSCFG_AnalogSwitchConfig,"ax",%progbits
 1111              		.align	1
 1112              		.global	HAL_SYSCFG_AnalogSwitchConfig
 1113              		.syntax unified
 1114              		.thumb
 1115              		.thumb_func
 1117              	HAL_SYSCFG_AnalogSwitchConfig:
 1118              	.LVL53:
ARM GAS  C:\Users\thewo\AppData\Local\Temp\ccu1yGO3.s 			page 32


 1119              	.LFB375:
 608:Drivers/STM32H7xx_HAL_Driver/Src/stm32h7xx_hal.c **** #endif /* SYSCFG_PMCR_EPIS_SEL */
 609:Drivers/STM32H7xx_HAL_Driver/Src/stm32h7xx_hal.c **** 
 610:Drivers/STM32H7xx_HAL_Driver/Src/stm32h7xx_hal.c **** /**
 611:Drivers/STM32H7xx_HAL_Driver/Src/stm32h7xx_hal.c ****   * @brief  Analog Switch control for dual analog pads.
 612:Drivers/STM32H7xx_HAL_Driver/Src/stm32h7xx_hal.c ****   * @param  SYSCFG_AnalogSwitch: Selects the analog pad
 613:Drivers/STM32H7xx_HAL_Driver/Src/stm32h7xx_hal.c ****   *   This parameter can be one or a combination of the following values:
 614:Drivers/STM32H7xx_HAL_Driver/Src/stm32h7xx_hal.c ****   *   @arg SYSCFG_SWITCH_PA0 : Select PA0 analog switch
 615:Drivers/STM32H7xx_HAL_Driver/Src/stm32h7xx_hal.c ****   *   @arg SYSCFG_SWITCH_PA1:  Select PA1 analog switch
 616:Drivers/STM32H7xx_HAL_Driver/Src/stm32h7xx_hal.c ****   *   @arg SYSCFG_SWITCH_PC2 : Select PC2 analog switch
 617:Drivers/STM32H7xx_HAL_Driver/Src/stm32h7xx_hal.c ****   *   @arg SYSCFG_SWITCH_PC3:  Select PC3 analog switch
 618:Drivers/STM32H7xx_HAL_Driver/Src/stm32h7xx_hal.c ****   * @param  SYSCFG_SwitchState: Open or Close the analog switch between dual pads (PXn and PXn_C)
 619:Drivers/STM32H7xx_HAL_Driver/Src/stm32h7xx_hal.c ****   *   This parameter can be one or a combination of the following values:
 620:Drivers/STM32H7xx_HAL_Driver/Src/stm32h7xx_hal.c ****   *   @arg SYSCFG_SWITCH_PA0_OPEN
 621:Drivers/STM32H7xx_HAL_Driver/Src/stm32h7xx_hal.c ****   *   @arg SYSCFG_SWITCH_PA0_CLOSE
 622:Drivers/STM32H7xx_HAL_Driver/Src/stm32h7xx_hal.c ****   *   @arg SYSCFG_SWITCH_PA1_OPEN
 623:Drivers/STM32H7xx_HAL_Driver/Src/stm32h7xx_hal.c ****   *   @arg SYSCFG_SWITCH_PA1_CLOSE
 624:Drivers/STM32H7xx_HAL_Driver/Src/stm32h7xx_hal.c ****   *   @arg SYSCFG_SWITCH_PC2_OPEN
 625:Drivers/STM32H7xx_HAL_Driver/Src/stm32h7xx_hal.c ****   *   @arg SYSCFG_SWITCH_PC2_CLOSE
 626:Drivers/STM32H7xx_HAL_Driver/Src/stm32h7xx_hal.c ****   *   @arg SYSCFG_SWITCH_PC3_OPEN
 627:Drivers/STM32H7xx_HAL_Driver/Src/stm32h7xx_hal.c ****   *   @arg SYSCFG_SWITCH_PC3_CLOSE
 628:Drivers/STM32H7xx_HAL_Driver/Src/stm32h7xx_hal.c ****   * @retval None
 629:Drivers/STM32H7xx_HAL_Driver/Src/stm32h7xx_hal.c ****   */
 630:Drivers/STM32H7xx_HAL_Driver/Src/stm32h7xx_hal.c **** 
 631:Drivers/STM32H7xx_HAL_Driver/Src/stm32h7xx_hal.c **** void HAL_SYSCFG_AnalogSwitchConfig(uint32_t SYSCFG_AnalogSwitch , uint32_t SYSCFG_SwitchState )
 632:Drivers/STM32H7xx_HAL_Driver/Src/stm32h7xx_hal.c **** {
 1120              		.loc 1 632 1 is_stmt 1 view -0
 1121              		.cfi_startproc
 1122              		@ args = 0, pretend = 0, frame = 0
 1123              		@ frame_needed = 0, uses_anonymous_args = 0
 1124              		.loc 1 632 1 is_stmt 0 view .LVU213
 1125 0000 38B5     		push	{r3, r4, r5, lr}
 1126              		.cfi_def_cfa_offset 16
 1127              		.cfi_offset 3, -16
 1128              		.cfi_offset 4, -12
 1129              		.cfi_offset 5, -8
 1130              		.cfi_offset 14, -4
 1131 0002 0446     		mov	r4, r0
 1132 0004 0D46     		mov	r5, r1
 633:Drivers/STM32H7xx_HAL_Driver/Src/stm32h7xx_hal.c ****   /* Check the parameter */
 634:Drivers/STM32H7xx_HAL_Driver/Src/stm32h7xx_hal.c ****   assert_param(IS_SYSCFG_ANALOG_SWITCH(SYSCFG_AnalogSwitch));
 1133              		.loc 1 634 3 is_stmt 1 view .LVU214
 1134 0006 10F0706F 		tst	r0, #251658240
 1135 000a 06D0     		beq	.L113
 1136              	.LVL54:
 1137              	.L111:
 635:Drivers/STM32H7xx_HAL_Driver/Src/stm32h7xx_hal.c ****   assert_param(IS_SYSCFG_SWITCH_STATE(SYSCFG_SwitchState));
 1138              		.loc 1 635 3 view .LVU215
 636:Drivers/STM32H7xx_HAL_Driver/Src/stm32h7xx_hal.c **** 
 637:Drivers/STM32H7xx_HAL_Driver/Src/stm32h7xx_hal.c ****   MODIFY_REG(SYSCFG->PMCR, (uint32_t) SYSCFG_AnalogSwitch, (uint32_t)(SYSCFG_SwitchState));
 1139              		.loc 1 637 3 view .LVU216
 1140 000c 064A     		ldr	r2, .L114
 1141 000e 5068     		ldr	r0, [r2, #4]
 1142 0010 20EA0400 		bic	r0, r0, r4
 1143 0014 2843     		orrs	r0, r0, r5
 1144 0016 5060     		str	r0, [r2, #4]
 638:Drivers/STM32H7xx_HAL_Driver/Src/stm32h7xx_hal.c **** }
ARM GAS  C:\Users\thewo\AppData\Local\Temp\ccu1yGO3.s 			page 33


 1145              		.loc 1 638 1 is_stmt 0 view .LVU217
 1146 0018 38BD     		pop	{r3, r4, r5, pc}
 1147              	.LVL55:
 1148              	.L113:
 634:Drivers/STM32H7xx_HAL_Driver/Src/stm32h7xx_hal.c ****   assert_param(IS_SYSCFG_SWITCH_STATE(SYSCFG_SwitchState));
 1149              		.loc 1 634 3 discriminator 1 view .LVU218
 1150 001a 40F27A21 		movw	r1, #634
 1151              	.LVL56:
 634:Drivers/STM32H7xx_HAL_Driver/Src/stm32h7xx_hal.c ****   assert_param(IS_SYSCFG_SWITCH_STATE(SYSCFG_SwitchState));
 1152              		.loc 1 634 3 discriminator 1 view .LVU219
 1153 001e 0348     		ldr	r0, .L114+4
 1154              	.LVL57:
 634:Drivers/STM32H7xx_HAL_Driver/Src/stm32h7xx_hal.c ****   assert_param(IS_SYSCFG_SWITCH_STATE(SYSCFG_SwitchState));
 1155              		.loc 1 634 3 discriminator 1 view .LVU220
 1156 0020 FFF7FEFF 		bl	assert_failed
 1157              	.LVL58:
 1158 0024 F2E7     		b	.L111
 1159              	.L115:
 1160 0026 00BF     		.align	2
 1161              	.L114:
 1162 0028 00040058 		.word	1476396032
 1163 002c 00000000 		.word	.LC0
 1164              		.cfi_endproc
 1165              	.LFE375:
 1167              		.section	.text.HAL_SYSCFG_EnableBOOST,"ax",%progbits
 1168              		.align	1
 1169              		.global	HAL_SYSCFG_EnableBOOST
 1170              		.syntax unified
 1171              		.thumb
 1172              		.thumb_func
 1174              	HAL_SYSCFG_EnableBOOST:
 1175              	.LFB376:
 639:Drivers/STM32H7xx_HAL_Driver/Src/stm32h7xx_hal.c **** 
 640:Drivers/STM32H7xx_HAL_Driver/Src/stm32h7xx_hal.c **** #if defined(SYSCFG_PMCR_BOOSTEN)
 641:Drivers/STM32H7xx_HAL_Driver/Src/stm32h7xx_hal.c **** /**
 642:Drivers/STM32H7xx_HAL_Driver/Src/stm32h7xx_hal.c ****   * @brief  Enables the booster to reduce the total harmonic distortion of the analog
 643:Drivers/STM32H7xx_HAL_Driver/Src/stm32h7xx_hal.c ****   *         switch when the supply voltage is lower than 2.7 V.
 644:Drivers/STM32H7xx_HAL_Driver/Src/stm32h7xx_hal.c ****   * @note   Activating the booster allows to guaranty the analog switch AC performance
 645:Drivers/STM32H7xx_HAL_Driver/Src/stm32h7xx_hal.c ****   *         when the supply voltage is below 2.7 V: in this case, the analog switch
 646:Drivers/STM32H7xx_HAL_Driver/Src/stm32h7xx_hal.c ****   *         performance is the same on the full voltage range
 647:Drivers/STM32H7xx_HAL_Driver/Src/stm32h7xx_hal.c ****   * @retval None
 648:Drivers/STM32H7xx_HAL_Driver/Src/stm32h7xx_hal.c ****   */
 649:Drivers/STM32H7xx_HAL_Driver/Src/stm32h7xx_hal.c **** void HAL_SYSCFG_EnableBOOST(void)
 650:Drivers/STM32H7xx_HAL_Driver/Src/stm32h7xx_hal.c **** {
 1176              		.loc 1 650 1 is_stmt 1 view -0
 1177              		.cfi_startproc
 1178              		@ args = 0, pretend = 0, frame = 0
 1179              		@ frame_needed = 0, uses_anonymous_args = 0
 1180              		@ link register save eliminated.
 651:Drivers/STM32H7xx_HAL_Driver/Src/stm32h7xx_hal.c ****  SET_BIT(SYSCFG->PMCR, SYSCFG_PMCR_BOOSTEN) ;
 1181              		.loc 1 651 2 view .LVU222
 1182 0000 024A     		ldr	r2, .L117
 1183 0002 5368     		ldr	r3, [r2, #4]
 1184 0004 43F48073 		orr	r3, r3, #256
 1185 0008 5360     		str	r3, [r2, #4]
 652:Drivers/STM32H7xx_HAL_Driver/Src/stm32h7xx_hal.c **** }
 1186              		.loc 1 652 1 is_stmt 0 view .LVU223
ARM GAS  C:\Users\thewo\AppData\Local\Temp\ccu1yGO3.s 			page 34


 1187 000a 7047     		bx	lr
 1188              	.L118:
 1189              		.align	2
 1190              	.L117:
 1191 000c 00040058 		.word	1476396032
 1192              		.cfi_endproc
 1193              	.LFE376:
 1195              		.section	.text.HAL_SYSCFG_DisableBOOST,"ax",%progbits
 1196              		.align	1
 1197              		.global	HAL_SYSCFG_DisableBOOST
 1198              		.syntax unified
 1199              		.thumb
 1200              		.thumb_func
 1202              	HAL_SYSCFG_DisableBOOST:
 1203              	.LFB377:
 653:Drivers/STM32H7xx_HAL_Driver/Src/stm32h7xx_hal.c **** 
 654:Drivers/STM32H7xx_HAL_Driver/Src/stm32h7xx_hal.c **** /**
 655:Drivers/STM32H7xx_HAL_Driver/Src/stm32h7xx_hal.c ****   * @brief  Disables the booster
 656:Drivers/STM32H7xx_HAL_Driver/Src/stm32h7xx_hal.c ****   * @note   Activating the booster allows to guaranty the analog switch AC performance
 657:Drivers/STM32H7xx_HAL_Driver/Src/stm32h7xx_hal.c ****   *         when the supply voltage is below 2.7 V: in this case, the analog switch
 658:Drivers/STM32H7xx_HAL_Driver/Src/stm32h7xx_hal.c ****   *         performance is the same on the full voltage range
 659:Drivers/STM32H7xx_HAL_Driver/Src/stm32h7xx_hal.c ****   * @retval None
 660:Drivers/STM32H7xx_HAL_Driver/Src/stm32h7xx_hal.c ****   */
 661:Drivers/STM32H7xx_HAL_Driver/Src/stm32h7xx_hal.c **** void HAL_SYSCFG_DisableBOOST(void)
 662:Drivers/STM32H7xx_HAL_Driver/Src/stm32h7xx_hal.c **** {
 1204              		.loc 1 662 1 is_stmt 1 view -0
 1205              		.cfi_startproc
 1206              		@ args = 0, pretend = 0, frame = 0
 1207              		@ frame_needed = 0, uses_anonymous_args = 0
 1208              		@ link register save eliminated.
 663:Drivers/STM32H7xx_HAL_Driver/Src/stm32h7xx_hal.c ****  CLEAR_BIT(SYSCFG->PMCR, SYSCFG_PMCR_BOOSTEN) ;
 1209              		.loc 1 663 2 view .LVU225
 1210 0000 024A     		ldr	r2, .L120
 1211 0002 5368     		ldr	r3, [r2, #4]
 1212 0004 23F48073 		bic	r3, r3, #256
 1213 0008 5360     		str	r3, [r2, #4]
 664:Drivers/STM32H7xx_HAL_Driver/Src/stm32h7xx_hal.c **** }
 1214              		.loc 1 664 1 is_stmt 0 view .LVU226
 1215 000a 7047     		bx	lr
 1216              	.L121:
 1217              		.align	2
 1218              	.L120:
 1219 000c 00040058 		.word	1476396032
 1220              		.cfi_endproc
 1221              	.LFE377:
 1223              		.section	.text.HAL_SYSCFG_CM7BootAddConfig,"ax",%progbits
 1224              		.align	1
 1225              		.global	HAL_SYSCFG_CM7BootAddConfig
 1226              		.syntax unified
 1227              		.thumb
 1228              		.thumb_func
 1230              	HAL_SYSCFG_CM7BootAddConfig:
 1231              	.LVL59:
 1232              	.LFB378:
 665:Drivers/STM32H7xx_HAL_Driver/Src/stm32h7xx_hal.c **** #endif /* SYSCFG_PMCR_BOOSTEN */
 666:Drivers/STM32H7xx_HAL_Driver/Src/stm32h7xx_hal.c **** 
 667:Drivers/STM32H7xx_HAL_Driver/Src/stm32h7xx_hal.c **** #if defined (SYSCFG_UR2_BOOT_ADD0) ||  defined (SYSCFG_UR2_BCM7_ADD0)
ARM GAS  C:\Users\thewo\AppData\Local\Temp\ccu1yGO3.s 			page 35


 668:Drivers/STM32H7xx_HAL_Driver/Src/stm32h7xx_hal.c **** /**
 669:Drivers/STM32H7xx_HAL_Driver/Src/stm32h7xx_hal.c ****   * @brief  BootCM7 address 0 configuration
 670:Drivers/STM32H7xx_HAL_Driver/Src/stm32h7xx_hal.c ****   * @param  BootRegister :Specifies the Boot Address register (Address0 or Address1)
 671:Drivers/STM32H7xx_HAL_Driver/Src/stm32h7xx_hal.c ****   *   This parameter can be one of the following values:
 672:Drivers/STM32H7xx_HAL_Driver/Src/stm32h7xx_hal.c ****   *   @arg SYSCFG_BOOT_ADDR0 : Select the boot address0
 673:Drivers/STM32H7xx_HAL_Driver/Src/stm32h7xx_hal.c ****   *   @arg SYSCFG_BOOT_ADDR1:  Select the boot address1
 674:Drivers/STM32H7xx_HAL_Driver/Src/stm32h7xx_hal.c ****   * @param  BootAddress :Specifies the CM7 Boot Address to be loaded in Address0 or Address1
 675:Drivers/STM32H7xx_HAL_Driver/Src/stm32h7xx_hal.c ****   * @retval None
 676:Drivers/STM32H7xx_HAL_Driver/Src/stm32h7xx_hal.c ****   */
 677:Drivers/STM32H7xx_HAL_Driver/Src/stm32h7xx_hal.c **** void HAL_SYSCFG_CM7BootAddConfig(uint32_t BootRegister, uint32_t BootAddress)
 678:Drivers/STM32H7xx_HAL_Driver/Src/stm32h7xx_hal.c **** {
 1233              		.loc 1 678 1 is_stmt 1 view -0
 1234              		.cfi_startproc
 1235              		@ args = 0, pretend = 0, frame = 0
 1236              		@ frame_needed = 0, uses_anonymous_args = 0
 1237              		.loc 1 678 1 is_stmt 0 view .LVU228
 1238 0000 38B5     		push	{r3, r4, r5, lr}
 1239              		.cfi_def_cfa_offset 16
 1240              		.cfi_offset 3, -16
 1241              		.cfi_offset 4, -12
 1242              		.cfi_offset 5, -8
 1243              		.cfi_offset 14, -4
 1244 0002 0546     		mov	r5, r0
 1245 0004 0C46     		mov	r4, r1
 679:Drivers/STM32H7xx_HAL_Driver/Src/stm32h7xx_hal.c ****   /* Check the parameters */
 680:Drivers/STM32H7xx_HAL_Driver/Src/stm32h7xx_hal.c ****   assert_param(IS_SYSCFG_BOOT_REGISTER(BootRegister));
 1246              		.loc 1 680 3 is_stmt 1 view .LVU229
 1247 0006 0128     		cmp	r0, #1
 1248 0008 0DD8     		bhi	.L128
 1249              	.LVL60:
 1250              	.L123:
 681:Drivers/STM32H7xx_HAL_Driver/Src/stm32h7xx_hal.c ****   assert_param(IS_SYSCFG_BOOT_ADDRESS(BootAddress));
 1251              		.loc 1 681 3 view .LVU230
 1252 000a B4F1804F 		cmp	r4, #1073741824
 1253 000e 10D2     		bcs	.L129
 1254              	.L124:
 682:Drivers/STM32H7xx_HAL_Driver/Src/stm32h7xx_hal.c ****   if ( BootRegister == SYSCFG_BOOT_ADDR0 )
 1255              		.loc 1 682 3 view .LVU231
 1256              		.loc 1 682 6 is_stmt 0 view .LVU232
 1257 0010 ADB9     		cbnz	r5, .L125
 683:Drivers/STM32H7xx_HAL_Driver/Src/stm32h7xx_hal.c ****   {
 684:Drivers/STM32H7xx_HAL_Driver/Src/stm32h7xx_hal.c ****     /* Configure CM7 BOOT ADD0 */
 685:Drivers/STM32H7xx_HAL_Driver/Src/stm32h7xx_hal.c **** #if defined(DUAL_CORE)
 686:Drivers/STM32H7xx_HAL_Driver/Src/stm32h7xx_hal.c ****     MODIFY_REG(SYSCFG->UR2, SYSCFG_UR2_BCM7_ADD0, ((BootAddress >> 16) << SYSCFG_UR2_BCM7_ADD0_Pos)
 687:Drivers/STM32H7xx_HAL_Driver/Src/stm32h7xx_hal.c **** #else
 688:Drivers/STM32H7xx_HAL_Driver/Src/stm32h7xx_hal.c ****     MODIFY_REG(SYSCFG->UR2, SYSCFG_UR2_BOOT_ADD0, ((BootAddress >> 16) << SYSCFG_UR2_BOOT_ADD0_Pos)
 1258              		.loc 1 688 5 is_stmt 1 view .LVU233
 1259 0012 104A     		ldr	r2, .L130
 1260 0014 D2F80833 		ldr	r3, [r2, #776]
 1261 0018 9BB2     		uxth	r3, r3
 1262 001a 6FF30F04 		bfc	r4, #0, #16
 1263              	.LVL61:
 1264              		.loc 1 688 5 is_stmt 0 view .LVU234
 1265 001e 2343     		orrs	r3, r3, r4
 1266 0020 C2F80833 		str	r3, [r2, #776]
 1267              	.L122:
 689:Drivers/STM32H7xx_HAL_Driver/Src/stm32h7xx_hal.c **** #endif /*DUAL_CORE*/
ARM GAS  C:\Users\thewo\AppData\Local\Temp\ccu1yGO3.s 			page 36


 690:Drivers/STM32H7xx_HAL_Driver/Src/stm32h7xx_hal.c ****   }
 691:Drivers/STM32H7xx_HAL_Driver/Src/stm32h7xx_hal.c ****   else
 692:Drivers/STM32H7xx_HAL_Driver/Src/stm32h7xx_hal.c ****   {
 693:Drivers/STM32H7xx_HAL_Driver/Src/stm32h7xx_hal.c ****     /* Configure CM7 BOOT ADD1 */
 694:Drivers/STM32H7xx_HAL_Driver/Src/stm32h7xx_hal.c **** #if defined(DUAL_CORE)
 695:Drivers/STM32H7xx_HAL_Driver/Src/stm32h7xx_hal.c ****     MODIFY_REG(SYSCFG->UR3, SYSCFG_UR3_BCM7_ADD1, (BootAddress >> 16));
 696:Drivers/STM32H7xx_HAL_Driver/Src/stm32h7xx_hal.c **** #else
 697:Drivers/STM32H7xx_HAL_Driver/Src/stm32h7xx_hal.c ****     MODIFY_REG(SYSCFG->UR3, SYSCFG_UR3_BOOT_ADD1, (BootAddress >> 16));
 698:Drivers/STM32H7xx_HAL_Driver/Src/stm32h7xx_hal.c **** #endif /*DUAL_CORE*/
 699:Drivers/STM32H7xx_HAL_Driver/Src/stm32h7xx_hal.c ****   }
 700:Drivers/STM32H7xx_HAL_Driver/Src/stm32h7xx_hal.c **** }
 1268              		.loc 1 700 1 view .LVU235
 1269 0024 38BD     		pop	{r3, r4, r5, pc}
 1270              	.LVL62:
 1271              	.L128:
 680:Drivers/STM32H7xx_HAL_Driver/Src/stm32h7xx_hal.c ****   assert_param(IS_SYSCFG_BOOT_ADDRESS(BootAddress));
 1272              		.loc 1 680 3 discriminator 1 view .LVU236
 1273 0026 4FF42A71 		mov	r1, #680
 1274              	.LVL63:
 680:Drivers/STM32H7xx_HAL_Driver/Src/stm32h7xx_hal.c ****   assert_param(IS_SYSCFG_BOOT_ADDRESS(BootAddress));
 1275              		.loc 1 680 3 discriminator 1 view .LVU237
 1276 002a 0B48     		ldr	r0, .L130+4
 1277              	.LVL64:
 680:Drivers/STM32H7xx_HAL_Driver/Src/stm32h7xx_hal.c ****   assert_param(IS_SYSCFG_BOOT_ADDRESS(BootAddress));
 1278              		.loc 1 680 3 discriminator 1 view .LVU238
 1279 002c FFF7FEFF 		bl	assert_failed
 1280              	.LVL65:
 1281 0030 EBE7     		b	.L123
 1282              	.L129:
 681:Drivers/STM32H7xx_HAL_Driver/Src/stm32h7xx_hal.c ****   if ( BootRegister == SYSCFG_BOOT_ADDR0 )
 1283              		.loc 1 681 3 discriminator 1 view .LVU239
 1284 0032 40F2A921 		movw	r1, #681
 1285 0036 0848     		ldr	r0, .L130+4
 1286 0038 FFF7FEFF 		bl	assert_failed
 1287              	.LVL66:
 1288 003c E8E7     		b	.L124
 1289              	.L125:
 697:Drivers/STM32H7xx_HAL_Driver/Src/stm32h7xx_hal.c **** #endif /*DUAL_CORE*/
 1290              		.loc 1 697 5 is_stmt 1 view .LVU240
 1291 003e 054A     		ldr	r2, .L130
 1292 0040 D2F80C33 		ldr	r3, [r2, #780]
 1293 0044 6FF30F03 		bfc	r3, #0, #16
 1294 0048 43EA1443 		orr	r3, r3, r4, lsr #16
 1295 004c C2F80C33 		str	r3, [r2, #780]
 1296              		.loc 1 700 1 is_stmt 0 view .LVU241
 1297 0050 E8E7     		b	.L122
 1298              	.L131:
 1299 0052 00BF     		.align	2
 1300              	.L130:
 1301 0054 00040058 		.word	1476396032
 1302 0058 00000000 		.word	.LC0
 1303              		.cfi_endproc
 1304              	.LFE378:
 1306              		.section	.text.HAL_EnableCompensationCell,"ax",%progbits
 1307              		.align	1
 1308              		.global	HAL_EnableCompensationCell
 1309              		.syntax unified
ARM GAS  C:\Users\thewo\AppData\Local\Temp\ccu1yGO3.s 			page 37


 1310              		.thumb
 1311              		.thumb_func
 1313              	HAL_EnableCompensationCell:
 1314              	.LFB379:
 701:Drivers/STM32H7xx_HAL_Driver/Src/stm32h7xx_hal.c **** #endif /* SYSCFG_UR2_BOOT_ADD0 || SYSCFG_UR2_BCM7_ADD0 */
 702:Drivers/STM32H7xx_HAL_Driver/Src/stm32h7xx_hal.c **** 
 703:Drivers/STM32H7xx_HAL_Driver/Src/stm32h7xx_hal.c **** #if defined(DUAL_CORE)
 704:Drivers/STM32H7xx_HAL_Driver/Src/stm32h7xx_hal.c **** /**
 705:Drivers/STM32H7xx_HAL_Driver/Src/stm32h7xx_hal.c ****   * @brief  BootCM4 address 0 configuration
 706:Drivers/STM32H7xx_HAL_Driver/Src/stm32h7xx_hal.c ****   * @param  BootRegister :Specifies the Boot Address register (Address0 or Address1)
 707:Drivers/STM32H7xx_HAL_Driver/Src/stm32h7xx_hal.c ****   *   This parameter can be one of the following values:
 708:Drivers/STM32H7xx_HAL_Driver/Src/stm32h7xx_hal.c ****   *   @arg SYSCFG_BOOT_ADDR0 : Select the boot address0
 709:Drivers/STM32H7xx_HAL_Driver/Src/stm32h7xx_hal.c ****   *   @arg SYSCFG_BOOT_ADDR1:  Select the boot address1
 710:Drivers/STM32H7xx_HAL_Driver/Src/stm32h7xx_hal.c ****   * @param  BootAddress :Specifies the CM4 Boot Address to be loaded in Address0 or Address1
 711:Drivers/STM32H7xx_HAL_Driver/Src/stm32h7xx_hal.c ****   * @retval None
 712:Drivers/STM32H7xx_HAL_Driver/Src/stm32h7xx_hal.c ****   */
 713:Drivers/STM32H7xx_HAL_Driver/Src/stm32h7xx_hal.c **** void HAL_SYSCFG_CM4BootAddConfig(uint32_t BootRegister, uint32_t BootAddress)
 714:Drivers/STM32H7xx_HAL_Driver/Src/stm32h7xx_hal.c **** {
 715:Drivers/STM32H7xx_HAL_Driver/Src/stm32h7xx_hal.c ****   /* Check the parameters */
 716:Drivers/STM32H7xx_HAL_Driver/Src/stm32h7xx_hal.c ****   assert_param(IS_SYSCFG_BOOT_REGISTER(BootRegister));
 717:Drivers/STM32H7xx_HAL_Driver/Src/stm32h7xx_hal.c ****   assert_param(IS_SYSCFG_BOOT_ADDRESS(BootAddress));
 718:Drivers/STM32H7xx_HAL_Driver/Src/stm32h7xx_hal.c **** 
 719:Drivers/STM32H7xx_HAL_Driver/Src/stm32h7xx_hal.c ****   if ( BootRegister == SYSCFG_BOOT_ADDR0 )
 720:Drivers/STM32H7xx_HAL_Driver/Src/stm32h7xx_hal.c ****   {
 721:Drivers/STM32H7xx_HAL_Driver/Src/stm32h7xx_hal.c ****     /* Configure CM4 BOOT ADD0 */
 722:Drivers/STM32H7xx_HAL_Driver/Src/stm32h7xx_hal.c ****     MODIFY_REG(SYSCFG->UR3, SYSCFG_UR3_BCM4_ADD0, ((BootAddress >> 16)<< SYSCFG_UR3_BCM4_ADD0_Pos))
 723:Drivers/STM32H7xx_HAL_Driver/Src/stm32h7xx_hal.c ****   }
 724:Drivers/STM32H7xx_HAL_Driver/Src/stm32h7xx_hal.c **** 
 725:Drivers/STM32H7xx_HAL_Driver/Src/stm32h7xx_hal.c ****   else
 726:Drivers/STM32H7xx_HAL_Driver/Src/stm32h7xx_hal.c ****   {
 727:Drivers/STM32H7xx_HAL_Driver/Src/stm32h7xx_hal.c ****     /* Configure CM4 BOOT ADD1 */
 728:Drivers/STM32H7xx_HAL_Driver/Src/stm32h7xx_hal.c ****     MODIFY_REG(SYSCFG->UR4, SYSCFG_UR4_BCM4_ADD1, (BootAddress >> 16));
 729:Drivers/STM32H7xx_HAL_Driver/Src/stm32h7xx_hal.c ****   }
 730:Drivers/STM32H7xx_HAL_Driver/Src/stm32h7xx_hal.c **** }
 731:Drivers/STM32H7xx_HAL_Driver/Src/stm32h7xx_hal.c **** 
 732:Drivers/STM32H7xx_HAL_Driver/Src/stm32h7xx_hal.c **** /**
 733:Drivers/STM32H7xx_HAL_Driver/Src/stm32h7xx_hal.c ****   * @brief  Enables the Cortex-M7 boot
 734:Drivers/STM32H7xx_HAL_Driver/Src/stm32h7xx_hal.c ****   * @retval None
 735:Drivers/STM32H7xx_HAL_Driver/Src/stm32h7xx_hal.c ****   */
 736:Drivers/STM32H7xx_HAL_Driver/Src/stm32h7xx_hal.c **** void HAL_SYSCFG_EnableCM7BOOT(void)
 737:Drivers/STM32H7xx_HAL_Driver/Src/stm32h7xx_hal.c **** {
 738:Drivers/STM32H7xx_HAL_Driver/Src/stm32h7xx_hal.c ****  SET_BIT(SYSCFG->UR1, SYSCFG_UR1_BCM7);
 739:Drivers/STM32H7xx_HAL_Driver/Src/stm32h7xx_hal.c **** }
 740:Drivers/STM32H7xx_HAL_Driver/Src/stm32h7xx_hal.c **** 
 741:Drivers/STM32H7xx_HAL_Driver/Src/stm32h7xx_hal.c **** /**
 742:Drivers/STM32H7xx_HAL_Driver/Src/stm32h7xx_hal.c ****   * @brief  Disables the Cortex-M7 boot
 743:Drivers/STM32H7xx_HAL_Driver/Src/stm32h7xx_hal.c ****   * @note   Disabling the boot will gate the CPU clock
 744:Drivers/STM32H7xx_HAL_Driver/Src/stm32h7xx_hal.c ****   * @retval None
 745:Drivers/STM32H7xx_HAL_Driver/Src/stm32h7xx_hal.c ****   */
 746:Drivers/STM32H7xx_HAL_Driver/Src/stm32h7xx_hal.c **** void HAL_SYSCFG_DisableCM7BOOT(void)
 747:Drivers/STM32H7xx_HAL_Driver/Src/stm32h7xx_hal.c **** {
 748:Drivers/STM32H7xx_HAL_Driver/Src/stm32h7xx_hal.c ****  CLEAR_BIT(SYSCFG->UR1, SYSCFG_UR1_BCM7) ;
 749:Drivers/STM32H7xx_HAL_Driver/Src/stm32h7xx_hal.c **** }
 750:Drivers/STM32H7xx_HAL_Driver/Src/stm32h7xx_hal.c **** 
 751:Drivers/STM32H7xx_HAL_Driver/Src/stm32h7xx_hal.c **** /**
 752:Drivers/STM32H7xx_HAL_Driver/Src/stm32h7xx_hal.c ****   * @brief  Enables the Cortex-M4 boot
 753:Drivers/STM32H7xx_HAL_Driver/Src/stm32h7xx_hal.c ****   * @retval None
ARM GAS  C:\Users\thewo\AppData\Local\Temp\ccu1yGO3.s 			page 38


 754:Drivers/STM32H7xx_HAL_Driver/Src/stm32h7xx_hal.c ****   */
 755:Drivers/STM32H7xx_HAL_Driver/Src/stm32h7xx_hal.c **** void HAL_SYSCFG_EnableCM4BOOT(void)
 756:Drivers/STM32H7xx_HAL_Driver/Src/stm32h7xx_hal.c **** {
 757:Drivers/STM32H7xx_HAL_Driver/Src/stm32h7xx_hal.c ****  SET_BIT(SYSCFG->UR1, SYSCFG_UR1_BCM4);
 758:Drivers/STM32H7xx_HAL_Driver/Src/stm32h7xx_hal.c **** }
 759:Drivers/STM32H7xx_HAL_Driver/Src/stm32h7xx_hal.c **** 
 760:Drivers/STM32H7xx_HAL_Driver/Src/stm32h7xx_hal.c **** /**
 761:Drivers/STM32H7xx_HAL_Driver/Src/stm32h7xx_hal.c ****   * @brief  Disables the Cortex-M4 boot
 762:Drivers/STM32H7xx_HAL_Driver/Src/stm32h7xx_hal.c ****   * @note   Disabling the boot will gate the CPU clock
 763:Drivers/STM32H7xx_HAL_Driver/Src/stm32h7xx_hal.c ****   * @retval None
 764:Drivers/STM32H7xx_HAL_Driver/Src/stm32h7xx_hal.c ****   */
 765:Drivers/STM32H7xx_HAL_Driver/Src/stm32h7xx_hal.c **** void HAL_SYSCFG_DisableCM4BOOT(void)
 766:Drivers/STM32H7xx_HAL_Driver/Src/stm32h7xx_hal.c **** {
 767:Drivers/STM32H7xx_HAL_Driver/Src/stm32h7xx_hal.c ****   CLEAR_BIT(SYSCFG->UR1, SYSCFG_UR1_BCM4);
 768:Drivers/STM32H7xx_HAL_Driver/Src/stm32h7xx_hal.c **** }
 769:Drivers/STM32H7xx_HAL_Driver/Src/stm32h7xx_hal.c **** #endif /*DUAL_CORE*/
 770:Drivers/STM32H7xx_HAL_Driver/Src/stm32h7xx_hal.c **** /**
 771:Drivers/STM32H7xx_HAL_Driver/Src/stm32h7xx_hal.c ****   * @brief  Enables the I/O Compensation Cell.
 772:Drivers/STM32H7xx_HAL_Driver/Src/stm32h7xx_hal.c ****   * @note   The I/O compensation cell can be used only when the device supply
 773:Drivers/STM32H7xx_HAL_Driver/Src/stm32h7xx_hal.c ****   *         voltage ranges from 1.62 to 2.0 V and from 2.7 to 3.6 V.
 774:Drivers/STM32H7xx_HAL_Driver/Src/stm32h7xx_hal.c ****   * @retval None
 775:Drivers/STM32H7xx_HAL_Driver/Src/stm32h7xx_hal.c ****   */
 776:Drivers/STM32H7xx_HAL_Driver/Src/stm32h7xx_hal.c **** void HAL_EnableCompensationCell(void)
 777:Drivers/STM32H7xx_HAL_Driver/Src/stm32h7xx_hal.c **** {
 1315              		.loc 1 777 1 is_stmt 1 view -0
 1316              		.cfi_startproc
 1317              		@ args = 0, pretend = 0, frame = 0
 1318              		@ frame_needed = 0, uses_anonymous_args = 0
 1319              		@ link register save eliminated.
 778:Drivers/STM32H7xx_HAL_Driver/Src/stm32h7xx_hal.c ****   SET_BIT(SYSCFG->CCCSR, SYSCFG_CCCSR_EN) ;
 1320              		.loc 1 778 3 view .LVU243
 1321 0000 024A     		ldr	r2, .L133
 1322 0002 136A     		ldr	r3, [r2, #32]
 1323 0004 43F00103 		orr	r3, r3, #1
 1324 0008 1362     		str	r3, [r2, #32]
 779:Drivers/STM32H7xx_HAL_Driver/Src/stm32h7xx_hal.c **** }
 1325              		.loc 1 779 1 is_stmt 0 view .LVU244
 1326 000a 7047     		bx	lr
 1327              	.L134:
 1328              		.align	2
 1329              	.L133:
 1330 000c 00040058 		.word	1476396032
 1331              		.cfi_endproc
 1332              	.LFE379:
 1334              		.section	.text.HAL_DisableCompensationCell,"ax",%progbits
 1335              		.align	1
 1336              		.global	HAL_DisableCompensationCell
 1337              		.syntax unified
 1338              		.thumb
 1339              		.thumb_func
 1341              	HAL_DisableCompensationCell:
 1342              	.LFB380:
 780:Drivers/STM32H7xx_HAL_Driver/Src/stm32h7xx_hal.c **** 
 781:Drivers/STM32H7xx_HAL_Driver/Src/stm32h7xx_hal.c **** /**
 782:Drivers/STM32H7xx_HAL_Driver/Src/stm32h7xx_hal.c ****   * @brief  Power-down the I/O Compensation Cell.
 783:Drivers/STM32H7xx_HAL_Driver/Src/stm32h7xx_hal.c ****   * @note   The I/O compensation cell can be used only when the device supply
 784:Drivers/STM32H7xx_HAL_Driver/Src/stm32h7xx_hal.c ****   *         voltage ranges from 1.62 to 2.0 V and from 2.7 to 3.6 V.
ARM GAS  C:\Users\thewo\AppData\Local\Temp\ccu1yGO3.s 			page 39


 785:Drivers/STM32H7xx_HAL_Driver/Src/stm32h7xx_hal.c ****   * @retval None
 786:Drivers/STM32H7xx_HAL_Driver/Src/stm32h7xx_hal.c ****   */
 787:Drivers/STM32H7xx_HAL_Driver/Src/stm32h7xx_hal.c **** void HAL_DisableCompensationCell(void)
 788:Drivers/STM32H7xx_HAL_Driver/Src/stm32h7xx_hal.c **** {
 1343              		.loc 1 788 1 is_stmt 1 view -0
 1344              		.cfi_startproc
 1345              		@ args = 0, pretend = 0, frame = 0
 1346              		@ frame_needed = 0, uses_anonymous_args = 0
 1347              		@ link register save eliminated.
 789:Drivers/STM32H7xx_HAL_Driver/Src/stm32h7xx_hal.c ****   CLEAR_BIT(SYSCFG->CCCSR, SYSCFG_CCCSR_EN);
 1348              		.loc 1 789 3 view .LVU246
 1349 0000 024A     		ldr	r2, .L136
 1350 0002 136A     		ldr	r3, [r2, #32]
 1351 0004 23F00103 		bic	r3, r3, #1
 1352 0008 1362     		str	r3, [r2, #32]
 790:Drivers/STM32H7xx_HAL_Driver/Src/stm32h7xx_hal.c **** }
 1353              		.loc 1 790 1 is_stmt 0 view .LVU247
 1354 000a 7047     		bx	lr
 1355              	.L137:
 1356              		.align	2
 1357              	.L136:
 1358 000c 00040058 		.word	1476396032
 1359              		.cfi_endproc
 1360              	.LFE380:
 1362              		.section	.text.HAL_SYSCFG_EnableIOSpeedOptimize,"ax",%progbits
 1363              		.align	1
 1364              		.global	HAL_SYSCFG_EnableIOSpeedOptimize
 1365              		.syntax unified
 1366              		.thumb
 1367              		.thumb_func
 1369              	HAL_SYSCFG_EnableIOSpeedOptimize:
 1370              	.LFB381:
 791:Drivers/STM32H7xx_HAL_Driver/Src/stm32h7xx_hal.c **** 
 792:Drivers/STM32H7xx_HAL_Driver/Src/stm32h7xx_hal.c **** 
 793:Drivers/STM32H7xx_HAL_Driver/Src/stm32h7xx_hal.c **** /**
 794:Drivers/STM32H7xx_HAL_Driver/Src/stm32h7xx_hal.c ****   * @brief  To Enable optimize the I/O speed when the product voltage is low.
 795:Drivers/STM32H7xx_HAL_Driver/Src/stm32h7xx_hal.c ****   * @note   This bit is active only if PRODUCT_BELOW_25V user option bit is set. It must be
 796:Drivers/STM32H7xx_HAL_Driver/Src/stm32h7xx_hal.c ****   *         used only if the product supply voltage is below 2.5 V. Setting this bit when VDD is
 797:Drivers/STM32H7xx_HAL_Driver/Src/stm32h7xx_hal.c ****   *         higher than 2.5 V might be destructive.
 798:Drivers/STM32H7xx_HAL_Driver/Src/stm32h7xx_hal.c ****   * @retval None
 799:Drivers/STM32H7xx_HAL_Driver/Src/stm32h7xx_hal.c ****   */
 800:Drivers/STM32H7xx_HAL_Driver/Src/stm32h7xx_hal.c **** void HAL_SYSCFG_EnableIOSpeedOptimize(void)
 801:Drivers/STM32H7xx_HAL_Driver/Src/stm32h7xx_hal.c **** {
 1371              		.loc 1 801 1 is_stmt 1 view -0
 1372              		.cfi_startproc
 1373              		@ args = 0, pretend = 0, frame = 0
 1374              		@ frame_needed = 0, uses_anonymous_args = 0
 1375              		@ link register save eliminated.
 802:Drivers/STM32H7xx_HAL_Driver/Src/stm32h7xx_hal.c **** #if defined(SYSCFG_CCCSR_HSLV)
 803:Drivers/STM32H7xx_HAL_Driver/Src/stm32h7xx_hal.c ****   SET_BIT(SYSCFG->CCCSR, SYSCFG_CCCSR_HSLV);
 1376              		.loc 1 803 3 view .LVU249
 1377 0000 024A     		ldr	r2, .L139
 1378 0002 136A     		ldr	r3, [r2, #32]
 1379 0004 43F48033 		orr	r3, r3, #65536
 1380 0008 1362     		str	r3, [r2, #32]
 804:Drivers/STM32H7xx_HAL_Driver/Src/stm32h7xx_hal.c **** #else
 805:Drivers/STM32H7xx_HAL_Driver/Src/stm32h7xx_hal.c ****   SET_BIT(SYSCFG->CCCSR, (SYSCFG_CCCSR_HSLV0| SYSCFG_CCCSR_HSLV1 | SYSCFG_CCCSR_HSLV2  | SYSCFG_CCC
ARM GAS  C:\Users\thewo\AppData\Local\Temp\ccu1yGO3.s 			page 40


 806:Drivers/STM32H7xx_HAL_Driver/Src/stm32h7xx_hal.c **** #endif   /* SYSCFG_CCCSR_HSLV */
 807:Drivers/STM32H7xx_HAL_Driver/Src/stm32h7xx_hal.c **** }
 1381              		.loc 1 807 1 is_stmt 0 view .LVU250
 1382 000a 7047     		bx	lr
 1383              	.L140:
 1384              		.align	2
 1385              	.L139:
 1386 000c 00040058 		.word	1476396032
 1387              		.cfi_endproc
 1388              	.LFE381:
 1390              		.section	.text.HAL_SYSCFG_DisableIOSpeedOptimize,"ax",%progbits
 1391              		.align	1
 1392              		.global	HAL_SYSCFG_DisableIOSpeedOptimize
 1393              		.syntax unified
 1394              		.thumb
 1395              		.thumb_func
 1397              	HAL_SYSCFG_DisableIOSpeedOptimize:
 1398              	.LFB382:
 808:Drivers/STM32H7xx_HAL_Driver/Src/stm32h7xx_hal.c **** 
 809:Drivers/STM32H7xx_HAL_Driver/Src/stm32h7xx_hal.c **** /**
 810:Drivers/STM32H7xx_HAL_Driver/Src/stm32h7xx_hal.c ****   * @brief  To Disable optimize the I/O speed when the product voltage is low.
 811:Drivers/STM32H7xx_HAL_Driver/Src/stm32h7xx_hal.c ****   * @note   This bit is active only if PRODUCT_BELOW_25V user option bit is set. It must be
 812:Drivers/STM32H7xx_HAL_Driver/Src/stm32h7xx_hal.c ****   *         used only if the product supply voltage is below 2.5 V. Setting this bit when VDD is
 813:Drivers/STM32H7xx_HAL_Driver/Src/stm32h7xx_hal.c ****   *         higher than 2.5 V might be destructive.
 814:Drivers/STM32H7xx_HAL_Driver/Src/stm32h7xx_hal.c ****   * @retval None
 815:Drivers/STM32H7xx_HAL_Driver/Src/stm32h7xx_hal.c ****   */
 816:Drivers/STM32H7xx_HAL_Driver/Src/stm32h7xx_hal.c **** void HAL_SYSCFG_DisableIOSpeedOptimize(void)
 817:Drivers/STM32H7xx_HAL_Driver/Src/stm32h7xx_hal.c **** {
 1399              		.loc 1 817 1 is_stmt 1 view -0
 1400              		.cfi_startproc
 1401              		@ args = 0, pretend = 0, frame = 0
 1402              		@ frame_needed = 0, uses_anonymous_args = 0
 1403              		@ link register save eliminated.
 818:Drivers/STM32H7xx_HAL_Driver/Src/stm32h7xx_hal.c **** #if defined(SYSCFG_CCCSR_HSLV)
 819:Drivers/STM32H7xx_HAL_Driver/Src/stm32h7xx_hal.c ****   CLEAR_BIT(SYSCFG->CCCSR, SYSCFG_CCCSR_HSLV);
 1404              		.loc 1 819 3 view .LVU252
 1405 0000 024A     		ldr	r2, .L142
 1406 0002 136A     		ldr	r3, [r2, #32]
 1407 0004 23F48033 		bic	r3, r3, #65536
 1408 0008 1362     		str	r3, [r2, #32]
 820:Drivers/STM32H7xx_HAL_Driver/Src/stm32h7xx_hal.c **** #else
 821:Drivers/STM32H7xx_HAL_Driver/Src/stm32h7xx_hal.c ****   CLEAR_BIT(SYSCFG->CCCSR, (SYSCFG_CCCSR_HSLV0| SYSCFG_CCCSR_HSLV1 | SYSCFG_CCCSR_HSLV2  | SYSCFG_C
 822:Drivers/STM32H7xx_HAL_Driver/Src/stm32h7xx_hal.c **** #endif   /* SYSCFG_CCCSR_HSLV */
 823:Drivers/STM32H7xx_HAL_Driver/Src/stm32h7xx_hal.c **** }
 1409              		.loc 1 823 1 is_stmt 0 view .LVU253
 1410 000a 7047     		bx	lr
 1411              	.L143:
 1412              		.align	2
 1413              	.L142:
 1414 000c 00040058 		.word	1476396032
 1415              		.cfi_endproc
 1416              	.LFE382:
 1418              		.section	.text.HAL_SYSCFG_CompensationCodeSelect,"ax",%progbits
 1419              		.align	1
 1420              		.global	HAL_SYSCFG_CompensationCodeSelect
 1421              		.syntax unified
 1422              		.thumb
ARM GAS  C:\Users\thewo\AppData\Local\Temp\ccu1yGO3.s 			page 41


 1423              		.thumb_func
 1425              	HAL_SYSCFG_CompensationCodeSelect:
 1426              	.LVL67:
 1427              	.LFB383:
 824:Drivers/STM32H7xx_HAL_Driver/Src/stm32h7xx_hal.c **** 
 825:Drivers/STM32H7xx_HAL_Driver/Src/stm32h7xx_hal.c **** /**
 826:Drivers/STM32H7xx_HAL_Driver/Src/stm32h7xx_hal.c ****   * @brief  Code selection for the I/O Compensation cell
 827:Drivers/STM32H7xx_HAL_Driver/Src/stm32h7xx_hal.c ****   * @param  SYSCFG_CompCode: Selects the code to be applied for the I/O compensation cell
 828:Drivers/STM32H7xx_HAL_Driver/Src/stm32h7xx_hal.c ****   *   This parameter can be one of the following values:
 829:Drivers/STM32H7xx_HAL_Driver/Src/stm32h7xx_hal.c ****   *   @arg SYSCFG_CELL_CODE : Select Code from the cell (available in the SYSCFG_CCVR)
 830:Drivers/STM32H7xx_HAL_Driver/Src/stm32h7xx_hal.c ****   *   @arg SYSCFG_REGISTER_CODE: Select Code from the SYSCFG compensation cell code register (SYSCF
 831:Drivers/STM32H7xx_HAL_Driver/Src/stm32h7xx_hal.c ****   * @retval None
 832:Drivers/STM32H7xx_HAL_Driver/Src/stm32h7xx_hal.c ****   */
 833:Drivers/STM32H7xx_HAL_Driver/Src/stm32h7xx_hal.c **** void HAL_SYSCFG_CompensationCodeSelect(uint32_t SYSCFG_CompCode)
 834:Drivers/STM32H7xx_HAL_Driver/Src/stm32h7xx_hal.c **** {
 1428              		.loc 1 834 1 is_stmt 1 view -0
 1429              		.cfi_startproc
 1430              		@ args = 0, pretend = 0, frame = 0
 1431              		@ frame_needed = 0, uses_anonymous_args = 0
 1432              		.loc 1 834 1 is_stmt 0 view .LVU255
 1433 0000 10B5     		push	{r4, lr}
 1434              		.cfi_def_cfa_offset 8
 1435              		.cfi_offset 4, -8
 1436              		.cfi_offset 14, -4
 1437 0002 0446     		mov	r4, r0
 835:Drivers/STM32H7xx_HAL_Driver/Src/stm32h7xx_hal.c ****   /* Check the parameter */
 836:Drivers/STM32H7xx_HAL_Driver/Src/stm32h7xx_hal.c ****   assert_param(IS_SYSCFG_CODE_SELECT(SYSCFG_CompCode));
 1438              		.loc 1 836 3 is_stmt 1 view .LVU256
 1439 0004 0028     		cmp	r0, #0
 1440 0006 18BF     		it	ne
 1441 0008 0228     		cmpne	r0, #2
 1442 000a 06D1     		bne	.L147
 1443              	.LVL68:
 1444              	.L145:
 837:Drivers/STM32H7xx_HAL_Driver/Src/stm32h7xx_hal.c ****   MODIFY_REG(SYSCFG->CCCSR, SYSCFG_CCCSR_CS, (uint32_t)(SYSCFG_CompCode));
 1445              		.loc 1 837 3 view .LVU257
 1446 000c 064A     		ldr	r2, .L148
 1447 000e 136A     		ldr	r3, [r2, #32]
 1448 0010 23F00203 		bic	r3, r3, #2
 1449 0014 2343     		orrs	r3, r3, r4
 1450 0016 1362     		str	r3, [r2, #32]
 838:Drivers/STM32H7xx_HAL_Driver/Src/stm32h7xx_hal.c **** }
 1451              		.loc 1 838 1 is_stmt 0 view .LVU258
 1452 0018 10BD     		pop	{r4, pc}
 1453              	.LVL69:
 1454              	.L147:
 836:Drivers/STM32H7xx_HAL_Driver/Src/stm32h7xx_hal.c ****   MODIFY_REG(SYSCFG->CCCSR, SYSCFG_CCCSR_CS, (uint32_t)(SYSCFG_CompCode));
 1455              		.loc 1 836 3 discriminator 1 view .LVU259
 1456 001a 4FF45171 		mov	r1, #836
 1457 001e 0348     		ldr	r0, .L148+4
 1458              	.LVL70:
 836:Drivers/STM32H7xx_HAL_Driver/Src/stm32h7xx_hal.c ****   MODIFY_REG(SYSCFG->CCCSR, SYSCFG_CCCSR_CS, (uint32_t)(SYSCFG_CompCode));
 1459              		.loc 1 836 3 discriminator 1 view .LVU260
 1460 0020 FFF7FEFF 		bl	assert_failed
 1461              	.LVL71:
 1462 0024 F2E7     		b	.L145
 1463              	.L149:
ARM GAS  C:\Users\thewo\AppData\Local\Temp\ccu1yGO3.s 			page 42


 1464 0026 00BF     		.align	2
 1465              	.L148:
 1466 0028 00040058 		.word	1476396032
 1467 002c 00000000 		.word	.LC0
 1468              		.cfi_endproc
 1469              	.LFE383:
 1471              		.section	.text.HAL_SYSCFG_CompensationCodeConfig,"ax",%progbits
 1472              		.align	1
 1473              		.global	HAL_SYSCFG_CompensationCodeConfig
 1474              		.syntax unified
 1475              		.thumb
 1476              		.thumb_func
 1478              	HAL_SYSCFG_CompensationCodeConfig:
 1479              	.LVL72:
 1480              	.LFB384:
 839:Drivers/STM32H7xx_HAL_Driver/Src/stm32h7xx_hal.c **** 
 840:Drivers/STM32H7xx_HAL_Driver/Src/stm32h7xx_hal.c **** /**
 841:Drivers/STM32H7xx_HAL_Driver/Src/stm32h7xx_hal.c ****   * @brief  Code selection for the I/O Compensation cell
 842:Drivers/STM32H7xx_HAL_Driver/Src/stm32h7xx_hal.c ****   * @param  SYSCFG_PMOSCode: PMOS compensation code
 843:Drivers/STM32H7xx_HAL_Driver/Src/stm32h7xx_hal.c ****   *         This code is applied to the I/O compensation cell when the CS bit of the
 844:Drivers/STM32H7xx_HAL_Driver/Src/stm32h7xx_hal.c ****   *          SYSCFG_CMPCR is set
 845:Drivers/STM32H7xx_HAL_Driver/Src/stm32h7xx_hal.c ****   * @param  SYSCFG_NMOSCode: NMOS compensation code
 846:Drivers/STM32H7xx_HAL_Driver/Src/stm32h7xx_hal.c ****   *         This code is applied to the I/O compensation cell when the CS bit of the
 847:Drivers/STM32H7xx_HAL_Driver/Src/stm32h7xx_hal.c ****   *          SYSCFG_CMPCR is set
 848:Drivers/STM32H7xx_HAL_Driver/Src/stm32h7xx_hal.c ****   * @retval None
 849:Drivers/STM32H7xx_HAL_Driver/Src/stm32h7xx_hal.c ****   */
 850:Drivers/STM32H7xx_HAL_Driver/Src/stm32h7xx_hal.c **** void HAL_SYSCFG_CompensationCodeConfig(uint32_t SYSCFG_PMOSCode, uint32_t SYSCFG_NMOSCode )
 851:Drivers/STM32H7xx_HAL_Driver/Src/stm32h7xx_hal.c **** {
 1481              		.loc 1 851 1 is_stmt 1 view -0
 1482              		.cfi_startproc
 1483              		@ args = 0, pretend = 0, frame = 0
 1484              		@ frame_needed = 0, uses_anonymous_args = 0
 1485              		.loc 1 851 1 is_stmt 0 view .LVU262
 1486 0000 38B5     		push	{r3, r4, r5, lr}
 1487              		.cfi_def_cfa_offset 16
 1488              		.cfi_offset 3, -16
 1489              		.cfi_offset 4, -12
 1490              		.cfi_offset 5, -8
 1491              		.cfi_offset 14, -4
 1492 0002 0546     		mov	r5, r0
 1493 0004 0C46     		mov	r4, r1
 852:Drivers/STM32H7xx_HAL_Driver/Src/stm32h7xx_hal.c ****   /* Check the parameter */
 853:Drivers/STM32H7xx_HAL_Driver/Src/stm32h7xx_hal.c ****   assert_param(IS_SYSCFG_CODE_CONFIG(SYSCFG_PMOSCode));
 1494              		.loc 1 853 3 is_stmt 1 view .LVU263
 1495 0006 0F28     		cmp	r0, #15
 1496 0008 0AD8     		bhi	.L154
 1497              	.LVL73:
 1498              	.L151:
 854:Drivers/STM32H7xx_HAL_Driver/Src/stm32h7xx_hal.c ****   assert_param(IS_SYSCFG_CODE_CONFIG(SYSCFG_NMOSCode));
 1499              		.loc 1 854 3 view .LVU264
 1500 000a 0F2C     		cmp	r4, #15
 1501 000c 0ED8     		bhi	.L155
 1502              	.L152:
 855:Drivers/STM32H7xx_HAL_Driver/Src/stm32h7xx_hal.c ****   MODIFY_REG(SYSCFG->CCCR, SYSCFG_CCCR_NCC|SYSCFG_CCCR_PCC, (((uint32_t)(SYSCFG_PMOSCode)<< 4)|(uin
 1503              		.loc 1 855 3 view .LVU265
 1504 000e 0A4A     		ldr	r2, .L156
 1505 0010 936A     		ldr	r3, [r2, #40]
ARM GAS  C:\Users\thewo\AppData\Local\Temp\ccu1yGO3.s 			page 43


 1506 0012 23F0FF03 		bic	r3, r3, #255
 1507 0016 44EA0514 		orr	r4, r4, r5, lsl #4
 1508              	.LVL74:
 1509              		.loc 1 855 3 is_stmt 0 view .LVU266
 1510 001a 2343     		orrs	r3, r3, r4
 1511 001c 9362     		str	r3, [r2, #40]
 856:Drivers/STM32H7xx_HAL_Driver/Src/stm32h7xx_hal.c **** }
 1512              		.loc 1 856 1 view .LVU267
 1513 001e 38BD     		pop	{r3, r4, r5, pc}
 1514              	.LVL75:
 1515              	.L154:
 853:Drivers/STM32H7xx_HAL_Driver/Src/stm32h7xx_hal.c ****   assert_param(IS_SYSCFG_CODE_CONFIG(SYSCFG_NMOSCode));
 1516              		.loc 1 853 3 discriminator 1 view .LVU268
 1517 0020 40F25531 		movw	r1, #853
 1518              	.LVL76:
 853:Drivers/STM32H7xx_HAL_Driver/Src/stm32h7xx_hal.c ****   assert_param(IS_SYSCFG_CODE_CONFIG(SYSCFG_NMOSCode));
 1519              		.loc 1 853 3 discriminator 1 view .LVU269
 1520 0024 0548     		ldr	r0, .L156+4
 1521              	.LVL77:
 853:Drivers/STM32H7xx_HAL_Driver/Src/stm32h7xx_hal.c ****   assert_param(IS_SYSCFG_CODE_CONFIG(SYSCFG_NMOSCode));
 1522              		.loc 1 853 3 discriminator 1 view .LVU270
 1523 0026 FFF7FEFF 		bl	assert_failed
 1524              	.LVL78:
 1525 002a EEE7     		b	.L151
 1526              	.L155:
 854:Drivers/STM32H7xx_HAL_Driver/Src/stm32h7xx_hal.c ****   MODIFY_REG(SYSCFG->CCCR, SYSCFG_CCCR_NCC|SYSCFG_CCCR_PCC, (((uint32_t)(SYSCFG_PMOSCode)<< 4)|(uin
 1527              		.loc 1 854 3 discriminator 1 view .LVU271
 1528 002c 40F25631 		movw	r1, #854
 1529 0030 0248     		ldr	r0, .L156+4
 1530 0032 FFF7FEFF 		bl	assert_failed
 1531              	.LVL79:
 1532 0036 EAE7     		b	.L152
 1533              	.L157:
 1534              		.align	2
 1535              	.L156:
 1536 0038 00040058 		.word	1476396032
 1537 003c 00000000 		.word	.LC0
 1538              		.cfi_endproc
 1539              	.LFE384:
 1541              		.section	.text.HAL_SYSCFG_ADC2ALT_Rout0Config,"ax",%progbits
 1542              		.align	1
 1543              		.global	HAL_SYSCFG_ADC2ALT_Rout0Config
 1544              		.syntax unified
 1545              		.thumb
 1546              		.thumb_func
 1548              	HAL_SYSCFG_ADC2ALT_Rout0Config:
 1549              	.LVL80:
 1550              	.LFB385:
 857:Drivers/STM32H7xx_HAL_Driver/Src/stm32h7xx_hal.c **** 
 858:Drivers/STM32H7xx_HAL_Driver/Src/stm32h7xx_hal.c **** #if defined(SYSCFG_CCCR_NCC_MMC)
 859:Drivers/STM32H7xx_HAL_Driver/Src/stm32h7xx_hal.c **** /**
 860:Drivers/STM32H7xx_HAL_Driver/Src/stm32h7xx_hal.c ****   * @brief  Code selection for the I/O Compensation cell
 861:Drivers/STM32H7xx_HAL_Driver/Src/stm32h7xx_hal.c ****   * @param  SYSCFG_PMOSCode: VDDMMC PMOS compensation code
 862:Drivers/STM32H7xx_HAL_Driver/Src/stm32h7xx_hal.c ****   *         This code is applied to the I/O compensation cell when the CS bit of the
 863:Drivers/STM32H7xx_HAL_Driver/Src/stm32h7xx_hal.c ****   *          SYSCFG_CMPCR is set
 864:Drivers/STM32H7xx_HAL_Driver/Src/stm32h7xx_hal.c ****   * @param  SYSCFG_NMOSCode: VDDMMC NMOS compensation code
 865:Drivers/STM32H7xx_HAL_Driver/Src/stm32h7xx_hal.c ****   *         This code is applied to the I/O compensation cell when the CS bit of the
ARM GAS  C:\Users\thewo\AppData\Local\Temp\ccu1yGO3.s 			page 44


 866:Drivers/STM32H7xx_HAL_Driver/Src/stm32h7xx_hal.c ****   *          SYSCFG_CMPCR is set
 867:Drivers/STM32H7xx_HAL_Driver/Src/stm32h7xx_hal.c ****   * @retval None
 868:Drivers/STM32H7xx_HAL_Driver/Src/stm32h7xx_hal.c ****   */
 869:Drivers/STM32H7xx_HAL_Driver/Src/stm32h7xx_hal.c **** void HAL_SYSCFG_VDDMMC_CompensationCodeConfig(uint32_t SYSCFG_PMOSCode, uint32_t SYSCFG_NMOSCode )
 870:Drivers/STM32H7xx_HAL_Driver/Src/stm32h7xx_hal.c **** {
 871:Drivers/STM32H7xx_HAL_Driver/Src/stm32h7xx_hal.c ****   /* Check the parameter */
 872:Drivers/STM32H7xx_HAL_Driver/Src/stm32h7xx_hal.c ****   assert_param(IS_SYSCFG_CODE_CONFIG(SYSCFG_PMOSCode));
 873:Drivers/STM32H7xx_HAL_Driver/Src/stm32h7xx_hal.c ****   assert_param(IS_SYSCFG_CODE_CONFIG(SYSCFG_NMOSCode));
 874:Drivers/STM32H7xx_HAL_Driver/Src/stm32h7xx_hal.c ****   MODIFY_REG(SYSCFG->CCCR, (SYSCFG_CCCR_NCC_MMC | SYSCFG_CCCR_PCC_MMC), (((uint32_t)(SYSCFG_PMOSCod
 875:Drivers/STM32H7xx_HAL_Driver/Src/stm32h7xx_hal.c **** }
 876:Drivers/STM32H7xx_HAL_Driver/Src/stm32h7xx_hal.c **** #endif /* SYSCFG_CCCR_NCC_MMC */
 877:Drivers/STM32H7xx_HAL_Driver/Src/stm32h7xx_hal.c **** 
 878:Drivers/STM32H7xx_HAL_Driver/Src/stm32h7xx_hal.c **** #if defined(SYSCFG_ADC2ALT_ADC2_ROUT0)
 879:Drivers/STM32H7xx_HAL_Driver/Src/stm32h7xx_hal.c **** /** @brief  SYSCFG ADC2 internal input alternate connection macros
 880:Drivers/STM32H7xx_HAL_Driver/Src/stm32h7xx_hal.c ****   * @param Adc2AltRout0 This parameter can be a value of :
 881:Drivers/STM32H7xx_HAL_Driver/Src/stm32h7xx_hal.c ****   *     @arg @ref SYSCFG_ADC2_ROUT0_DAC1_1   DAC1_out1 connected to ADC2 VINP[16]
 882:Drivers/STM32H7xx_HAL_Driver/Src/stm32h7xx_hal.c ****   *     @arg @ref SYSCFG_ADC2_ROUT0_VBAT4    VBAT/4 connected to ADC2 VINP[16]
 883:Drivers/STM32H7xx_HAL_Driver/Src/stm32h7xx_hal.c ****   */
 884:Drivers/STM32H7xx_HAL_Driver/Src/stm32h7xx_hal.c **** void HAL_SYSCFG_ADC2ALT_Rout0Config(uint32_t Adc2AltRout0)
 885:Drivers/STM32H7xx_HAL_Driver/Src/stm32h7xx_hal.c **** {
 1551              		.loc 1 885 1 is_stmt 1 view -0
 1552              		.cfi_startproc
 1553              		@ args = 0, pretend = 0, frame = 0
 1554              		@ frame_needed = 0, uses_anonymous_args = 0
 1555              		.loc 1 885 1 is_stmt 0 view .LVU273
 1556 0000 10B5     		push	{r4, lr}
 1557              		.cfi_def_cfa_offset 8
 1558              		.cfi_offset 4, -8
 1559              		.cfi_offset 14, -4
 1560 0002 0446     		mov	r4, r0
 886:Drivers/STM32H7xx_HAL_Driver/Src/stm32h7xx_hal.c ****   /* Check the parameters */
 887:Drivers/STM32H7xx_HAL_Driver/Src/stm32h7xx_hal.c ****   assert_param(IS_SYSCFG_ADC2ALT_ROUT0(Adc2AltRout0));
 1561              		.loc 1 887 3 is_stmt 1 view .LVU274
 1562 0004 0128     		cmp	r0, #1
 1563 0006 06D8     		bhi	.L161
 1564              	.LVL81:
 1565              	.L159:
 888:Drivers/STM32H7xx_HAL_Driver/Src/stm32h7xx_hal.c **** 
 889:Drivers/STM32H7xx_HAL_Driver/Src/stm32h7xx_hal.c ****   MODIFY_REG(SYSCFG->ADC2ALT, SYSCFG_ADC2ALT_ADC2_ROUT0, Adc2AltRout0);
 1566              		.loc 1 889 3 view .LVU275
 1567 0008 064A     		ldr	r2, .L162
 1568 000a 136B     		ldr	r3, [r2, #48]
 1569 000c 23F00103 		bic	r3, r3, #1
 1570 0010 2343     		orrs	r3, r3, r4
 1571 0012 1363     		str	r3, [r2, #48]
 890:Drivers/STM32H7xx_HAL_Driver/Src/stm32h7xx_hal.c **** }
 1572              		.loc 1 890 1 is_stmt 0 view .LVU276
 1573 0014 10BD     		pop	{r4, pc}
 1574              	.LVL82:
 1575              	.L161:
 887:Drivers/STM32H7xx_HAL_Driver/Src/stm32h7xx_hal.c **** 
 1576              		.loc 1 887 3 discriminator 1 view .LVU277
 1577 0016 40F27731 		movw	r1, #887
 1578 001a 0348     		ldr	r0, .L162+4
 1579              	.LVL83:
 887:Drivers/STM32H7xx_HAL_Driver/Src/stm32h7xx_hal.c **** 
 1580              		.loc 1 887 3 discriminator 1 view .LVU278
ARM GAS  C:\Users\thewo\AppData\Local\Temp\ccu1yGO3.s 			page 45


 1581 001c FFF7FEFF 		bl	assert_failed
 1582              	.LVL84:
 1583 0020 F2E7     		b	.L159
 1584              	.L163:
 1585 0022 00BF     		.align	2
 1586              	.L162:
 1587 0024 00040058 		.word	1476396032
 1588 0028 00000000 		.word	.LC0
 1589              		.cfi_endproc
 1590              	.LFE385:
 1592              		.section	.text.HAL_SYSCFG_ADC2ALT_Rout1Config,"ax",%progbits
 1593              		.align	1
 1594              		.global	HAL_SYSCFG_ADC2ALT_Rout1Config
 1595              		.syntax unified
 1596              		.thumb
 1597              		.thumb_func
 1599              	HAL_SYSCFG_ADC2ALT_Rout1Config:
 1600              	.LVL85:
 1601              	.LFB386:
 891:Drivers/STM32H7xx_HAL_Driver/Src/stm32h7xx_hal.c **** #endif /*SYSCFG_ADC2ALT_ADC2_ROUT0*/
 892:Drivers/STM32H7xx_HAL_Driver/Src/stm32h7xx_hal.c **** 
 893:Drivers/STM32H7xx_HAL_Driver/Src/stm32h7xx_hal.c **** #if defined(SYSCFG_ADC2ALT_ADC2_ROUT1)
 894:Drivers/STM32H7xx_HAL_Driver/Src/stm32h7xx_hal.c **** /** @brief  SYSCFG ADC2 internal input alternate connection macros
 895:Drivers/STM32H7xx_HAL_Driver/Src/stm32h7xx_hal.c ****   * @param Adc2AltRout1  This parameter can be a value of :
 896:Drivers/STM32H7xx_HAL_Driver/Src/stm32h7xx_hal.c ****   *     @arg @ref SYSCFG_ADC2_ROUT1_DAC1_2   DAC1_out2 connected to ADC2 VINP[17]
 897:Drivers/STM32H7xx_HAL_Driver/Src/stm32h7xx_hal.c ****   *     @arg @ref SYSCFG_ADC2_ROUT1_VREFINT  VREFINT connected to ADC2 VINP[17]
 898:Drivers/STM32H7xx_HAL_Driver/Src/stm32h7xx_hal.c ****   */
 899:Drivers/STM32H7xx_HAL_Driver/Src/stm32h7xx_hal.c **** void HAL_SYSCFG_ADC2ALT_Rout1Config(uint32_t Adc2AltRout1)
 900:Drivers/STM32H7xx_HAL_Driver/Src/stm32h7xx_hal.c **** {
 1602              		.loc 1 900 1 is_stmt 1 view -0
 1603              		.cfi_startproc
 1604              		@ args = 0, pretend = 0, frame = 0
 1605              		@ frame_needed = 0, uses_anonymous_args = 0
 1606              		.loc 1 900 1 is_stmt 0 view .LVU280
 1607 0000 10B5     		push	{r4, lr}
 1608              		.cfi_def_cfa_offset 8
 1609              		.cfi_offset 4, -8
 1610              		.cfi_offset 14, -4
 1611 0002 0446     		mov	r4, r0
 901:Drivers/STM32H7xx_HAL_Driver/Src/stm32h7xx_hal.c ****   /* Check the parameters */
 902:Drivers/STM32H7xx_HAL_Driver/Src/stm32h7xx_hal.c ****   assert_param(IS_SYSCFG_ADC2ALT_ROUT1(Adc2AltRout1));
 1612              		.loc 1 902 3 is_stmt 1 view .LVU281
 1613 0004 0028     		cmp	r0, #0
 1614 0006 18BF     		it	ne
 1615 0008 0228     		cmpne	r0, #2
 1616 000a 06D1     		bne	.L167
 1617              	.LVL86:
 1618              	.L165:
 903:Drivers/STM32H7xx_HAL_Driver/Src/stm32h7xx_hal.c **** 
 904:Drivers/STM32H7xx_HAL_Driver/Src/stm32h7xx_hal.c ****   MODIFY_REG(SYSCFG->ADC2ALT, SYSCFG_ADC2ALT_ADC2_ROUT1, Adc2AltRout1);
 1619              		.loc 1 904 3 view .LVU282
 1620 000c 064A     		ldr	r2, .L168
 1621 000e 136B     		ldr	r3, [r2, #48]
 1622 0010 23F00203 		bic	r3, r3, #2
 1623 0014 2343     		orrs	r3, r3, r4
 1624 0016 1363     		str	r3, [r2, #48]
 905:Drivers/STM32H7xx_HAL_Driver/Src/stm32h7xx_hal.c **** }
ARM GAS  C:\Users\thewo\AppData\Local\Temp\ccu1yGO3.s 			page 46


 1625              		.loc 1 905 1 is_stmt 0 view .LVU283
 1626 0018 10BD     		pop	{r4, pc}
 1627              	.LVL87:
 1628              	.L167:
 902:Drivers/STM32H7xx_HAL_Driver/Src/stm32h7xx_hal.c **** 
 1629              		.loc 1 902 3 discriminator 1 view .LVU284
 1630 001a 40F28631 		movw	r1, #902
 1631 001e 0348     		ldr	r0, .L168+4
 1632              	.LVL88:
 902:Drivers/STM32H7xx_HAL_Driver/Src/stm32h7xx_hal.c **** 
 1633              		.loc 1 902 3 discriminator 1 view .LVU285
 1634 0020 FFF7FEFF 		bl	assert_failed
 1635              	.LVL89:
 1636 0024 F2E7     		b	.L165
 1637              	.L169:
 1638 0026 00BF     		.align	2
 1639              	.L168:
 1640 0028 00040058 		.word	1476396032
 1641 002c 00000000 		.word	.LC0
 1642              		.cfi_endproc
 1643              	.LFE386:
 1645              		.section	.text.HAL_DBGMCU_EnableDBGSleepMode,"ax",%progbits
 1646              		.align	1
 1647              		.global	HAL_DBGMCU_EnableDBGSleepMode
 1648              		.syntax unified
 1649              		.thumb
 1650              		.thumb_func
 1652              	HAL_DBGMCU_EnableDBGSleepMode:
 1653              	.LFB387:
 906:Drivers/STM32H7xx_HAL_Driver/Src/stm32h7xx_hal.c **** #endif /*SYSCFG_ADC2ALT_ADC2_ROUT1*/
 907:Drivers/STM32H7xx_HAL_Driver/Src/stm32h7xx_hal.c **** 
 908:Drivers/STM32H7xx_HAL_Driver/Src/stm32h7xx_hal.c **** /**
 909:Drivers/STM32H7xx_HAL_Driver/Src/stm32h7xx_hal.c ****   * @brief  Enable the Debug Module during Domain1/CDomain SLEEP mode
 910:Drivers/STM32H7xx_HAL_Driver/Src/stm32h7xx_hal.c ****   * @retval None
 911:Drivers/STM32H7xx_HAL_Driver/Src/stm32h7xx_hal.c ****   */
 912:Drivers/STM32H7xx_HAL_Driver/Src/stm32h7xx_hal.c **** void HAL_DBGMCU_EnableDBGSleepMode(void)
 913:Drivers/STM32H7xx_HAL_Driver/Src/stm32h7xx_hal.c **** {
 1654              		.loc 1 913 1 is_stmt 1 view -0
 1655              		.cfi_startproc
 1656              		@ args = 0, pretend = 0, frame = 0
 1657              		@ frame_needed = 0, uses_anonymous_args = 0
 1658              		@ link register save eliminated.
 914:Drivers/STM32H7xx_HAL_Driver/Src/stm32h7xx_hal.c ****   SET_BIT(DBGMCU->CR, DBGMCU_CR_DBG_SLEEPD1);
 1659              		.loc 1 914 3 view .LVU287
 1660 0000 024A     		ldr	r2, .L171
 1661 0002 5368     		ldr	r3, [r2, #4]
 1662 0004 43F00103 		orr	r3, r3, #1
 1663 0008 5360     		str	r3, [r2, #4]
 915:Drivers/STM32H7xx_HAL_Driver/Src/stm32h7xx_hal.c **** }
 1664              		.loc 1 915 1 is_stmt 0 view .LVU288
 1665 000a 7047     		bx	lr
 1666              	.L172:
 1667              		.align	2
 1668              	.L171:
 1669 000c 0010005C 		.word	1543507968
 1670              		.cfi_endproc
 1671              	.LFE387:
ARM GAS  C:\Users\thewo\AppData\Local\Temp\ccu1yGO3.s 			page 47


 1673              		.section	.text.HAL_DBGMCU_DisableDBGSleepMode,"ax",%progbits
 1674              		.align	1
 1675              		.global	HAL_DBGMCU_DisableDBGSleepMode
 1676              		.syntax unified
 1677              		.thumb
 1678              		.thumb_func
 1680              	HAL_DBGMCU_DisableDBGSleepMode:
 1681              	.LFB388:
 916:Drivers/STM32H7xx_HAL_Driver/Src/stm32h7xx_hal.c **** 
 917:Drivers/STM32H7xx_HAL_Driver/Src/stm32h7xx_hal.c **** /**
 918:Drivers/STM32H7xx_HAL_Driver/Src/stm32h7xx_hal.c ****   * @brief  Disable the Debug Module during Domain1/CDomain SLEEP mode
 919:Drivers/STM32H7xx_HAL_Driver/Src/stm32h7xx_hal.c ****   * @retval None
 920:Drivers/STM32H7xx_HAL_Driver/Src/stm32h7xx_hal.c ****   */
 921:Drivers/STM32H7xx_HAL_Driver/Src/stm32h7xx_hal.c **** void HAL_DBGMCU_DisableDBGSleepMode(void)
 922:Drivers/STM32H7xx_HAL_Driver/Src/stm32h7xx_hal.c **** {
 1682              		.loc 1 922 1 is_stmt 1 view -0
 1683              		.cfi_startproc
 1684              		@ args = 0, pretend = 0, frame = 0
 1685              		@ frame_needed = 0, uses_anonymous_args = 0
 1686              		@ link register save eliminated.
 923:Drivers/STM32H7xx_HAL_Driver/Src/stm32h7xx_hal.c ****   CLEAR_BIT(DBGMCU->CR, DBGMCU_CR_DBG_SLEEPD1);
 1687              		.loc 1 923 3 view .LVU290
 1688 0000 024A     		ldr	r2, .L174
 1689 0002 5368     		ldr	r3, [r2, #4]
 1690 0004 23F00103 		bic	r3, r3, #1
 1691 0008 5360     		str	r3, [r2, #4]
 924:Drivers/STM32H7xx_HAL_Driver/Src/stm32h7xx_hal.c **** }
 1692              		.loc 1 924 1 is_stmt 0 view .LVU291
 1693 000a 7047     		bx	lr
 1694              	.L175:
 1695              		.align	2
 1696              	.L174:
 1697 000c 0010005C 		.word	1543507968
 1698              		.cfi_endproc
 1699              	.LFE388:
 1701              		.section	.text.HAL_DBGMCU_EnableDBGStopMode,"ax",%progbits
 1702              		.align	1
 1703              		.global	HAL_DBGMCU_EnableDBGStopMode
 1704              		.syntax unified
 1705              		.thumb
 1706              		.thumb_func
 1708              	HAL_DBGMCU_EnableDBGStopMode:
 1709              	.LFB389:
 925:Drivers/STM32H7xx_HAL_Driver/Src/stm32h7xx_hal.c **** 
 926:Drivers/STM32H7xx_HAL_Driver/Src/stm32h7xx_hal.c **** 
 927:Drivers/STM32H7xx_HAL_Driver/Src/stm32h7xx_hal.c **** /**
 928:Drivers/STM32H7xx_HAL_Driver/Src/stm32h7xx_hal.c ****   * @brief  Enable the Debug Module during Domain1/CDomain STOP mode
 929:Drivers/STM32H7xx_HAL_Driver/Src/stm32h7xx_hal.c ****   * @retval None
 930:Drivers/STM32H7xx_HAL_Driver/Src/stm32h7xx_hal.c ****   */
 931:Drivers/STM32H7xx_HAL_Driver/Src/stm32h7xx_hal.c **** void HAL_DBGMCU_EnableDBGStopMode(void)
 932:Drivers/STM32H7xx_HAL_Driver/Src/stm32h7xx_hal.c **** {
 1710              		.loc 1 932 1 is_stmt 1 view -0
 1711              		.cfi_startproc
 1712              		@ args = 0, pretend = 0, frame = 0
 1713              		@ frame_needed = 0, uses_anonymous_args = 0
 1714              		@ link register save eliminated.
 933:Drivers/STM32H7xx_HAL_Driver/Src/stm32h7xx_hal.c ****   SET_BIT(DBGMCU->CR, DBGMCU_CR_DBG_STOPD1);
ARM GAS  C:\Users\thewo\AppData\Local\Temp\ccu1yGO3.s 			page 48


 1715              		.loc 1 933 3 view .LVU293
 1716 0000 024A     		ldr	r2, .L177
 1717 0002 5368     		ldr	r3, [r2, #4]
 1718 0004 43F00203 		orr	r3, r3, #2
 1719 0008 5360     		str	r3, [r2, #4]
 934:Drivers/STM32H7xx_HAL_Driver/Src/stm32h7xx_hal.c **** }
 1720              		.loc 1 934 1 is_stmt 0 view .LVU294
 1721 000a 7047     		bx	lr
 1722              	.L178:
 1723              		.align	2
 1724              	.L177:
 1725 000c 0010005C 		.word	1543507968
 1726              		.cfi_endproc
 1727              	.LFE389:
 1729              		.section	.text.HAL_DBGMCU_DisableDBGStopMode,"ax",%progbits
 1730              		.align	1
 1731              		.global	HAL_DBGMCU_DisableDBGStopMode
 1732              		.syntax unified
 1733              		.thumb
 1734              		.thumb_func
 1736              	HAL_DBGMCU_DisableDBGStopMode:
 1737              	.LFB390:
 935:Drivers/STM32H7xx_HAL_Driver/Src/stm32h7xx_hal.c **** 
 936:Drivers/STM32H7xx_HAL_Driver/Src/stm32h7xx_hal.c **** /**
 937:Drivers/STM32H7xx_HAL_Driver/Src/stm32h7xx_hal.c ****   * @brief  Disable the Debug Module during Domain1/CDomain STOP mode
 938:Drivers/STM32H7xx_HAL_Driver/Src/stm32h7xx_hal.c ****   * @retval None
 939:Drivers/STM32H7xx_HAL_Driver/Src/stm32h7xx_hal.c ****   */
 940:Drivers/STM32H7xx_HAL_Driver/Src/stm32h7xx_hal.c **** void HAL_DBGMCU_DisableDBGStopMode(void)
 941:Drivers/STM32H7xx_HAL_Driver/Src/stm32h7xx_hal.c **** {
 1738              		.loc 1 941 1 is_stmt 1 view -0
 1739              		.cfi_startproc
 1740              		@ args = 0, pretend = 0, frame = 0
 1741              		@ frame_needed = 0, uses_anonymous_args = 0
 1742              		@ link register save eliminated.
 942:Drivers/STM32H7xx_HAL_Driver/Src/stm32h7xx_hal.c ****   CLEAR_BIT(DBGMCU->CR, DBGMCU_CR_DBG_STOPD1);
 1743              		.loc 1 942 3 view .LVU296
 1744 0000 024A     		ldr	r2, .L180
 1745 0002 5368     		ldr	r3, [r2, #4]
 1746 0004 23F00203 		bic	r3, r3, #2
 1747 0008 5360     		str	r3, [r2, #4]
 943:Drivers/STM32H7xx_HAL_Driver/Src/stm32h7xx_hal.c **** }
 1748              		.loc 1 943 1 is_stmt 0 view .LVU297
 1749 000a 7047     		bx	lr
 1750              	.L181:
 1751              		.align	2
 1752              	.L180:
 1753 000c 0010005C 		.word	1543507968
 1754              		.cfi_endproc
 1755              	.LFE390:
 1757              		.section	.text.HAL_DBGMCU_EnableDBGStandbyMode,"ax",%progbits
 1758              		.align	1
 1759              		.global	HAL_DBGMCU_EnableDBGStandbyMode
 1760              		.syntax unified
 1761              		.thumb
 1762              		.thumb_func
 1764              	HAL_DBGMCU_EnableDBGStandbyMode:
 1765              	.LFB391:
ARM GAS  C:\Users\thewo\AppData\Local\Temp\ccu1yGO3.s 			page 49


 944:Drivers/STM32H7xx_HAL_Driver/Src/stm32h7xx_hal.c **** 
 945:Drivers/STM32H7xx_HAL_Driver/Src/stm32h7xx_hal.c **** /**
 946:Drivers/STM32H7xx_HAL_Driver/Src/stm32h7xx_hal.c ****   * @brief  Enable the Debug Module during Domain1/CDomain STANDBY mode
 947:Drivers/STM32H7xx_HAL_Driver/Src/stm32h7xx_hal.c ****   * @retval None
 948:Drivers/STM32H7xx_HAL_Driver/Src/stm32h7xx_hal.c ****   */
 949:Drivers/STM32H7xx_HAL_Driver/Src/stm32h7xx_hal.c **** void HAL_DBGMCU_EnableDBGStandbyMode(void)
 950:Drivers/STM32H7xx_HAL_Driver/Src/stm32h7xx_hal.c **** {
 1766              		.loc 1 950 1 is_stmt 1 view -0
 1767              		.cfi_startproc
 1768              		@ args = 0, pretend = 0, frame = 0
 1769              		@ frame_needed = 0, uses_anonymous_args = 0
 1770              		@ link register save eliminated.
 951:Drivers/STM32H7xx_HAL_Driver/Src/stm32h7xx_hal.c ****   SET_BIT(DBGMCU->CR, DBGMCU_CR_DBG_STANDBYD1);
 1771              		.loc 1 951 3 view .LVU299
 1772 0000 024A     		ldr	r2, .L183
 1773 0002 5368     		ldr	r3, [r2, #4]
 1774 0004 43F00403 		orr	r3, r3, #4
 1775 0008 5360     		str	r3, [r2, #4]
 952:Drivers/STM32H7xx_HAL_Driver/Src/stm32h7xx_hal.c **** }
 1776              		.loc 1 952 1 is_stmt 0 view .LVU300
 1777 000a 7047     		bx	lr
 1778              	.L184:
 1779              		.align	2
 1780              	.L183:
 1781 000c 0010005C 		.word	1543507968
 1782              		.cfi_endproc
 1783              	.LFE391:
 1785              		.section	.text.HAL_DBGMCU_DisableDBGStandbyMode,"ax",%progbits
 1786              		.align	1
 1787              		.global	HAL_DBGMCU_DisableDBGStandbyMode
 1788              		.syntax unified
 1789              		.thumb
 1790              		.thumb_func
 1792              	HAL_DBGMCU_DisableDBGStandbyMode:
 1793              	.LFB392:
 953:Drivers/STM32H7xx_HAL_Driver/Src/stm32h7xx_hal.c **** 
 954:Drivers/STM32H7xx_HAL_Driver/Src/stm32h7xx_hal.c **** /**
 955:Drivers/STM32H7xx_HAL_Driver/Src/stm32h7xx_hal.c ****   * @brief  Disable the Debug Module during Domain1/CDomain STANDBY mode
 956:Drivers/STM32H7xx_HAL_Driver/Src/stm32h7xx_hal.c ****   * @retval None
 957:Drivers/STM32H7xx_HAL_Driver/Src/stm32h7xx_hal.c ****   */
 958:Drivers/STM32H7xx_HAL_Driver/Src/stm32h7xx_hal.c **** void HAL_DBGMCU_DisableDBGStandbyMode(void)
 959:Drivers/STM32H7xx_HAL_Driver/Src/stm32h7xx_hal.c **** {
 1794              		.loc 1 959 1 is_stmt 1 view -0
 1795              		.cfi_startproc
 1796              		@ args = 0, pretend = 0, frame = 0
 1797              		@ frame_needed = 0, uses_anonymous_args = 0
 1798              		@ link register save eliminated.
 960:Drivers/STM32H7xx_HAL_Driver/Src/stm32h7xx_hal.c ****   CLEAR_BIT(DBGMCU->CR, DBGMCU_CR_DBG_STANDBYD1);
 1799              		.loc 1 960 3 view .LVU302
 1800 0000 024A     		ldr	r2, .L186
 1801 0002 5368     		ldr	r3, [r2, #4]
 1802 0004 23F00403 		bic	r3, r3, #4
 1803 0008 5360     		str	r3, [r2, #4]
 961:Drivers/STM32H7xx_HAL_Driver/Src/stm32h7xx_hal.c **** }
 1804              		.loc 1 961 1 is_stmt 0 view .LVU303
 1805 000a 7047     		bx	lr
 1806              	.L187:
ARM GAS  C:\Users\thewo\AppData\Local\Temp\ccu1yGO3.s 			page 50


 1807              		.align	2
 1808              	.L186:
 1809 000c 0010005C 		.word	1543507968
 1810              		.cfi_endproc
 1811              	.LFE392:
 1813              		.section	.text.HAL_EnableDomain3DBGStopMode,"ax",%progbits
 1814              		.align	1
 1815              		.global	HAL_EnableDomain3DBGStopMode
 1816              		.syntax unified
 1817              		.thumb
 1818              		.thumb_func
 1820              	HAL_EnableDomain3DBGStopMode:
 1821              	.LFB393:
 962:Drivers/STM32H7xx_HAL_Driver/Src/stm32h7xx_hal.c **** 
 963:Drivers/STM32H7xx_HAL_Driver/Src/stm32h7xx_hal.c **** #if defined(DUAL_CORE)
 964:Drivers/STM32H7xx_HAL_Driver/Src/stm32h7xx_hal.c **** /**
 965:Drivers/STM32H7xx_HAL_Driver/Src/stm32h7xx_hal.c ****   * @brief  Enable the Debug Module during Domain1 SLEEP mode
 966:Drivers/STM32H7xx_HAL_Driver/Src/stm32h7xx_hal.c ****   * @retval None
 967:Drivers/STM32H7xx_HAL_Driver/Src/stm32h7xx_hal.c ****   */
 968:Drivers/STM32H7xx_HAL_Driver/Src/stm32h7xx_hal.c **** void HAL_EnableDomain2DBGSleepMode(void)
 969:Drivers/STM32H7xx_HAL_Driver/Src/stm32h7xx_hal.c **** {
 970:Drivers/STM32H7xx_HAL_Driver/Src/stm32h7xx_hal.c ****   SET_BIT(DBGMCU->CR, DBGMCU_CR_DBG_SLEEPD2);
 971:Drivers/STM32H7xx_HAL_Driver/Src/stm32h7xx_hal.c **** }
 972:Drivers/STM32H7xx_HAL_Driver/Src/stm32h7xx_hal.c **** 
 973:Drivers/STM32H7xx_HAL_Driver/Src/stm32h7xx_hal.c **** /**
 974:Drivers/STM32H7xx_HAL_Driver/Src/stm32h7xx_hal.c ****   * @brief  Disable the Debug Module during Domain2 SLEEP mode
 975:Drivers/STM32H7xx_HAL_Driver/Src/stm32h7xx_hal.c ****   * @retval None
 976:Drivers/STM32H7xx_HAL_Driver/Src/stm32h7xx_hal.c ****   */
 977:Drivers/STM32H7xx_HAL_Driver/Src/stm32h7xx_hal.c **** void HAL_DisableDomain2DBGSleepMode(void)
 978:Drivers/STM32H7xx_HAL_Driver/Src/stm32h7xx_hal.c **** {
 979:Drivers/STM32H7xx_HAL_Driver/Src/stm32h7xx_hal.c ****   CLEAR_BIT(DBGMCU->CR, DBGMCU_CR_DBG_SLEEPD2);
 980:Drivers/STM32H7xx_HAL_Driver/Src/stm32h7xx_hal.c **** }
 981:Drivers/STM32H7xx_HAL_Driver/Src/stm32h7xx_hal.c **** 
 982:Drivers/STM32H7xx_HAL_Driver/Src/stm32h7xx_hal.c **** /**
 983:Drivers/STM32H7xx_HAL_Driver/Src/stm32h7xx_hal.c ****   * @brief  Enable the Debug Module during Domain2 STOP mode
 984:Drivers/STM32H7xx_HAL_Driver/Src/stm32h7xx_hal.c ****   * @retval None
 985:Drivers/STM32H7xx_HAL_Driver/Src/stm32h7xx_hal.c ****   */
 986:Drivers/STM32H7xx_HAL_Driver/Src/stm32h7xx_hal.c **** void HAL_EnableDomain2DBGStopMode(void)
 987:Drivers/STM32H7xx_HAL_Driver/Src/stm32h7xx_hal.c **** {
 988:Drivers/STM32H7xx_HAL_Driver/Src/stm32h7xx_hal.c ****   SET_BIT(DBGMCU->CR, DBGMCU_CR_DBG_STOPD2);
 989:Drivers/STM32H7xx_HAL_Driver/Src/stm32h7xx_hal.c **** }
 990:Drivers/STM32H7xx_HAL_Driver/Src/stm32h7xx_hal.c **** 
 991:Drivers/STM32H7xx_HAL_Driver/Src/stm32h7xx_hal.c **** /**
 992:Drivers/STM32H7xx_HAL_Driver/Src/stm32h7xx_hal.c ****   * @brief  Disable the Debug Module during Domain2 STOP mode
 993:Drivers/STM32H7xx_HAL_Driver/Src/stm32h7xx_hal.c ****   * @retval None
 994:Drivers/STM32H7xx_HAL_Driver/Src/stm32h7xx_hal.c ****   */
 995:Drivers/STM32H7xx_HAL_Driver/Src/stm32h7xx_hal.c **** void HAL_DisableDomain2DBGStopMode(void)
 996:Drivers/STM32H7xx_HAL_Driver/Src/stm32h7xx_hal.c **** {
 997:Drivers/STM32H7xx_HAL_Driver/Src/stm32h7xx_hal.c ****   CLEAR_BIT(DBGMCU->CR, DBGMCU_CR_DBG_STOPD2);
 998:Drivers/STM32H7xx_HAL_Driver/Src/stm32h7xx_hal.c **** }
 999:Drivers/STM32H7xx_HAL_Driver/Src/stm32h7xx_hal.c **** 
1000:Drivers/STM32H7xx_HAL_Driver/Src/stm32h7xx_hal.c **** /**
1001:Drivers/STM32H7xx_HAL_Driver/Src/stm32h7xx_hal.c ****   * @brief  Enable the Debug Module during Domain2 STANDBY mode
1002:Drivers/STM32H7xx_HAL_Driver/Src/stm32h7xx_hal.c ****   * @retval None
1003:Drivers/STM32H7xx_HAL_Driver/Src/stm32h7xx_hal.c ****   */
1004:Drivers/STM32H7xx_HAL_Driver/Src/stm32h7xx_hal.c **** void HAL_EnableDomain2DBGStandbyMode(void)
1005:Drivers/STM32H7xx_HAL_Driver/Src/stm32h7xx_hal.c **** {
ARM GAS  C:\Users\thewo\AppData\Local\Temp\ccu1yGO3.s 			page 51


1006:Drivers/STM32H7xx_HAL_Driver/Src/stm32h7xx_hal.c ****   SET_BIT(DBGMCU->CR, DBGMCU_CR_DBG_STANDBYD2);
1007:Drivers/STM32H7xx_HAL_Driver/Src/stm32h7xx_hal.c **** }
1008:Drivers/STM32H7xx_HAL_Driver/Src/stm32h7xx_hal.c **** 
1009:Drivers/STM32H7xx_HAL_Driver/Src/stm32h7xx_hal.c **** /**
1010:Drivers/STM32H7xx_HAL_Driver/Src/stm32h7xx_hal.c ****   * @brief  Disable the Debug Module during Domain2 STANDBY mode
1011:Drivers/STM32H7xx_HAL_Driver/Src/stm32h7xx_hal.c ****   * @retval None
1012:Drivers/STM32H7xx_HAL_Driver/Src/stm32h7xx_hal.c ****   */
1013:Drivers/STM32H7xx_HAL_Driver/Src/stm32h7xx_hal.c **** void HAL_DisableDomain2DBGStandbyMode(void)
1014:Drivers/STM32H7xx_HAL_Driver/Src/stm32h7xx_hal.c **** {
1015:Drivers/STM32H7xx_HAL_Driver/Src/stm32h7xx_hal.c ****   CLEAR_BIT(DBGMCU->CR, DBGMCU_CR_DBG_STANDBYD2);
1016:Drivers/STM32H7xx_HAL_Driver/Src/stm32h7xx_hal.c **** }
1017:Drivers/STM32H7xx_HAL_Driver/Src/stm32h7xx_hal.c **** #endif /*DUAL_CORE*/
1018:Drivers/STM32H7xx_HAL_Driver/Src/stm32h7xx_hal.c **** 
1019:Drivers/STM32H7xx_HAL_Driver/Src/stm32h7xx_hal.c **** #if defined(DBGMCU_CR_DBG_STOPD3)
1020:Drivers/STM32H7xx_HAL_Driver/Src/stm32h7xx_hal.c **** /**
1021:Drivers/STM32H7xx_HAL_Driver/Src/stm32h7xx_hal.c ****   * @brief  Enable the Debug Module during Domain3/SRDomain STOP mode
1022:Drivers/STM32H7xx_HAL_Driver/Src/stm32h7xx_hal.c ****   * @retval None
1023:Drivers/STM32H7xx_HAL_Driver/Src/stm32h7xx_hal.c ****   */
1024:Drivers/STM32H7xx_HAL_Driver/Src/stm32h7xx_hal.c **** void HAL_EnableDomain3DBGStopMode(void)
1025:Drivers/STM32H7xx_HAL_Driver/Src/stm32h7xx_hal.c **** {
 1822              		.loc 1 1025 1 is_stmt 1 view -0
 1823              		.cfi_startproc
 1824              		@ args = 0, pretend = 0, frame = 0
 1825              		@ frame_needed = 0, uses_anonymous_args = 0
 1826              		@ link register save eliminated.
1026:Drivers/STM32H7xx_HAL_Driver/Src/stm32h7xx_hal.c ****   SET_BIT(DBGMCU->CR, DBGMCU_CR_DBG_STOPD3);
 1827              		.loc 1 1026 3 view .LVU305
 1828 0000 024A     		ldr	r2, .L189
 1829 0002 5368     		ldr	r3, [r2, #4]
 1830 0004 43F08003 		orr	r3, r3, #128
 1831 0008 5360     		str	r3, [r2, #4]
1027:Drivers/STM32H7xx_HAL_Driver/Src/stm32h7xx_hal.c **** }
 1832              		.loc 1 1027 1 is_stmt 0 view .LVU306
 1833 000a 7047     		bx	lr
 1834              	.L190:
 1835              		.align	2
 1836              	.L189:
 1837 000c 0010005C 		.word	1543507968
 1838              		.cfi_endproc
 1839              	.LFE393:
 1841              		.section	.text.HAL_DisableDomain3DBGStopMode,"ax",%progbits
 1842              		.align	1
 1843              		.global	HAL_DisableDomain3DBGStopMode
 1844              		.syntax unified
 1845              		.thumb
 1846              		.thumb_func
 1848              	HAL_DisableDomain3DBGStopMode:
 1849              	.LFB394:
1028:Drivers/STM32H7xx_HAL_Driver/Src/stm32h7xx_hal.c **** 
1029:Drivers/STM32H7xx_HAL_Driver/Src/stm32h7xx_hal.c **** /**
1030:Drivers/STM32H7xx_HAL_Driver/Src/stm32h7xx_hal.c ****   * @brief  Disable the Debug Module during Domain3/SRDomain STOP mode
1031:Drivers/STM32H7xx_HAL_Driver/Src/stm32h7xx_hal.c ****   * @retval None
1032:Drivers/STM32H7xx_HAL_Driver/Src/stm32h7xx_hal.c ****   */
1033:Drivers/STM32H7xx_HAL_Driver/Src/stm32h7xx_hal.c **** void HAL_DisableDomain3DBGStopMode(void)
1034:Drivers/STM32H7xx_HAL_Driver/Src/stm32h7xx_hal.c **** {
 1850              		.loc 1 1034 1 is_stmt 1 view -0
 1851              		.cfi_startproc
ARM GAS  C:\Users\thewo\AppData\Local\Temp\ccu1yGO3.s 			page 52


 1852              		@ args = 0, pretend = 0, frame = 0
 1853              		@ frame_needed = 0, uses_anonymous_args = 0
 1854              		@ link register save eliminated.
1035:Drivers/STM32H7xx_HAL_Driver/Src/stm32h7xx_hal.c ****   CLEAR_BIT(DBGMCU->CR, DBGMCU_CR_DBG_STOPD3);
 1855              		.loc 1 1035 3 view .LVU308
 1856 0000 024A     		ldr	r2, .L192
 1857 0002 5368     		ldr	r3, [r2, #4]
 1858 0004 23F08003 		bic	r3, r3, #128
 1859 0008 5360     		str	r3, [r2, #4]
1036:Drivers/STM32H7xx_HAL_Driver/Src/stm32h7xx_hal.c **** }
 1860              		.loc 1 1036 1 is_stmt 0 view .LVU309
 1861 000a 7047     		bx	lr
 1862              	.L193:
 1863              		.align	2
 1864              	.L192:
 1865 000c 0010005C 		.word	1543507968
 1866              		.cfi_endproc
 1867              	.LFE394:
 1869              		.section	.text.HAL_EnableDomain3DBGStandbyMode,"ax",%progbits
 1870              		.align	1
 1871              		.global	HAL_EnableDomain3DBGStandbyMode
 1872              		.syntax unified
 1873              		.thumb
 1874              		.thumb_func
 1876              	HAL_EnableDomain3DBGStandbyMode:
 1877              	.LFB395:
1037:Drivers/STM32H7xx_HAL_Driver/Src/stm32h7xx_hal.c **** #endif /*DBGMCU_CR_DBG_STOPD3*/
1038:Drivers/STM32H7xx_HAL_Driver/Src/stm32h7xx_hal.c **** 
1039:Drivers/STM32H7xx_HAL_Driver/Src/stm32h7xx_hal.c **** #if defined(DBGMCU_CR_DBG_STANDBYD3)
1040:Drivers/STM32H7xx_HAL_Driver/Src/stm32h7xx_hal.c **** /**
1041:Drivers/STM32H7xx_HAL_Driver/Src/stm32h7xx_hal.c ****   * @brief  Enable the Debug Module during Domain3/SRDomain STANDBY mode
1042:Drivers/STM32H7xx_HAL_Driver/Src/stm32h7xx_hal.c ****   * @retval None
1043:Drivers/STM32H7xx_HAL_Driver/Src/stm32h7xx_hal.c ****   */
1044:Drivers/STM32H7xx_HAL_Driver/Src/stm32h7xx_hal.c **** void HAL_EnableDomain3DBGStandbyMode(void)
1045:Drivers/STM32H7xx_HAL_Driver/Src/stm32h7xx_hal.c **** {
 1878              		.loc 1 1045 1 is_stmt 1 view -0
 1879              		.cfi_startproc
 1880              		@ args = 0, pretend = 0, frame = 0
 1881              		@ frame_needed = 0, uses_anonymous_args = 0
 1882              		@ link register save eliminated.
1046:Drivers/STM32H7xx_HAL_Driver/Src/stm32h7xx_hal.c ****   SET_BIT(DBGMCU->CR, DBGMCU_CR_DBG_STANDBYD3);
 1883              		.loc 1 1046 3 view .LVU311
 1884 0000 024A     		ldr	r2, .L195
 1885 0002 5368     		ldr	r3, [r2, #4]
 1886 0004 43F48073 		orr	r3, r3, #256
 1887 0008 5360     		str	r3, [r2, #4]
1047:Drivers/STM32H7xx_HAL_Driver/Src/stm32h7xx_hal.c **** }
 1888              		.loc 1 1047 1 is_stmt 0 view .LVU312
 1889 000a 7047     		bx	lr
 1890              	.L196:
 1891              		.align	2
 1892              	.L195:
 1893 000c 0010005C 		.word	1543507968
 1894              		.cfi_endproc
 1895              	.LFE395:
 1897              		.section	.text.HAL_DisableDomain3DBGStandbyMode,"ax",%progbits
 1898              		.align	1
ARM GAS  C:\Users\thewo\AppData\Local\Temp\ccu1yGO3.s 			page 53


 1899              		.global	HAL_DisableDomain3DBGStandbyMode
 1900              		.syntax unified
 1901              		.thumb
 1902              		.thumb_func
 1904              	HAL_DisableDomain3DBGStandbyMode:
 1905              	.LFB396:
1048:Drivers/STM32H7xx_HAL_Driver/Src/stm32h7xx_hal.c **** 
1049:Drivers/STM32H7xx_HAL_Driver/Src/stm32h7xx_hal.c **** /**
1050:Drivers/STM32H7xx_HAL_Driver/Src/stm32h7xx_hal.c ****   * @brief  Disable the Debug Module during Domain3/SRDomain STANDBY mode
1051:Drivers/STM32H7xx_HAL_Driver/Src/stm32h7xx_hal.c ****   * @retval None
1052:Drivers/STM32H7xx_HAL_Driver/Src/stm32h7xx_hal.c ****   */
1053:Drivers/STM32H7xx_HAL_Driver/Src/stm32h7xx_hal.c **** void HAL_DisableDomain3DBGStandbyMode(void)
1054:Drivers/STM32H7xx_HAL_Driver/Src/stm32h7xx_hal.c **** {
 1906              		.loc 1 1054 1 is_stmt 1 view -0
 1907              		.cfi_startproc
 1908              		@ args = 0, pretend = 0, frame = 0
 1909              		@ frame_needed = 0, uses_anonymous_args = 0
 1910              		@ link register save eliminated.
1055:Drivers/STM32H7xx_HAL_Driver/Src/stm32h7xx_hal.c ****   CLEAR_BIT(DBGMCU->CR, DBGMCU_CR_DBG_STANDBYD3);
 1911              		.loc 1 1055 3 view .LVU314
 1912 0000 024A     		ldr	r2, .L198
 1913 0002 5368     		ldr	r3, [r2, #4]
 1914 0004 23F48073 		bic	r3, r3, #256
 1915 0008 5360     		str	r3, [r2, #4]
1056:Drivers/STM32H7xx_HAL_Driver/Src/stm32h7xx_hal.c **** }
 1916              		.loc 1 1056 1 is_stmt 0 view .LVU315
 1917 000a 7047     		bx	lr
 1918              	.L199:
 1919              		.align	2
 1920              	.L198:
 1921 000c 0010005C 		.word	1543507968
 1922              		.cfi_endproc
 1923              	.LFE396:
 1925              		.section	.text.HAL_SetFMCMemorySwappingConfig,"ax",%progbits
 1926              		.align	1
 1927              		.global	HAL_SetFMCMemorySwappingConfig
 1928              		.syntax unified
 1929              		.thumb
 1930              		.thumb_func
 1932              	HAL_SetFMCMemorySwappingConfig:
 1933              	.LVL90:
 1934              	.LFB397:
1057:Drivers/STM32H7xx_HAL_Driver/Src/stm32h7xx_hal.c **** #endif /*DBGMCU_CR_DBG_STANDBYD3*/
1058:Drivers/STM32H7xx_HAL_Driver/Src/stm32h7xx_hal.c **** 
1059:Drivers/STM32H7xx_HAL_Driver/Src/stm32h7xx_hal.c **** /**
1060:Drivers/STM32H7xx_HAL_Driver/Src/stm32h7xx_hal.c ****   * @brief  Set the FMC Memory Mapping Swapping config.
1061:Drivers/STM32H7xx_HAL_Driver/Src/stm32h7xx_hal.c ****   * @param  BankMapConfig: Defines the FMC Bank mapping configuration. This parameter can be
1062:Drivers/STM32H7xx_HAL_Driver/Src/stm32h7xx_hal.c ****             FMC_SWAPBMAP_DISABLE, FMC_SWAPBMAP_SDRAM_SRAM, FMC_SWAPBMAP_SDRAMB2
1063:Drivers/STM32H7xx_HAL_Driver/Src/stm32h7xx_hal.c ****   * @retval HAL state
1064:Drivers/STM32H7xx_HAL_Driver/Src/stm32h7xx_hal.c ****   */
1065:Drivers/STM32H7xx_HAL_Driver/Src/stm32h7xx_hal.c **** void HAL_SetFMCMemorySwappingConfig(uint32_t BankMapConfig)
1066:Drivers/STM32H7xx_HAL_Driver/Src/stm32h7xx_hal.c **** {
 1935              		.loc 1 1066 1 is_stmt 1 view -0
 1936              		.cfi_startproc
 1937              		@ args = 0, pretend = 0, frame = 0
 1938              		@ frame_needed = 0, uses_anonymous_args = 0
 1939              		.loc 1 1066 1 is_stmt 0 view .LVU317
ARM GAS  C:\Users\thewo\AppData\Local\Temp\ccu1yGO3.s 			page 54


 1940 0000 10B5     		push	{r4, lr}
 1941              		.cfi_def_cfa_offset 8
 1942              		.cfi_offset 4, -8
 1943              		.cfi_offset 14, -4
 1944 0002 0446     		mov	r4, r0
1067:Drivers/STM32H7xx_HAL_Driver/Src/stm32h7xx_hal.c ****   /* Check the parameter */
1068:Drivers/STM32H7xx_HAL_Driver/Src/stm32h7xx_hal.c ****   assert_param(IS_FMC_SWAPBMAP_MODE(BankMapConfig));
 1945              		.loc 1 1068 3 is_stmt 1 view .LVU318
 1946 0004 0028     		cmp	r0, #0
 1947 0006 18BF     		it	ne
 1948 0008 B0F1807F 		cmpne	r0, #16777216
 1949 000c 02D0     		beq	.L201
 1950              		.loc 1 1068 3 is_stmt 0 discriminator 1 view .LVU319
 1951 000e B0F1007F 		cmp	r0, #33554432
 1952 0012 06D1     		bne	.L203
 1953              	.LVL91:
 1954              	.L201:
1069:Drivers/STM32H7xx_HAL_Driver/Src/stm32h7xx_hal.c ****   MODIFY_REG(FMC_Bank1_R->BTCR[0], FMC_BCR1_BMAP, BankMapConfig);
 1955              		.loc 1 1069 3 is_stmt 1 view .LVU320
 1956 0014 064A     		ldr	r2, .L204
 1957 0016 1368     		ldr	r3, [r2]
 1958 0018 23F04073 		bic	r3, r3, #50331648
 1959 001c 2343     		orrs	r3, r3, r4
 1960 001e 1360     		str	r3, [r2]
1070:Drivers/STM32H7xx_HAL_Driver/Src/stm32h7xx_hal.c **** }
 1961              		.loc 1 1070 1 is_stmt 0 view .LVU321
 1962 0020 10BD     		pop	{r4, pc}
 1963              	.LVL92:
 1964              	.L203:
1068:Drivers/STM32H7xx_HAL_Driver/Src/stm32h7xx_hal.c ****   MODIFY_REG(FMC_Bank1_R->BTCR[0], FMC_BCR1_BMAP, BankMapConfig);
 1965              		.loc 1 1068 3 discriminator 2 view .LVU322
 1966 0022 40F22C41 		movw	r1, #1068
 1967 0026 0348     		ldr	r0, .L204+4
 1968              	.LVL93:
1068:Drivers/STM32H7xx_HAL_Driver/Src/stm32h7xx_hal.c ****   MODIFY_REG(FMC_Bank1_R->BTCR[0], FMC_BCR1_BMAP, BankMapConfig);
 1969              		.loc 1 1068 3 discriminator 2 view .LVU323
 1970 0028 FFF7FEFF 		bl	assert_failed
 1971              	.LVL94:
 1972 002c F2E7     		b	.L201
 1973              	.L205:
 1974 002e 00BF     		.align	2
 1975              	.L204:
 1976 0030 00400052 		.word	1375748096
 1977 0034 00000000 		.word	.LC0
 1978              		.cfi_endproc
 1979              	.LFE397:
 1981              		.section	.text.HAL_GetFMCMemorySwappingConfig,"ax",%progbits
 1982              		.align	1
 1983              		.global	HAL_GetFMCMemorySwappingConfig
 1984              		.syntax unified
 1985              		.thumb
 1986              		.thumb_func
 1988              	HAL_GetFMCMemorySwappingConfig:
 1989              	.LFB398:
1071:Drivers/STM32H7xx_HAL_Driver/Src/stm32h7xx_hal.c **** 
1072:Drivers/STM32H7xx_HAL_Driver/Src/stm32h7xx_hal.c **** /**
1073:Drivers/STM32H7xx_HAL_Driver/Src/stm32h7xx_hal.c ****   * @brief  Get FMC Bank mapping mode.
ARM GAS  C:\Users\thewo\AppData\Local\Temp\ccu1yGO3.s 			page 55


1074:Drivers/STM32H7xx_HAL_Driver/Src/stm32h7xx_hal.c ****   * @retval The FMC Bank mapping mode. This parameter can be
1075:Drivers/STM32H7xx_HAL_Driver/Src/stm32h7xx_hal.c ****             FMC_SWAPBMAP_DISABLE, FMC_SWAPBMAP_SDRAM_SRAM, FMC_SWAPBMAP_SDRAMB2
1076:Drivers/STM32H7xx_HAL_Driver/Src/stm32h7xx_hal.c **** */
1077:Drivers/STM32H7xx_HAL_Driver/Src/stm32h7xx_hal.c **** uint32_t HAL_GetFMCMemorySwappingConfig(void)
1078:Drivers/STM32H7xx_HAL_Driver/Src/stm32h7xx_hal.c **** {
 1990              		.loc 1 1078 1 is_stmt 1 view -0
 1991              		.cfi_startproc
 1992              		@ args = 0, pretend = 0, frame = 0
 1993              		@ frame_needed = 0, uses_anonymous_args = 0
 1994              		@ link register save eliminated.
1079:Drivers/STM32H7xx_HAL_Driver/Src/stm32h7xx_hal.c ****   return READ_BIT(FMC_Bank1_R->BTCR[0], FMC_BCR1_BMAP);
 1995              		.loc 1 1079 3 view .LVU325
 1996              		.loc 1 1079 10 is_stmt 0 view .LVU326
 1997 0000 024B     		ldr	r3, .L207
 1998 0002 1868     		ldr	r0, [r3]
1080:Drivers/STM32H7xx_HAL_Driver/Src/stm32h7xx_hal.c **** }
 1999              		.loc 1 1080 1 view .LVU327
 2000 0004 00F04070 		and	r0, r0, #50331648
 2001 0008 7047     		bx	lr
 2002              	.L208:
 2003 000a 00BF     		.align	2
 2004              	.L207:
 2005 000c 00400052 		.word	1375748096
 2006              		.cfi_endproc
 2007              	.LFE398:
 2009              		.section	.text.HAL_EXTI_EdgeConfig,"ax",%progbits
 2010              		.align	1
 2011              		.global	HAL_EXTI_EdgeConfig
 2012              		.syntax unified
 2013              		.thumb
 2014              		.thumb_func
 2016              	HAL_EXTI_EdgeConfig:
 2017              	.LVL95:
 2018              	.LFB399:
1081:Drivers/STM32H7xx_HAL_Driver/Src/stm32h7xx_hal.c **** 
1082:Drivers/STM32H7xx_HAL_Driver/Src/stm32h7xx_hal.c **** /**
1083:Drivers/STM32H7xx_HAL_Driver/Src/stm32h7xx_hal.c ****   * @brief  Configure the EXTI input event line edge
1084:Drivers/STM32H7xx_HAL_Driver/Src/stm32h7xx_hal.c ****   * @note    No edge configuration for direct lines but for configurable lines:(EXTI_LINE0..EXTI_LI
1085:Drivers/STM32H7xx_HAL_Driver/Src/stm32h7xx_hal.c ****   *          EXTI_LINE49,EXTI_LINE51,EXTI_LINE82,EXTI_LINE84,EXTI_LINE85 and EXTI_LINE86.
1086:Drivers/STM32H7xx_HAL_Driver/Src/stm32h7xx_hal.c ****   * @param   EXTI_Line: Specifies the EXTI LINE, it can be one of the following values,
1087:Drivers/STM32H7xx_HAL_Driver/Src/stm32h7xx_hal.c ****   *         (EXTI_LINE0....EXTI_LINE87)excluding :line45, line81,line83 which are reserved
1088:Drivers/STM32H7xx_HAL_Driver/Src/stm32h7xx_hal.c ****   * @param   EXTI_Edge: Specifies  EXTI line Edge used.
1089:Drivers/STM32H7xx_HAL_Driver/Src/stm32h7xx_hal.c ****   *          This parameter can be one of the following values :
1090:Drivers/STM32H7xx_HAL_Driver/Src/stm32h7xx_hal.c ****   *   @arg EXTI_RISING_EDGE : Configurable line, with Rising edge trigger detection
1091:Drivers/STM32H7xx_HAL_Driver/Src/stm32h7xx_hal.c ****   *   @arg EXTI_FALLING_EDGE: Configurable line, with Falling edge trigger detection
1092:Drivers/STM32H7xx_HAL_Driver/Src/stm32h7xx_hal.c ****   * @retval None
1093:Drivers/STM32H7xx_HAL_Driver/Src/stm32h7xx_hal.c ****   */
1094:Drivers/STM32H7xx_HAL_Driver/Src/stm32h7xx_hal.c **** void HAL_EXTI_EdgeConfig(uint32_t EXTI_Line , uint32_t EXTI_Edge )
1095:Drivers/STM32H7xx_HAL_Driver/Src/stm32h7xx_hal.c **** {
 2019              		.loc 1 1095 1 is_stmt 1 view -0
 2020              		.cfi_startproc
 2021              		@ args = 0, pretend = 0, frame = 0
 2022              		@ frame_needed = 0, uses_anonymous_args = 0
 2023              		.loc 1 1095 1 is_stmt 0 view .LVU329
 2024 0000 70B5     		push	{r4, r5, r6, lr}
 2025              		.cfi_def_cfa_offset 16
 2026              		.cfi_offset 4, -16
ARM GAS  C:\Users\thewo\AppData\Local\Temp\ccu1yGO3.s 			page 56


 2027              		.cfi_offset 5, -12
 2028              		.cfi_offset 6, -8
 2029              		.cfi_offset 14, -4
 2030 0002 0446     		mov	r4, r0
 2031 0004 0D46     		mov	r5, r1
1096:Drivers/STM32H7xx_HAL_Driver/Src/stm32h7xx_hal.c ****   /* Check the parameter */
1097:Drivers/STM32H7xx_HAL_Driver/Src/stm32h7xx_hal.c ****   assert_param(IS_HAL_EXTI_CONFIG_LINE(EXTI_Line));
 2032              		.loc 1 1097 3 is_stmt 1 view .LVU330
 2033 0006 3128     		cmp	r0, #49
 2034 0008 18BF     		it	ne
 2035 000a 1528     		cmpne	r0, #21
 2036 000c 08D9     		bls	.L210
 2037              		.loc 1 1097 3 is_stmt 0 discriminator 1 view .LVU331
 2038 000e B0F15503 		subs	r3, r0, #85
 2039 0012 18BF     		it	ne
 2040 0014 0123     		movne	r3, #1
 2041 0016 3328     		cmp	r0, #51
 2042 0018 02D0     		beq	.L210
 2043 001a 0BB1     		cbz	r3, .L210
 2044              		.loc 1 1097 3 discriminator 2 view .LVU332
 2045 001c 5628     		cmp	r0, #86
 2046 001e 25D1     		bne	.L215
 2047              	.LVL96:
 2048              	.L210:
1098:Drivers/STM32H7xx_HAL_Driver/Src/stm32h7xx_hal.c ****   assert_param(IS_EXTI_EDGE_LINE(EXTI_Edge));
 2049              		.loc 1 1098 3 is_stmt 1 view .LVU333
 2050 0020 B5F5801F 		cmp	r5, #1048576
 2051 0024 18BF     		it	ne
 2052 0026 B5F5001F 		cmpne	r5, #2097152
 2053 002a 25D1     		bne	.L216
 2054              	.L211:
1099:Drivers/STM32H7xx_HAL_Driver/Src/stm32h7xx_hal.c **** 
1100:Drivers/STM32H7xx_HAL_Driver/Src/stm32h7xx_hal.c ****   /* Clear Rising Falling edge configuration */
1101:Drivers/STM32H7xx_HAL_Driver/Src/stm32h7xx_hal.c ****   CLEAR_BIT(*(__IO uint32_t *) (((uint32_t) &(EXTI->FTSR1)) + ((EXTI_Line >> 5 ) * 0x20UL)), (uint3
 2055              		.loc 1 1101 3 view .LVU334
 2056 002c 6309     		lsrs	r3, r4, #5
 2057 002e 24F01F00 		bic	r0, r4, #31
 2058 0032 1449     		ldr	r1, .L217
 2059 0034 4658     		ldr	r6, [r0, r1]
 2060 0036 04F01F04 		and	r4, r4, #31
 2061              	.LVL97:
 2062              		.loc 1 1101 3 is_stmt 0 view .LVU335
 2063 003a 0122     		movs	r2, #1
 2064 003c A240     		lsls	r2, r2, r4
 2065 003e 26EA0206 		bic	r6, r6, r2
 2066 0042 4650     		str	r6, [r0, r1]
1102:Drivers/STM32H7xx_HAL_Driver/Src/stm32h7xx_hal.c ****   CLEAR_BIT( *(__IO uint32_t *) (((uint32_t) &(EXTI->RTSR1)) + ((EXTI_Line >> 5 ) * 0x20UL)), (uint
 2067              		.loc 1 1102 3 is_stmt 1 view .LVU336
 2068 0044 03F13073 		add	r3, r3, #46137344
 2069 0048 5B01     		lsls	r3, r3, #5
 2070 004a 1C68     		ldr	r4, [r3]
 2071 004c 24EA0204 		bic	r4, r4, r2
 2072 0050 1C60     		str	r4, [r3]
1103:Drivers/STM32H7xx_HAL_Driver/Src/stm32h7xx_hal.c **** 
1104:Drivers/STM32H7xx_HAL_Driver/Src/stm32h7xx_hal.c ****   if( (EXTI_Edge & EXTI_RISING_EDGE) == EXTI_RISING_EDGE)
 2073              		.loc 1 1104 3 view .LVU337
 2074              		.loc 1 1104 5 is_stmt 0 view .LVU338
ARM GAS  C:\Users\thewo\AppData\Local\Temp\ccu1yGO3.s 			page 57


 2075 0052 15F4801F 		tst	r5, #1048576
 2076 0056 02D0     		beq	.L212
1105:Drivers/STM32H7xx_HAL_Driver/Src/stm32h7xx_hal.c ****   {
1106:Drivers/STM32H7xx_HAL_Driver/Src/stm32h7xx_hal.c ****    SET_BIT( *(__IO uint32_t *) (((uint32_t) &(EXTI->RTSR1)) + ((EXTI_Line >> 5 ) * 0x20UL)), (uint3
 2077              		.loc 1 1106 4 is_stmt 1 view .LVU339
 2078 0058 1C68     		ldr	r4, [r3]
 2079 005a 1443     		orrs	r4, r4, r2
 2080 005c 1C60     		str	r4, [r3]
 2081              	.L212:
1107:Drivers/STM32H7xx_HAL_Driver/Src/stm32h7xx_hal.c ****   }
1108:Drivers/STM32H7xx_HAL_Driver/Src/stm32h7xx_hal.c ****   if( (EXTI_Edge & EXTI_FALLING_EDGE) == EXTI_FALLING_EDGE)
 2082              		.loc 1 1108 3 view .LVU340
 2083              		.loc 1 1108 5 is_stmt 0 view .LVU341
 2084 005e 15F4001F 		tst	r5, #2097152
 2085 0062 02D0     		beq	.L209
1109:Drivers/STM32H7xx_HAL_Driver/Src/stm32h7xx_hal.c ****   {
1110:Drivers/STM32H7xx_HAL_Driver/Src/stm32h7xx_hal.c ****    SET_BIT(*(__IO uint32_t *) (((uint32_t) &(EXTI->FTSR1)) + ((EXTI_Line >> 5 ) * 0x20UL)), (uint32
 2086              		.loc 1 1110 4 is_stmt 1 view .LVU342
 2087 0064 4358     		ldr	r3, [r0, r1]
 2088 0066 1A43     		orrs	r2, r2, r3
 2089 0068 4250     		str	r2, [r0, r1]
 2090              	.L209:
1111:Drivers/STM32H7xx_HAL_Driver/Src/stm32h7xx_hal.c ****   }
1112:Drivers/STM32H7xx_HAL_Driver/Src/stm32h7xx_hal.c **** }
 2091              		.loc 1 1112 1 is_stmt 0 view .LVU343
 2092 006a 70BD     		pop	{r4, r5, r6, pc}
 2093              	.LVL98:
 2094              	.L215:
1097:Drivers/STM32H7xx_HAL_Driver/Src/stm32h7xx_hal.c ****   assert_param(IS_EXTI_EDGE_LINE(EXTI_Edge));
 2095              		.loc 1 1097 3 discriminator 3 view .LVU344
 2096 006c 40F24941 		movw	r1, #1097
 2097              	.LVL99:
1097:Drivers/STM32H7xx_HAL_Driver/Src/stm32h7xx_hal.c ****   assert_param(IS_EXTI_EDGE_LINE(EXTI_Edge));
 2098              		.loc 1 1097 3 discriminator 3 view .LVU345
 2099 0070 0548     		ldr	r0, .L217+4
 2100              	.LVL100:
1097:Drivers/STM32H7xx_HAL_Driver/Src/stm32h7xx_hal.c ****   assert_param(IS_EXTI_EDGE_LINE(EXTI_Edge));
 2101              		.loc 1 1097 3 discriminator 3 view .LVU346
 2102 0072 FFF7FEFF 		bl	assert_failed
 2103              	.LVL101:
 2104 0076 D3E7     		b	.L210
 2105              	.L216:
1098:Drivers/STM32H7xx_HAL_Driver/Src/stm32h7xx_hal.c **** 
 2106              		.loc 1 1098 3 discriminator 1 view .LVU347
 2107 0078 40F24A41 		movw	r1, #1098
 2108 007c 0248     		ldr	r0, .L217+4
 2109 007e FFF7FEFF 		bl	assert_failed
 2110              	.LVL102:
 2111 0082 D3E7     		b	.L211
 2112              	.L218:
 2113              		.align	2
 2114              	.L217:
 2115 0084 04000058 		.word	1476395012
 2116 0088 00000000 		.word	.LC0
 2117              		.cfi_endproc
 2118              	.LFE399:
 2120              		.section	.text.HAL_EXTI_GenerateSWInterrupt,"ax",%progbits
ARM GAS  C:\Users\thewo\AppData\Local\Temp\ccu1yGO3.s 			page 58


 2121              		.align	1
 2122              		.global	HAL_EXTI_GenerateSWInterrupt
 2123              		.syntax unified
 2124              		.thumb
 2125              		.thumb_func
 2127              	HAL_EXTI_GenerateSWInterrupt:
 2128              	.LVL103:
 2129              	.LFB400:
1113:Drivers/STM32H7xx_HAL_Driver/Src/stm32h7xx_hal.c **** 
1114:Drivers/STM32H7xx_HAL_Driver/Src/stm32h7xx_hal.c **** /**
1115:Drivers/STM32H7xx_HAL_Driver/Src/stm32h7xx_hal.c ****   * @brief  Generates a Software interrupt on selected EXTI line.
1116:Drivers/STM32H7xx_HAL_Driver/Src/stm32h7xx_hal.c ****   * @param   EXTI_Line: Specifies the EXTI LINE, it can be one of the following values,
1117:Drivers/STM32H7xx_HAL_Driver/Src/stm32h7xx_hal.c ****   *          (EXTI_LINE0..EXTI_LINE21),EXTI_LINE49,EXTI_LINE51,EXTI_LINE82,EXTI_LINE84,EXTI_LINE85 
1118:Drivers/STM32H7xx_HAL_Driver/Src/stm32h7xx_hal.c ****   * @retval None
1119:Drivers/STM32H7xx_HAL_Driver/Src/stm32h7xx_hal.c ****   */
1120:Drivers/STM32H7xx_HAL_Driver/Src/stm32h7xx_hal.c **** void HAL_EXTI_GenerateSWInterrupt(uint32_t EXTI_Line)
1121:Drivers/STM32H7xx_HAL_Driver/Src/stm32h7xx_hal.c **** {
 2130              		.loc 1 1121 1 is_stmt 1 view -0
 2131              		.cfi_startproc
 2132              		@ args = 0, pretend = 0, frame = 0
 2133              		@ frame_needed = 0, uses_anonymous_args = 0
 2134              		.loc 1 1121 1 is_stmt 0 view .LVU349
 2135 0000 10B5     		push	{r4, lr}
 2136              		.cfi_def_cfa_offset 8
 2137              		.cfi_offset 4, -8
 2138              		.cfi_offset 14, -4
 2139 0002 0446     		mov	r4, r0
1122:Drivers/STM32H7xx_HAL_Driver/Src/stm32h7xx_hal.c ****   /* Check the parameters */
1123:Drivers/STM32H7xx_HAL_Driver/Src/stm32h7xx_hal.c ****   assert_param(IS_HAL_EXTI_CONFIG_LINE(EXTI_Line));
 2140              		.loc 1 1123 3 is_stmt 1 view .LVU350
 2141 0004 3128     		cmp	r0, #49
 2142 0006 18BF     		it	ne
 2143 0008 1528     		cmpne	r0, #21
 2144 000a 08D9     		bls	.L220
 2145              		.loc 1 1123 3 is_stmt 0 discriminator 1 view .LVU351
 2146 000c B0F15503 		subs	r3, r0, #85
 2147 0010 18BF     		it	ne
 2148 0012 0123     		movne	r3, #1
 2149 0014 3328     		cmp	r0, #51
 2150 0016 02D0     		beq	.L220
 2151 0018 0BB1     		cbz	r3, .L220
 2152              		.loc 1 1123 3 discriminator 2 view .LVU352
 2153 001a 5628     		cmp	r0, #86
 2154 001c 0AD1     		bne	.L222
 2155              	.LVL104:
 2156              	.L220:
1124:Drivers/STM32H7xx_HAL_Driver/Src/stm32h7xx_hal.c **** 
1125:Drivers/STM32H7xx_HAL_Driver/Src/stm32h7xx_hal.c ****   SET_BIT(*(__IO uint32_t *) (((uint32_t) &(EXTI->SWIER1)) + ((EXTI_Line >> 5 ) * 0x20UL)), (uint32
 2157              		.loc 1 1125 3 is_stmt 1 view .LVU353
 2158 001e 24F01F00 		bic	r0, r4, #31
 2159 0022 0749     		ldr	r1, .L223
 2160 0024 4358     		ldr	r3, [r0, r1]
 2161 0026 04F01F04 		and	r4, r4, #31
 2162              	.LVL105:
 2163              		.loc 1 1125 3 is_stmt 0 view .LVU354
 2164 002a 0122     		movs	r2, #1
 2165 002c A240     		lsls	r2, r2, r4
ARM GAS  C:\Users\thewo\AppData\Local\Temp\ccu1yGO3.s 			page 59


 2166 002e 1343     		orrs	r3, r3, r2
 2167 0030 4350     		str	r3, [r0, r1]
1126:Drivers/STM32H7xx_HAL_Driver/Src/stm32h7xx_hal.c **** }
 2168              		.loc 1 1126 1 view .LVU355
 2169 0032 10BD     		pop	{r4, pc}
 2170              	.LVL106:
 2171              	.L222:
1123:Drivers/STM32H7xx_HAL_Driver/Src/stm32h7xx_hal.c **** 
 2172              		.loc 1 1123 3 discriminator 3 view .LVU356
 2173 0034 40F26341 		movw	r1, #1123
 2174 0038 0248     		ldr	r0, .L223+4
 2175              	.LVL107:
1123:Drivers/STM32H7xx_HAL_Driver/Src/stm32h7xx_hal.c **** 
 2176              		.loc 1 1123 3 discriminator 3 view .LVU357
 2177 003a FFF7FEFF 		bl	assert_failed
 2178              	.LVL108:
 2179 003e EEE7     		b	.L220
 2180              	.L224:
 2181              		.align	2
 2182              	.L223:
 2183 0040 08000058 		.word	1476395016
 2184 0044 00000000 		.word	.LC0
 2185              		.cfi_endproc
 2186              	.LFE400:
 2188              		.section	.text.HAL_EXTI_D1_ClearFlag,"ax",%progbits
 2189              		.align	1
 2190              		.global	HAL_EXTI_D1_ClearFlag
 2191              		.syntax unified
 2192              		.thumb
 2193              		.thumb_func
 2195              	HAL_EXTI_D1_ClearFlag:
 2196              	.LVL109:
 2197              	.LFB401:
1127:Drivers/STM32H7xx_HAL_Driver/Src/stm32h7xx_hal.c **** 
1128:Drivers/STM32H7xx_HAL_Driver/Src/stm32h7xx_hal.c **** 
1129:Drivers/STM32H7xx_HAL_Driver/Src/stm32h7xx_hal.c **** /**
1130:Drivers/STM32H7xx_HAL_Driver/Src/stm32h7xx_hal.c ****   * @brief  Clears the EXTI's line pending flags for Domain D1
1131:Drivers/STM32H7xx_HAL_Driver/Src/stm32h7xx_hal.c ****   * @param   EXTI_Line: Specifies the EXTI LINE, it can be one of the following values,
1132:Drivers/STM32H7xx_HAL_Driver/Src/stm32h7xx_hal.c ****   *         (EXTI_LINE0....EXTI_LINE87)excluding :line45, line81,line83 which are reserved
1133:Drivers/STM32H7xx_HAL_Driver/Src/stm32h7xx_hal.c ****   * @retval None
1134:Drivers/STM32H7xx_HAL_Driver/Src/stm32h7xx_hal.c ****   */
1135:Drivers/STM32H7xx_HAL_Driver/Src/stm32h7xx_hal.c **** void HAL_EXTI_D1_ClearFlag(uint32_t EXTI_Line)
1136:Drivers/STM32H7xx_HAL_Driver/Src/stm32h7xx_hal.c **** {
 2198              		.loc 1 1136 1 is_stmt 1 view -0
 2199              		.cfi_startproc
 2200              		@ args = 0, pretend = 0, frame = 0
 2201              		@ frame_needed = 0, uses_anonymous_args = 0
 2202              		.loc 1 1136 1 is_stmt 0 view .LVU359
 2203 0000 10B5     		push	{r4, lr}
 2204              		.cfi_def_cfa_offset 8
 2205              		.cfi_offset 4, -8
 2206              		.cfi_offset 14, -4
 2207 0002 0446     		mov	r4, r0
1137:Drivers/STM32H7xx_HAL_Driver/Src/stm32h7xx_hal.c ****   /* Check the parameters */
1138:Drivers/STM32H7xx_HAL_Driver/Src/stm32h7xx_hal.c ****  assert_param(IS_EXTI_D1_LINE(EXTI_Line));
 2208              		.loc 1 1138 2 is_stmt 1 view .LVU360
 2209 0004 2F28     		cmp	r0, #47
ARM GAS  C:\Users\thewo\AppData\Local\Temp\ccu1yGO3.s 			page 60


 2210 0006 18BF     		it	ne
 2211 0008 2C28     		cmpne	r0, #44
 2212 000a 0ED9     		bls	.L226
 2213 000c A0F13003 		sub	r3, r0, #48
 2214 0010 1B2B     		cmp	r3, #27
 2215 0012 0AD9     		bls	.L226
 2216              		.loc 1 1138 2 is_stmt 0 discriminator 15 view .LVU361
 2217 0014 B0F15503 		subs	r3, r0, #85
 2218 0018 18BF     		it	ne
 2219 001a 0123     		movne	r3, #1
 2220 001c 4C28     		cmp	r0, #76
 2221 001e 04D0     		beq	.L226
 2222 0020 1BB1     		cbz	r3, .L226
 2223 0022 A0F15603 		sub	r3, r0, #86
 2224 0026 052B     		cmp	r3, #5
 2225 0028 08D8     		bhi	.L228
 2226              	.LVL110:
 2227              	.L226:
1139:Drivers/STM32H7xx_HAL_Driver/Src/stm32h7xx_hal.c ****  WRITE_REG(*(__IO uint32_t *) (((uint32_t) &(EXTI_D1->PR1)) + ((EXTI_Line >> 5 ) * 0x10UL)), (uint3
 2228              		.loc 1 1139 2 is_stmt 1 view .LVU362
 2229 002a 04F01F02 		and	r2, r4, #31
 2230 002e 6409     		lsrs	r4, r4, #5
 2231              	.LVL111:
 2232              		.loc 1 1139 2 is_stmt 0 view .LVU363
 2233 0030 2401     		lsls	r4, r4, #4
 2234 0032 0123     		movs	r3, #1
 2235 0034 9340     		lsls	r3, r3, r2
 2236 0036 044A     		ldr	r2, .L229
 2237 0038 A350     		str	r3, [r4, r2]
1140:Drivers/STM32H7xx_HAL_Driver/Src/stm32h7xx_hal.c **** 
1141:Drivers/STM32H7xx_HAL_Driver/Src/stm32h7xx_hal.c **** }
 2238              		.loc 1 1141 1 view .LVU364
 2239 003a 10BD     		pop	{r4, pc}
 2240              	.LVL112:
 2241              	.L228:
1138:Drivers/STM32H7xx_HAL_Driver/Src/stm32h7xx_hal.c ****  WRITE_REG(*(__IO uint32_t *) (((uint32_t) &(EXTI_D1->PR1)) + ((EXTI_Line >> 5 ) * 0x10UL)), (uint3
 2242              		.loc 1 1138 2 discriminator 19 view .LVU365
 2243 003c 40F27241 		movw	r1, #1138
 2244 0040 0248     		ldr	r0, .L229+4
 2245              	.LVL113:
1138:Drivers/STM32H7xx_HAL_Driver/Src/stm32h7xx_hal.c ****  WRITE_REG(*(__IO uint32_t *) (((uint32_t) &(EXTI_D1->PR1)) + ((EXTI_Line >> 5 ) * 0x10UL)), (uint3
 2246              		.loc 1 1138 2 discriminator 19 view .LVU366
 2247 0042 FFF7FEFF 		bl	assert_failed
 2248              	.LVL114:
 2249 0046 F0E7     		b	.L226
 2250              	.L230:
 2251              		.align	2
 2252              	.L229:
 2253 0048 88000058 		.word	1476395144
 2254 004c 00000000 		.word	.LC0
 2255              		.cfi_endproc
 2256              	.LFE401:
 2258              		.section	.text.HAL_EXTI_D1_EventInputConfig,"ax",%progbits
 2259              		.align	1
 2260              		.global	HAL_EXTI_D1_EventInputConfig
 2261              		.syntax unified
 2262              		.thumb
ARM GAS  C:\Users\thewo\AppData\Local\Temp\ccu1yGO3.s 			page 61


 2263              		.thumb_func
 2265              	HAL_EXTI_D1_EventInputConfig:
 2266              	.LVL115:
 2267              	.LFB402:
1142:Drivers/STM32H7xx_HAL_Driver/Src/stm32h7xx_hal.c **** 
1143:Drivers/STM32H7xx_HAL_Driver/Src/stm32h7xx_hal.c **** #if defined(DUAL_CORE)
1144:Drivers/STM32H7xx_HAL_Driver/Src/stm32h7xx_hal.c **** /**
1145:Drivers/STM32H7xx_HAL_Driver/Src/stm32h7xx_hal.c ****   * @brief  Clears the EXTI's line pending flags for Domain D2
1146:Drivers/STM32H7xx_HAL_Driver/Src/stm32h7xx_hal.c ****   * @param   EXTI_Line: Specifies the EXTI LINE, it can be one of the following values,
1147:Drivers/STM32H7xx_HAL_Driver/Src/stm32h7xx_hal.c ****   *         (EXTI_LINE0....EXTI_LINE87)excluding :line45, line81,line83 which are reserved
1148:Drivers/STM32H7xx_HAL_Driver/Src/stm32h7xx_hal.c ****   * @retval None
1149:Drivers/STM32H7xx_HAL_Driver/Src/stm32h7xx_hal.c ****   */
1150:Drivers/STM32H7xx_HAL_Driver/Src/stm32h7xx_hal.c **** void HAL_EXTI_D2_ClearFlag(uint32_t EXTI_Line)
1151:Drivers/STM32H7xx_HAL_Driver/Src/stm32h7xx_hal.c **** {
1152:Drivers/STM32H7xx_HAL_Driver/Src/stm32h7xx_hal.c ****   /* Check the parameters */
1153:Drivers/STM32H7xx_HAL_Driver/Src/stm32h7xx_hal.c ****  assert_param(IS_EXTI_D2_LINE(EXTI_Line));
1154:Drivers/STM32H7xx_HAL_Driver/Src/stm32h7xx_hal.c ****  WRITE_REG(*(__IO uint32_t *) (((uint32_t) &(EXTI_D2->PR1)) + ((EXTI_Line >> 5 ) * 0x10UL)), (uint3
1155:Drivers/STM32H7xx_HAL_Driver/Src/stm32h7xx_hal.c **** }
1156:Drivers/STM32H7xx_HAL_Driver/Src/stm32h7xx_hal.c **** 
1157:Drivers/STM32H7xx_HAL_Driver/Src/stm32h7xx_hal.c **** #endif /*DUAL_CORE*/
1158:Drivers/STM32H7xx_HAL_Driver/Src/stm32h7xx_hal.c **** /**
1159:Drivers/STM32H7xx_HAL_Driver/Src/stm32h7xx_hal.c ****   * @brief  Configure the EXTI input event line for Domain D1
1160:Drivers/STM32H7xx_HAL_Driver/Src/stm32h7xx_hal.c ****   * @param   EXTI_Line: Specifies the EXTI LINE, it can be one of the following values,
1161:Drivers/STM32H7xx_HAL_Driver/Src/stm32h7xx_hal.c ****   *         (EXTI_LINE0....EXTI_LINE87)excluding :line45, line81,line83 which are reserved
1162:Drivers/STM32H7xx_HAL_Driver/Src/stm32h7xx_hal.c ****   * @param   EXTI_Mode: Specifies which EXTI line is used as interrupt or an event.
1163:Drivers/STM32H7xx_HAL_Driver/Src/stm32h7xx_hal.c ****   *          This parameter can be one or a combination of the following values :
1164:Drivers/STM32H7xx_HAL_Driver/Src/stm32h7xx_hal.c ****   *   @arg EXTI_MODE_IT :  Interrupt Mode selected
1165:Drivers/STM32H7xx_HAL_Driver/Src/stm32h7xx_hal.c ****   *   @arg EXTI_MODE_EVT : Event Mode selected
1166:Drivers/STM32H7xx_HAL_Driver/Src/stm32h7xx_hal.c ****   * @param   EXTI_LineCmd controls (Enable/Disable) the EXTI line.
1167:Drivers/STM32H7xx_HAL_Driver/Src/stm32h7xx_hal.c **** 
1168:Drivers/STM32H7xx_HAL_Driver/Src/stm32h7xx_hal.c ****   * @retval None
1169:Drivers/STM32H7xx_HAL_Driver/Src/stm32h7xx_hal.c ****   */
1170:Drivers/STM32H7xx_HAL_Driver/Src/stm32h7xx_hal.c **** void HAL_EXTI_D1_EventInputConfig(uint32_t EXTI_Line , uint32_t EXTI_Mode,  uint32_t EXTI_LineCmd )
1171:Drivers/STM32H7xx_HAL_Driver/Src/stm32h7xx_hal.c **** {
 2268              		.loc 1 1171 1 is_stmt 1 view -0
 2269              		.cfi_startproc
 2270              		@ args = 0, pretend = 0, frame = 0
 2271              		@ frame_needed = 0, uses_anonymous_args = 0
 2272              		.loc 1 1171 1 is_stmt 0 view .LVU368
 2273 0000 70B5     		push	{r4, r5, r6, lr}
 2274              		.cfi_def_cfa_offset 16
 2275              		.cfi_offset 4, -16
 2276              		.cfi_offset 5, -12
 2277              		.cfi_offset 6, -8
 2278              		.cfi_offset 14, -4
 2279 0002 0446     		mov	r4, r0
 2280 0004 0D46     		mov	r5, r1
 2281 0006 1646     		mov	r6, r2
1172:Drivers/STM32H7xx_HAL_Driver/Src/stm32h7xx_hal.c ****   /* Check the parameter */
1173:Drivers/STM32H7xx_HAL_Driver/Src/stm32h7xx_hal.c ****   assert_param(IS_EXTI_D1_LINE(EXTI_Line));
 2282              		.loc 1 1173 3 is_stmt 1 view .LVU369
 2283 0008 2F28     		cmp	r0, #47
 2284 000a 18BF     		it	ne
 2285 000c 2C28     		cmpne	r0, #44
 2286 000e 0ED9     		bls	.L232
 2287 0010 A0F13003 		sub	r3, r0, #48
 2288 0014 1B2B     		cmp	r3, #27
ARM GAS  C:\Users\thewo\AppData\Local\Temp\ccu1yGO3.s 			page 62


 2289 0016 0AD9     		bls	.L232
 2290              		.loc 1 1173 3 is_stmt 0 discriminator 15 view .LVU370
 2291 0018 B0F15503 		subs	r3, r0, #85
 2292 001c 18BF     		it	ne
 2293 001e 0123     		movne	r3, #1
 2294 0020 4C28     		cmp	r0, #76
 2295 0022 04D0     		beq	.L232
 2296 0024 1BB1     		cbz	r3, .L232
 2297 0026 A0F15603 		sub	r3, r0, #86
 2298 002a 052B     		cmp	r3, #5
 2299 002c 25D8     		bhi	.L239
 2300              	.LVL116:
 2301              	.L232:
1174:Drivers/STM32H7xx_HAL_Driver/Src/stm32h7xx_hal.c ****   assert_param(IS_EXTI_MODE_LINE(EXTI_Mode));
 2302              		.loc 1 1174 3 is_stmt 1 view .LVU371
 2303 002e B5F5803F 		cmp	r5, #65536
 2304 0032 18BF     		it	ne
 2305 0034 B5F5003F 		cmpne	r5, #131072
 2306 0038 25D1     		bne	.L240
 2307              	.L233:
1175:Drivers/STM32H7xx_HAL_Driver/Src/stm32h7xx_hal.c **** 
1176:Drivers/STM32H7xx_HAL_Driver/Src/stm32h7xx_hal.c ****   if( (EXTI_Mode & EXTI_MODE_IT) == EXTI_MODE_IT)
 2308              		.loc 1 1176 3 view .LVU372
 2309              		.loc 1 1176 5 is_stmt 0 view .LVU373
 2310 003a 15F4803F 		tst	r5, #65536
 2311 003e 0CD0     		beq	.L234
1177:Drivers/STM32H7xx_HAL_Driver/Src/stm32h7xx_hal.c ****   {
1178:Drivers/STM32H7xx_HAL_Driver/Src/stm32h7xx_hal.c ****      if( EXTI_LineCmd == 0UL)
 2312              		.loc 1 1178 6 is_stmt 1 view .LVU374
 2313              		.loc 1 1178 8 is_stmt 0 view .LVU375
 2314 0040 3EBB     		cbnz	r6, .L235
1179:Drivers/STM32H7xx_HAL_Driver/Src/stm32h7xx_hal.c ****      {
1180:Drivers/STM32H7xx_HAL_Driver/Src/stm32h7xx_hal.c ****        /* Clear EXTI line configuration */
1181:Drivers/STM32H7xx_HAL_Driver/Src/stm32h7xx_hal.c ****         CLEAR_BIT(*(__IO uint32_t *) (((uint32_t) &(EXTI_D1->IMR1)) + ((EXTI_Line >> 5 ) * 0x10UL))
 2315              		.loc 1 1181 9 is_stmt 1 view .LVU376
 2316 0042 1F4B     		ldr	r3, .L241
 2317 0044 03EB5413 		add	r3, r3, r4, lsr #5
 2318 0048 1B01     		lsls	r3, r3, #4
 2319 004a 1A68     		ldr	r2, [r3]
 2320 004c 04F01F00 		and	r0, r4, #31
 2321 0050 0121     		movs	r1, #1
 2322 0052 8140     		lsls	r1, r1, r0
 2323 0054 22EA0102 		bic	r2, r2, r1
 2324 0058 1A60     		str	r2, [r3]
 2325              	.L234:
1182:Drivers/STM32H7xx_HAL_Driver/Src/stm32h7xx_hal.c ****      }
1183:Drivers/STM32H7xx_HAL_Driver/Src/stm32h7xx_hal.c ****      else
1184:Drivers/STM32H7xx_HAL_Driver/Src/stm32h7xx_hal.c ****      {
1185:Drivers/STM32H7xx_HAL_Driver/Src/stm32h7xx_hal.c ****         SET_BIT(*(__IO uint32_t *) (((uint32_t) &(EXTI_D1->IMR1)) + ((EXTI_Line >> 5 ) * 0x10UL)), 
1186:Drivers/STM32H7xx_HAL_Driver/Src/stm32h7xx_hal.c ****      }
1187:Drivers/STM32H7xx_HAL_Driver/Src/stm32h7xx_hal.c ****   }
1188:Drivers/STM32H7xx_HAL_Driver/Src/stm32h7xx_hal.c **** 
1189:Drivers/STM32H7xx_HAL_Driver/Src/stm32h7xx_hal.c ****   if( (EXTI_Mode & EXTI_MODE_EVT) == EXTI_MODE_EVT)
 2326              		.loc 1 1189 3 view .LVU377
 2327              		.loc 1 1189 5 is_stmt 0 view .LVU378
 2328 005a 15F4003F 		tst	r5, #131072
 2329 005e 0BD0     		beq	.L231
ARM GAS  C:\Users\thewo\AppData\Local\Temp\ccu1yGO3.s 			page 63


1190:Drivers/STM32H7xx_HAL_Driver/Src/stm32h7xx_hal.c ****   {
1191:Drivers/STM32H7xx_HAL_Driver/Src/stm32h7xx_hal.c ****     if( EXTI_LineCmd == 0UL)
 2330              		.loc 1 1191 5 is_stmt 1 view .LVU379
 2331              		.loc 1 1191 7 is_stmt 0 view .LVU380
 2332 0060 1EBB     		cbnz	r6, .L237
1192:Drivers/STM32H7xx_HAL_Driver/Src/stm32h7xx_hal.c ****     {
1193:Drivers/STM32H7xx_HAL_Driver/Src/stm32h7xx_hal.c ****       /* Clear EXTI line configuration */
1194:Drivers/STM32H7xx_HAL_Driver/Src/stm32h7xx_hal.c ****       CLEAR_BIT(  *(__IO uint32_t *) (((uint32_t) &(EXTI_D1->EMR1)) + ((EXTI_Line >> 5 ) * 0x10UL))
 2333              		.loc 1 1194 7 is_stmt 1 view .LVU381
 2334 0062 6309     		lsrs	r3, r4, #5
 2335 0064 1B01     		lsls	r3, r3, #4
 2336 0066 1748     		ldr	r0, .L241+4
 2337 0068 1A58     		ldr	r2, [r3, r0]
 2338 006a 04F01F04 		and	r4, r4, #31
 2339              	.LVL117:
 2340              		.loc 1 1194 7 is_stmt 0 view .LVU382
 2341 006e 0121     		movs	r1, #1
 2342 0070 A140     		lsls	r1, r1, r4
 2343 0072 22EA0102 		bic	r2, r2, r1
 2344 0076 1A50     		str	r2, [r3, r0]
 2345              	.L231:
1195:Drivers/STM32H7xx_HAL_Driver/Src/stm32h7xx_hal.c ****     }
1196:Drivers/STM32H7xx_HAL_Driver/Src/stm32h7xx_hal.c ****     else
1197:Drivers/STM32H7xx_HAL_Driver/Src/stm32h7xx_hal.c ****     {
1198:Drivers/STM32H7xx_HAL_Driver/Src/stm32h7xx_hal.c ****       SET_BIT(  *(__IO uint32_t *) (((uint32_t) &(EXTI_D1->EMR1)) + ((EXTI_Line >> 5 ) * 0x10UL)), 
1199:Drivers/STM32H7xx_HAL_Driver/Src/stm32h7xx_hal.c ****     }
1200:Drivers/STM32H7xx_HAL_Driver/Src/stm32h7xx_hal.c ****   }
1201:Drivers/STM32H7xx_HAL_Driver/Src/stm32h7xx_hal.c **** }
 2346              		.loc 1 1201 1 view .LVU383
 2347 0078 70BD     		pop	{r4, r5, r6, pc}
 2348              	.LVL118:
 2349              	.L239:
1173:Drivers/STM32H7xx_HAL_Driver/Src/stm32h7xx_hal.c ****   assert_param(IS_EXTI_MODE_LINE(EXTI_Mode));
 2350              		.loc 1 1173 3 discriminator 19 view .LVU384
 2351 007a 40F29541 		movw	r1, #1173
 2352              	.LVL119:
1173:Drivers/STM32H7xx_HAL_Driver/Src/stm32h7xx_hal.c ****   assert_param(IS_EXTI_MODE_LINE(EXTI_Mode));
 2353              		.loc 1 1173 3 discriminator 19 view .LVU385
 2354 007e 1248     		ldr	r0, .L241+8
 2355              	.LVL120:
1173:Drivers/STM32H7xx_HAL_Driver/Src/stm32h7xx_hal.c ****   assert_param(IS_EXTI_MODE_LINE(EXTI_Mode));
 2356              		.loc 1 1173 3 discriminator 19 view .LVU386
 2357 0080 FFF7FEFF 		bl	assert_failed
 2358              	.LVL121:
1173:Drivers/STM32H7xx_HAL_Driver/Src/stm32h7xx_hal.c ****   assert_param(IS_EXTI_MODE_LINE(EXTI_Mode));
 2359              		.loc 1 1173 3 discriminator 19 view .LVU387
 2360 0084 D3E7     		b	.L232
 2361              	.L240:
1174:Drivers/STM32H7xx_HAL_Driver/Src/stm32h7xx_hal.c **** 
 2362              		.loc 1 1174 3 discriminator 1 view .LVU388
 2363 0086 40F29641 		movw	r1, #1174
 2364 008a 0F48     		ldr	r0, .L241+8
 2365 008c FFF7FEFF 		bl	assert_failed
 2366              	.LVL122:
 2367 0090 D3E7     		b	.L233
 2368              	.L235:
1185:Drivers/STM32H7xx_HAL_Driver/Src/stm32h7xx_hal.c ****      }
ARM GAS  C:\Users\thewo\AppData\Local\Temp\ccu1yGO3.s 			page 64


 2369              		.loc 1 1185 9 is_stmt 1 view .LVU389
 2370 0092 0B4B     		ldr	r3, .L241
 2371 0094 03EB5413 		add	r3, r3, r4, lsr #5
 2372 0098 1B01     		lsls	r3, r3, #4
 2373 009a 1A68     		ldr	r2, [r3]
 2374 009c 04F01F00 		and	r0, r4, #31
 2375 00a0 0121     		movs	r1, #1
 2376 00a2 8140     		lsls	r1, r1, r0
 2377 00a4 0A43     		orrs	r2, r2, r1
 2378 00a6 1A60     		str	r2, [r3]
 2379 00a8 D7E7     		b	.L234
 2380              	.L237:
1198:Drivers/STM32H7xx_HAL_Driver/Src/stm32h7xx_hal.c ****     }
 2381              		.loc 1 1198 7 view .LVU390
 2382 00aa 6309     		lsrs	r3, r4, #5
 2383 00ac 1B01     		lsls	r3, r3, #4
 2384 00ae 0548     		ldr	r0, .L241+4
 2385 00b0 1A58     		ldr	r2, [r3, r0]
 2386 00b2 04F01F04 		and	r4, r4, #31
 2387              	.LVL123:
1198:Drivers/STM32H7xx_HAL_Driver/Src/stm32h7xx_hal.c ****     }
 2388              		.loc 1 1198 7 is_stmt 0 view .LVU391
 2389 00b6 0121     		movs	r1, #1
 2390 00b8 A140     		lsls	r1, r1, r4
 2391 00ba 0A43     		orrs	r2, r2, r1
 2392 00bc 1A50     		str	r2, [r3, r0]
 2393              		.loc 1 1201 1 view .LVU392
 2394 00be DBE7     		b	.L231
 2395              	.L242:
 2396              		.align	2
 2397              	.L241:
 2398 00c0 08008005 		.word	92274696
 2399 00c4 84000058 		.word	1476395140
 2400 00c8 00000000 		.word	.LC0
 2401              		.cfi_endproc
 2402              	.LFE402:
 2404              		.section	.text.HAL_EXTI_D3_EventInputConfig,"ax",%progbits
 2405              		.align	1
 2406              		.global	HAL_EXTI_D3_EventInputConfig
 2407              		.syntax unified
 2408              		.thumb
 2409              		.thumb_func
 2411              	HAL_EXTI_D3_EventInputConfig:
 2412              	.LVL124:
 2413              	.LFB403:
1202:Drivers/STM32H7xx_HAL_Driver/Src/stm32h7xx_hal.c **** 
1203:Drivers/STM32H7xx_HAL_Driver/Src/stm32h7xx_hal.c **** #if defined(DUAL_CORE)
1204:Drivers/STM32H7xx_HAL_Driver/Src/stm32h7xx_hal.c **** /**
1205:Drivers/STM32H7xx_HAL_Driver/Src/stm32h7xx_hal.c ****   * @brief  Configure the EXTI input event line for Domain D2
1206:Drivers/STM32H7xx_HAL_Driver/Src/stm32h7xx_hal.c ****   * @param   EXTI_Line: Specifies the EXTI LINE, it can be one of the following values,
1207:Drivers/STM32H7xx_HAL_Driver/Src/stm32h7xx_hal.c ****   *         (EXTI_LINE0....EXTI_LINE87)excluding :line45, line81,line83 which are reserved
1208:Drivers/STM32H7xx_HAL_Driver/Src/stm32h7xx_hal.c ****   * @param   EXTI_Mode: Specifies which EXTI line is used as interrupt or an event.
1209:Drivers/STM32H7xx_HAL_Driver/Src/stm32h7xx_hal.c ****   *          This parameter can be one or a combination of the following values :
1210:Drivers/STM32H7xx_HAL_Driver/Src/stm32h7xx_hal.c ****   *   @arg EXTI_MODE_IT :  Interrupt Mode selected
1211:Drivers/STM32H7xx_HAL_Driver/Src/stm32h7xx_hal.c ****   *   @arg EXTI_MODE_EVT : Event Mode selected
1212:Drivers/STM32H7xx_HAL_Driver/Src/stm32h7xx_hal.c ****   * @param   EXTI_LineCmd controls (Enable/Disable) the EXTI line.
1213:Drivers/STM32H7xx_HAL_Driver/Src/stm32h7xx_hal.c **** 
ARM GAS  C:\Users\thewo\AppData\Local\Temp\ccu1yGO3.s 			page 65


1214:Drivers/STM32H7xx_HAL_Driver/Src/stm32h7xx_hal.c ****   * @retval None
1215:Drivers/STM32H7xx_HAL_Driver/Src/stm32h7xx_hal.c ****   */
1216:Drivers/STM32H7xx_HAL_Driver/Src/stm32h7xx_hal.c **** void HAL_EXTI_D2_EventInputConfig(uint32_t EXTI_Line , uint32_t EXTI_Mode,  uint32_t EXTI_LineCmd )
1217:Drivers/STM32H7xx_HAL_Driver/Src/stm32h7xx_hal.c **** {
1218:Drivers/STM32H7xx_HAL_Driver/Src/stm32h7xx_hal.c ****   /* Check the parameter */
1219:Drivers/STM32H7xx_HAL_Driver/Src/stm32h7xx_hal.c ****   assert_param(IS_EXTI_D2_LINE(EXTI_Line));
1220:Drivers/STM32H7xx_HAL_Driver/Src/stm32h7xx_hal.c ****   assert_param(IS_EXTI_MODE_LINE(EXTI_Mode));
1221:Drivers/STM32H7xx_HAL_Driver/Src/stm32h7xx_hal.c **** 
1222:Drivers/STM32H7xx_HAL_Driver/Src/stm32h7xx_hal.c ****   if( (EXTI_Mode & EXTI_MODE_IT) == EXTI_MODE_IT)
1223:Drivers/STM32H7xx_HAL_Driver/Src/stm32h7xx_hal.c ****   {
1224:Drivers/STM32H7xx_HAL_Driver/Src/stm32h7xx_hal.c ****     if( EXTI_LineCmd == 0UL)
1225:Drivers/STM32H7xx_HAL_Driver/Src/stm32h7xx_hal.c ****     {
1226:Drivers/STM32H7xx_HAL_Driver/Src/stm32h7xx_hal.c ****     /* Clear EXTI line configuration */
1227:Drivers/STM32H7xx_HAL_Driver/Src/stm32h7xx_hal.c ****      CLEAR_BIT(*(__IO uint32_t *) (((uint32_t) &(EXTI_D2->IMR1)) + ((EXTI_Line >> 5 ) * 0x10UL)),(u
1228:Drivers/STM32H7xx_HAL_Driver/Src/stm32h7xx_hal.c ****     }
1229:Drivers/STM32H7xx_HAL_Driver/Src/stm32h7xx_hal.c ****     else
1230:Drivers/STM32H7xx_HAL_Driver/Src/stm32h7xx_hal.c ****     {
1231:Drivers/STM32H7xx_HAL_Driver/Src/stm32h7xx_hal.c ****      SET_BIT(*(__IO uint32_t *) (((uint32_t) &(EXTI_D2->IMR1)) + ((EXTI_Line >> 5 ) * 0x10UL)), (ui
1232:Drivers/STM32H7xx_HAL_Driver/Src/stm32h7xx_hal.c ****     }
1233:Drivers/STM32H7xx_HAL_Driver/Src/stm32h7xx_hal.c ****   }
1234:Drivers/STM32H7xx_HAL_Driver/Src/stm32h7xx_hal.c **** 
1235:Drivers/STM32H7xx_HAL_Driver/Src/stm32h7xx_hal.c ****   if( (EXTI_Mode & EXTI_MODE_EVT) == EXTI_MODE_EVT)
1236:Drivers/STM32H7xx_HAL_Driver/Src/stm32h7xx_hal.c ****   {
1237:Drivers/STM32H7xx_HAL_Driver/Src/stm32h7xx_hal.c ****     if( EXTI_LineCmd == 0UL)
1238:Drivers/STM32H7xx_HAL_Driver/Src/stm32h7xx_hal.c ****     {
1239:Drivers/STM32H7xx_HAL_Driver/Src/stm32h7xx_hal.c ****       /* Clear EXTI line configuration */
1240:Drivers/STM32H7xx_HAL_Driver/Src/stm32h7xx_hal.c ****       CLEAR_BIT(  *(__IO uint32_t *) (((uint32_t) &(EXTI_D2->EMR1)) + ((EXTI_Line >> 5 ) * 0x10UL))
1241:Drivers/STM32H7xx_HAL_Driver/Src/stm32h7xx_hal.c ****     }
1242:Drivers/STM32H7xx_HAL_Driver/Src/stm32h7xx_hal.c ****     else
1243:Drivers/STM32H7xx_HAL_Driver/Src/stm32h7xx_hal.c ****     {
1244:Drivers/STM32H7xx_HAL_Driver/Src/stm32h7xx_hal.c ****       SET_BIT(  *(__IO uint32_t *) (((uint32_t) &(EXTI_D2->EMR1)) + ((EXTI_Line >> 5 ) * 0x10UL)), 
1245:Drivers/STM32H7xx_HAL_Driver/Src/stm32h7xx_hal.c ****     }
1246:Drivers/STM32H7xx_HAL_Driver/Src/stm32h7xx_hal.c ****   }
1247:Drivers/STM32H7xx_HAL_Driver/Src/stm32h7xx_hal.c **** }
1248:Drivers/STM32H7xx_HAL_Driver/Src/stm32h7xx_hal.c **** #endif /*DUAL_CORE*/
1249:Drivers/STM32H7xx_HAL_Driver/Src/stm32h7xx_hal.c **** 
1250:Drivers/STM32H7xx_HAL_Driver/Src/stm32h7xx_hal.c **** /**
1251:Drivers/STM32H7xx_HAL_Driver/Src/stm32h7xx_hal.c ****   * @brief  Configure the EXTI input event line for Domain D3
1252:Drivers/STM32H7xx_HAL_Driver/Src/stm32h7xx_hal.c ****   * @param   EXTI_Line: Specifies the EXTI LINE, it can be one of the following values,
1253:Drivers/STM32H7xx_HAL_Driver/Src/stm32h7xx_hal.c ****   *         (EXTI_LINE0...EXTI_LINE15),(EXTI_LINE19...EXTI_LINE21),EXTI_LINE25, EXTI_LINE34,
1254:Drivers/STM32H7xx_HAL_Driver/Src/stm32h7xx_hal.c ****   *          EXTI_LINE35,EXTI_LINE41,(EXTI_LINE48...EXTI_LINE53)
1255:Drivers/STM32H7xx_HAL_Driver/Src/stm32h7xx_hal.c ****   * @param   EXTI_LineCmd controls (Enable/Disable) the EXTI line.
1256:Drivers/STM32H7xx_HAL_Driver/Src/stm32h7xx_hal.c ****   * @param   EXTI_ClearSrc: Specifies the clear source of D3 pending event.
1257:Drivers/STM32H7xx_HAL_Driver/Src/stm32h7xx_hal.c ****   *          This parameter can be one of the following values :
1258:Drivers/STM32H7xx_HAL_Driver/Src/stm32h7xx_hal.c ****   *   @arg BDMA_CH6_CLEAR : BDMA ch6 event selected as D3 domain pendclear source
1259:Drivers/STM32H7xx_HAL_Driver/Src/stm32h7xx_hal.c ****   *   @arg BDMA_CH7_CLEAR : BDMA ch7 event selected as D3 domain pendclear source
1260:Drivers/STM32H7xx_HAL_Driver/Src/stm32h7xx_hal.c ****   *   @arg LPTIM4_OUT_CLEAR : LPTIM4 out selected as D3 domain pendclear source
1261:Drivers/STM32H7xx_HAL_Driver/Src/stm32h7xx_hal.c ****   *   @arg LPTIM5_OUT_CLEAR : LPTIM5 out selected as D3 domain pendclear source
1262:Drivers/STM32H7xx_HAL_Driver/Src/stm32h7xx_hal.c ****   * @retval None
1263:Drivers/STM32H7xx_HAL_Driver/Src/stm32h7xx_hal.c ****   */
1264:Drivers/STM32H7xx_HAL_Driver/Src/stm32h7xx_hal.c **** void HAL_EXTI_D3_EventInputConfig(uint32_t EXTI_Line, uint32_t EXTI_LineCmd , uint32_t EXTI_ClearSr
1265:Drivers/STM32H7xx_HAL_Driver/Src/stm32h7xx_hal.c **** {
 2414              		.loc 1 1265 1 is_stmt 1 view -0
 2415              		.cfi_startproc
 2416              		@ args = 0, pretend = 0, frame = 0
 2417              		@ frame_needed = 0, uses_anonymous_args = 0
 2418              		.loc 1 1265 1 is_stmt 0 view .LVU394
ARM GAS  C:\Users\thewo\AppData\Local\Temp\ccu1yGO3.s 			page 66


 2419 0000 70B5     		push	{r4, r5, r6, lr}
 2420              		.cfi_def_cfa_offset 16
 2421              		.cfi_offset 4, -16
 2422              		.cfi_offset 5, -12
 2423              		.cfi_offset 6, -8
 2424              		.cfi_offset 14, -4
 2425 0002 0446     		mov	r4, r0
 2426 0004 0E46     		mov	r6, r1
 2427 0006 1546     		mov	r5, r2
1266:Drivers/STM32H7xx_HAL_Driver/Src/stm32h7xx_hal.c ****   __IO uint32_t *pRegv;
 2428              		.loc 1 1266 3 is_stmt 1 view .LVU395
1267:Drivers/STM32H7xx_HAL_Driver/Src/stm32h7xx_hal.c **** 
1268:Drivers/STM32H7xx_HAL_Driver/Src/stm32h7xx_hal.c ****   /* Check the parameter */
1269:Drivers/STM32H7xx_HAL_Driver/Src/stm32h7xx_hal.c ****   assert_param(IS_EXTI_D3_LINE(EXTI_Line));
 2429              		.loc 1 1269 3 view .LVU396
 2430 0008 1328     		cmp	r0, #19
 2431 000a 18BF     		it	ne
 2432 000c 0F28     		cmpne	r0, #15
 2433 000e 15D9     		bls	.L244
 2434              		.loc 1 1269 3 is_stmt 0 discriminator 1 view .LVU397
 2435 0010 A0F11403 		sub	r3, r0, #20
 2436 0014 012B     		cmp	r3, #1
 2437 0016 11D9     		bls	.L244
 2438              		.loc 1 1269 3 discriminator 2 view .LVU398
 2439 0018 B0F12203 		subs	r3, r0, #34
 2440 001c 18BF     		it	ne
 2441 001e 0123     		movne	r3, #1
 2442 0020 1928     		cmp	r0, #25
 2443 0022 0BD0     		beq	.L244
 2444 0024 53B1     		cbz	r3, .L244
 2445              		.loc 1 1269 3 discriminator 3 view .LVU399
 2446 0026 B0F12903 		subs	r3, r0, #41
 2447 002a 18BF     		it	ne
 2448 002c 0123     		movne	r3, #1
 2449 002e 2328     		cmp	r0, #35
 2450 0030 04D0     		beq	.L244
 2451 0032 1BB1     		cbz	r3, .L244
 2452 0034 3528     		cmp	r0, #53
 2453 0036 22D8     		bhi	.L245
 2454 0038 3028     		cmp	r0, #48
 2455 003a 22D3     		bcc	.L246
 2456              	.LVL125:
 2457              	.L244:
1270:Drivers/STM32H7xx_HAL_Driver/Src/stm32h7xx_hal.c ****   assert_param(IS_EXTI_D3_CLEAR(EXTI_ClearSrc));
 2458              		.loc 1 1270 3 is_stmt 1 view .LVU400
 2459 003c 032D     		cmp	r5, #3
 2460 003e 26D8     		bhi	.L253
 2461              	.L247:
1271:Drivers/STM32H7xx_HAL_Driver/Src/stm32h7xx_hal.c **** 
1272:Drivers/STM32H7xx_HAL_Driver/Src/stm32h7xx_hal.c ****   if( EXTI_LineCmd == 0UL)
 2462              		.loc 1 1272 3 view .LVU401
 2463              		.loc 1 1272 5 is_stmt 0 view .LVU402
 2464 0040 5EBB     		cbnz	r6, .L248
1273:Drivers/STM32H7xx_HAL_Driver/Src/stm32h7xx_hal.c ****   {
1274:Drivers/STM32H7xx_HAL_Driver/Src/stm32h7xx_hal.c ****     /* Clear EXTI line configuration */
1275:Drivers/STM32H7xx_HAL_Driver/Src/stm32h7xx_hal.c ****     CLEAR_BIT(*(__IO uint32_t *) (((uint32_t) &(EXTI->D3PMR1)) + ((EXTI_Line >> 5 ) * 0x20UL)),(uin
 2465              		.loc 1 1275 5 is_stmt 1 view .LVU403
ARM GAS  C:\Users\thewo\AppData\Local\Temp\ccu1yGO3.s 			page 67


 2466 0042 24F01F03 		bic	r3, r4, #31
 2467 0046 1D48     		ldr	r0, .L254
 2468 0048 1A58     		ldr	r2, [r3, r0]
 2469 004a 04F01F06 		and	r6, r4, #31
 2470              	.LVL126:
 2471              		.loc 1 1275 5 is_stmt 0 view .LVU404
 2472 004e 0121     		movs	r1, #1
 2473 0050 B140     		lsls	r1, r1, r6
 2474 0052 22EA0102 		bic	r2, r2, r1
 2475 0056 1A50     		str	r2, [r3, r0]
 2476              	.L249:
1276:Drivers/STM32H7xx_HAL_Driver/Src/stm32h7xx_hal.c ****   }
1277:Drivers/STM32H7xx_HAL_Driver/Src/stm32h7xx_hal.c ****   else
1278:Drivers/STM32H7xx_HAL_Driver/Src/stm32h7xx_hal.c ****   {
1279:Drivers/STM32H7xx_HAL_Driver/Src/stm32h7xx_hal.c ****     SET_BIT(*(__IO uint32_t *) (((uint32_t) &(EXTI->D3PMR1)) +((EXTI_Line >> 5 ) * 0x20UL)), (uint3
1280:Drivers/STM32H7xx_HAL_Driver/Src/stm32h7xx_hal.c ****   }
1281:Drivers/STM32H7xx_HAL_Driver/Src/stm32h7xx_hal.c **** 
1282:Drivers/STM32H7xx_HAL_Driver/Src/stm32h7xx_hal.c ****   if(((EXTI_Line>>4)%2UL) == 0UL)
 2477              		.loc 1 1282 3 is_stmt 1 view .LVU405
 2478              		.loc 1 1282 5 is_stmt 0 view .LVU406
 2479 0058 14F0100F 		tst	r4, #16
 2480 005c 28D1     		bne	.L250
1283:Drivers/STM32H7xx_HAL_Driver/Src/stm32h7xx_hal.c ****   {
1284:Drivers/STM32H7xx_HAL_Driver/Src/stm32h7xx_hal.c ****     pRegv = (__IO uint32_t *) (((uint32_t) &(EXTI->D3PCR1L)) + ((EXTI_Line >> 5 ) * 0x20UL));
 2481              		.loc 1 1284 5 is_stmt 1 view .LVU407
 2482              		.loc 1 1284 83 is_stmt 0 view .LVU408
 2483 005e 24F01F03 		bic	r3, r4, #31
 2484              		.loc 1 1284 62 view .LVU409
 2485 0062 174A     		ldr	r2, .L254+4
 2486 0064 1A44     		add	r2, r2, r3
 2487              	.LVL127:
 2488              	.L251:
1285:Drivers/STM32H7xx_HAL_Driver/Src/stm32h7xx_hal.c ****   }
1286:Drivers/STM32H7xx_HAL_Driver/Src/stm32h7xx_hal.c ****   else
1287:Drivers/STM32H7xx_HAL_Driver/Src/stm32h7xx_hal.c ****   {
1288:Drivers/STM32H7xx_HAL_Driver/Src/stm32h7xx_hal.c ****     pRegv = (__IO uint32_t *) (((uint32_t) &(EXTI->D3PCR1H)) + ((EXTI_Line >> 5 ) * 0x20UL));
1289:Drivers/STM32H7xx_HAL_Driver/Src/stm32h7xx_hal.c ****   }
1290:Drivers/STM32H7xx_HAL_Driver/Src/stm32h7xx_hal.c ****   MODIFY_REG(*pRegv, (uint32_t)(3UL << ((EXTI_Line*2UL) & 0x1FUL)), (uint32_t)(EXTI_ClearSrc << ((E
 2489              		.loc 1 1290 3 is_stmt 1 view .LVU410
 2490 0066 1368     		ldr	r3, [r2]
 2491 0068 6400     		lsls	r4, r4, #1
 2492              	.LVL128:
 2493              		.loc 1 1290 3 is_stmt 0 view .LVU411
 2494 006a 04F01E04 		and	r4, r4, #30
 2495 006e 0321     		movs	r1, #3
 2496 0070 A140     		lsls	r1, r1, r4
 2497 0072 23EA0103 		bic	r3, r3, r1
 2498 0076 A540     		lsls	r5, r5, r4
 2499              	.LVL129:
 2500              		.loc 1 1290 3 view .LVU412
 2501 0078 1D43     		orrs	r5, r5, r3
 2502 007a 1560     		str	r5, [r2]
1291:Drivers/STM32H7xx_HAL_Driver/Src/stm32h7xx_hal.c **** 
1292:Drivers/STM32H7xx_HAL_Driver/Src/stm32h7xx_hal.c **** }
 2503              		.loc 1 1292 1 view .LVU413
 2504 007c 70BD     		pop	{r4, r5, r6, pc}
 2505              	.LVL130:
ARM GAS  C:\Users\thewo\AppData\Local\Temp\ccu1yGO3.s 			page 68


 2506              	.L245:
 2507              		.loc 1 1292 1 view .LVU414
 2508 007e 5828     		cmp	r0, #88
 2509 0080 DCD0     		beq	.L244
 2510              	.L246:
1269:Drivers/STM32H7xx_HAL_Driver/Src/stm32h7xx_hal.c ****   assert_param(IS_EXTI_D3_CLEAR(EXTI_ClearSrc));
 2511              		.loc 1 1269 3 discriminator 8 view .LVU415
 2512 0082 40F2F541 		movw	r1, #1269
 2513              	.LVL131:
1269:Drivers/STM32H7xx_HAL_Driver/Src/stm32h7xx_hal.c ****   assert_param(IS_EXTI_D3_CLEAR(EXTI_ClearSrc));
 2514              		.loc 1 1269 3 discriminator 8 view .LVU416
 2515 0086 0F48     		ldr	r0, .L254+8
 2516              	.LVL132:
1269:Drivers/STM32H7xx_HAL_Driver/Src/stm32h7xx_hal.c ****   assert_param(IS_EXTI_D3_CLEAR(EXTI_ClearSrc));
 2517              		.loc 1 1269 3 discriminator 8 view .LVU417
 2518 0088 FFF7FEFF 		bl	assert_failed
 2519              	.LVL133:
1269:Drivers/STM32H7xx_HAL_Driver/Src/stm32h7xx_hal.c ****   assert_param(IS_EXTI_D3_CLEAR(EXTI_ClearSrc));
 2520              		.loc 1 1269 3 discriminator 8 view .LVU418
 2521 008c D6E7     		b	.L244
 2522              	.L253:
1270:Drivers/STM32H7xx_HAL_Driver/Src/stm32h7xx_hal.c **** 
 2523              		.loc 1 1270 3 discriminator 1 view .LVU419
 2524 008e 40F2F641 		movw	r1, #1270
 2525 0092 0C48     		ldr	r0, .L254+8
 2526 0094 FFF7FEFF 		bl	assert_failed
 2527              	.LVL134:
 2528 0098 D2E7     		b	.L247
 2529              	.L248:
1279:Drivers/STM32H7xx_HAL_Driver/Src/stm32h7xx_hal.c ****   }
 2530              		.loc 1 1279 5 is_stmt 1 view .LVU420
 2531 009a 24F01F03 		bic	r3, r4, #31
 2532 009e 0748     		ldr	r0, .L254
 2533 00a0 1A58     		ldr	r2, [r3, r0]
 2534 00a2 04F01F06 		and	r6, r4, #31
 2535              	.LVL135:
1279:Drivers/STM32H7xx_HAL_Driver/Src/stm32h7xx_hal.c ****   }
 2536              		.loc 1 1279 5 is_stmt 0 view .LVU421
 2537 00a6 0121     		movs	r1, #1
 2538 00a8 B140     		lsls	r1, r1, r6
 2539 00aa 0A43     		orrs	r2, r2, r1
 2540 00ac 1A50     		str	r2, [r3, r0]
 2541 00ae D3E7     		b	.L249
 2542              	.L250:
1288:Drivers/STM32H7xx_HAL_Driver/Src/stm32h7xx_hal.c ****   }
 2543              		.loc 1 1288 5 is_stmt 1 view .LVU422
1288:Drivers/STM32H7xx_HAL_Driver/Src/stm32h7xx_hal.c ****   }
 2544              		.loc 1 1288 83 is_stmt 0 view .LVU423
 2545 00b0 24F01F03 		bic	r3, r4, #31
1288:Drivers/STM32H7xx_HAL_Driver/Src/stm32h7xx_hal.c ****   }
 2546              		.loc 1 1288 62 view .LVU424
 2547 00b4 044A     		ldr	r2, .L254+12
 2548 00b6 1A44     		add	r2, r2, r3
 2549 00b8 D5E7     		b	.L251
 2550              	.L255:
 2551 00ba 00BF     		.align	2
 2552              	.L254:
ARM GAS  C:\Users\thewo\AppData\Local\Temp\ccu1yGO3.s 			page 69


 2553 00bc 0C000058 		.word	1476395020
 2554 00c0 10000058 		.word	1476395024
 2555 00c4 00000000 		.word	.LC0
 2556 00c8 14000058 		.word	1476395028
 2557              		.cfi_endproc
 2558              	.LFE403:
 2560              		.global	uwTickFreq
 2561              		.section	.data.uwTickFreq,"aw"
 2564              	uwTickFreq:
 2565 0000 01       		.byte	1
 2566              		.global	uwTickPrio
 2567              		.section	.data.uwTickPrio,"aw"
 2568              		.align	2
 2571              	uwTickPrio:
 2572 0000 10000000 		.word	16
 2573              		.global	uwTick
 2574              		.section	.bss.uwTick,"aw",%nobits
 2575              		.align	2
 2578              	uwTick:
 2579 0000 00000000 		.space	4
 2580              		.text
 2581              	.Letext0:
 2582              		.file 2 "Drivers/CMSIS/Device/ST/STM32H7xx/Include/stm32h725xx.h"
 2583              		.file 3 "C:/Users/thewo/AppData/Roaming/Code/User/globalStorage/bmd.stm32-for-vscode/@xpack-dev-to
 2584              		.file 4 "C:/Users/thewo/AppData/Roaming/Code/User/globalStorage/bmd.stm32-for-vscode/@xpack-dev-to
 2585              		.file 5 "Drivers/CMSIS/Include/core_cm7.h"
 2586              		.file 6 "Drivers/CMSIS/Device/ST/STM32H7xx/Include/system_stm32h7xx.h"
 2587              		.file 7 "Drivers/STM32H7xx_HAL_Driver/Inc/stm32h7xx_hal_def.h"
 2588              		.file 8 "Drivers/STM32H7xx_HAL_Driver/Inc/stm32h7xx_hal.h"
 2589              		.file 9 "Core/Inc/stm32h7xx_hal_conf.h"
 2590              		.file 10 "Drivers/STM32H7xx_HAL_Driver/Inc/stm32h7xx_hal_cortex.h"
 2591              		.file 11 "Drivers/STM32H7xx_HAL_Driver/Inc/stm32h7xx_hal_rcc.h"
ARM GAS  C:\Users\thewo\AppData\Local\Temp\ccu1yGO3.s 			page 70

