ARM GAS  C:\Users\thewo\AppData\Local\Temp\ccqHaRNc.s 			page 1


   1              		.cpu cortex-m7
   2              		.arch armv7e-m
   3              		.fpu fpv5-d16
   4              		.eabi_attribute 28, 1
   5              		.eabi_attribute 20, 1
   6              		.eabi_attribute 21, 1
   7              		.eabi_attribute 23, 3
   8              		.eabi_attribute 24, 1
   9              		.eabi_attribute 25, 1
  10              		.eabi_attribute 26, 1
  11              		.eabi_attribute 30, 1
  12              		.eabi_attribute 34, 1
  13              		.eabi_attribute 18, 4
  14              		.file	"stm32h7xx_hal_cordic.c"
  15              		.text
  16              	.Ltext0:
  17              		.cfi_sections	.debug_frame
  18              		.file 1 "Drivers/STM32H7xx_HAL_Driver/Src/stm32h7xx_hal_cordic.c"
  19              		.section	.text.CORDIC_WriteInDataIncrementPtr,"ax",%progbits
  20              		.align	1
  21              		.syntax unified
  22              		.thumb
  23              		.thumb_func
  25              	CORDIC_WriteInDataIncrementPtr:
  26              	.LVL0:
  27              	.LFB364:
   1:Drivers/STM32H7xx_HAL_Driver/Src/stm32h7xx_hal_cordic.c **** /**
   2:Drivers/STM32H7xx_HAL_Driver/Src/stm32h7xx_hal_cordic.c ****   ******************************************************************************
   3:Drivers/STM32H7xx_HAL_Driver/Src/stm32h7xx_hal_cordic.c ****   * @file    stm32h7xx_hal_cordic.c
   4:Drivers/STM32H7xx_HAL_Driver/Src/stm32h7xx_hal_cordic.c ****   * @author  MCD Application Team
   5:Drivers/STM32H7xx_HAL_Driver/Src/stm32h7xx_hal_cordic.c ****   * @brief   CORDIC HAL module driver.
   6:Drivers/STM32H7xx_HAL_Driver/Src/stm32h7xx_hal_cordic.c ****   *          This file provides firmware functions to manage the following
   7:Drivers/STM32H7xx_HAL_Driver/Src/stm32h7xx_hal_cordic.c ****   *          functionalities of the CORDIC peripheral:
   8:Drivers/STM32H7xx_HAL_Driver/Src/stm32h7xx_hal_cordic.c ****   *           + Initialization and de-initialization functions
   9:Drivers/STM32H7xx_HAL_Driver/Src/stm32h7xx_hal_cordic.c ****   *           + Peripheral Control functions
  10:Drivers/STM32H7xx_HAL_Driver/Src/stm32h7xx_hal_cordic.c ****   *           + Callback functions
  11:Drivers/STM32H7xx_HAL_Driver/Src/stm32h7xx_hal_cordic.c ****   *           + IRQ handler management
  12:Drivers/STM32H7xx_HAL_Driver/Src/stm32h7xx_hal_cordic.c ****   *           + Peripheral State functions
  13:Drivers/STM32H7xx_HAL_Driver/Src/stm32h7xx_hal_cordic.c ****   *
  14:Drivers/STM32H7xx_HAL_Driver/Src/stm32h7xx_hal_cordic.c ****   ******************************************************************************
  15:Drivers/STM32H7xx_HAL_Driver/Src/stm32h7xx_hal_cordic.c ****   * @attention
  16:Drivers/STM32H7xx_HAL_Driver/Src/stm32h7xx_hal_cordic.c ****   *
  17:Drivers/STM32H7xx_HAL_Driver/Src/stm32h7xx_hal_cordic.c ****   * Copyright (c) 2017 STMicroelectronics.
  18:Drivers/STM32H7xx_HAL_Driver/Src/stm32h7xx_hal_cordic.c ****   * All rights reserved.
  19:Drivers/STM32H7xx_HAL_Driver/Src/stm32h7xx_hal_cordic.c ****   *
  20:Drivers/STM32H7xx_HAL_Driver/Src/stm32h7xx_hal_cordic.c ****   * This software is licensed under terms that can be found in the LICENSE file
  21:Drivers/STM32H7xx_HAL_Driver/Src/stm32h7xx_hal_cordic.c ****   * in the root directory of this software component.
  22:Drivers/STM32H7xx_HAL_Driver/Src/stm32h7xx_hal_cordic.c ****   * If no LICENSE file comes with this software, it is provided AS-IS.
  23:Drivers/STM32H7xx_HAL_Driver/Src/stm32h7xx_hal_cordic.c ****   *
  24:Drivers/STM32H7xx_HAL_Driver/Src/stm32h7xx_hal_cordic.c ****   ******************************************************************************
  25:Drivers/STM32H7xx_HAL_Driver/Src/stm32h7xx_hal_cordic.c ****   @verbatim
  26:Drivers/STM32H7xx_HAL_Driver/Src/stm32h7xx_hal_cordic.c ****   ================================================================================
  27:Drivers/STM32H7xx_HAL_Driver/Src/stm32h7xx_hal_cordic.c ****             ##### How to use this driver #####
  28:Drivers/STM32H7xx_HAL_Driver/Src/stm32h7xx_hal_cordic.c ****   ================================================================================
  29:Drivers/STM32H7xx_HAL_Driver/Src/stm32h7xx_hal_cordic.c ****     [..]
  30:Drivers/STM32H7xx_HAL_Driver/Src/stm32h7xx_hal_cordic.c ****       The CORDIC HAL driver can be used as follows:
  31:Drivers/STM32H7xx_HAL_Driver/Src/stm32h7xx_hal_cordic.c **** 
ARM GAS  C:\Users\thewo\AppData\Local\Temp\ccqHaRNc.s 			page 2


  32:Drivers/STM32H7xx_HAL_Driver/Src/stm32h7xx_hal_cordic.c ****       (#) Initialize the CORDIC low level resources by implementing the HAL_CORDIC_MspInit():
  33:Drivers/STM32H7xx_HAL_Driver/Src/stm32h7xx_hal_cordic.c ****          (++) Enable the CORDIC interface clock using __HAL_RCC_CORDIC_CLK_ENABLE()
  34:Drivers/STM32H7xx_HAL_Driver/Src/stm32h7xx_hal_cordic.c ****          (++) In case of using interrupts (e.g. HAL_CORDIC_Calculate_IT())
  35:Drivers/STM32H7xx_HAL_Driver/Src/stm32h7xx_hal_cordic.c ****              (+++) Configure the CORDIC interrupt priority using HAL_NVIC_SetPriority()
  36:Drivers/STM32H7xx_HAL_Driver/Src/stm32h7xx_hal_cordic.c ****              (+++) Enable the CORDIC IRQ handler using HAL_NVIC_EnableIRQ()
  37:Drivers/STM32H7xx_HAL_Driver/Src/stm32h7xx_hal_cordic.c ****              (+++) In CORDIC IRQ handler, call HAL_CORDIC_IRQHandler()
  38:Drivers/STM32H7xx_HAL_Driver/Src/stm32h7xx_hal_cordic.c ****          (++) In case of using DMA to control data transfer (e.g. HAL_CORDIC_Calculate_DMA())
  39:Drivers/STM32H7xx_HAL_Driver/Src/stm32h7xx_hal_cordic.c ****              (+++) Enable the DMA2 interface clock using
  40:Drivers/STM32H7xx_HAL_Driver/Src/stm32h7xx_hal_cordic.c ****                  __HAL_RCC_DMA2_CLK_ENABLE()
  41:Drivers/STM32H7xx_HAL_Driver/Src/stm32h7xx_hal_cordic.c ****              (+++) Configure and enable two DMA channels one for managing data transfer from
  42:Drivers/STM32H7xx_HAL_Driver/Src/stm32h7xx_hal_cordic.c ****                  memory to peripheral (input channel) and another channel for managing data
  43:Drivers/STM32H7xx_HAL_Driver/Src/stm32h7xx_hal_cordic.c ****                  transfer from peripheral to memory (output channel)
  44:Drivers/STM32H7xx_HAL_Driver/Src/stm32h7xx_hal_cordic.c ****              (+++) Associate the initialized DMA handle to the CORDIC DMA handle
  45:Drivers/STM32H7xx_HAL_Driver/Src/stm32h7xx_hal_cordic.c ****                  using __HAL_LINKDMA()
  46:Drivers/STM32H7xx_HAL_Driver/Src/stm32h7xx_hal_cordic.c ****              (+++) Configure the priority and enable the NVIC for the transfer complete
  47:Drivers/STM32H7xx_HAL_Driver/Src/stm32h7xx_hal_cordic.c ****                  interrupt on the two DMA channels.
  48:Drivers/STM32H7xx_HAL_Driver/Src/stm32h7xx_hal_cordic.c ****                  Resort to HAL_NVIC_SetPriority() and HAL_NVIC_EnableIRQ()
  49:Drivers/STM32H7xx_HAL_Driver/Src/stm32h7xx_hal_cordic.c **** 
  50:Drivers/STM32H7xx_HAL_Driver/Src/stm32h7xx_hal_cordic.c ****       (#) Initialize the CORDIC HAL using HAL_CORDIC_Init(). This function
  51:Drivers/STM32H7xx_HAL_Driver/Src/stm32h7xx_hal_cordic.c ****          (++) resorts to HAL_CORDIC_MspInit() for low-level initialization,
  52:Drivers/STM32H7xx_HAL_Driver/Src/stm32h7xx_hal_cordic.c **** 
  53:Drivers/STM32H7xx_HAL_Driver/Src/stm32h7xx_hal_cordic.c ****       (#) Configure CORDIC processing (calculation) using HAL_CORDIC_Configure().
  54:Drivers/STM32H7xx_HAL_Driver/Src/stm32h7xx_hal_cordic.c ****           This function configures:
  55:Drivers/STM32H7xx_HAL_Driver/Src/stm32h7xx_hal_cordic.c ****          (++) Processing functions: Cosine, Sine, Phase, Modulus, Arctangent,
  56:Drivers/STM32H7xx_HAL_Driver/Src/stm32h7xx_hal_cordic.c ****               Hyperbolic cosine, Hyperbolic sine, Hyperbolic arctangent,
  57:Drivers/STM32H7xx_HAL_Driver/Src/stm32h7xx_hal_cordic.c ****               Natural log, Square root
  58:Drivers/STM32H7xx_HAL_Driver/Src/stm32h7xx_hal_cordic.c ****          (++) Scaling factor: 1 to 2exp(-7)
  59:Drivers/STM32H7xx_HAL_Driver/Src/stm32h7xx_hal_cordic.c ****          (++) Width of input data: 32 bits input data size (Q1.31 format) or 16 bits
  60:Drivers/STM32H7xx_HAL_Driver/Src/stm32h7xx_hal_cordic.c ****               input data size (Q1.15 format)
  61:Drivers/STM32H7xx_HAL_Driver/Src/stm32h7xx_hal_cordic.c ****          (++) Width of output data: 32 bits output data size (Q1.31 format) or 16 bits
  62:Drivers/STM32H7xx_HAL_Driver/Src/stm32h7xx_hal_cordic.c ****               output data size (Q1.15 format)
  63:Drivers/STM32H7xx_HAL_Driver/Src/stm32h7xx_hal_cordic.c ****          (++) Number of 32-bit write expected for one calculation: One 32-bits write
  64:Drivers/STM32H7xx_HAL_Driver/Src/stm32h7xx_hal_cordic.c ****               or Two 32-bit write
  65:Drivers/STM32H7xx_HAL_Driver/Src/stm32h7xx_hal_cordic.c ****          (++) Number of 32-bit read expected after one calculation: One 32-bits read
  66:Drivers/STM32H7xx_HAL_Driver/Src/stm32h7xx_hal_cordic.c ****               or Two 32-bit read
  67:Drivers/STM32H7xx_HAL_Driver/Src/stm32h7xx_hal_cordic.c ****          (++) Precision: 1 to 15 cycles for calculation (the more cycles, the better precision)
  68:Drivers/STM32H7xx_HAL_Driver/Src/stm32h7xx_hal_cordic.c **** 
  69:Drivers/STM32H7xx_HAL_Driver/Src/stm32h7xx_hal_cordic.c ****       (#) Four processing (calculation) functions are available:
  70:Drivers/STM32H7xx_HAL_Driver/Src/stm32h7xx_hal_cordic.c ****          (++) Polling mode: processing API is blocking function
  71:Drivers/STM32H7xx_HAL_Driver/Src/stm32h7xx_hal_cordic.c ****               i.e. it processes the data and wait till the processing is finished
  72:Drivers/STM32H7xx_HAL_Driver/Src/stm32h7xx_hal_cordic.c ****               API is HAL_CORDIC_Calculate
  73:Drivers/STM32H7xx_HAL_Driver/Src/stm32h7xx_hal_cordic.c ****          (++) Polling Zero-overhead mode: processing API is blocking function
  74:Drivers/STM32H7xx_HAL_Driver/Src/stm32h7xx_hal_cordic.c ****               i.e. it processes the data and wait till the processing is finished
  75:Drivers/STM32H7xx_HAL_Driver/Src/stm32h7xx_hal_cordic.c ****               A bit faster than standard polling mode, but blocking also AHB bus
  76:Drivers/STM32H7xx_HAL_Driver/Src/stm32h7xx_hal_cordic.c ****               API is HAL_CORDIC_CalculateZO
  77:Drivers/STM32H7xx_HAL_Driver/Src/stm32h7xx_hal_cordic.c ****          (++) Interrupt mode: processing API is not blocking functions
  78:Drivers/STM32H7xx_HAL_Driver/Src/stm32h7xx_hal_cordic.c ****               i.e. it processes the data under interrupt
  79:Drivers/STM32H7xx_HAL_Driver/Src/stm32h7xx_hal_cordic.c ****               API is HAL_CORDIC_Calculate_IT
  80:Drivers/STM32H7xx_HAL_Driver/Src/stm32h7xx_hal_cordic.c ****          (++) DMA mode: processing API is not blocking functions and the CPU is
  81:Drivers/STM32H7xx_HAL_Driver/Src/stm32h7xx_hal_cordic.c ****               not used for data transfer,
  82:Drivers/STM32H7xx_HAL_Driver/Src/stm32h7xx_hal_cordic.c ****               i.e. the data transfer is ensured by DMA
  83:Drivers/STM32H7xx_HAL_Driver/Src/stm32h7xx_hal_cordic.c ****               API is HAL_CORDIC_Calculate_DMA
  84:Drivers/STM32H7xx_HAL_Driver/Src/stm32h7xx_hal_cordic.c **** 
  85:Drivers/STM32H7xx_HAL_Driver/Src/stm32h7xx_hal_cordic.c ****       (#) Call HAL_CORDIC_DeInit() to de-initialize the CORDIC peripheral. This function
  86:Drivers/STM32H7xx_HAL_Driver/Src/stm32h7xx_hal_cordic.c ****          (++) resorts to HAL_CORDIC_MspDeInit() for low-level de-initialization,
  87:Drivers/STM32H7xx_HAL_Driver/Src/stm32h7xx_hal_cordic.c **** 
  88:Drivers/STM32H7xx_HAL_Driver/Src/stm32h7xx_hal_cordic.c ****   *** Callback registration ***
ARM GAS  C:\Users\thewo\AppData\Local\Temp\ccqHaRNc.s 			page 3


  89:Drivers/STM32H7xx_HAL_Driver/Src/stm32h7xx_hal_cordic.c ****   =============================================
  90:Drivers/STM32H7xx_HAL_Driver/Src/stm32h7xx_hal_cordic.c **** 
  91:Drivers/STM32H7xx_HAL_Driver/Src/stm32h7xx_hal_cordic.c ****   The compilation define  USE_HAL_CORDIC_REGISTER_CALLBACKS when set to 1
  92:Drivers/STM32H7xx_HAL_Driver/Src/stm32h7xx_hal_cordic.c ****   allows the user to configure dynamically the driver callbacks.
  93:Drivers/STM32H7xx_HAL_Driver/Src/stm32h7xx_hal_cordic.c ****   Use Function HAL_CORDIC_RegisterCallback() to register an interrupt callback.
  94:Drivers/STM32H7xx_HAL_Driver/Src/stm32h7xx_hal_cordic.c **** 
  95:Drivers/STM32H7xx_HAL_Driver/Src/stm32h7xx_hal_cordic.c ****   Function HAL_CORDIC_RegisterCallback() allows to register following callbacks:
  96:Drivers/STM32H7xx_HAL_Driver/Src/stm32h7xx_hal_cordic.c ****     (+) ErrorCallback             : Error Callback.
  97:Drivers/STM32H7xx_HAL_Driver/Src/stm32h7xx_hal_cordic.c ****     (+) CalculateCpltCallback     : Calculate complete Callback.
  98:Drivers/STM32H7xx_HAL_Driver/Src/stm32h7xx_hal_cordic.c ****     (+) MspInitCallback           : CORDIC MspInit.
  99:Drivers/STM32H7xx_HAL_Driver/Src/stm32h7xx_hal_cordic.c ****     (+) MspDeInitCallback         : CORDIC MspDeInit.
 100:Drivers/STM32H7xx_HAL_Driver/Src/stm32h7xx_hal_cordic.c ****   This function takes as parameters the HAL peripheral handle, the Callback ID
 101:Drivers/STM32H7xx_HAL_Driver/Src/stm32h7xx_hal_cordic.c ****   and a pointer to the user callback function.
 102:Drivers/STM32H7xx_HAL_Driver/Src/stm32h7xx_hal_cordic.c **** 
 103:Drivers/STM32H7xx_HAL_Driver/Src/stm32h7xx_hal_cordic.c ****   Use function HAL_CORDIC_UnRegisterCallback() to reset a callback to the default
 104:Drivers/STM32H7xx_HAL_Driver/Src/stm32h7xx_hal_cordic.c ****   weak function.
 105:Drivers/STM32H7xx_HAL_Driver/Src/stm32h7xx_hal_cordic.c ****   HAL_CORDIC_UnRegisterCallback takes as parameters the HAL peripheral handle,
 106:Drivers/STM32H7xx_HAL_Driver/Src/stm32h7xx_hal_cordic.c ****   and the Callback ID.
 107:Drivers/STM32H7xx_HAL_Driver/Src/stm32h7xx_hal_cordic.c ****   This function allows to reset following callbacks:
 108:Drivers/STM32H7xx_HAL_Driver/Src/stm32h7xx_hal_cordic.c ****     (+) ErrorCallback             : Error Callback.
 109:Drivers/STM32H7xx_HAL_Driver/Src/stm32h7xx_hal_cordic.c ****     (+) CalculateCpltCallback     : Calculate complete Callback.
 110:Drivers/STM32H7xx_HAL_Driver/Src/stm32h7xx_hal_cordic.c ****     (+) MspInitCallback           : CORDIC MspInit.
 111:Drivers/STM32H7xx_HAL_Driver/Src/stm32h7xx_hal_cordic.c ****     (+) MspDeInitCallback         : CORDIC MspDeInit.
 112:Drivers/STM32H7xx_HAL_Driver/Src/stm32h7xx_hal_cordic.c **** 
 113:Drivers/STM32H7xx_HAL_Driver/Src/stm32h7xx_hal_cordic.c ****   By default, after the HAL_CORDIC_Init() and when the state is HAL_CORDIC_STATE_RESET,
 114:Drivers/STM32H7xx_HAL_Driver/Src/stm32h7xx_hal_cordic.c ****   all callbacks are set to the corresponding weak functions:
 115:Drivers/STM32H7xx_HAL_Driver/Src/stm32h7xx_hal_cordic.c ****   examples HAL_CORDIC_ErrorCallback(), HAL_CORDIC_CalculateCpltCallback().
 116:Drivers/STM32H7xx_HAL_Driver/Src/stm32h7xx_hal_cordic.c ****   Exception done for MspInit and MspDeInit functions that are
 117:Drivers/STM32H7xx_HAL_Driver/Src/stm32h7xx_hal_cordic.c ****   reset to the legacy weak function in the HAL_CORDIC_Init()/ HAL_CORDIC_DeInit() only when
 118:Drivers/STM32H7xx_HAL_Driver/Src/stm32h7xx_hal_cordic.c ****   these callbacks are null (not registered beforehand).
 119:Drivers/STM32H7xx_HAL_Driver/Src/stm32h7xx_hal_cordic.c ****   if not, MspInit or MspDeInit are not null, the HAL_CORDIC_Init()/ HAL_CORDIC_DeInit()
 120:Drivers/STM32H7xx_HAL_Driver/Src/stm32h7xx_hal_cordic.c ****   keep and use the user MspInit/MspDeInit callbacks (registered beforehand)
 121:Drivers/STM32H7xx_HAL_Driver/Src/stm32h7xx_hal_cordic.c **** 
 122:Drivers/STM32H7xx_HAL_Driver/Src/stm32h7xx_hal_cordic.c ****   Callbacks can be registered/unregistered in HAL_CORDIC_STATE_READY state only.
 123:Drivers/STM32H7xx_HAL_Driver/Src/stm32h7xx_hal_cordic.c ****   Exception done MspInit/MspDeInit that can be registered/unregistered
 124:Drivers/STM32H7xx_HAL_Driver/Src/stm32h7xx_hal_cordic.c ****   in HAL_CORDIC_STATE_READY or HAL_CORDIC_STATE_RESET state,
 125:Drivers/STM32H7xx_HAL_Driver/Src/stm32h7xx_hal_cordic.c ****   thus registered (user) MspInit/DeInit callbacks can be used during the Init/DeInit.
 126:Drivers/STM32H7xx_HAL_Driver/Src/stm32h7xx_hal_cordic.c ****   In that case first register the MspInit/MspDeInit user callbacks
 127:Drivers/STM32H7xx_HAL_Driver/Src/stm32h7xx_hal_cordic.c ****   using HAL_CORDIC_RegisterCallback() before calling HAL_CORDIC_DeInit()
 128:Drivers/STM32H7xx_HAL_Driver/Src/stm32h7xx_hal_cordic.c ****   or HAL_CORDIC_Init() function.
 129:Drivers/STM32H7xx_HAL_Driver/Src/stm32h7xx_hal_cordic.c **** 
 130:Drivers/STM32H7xx_HAL_Driver/Src/stm32h7xx_hal_cordic.c ****   When The compilation define USE_HAL_CORDIC_REGISTER_CALLBACKS is set to 0 or
 131:Drivers/STM32H7xx_HAL_Driver/Src/stm32h7xx_hal_cordic.c ****   not defined, the callback registration feature is not available and all callbacks
 132:Drivers/STM32H7xx_HAL_Driver/Src/stm32h7xx_hal_cordic.c ****   are set to the corresponding weak functions.
 133:Drivers/STM32H7xx_HAL_Driver/Src/stm32h7xx_hal_cordic.c **** 
 134:Drivers/STM32H7xx_HAL_Driver/Src/stm32h7xx_hal_cordic.c ****   @endverbatim
 135:Drivers/STM32H7xx_HAL_Driver/Src/stm32h7xx_hal_cordic.c ****   ******************************************************************************
 136:Drivers/STM32H7xx_HAL_Driver/Src/stm32h7xx_hal_cordic.c ****   */
 137:Drivers/STM32H7xx_HAL_Driver/Src/stm32h7xx_hal_cordic.c **** 
 138:Drivers/STM32H7xx_HAL_Driver/Src/stm32h7xx_hal_cordic.c **** /* Includes ------------------------------------------------------------------*/
 139:Drivers/STM32H7xx_HAL_Driver/Src/stm32h7xx_hal_cordic.c **** #include "stm32h7xx_hal.h"
 140:Drivers/STM32H7xx_HAL_Driver/Src/stm32h7xx_hal_cordic.c **** 
 141:Drivers/STM32H7xx_HAL_Driver/Src/stm32h7xx_hal_cordic.c **** #if defined(CORDIC)
 142:Drivers/STM32H7xx_HAL_Driver/Src/stm32h7xx_hal_cordic.c **** #ifdef HAL_CORDIC_MODULE_ENABLED
 143:Drivers/STM32H7xx_HAL_Driver/Src/stm32h7xx_hal_cordic.c **** 
 144:Drivers/STM32H7xx_HAL_Driver/Src/stm32h7xx_hal_cordic.c **** /** @addtogroup STM32H7xx_HAL_Driver
 145:Drivers/STM32H7xx_HAL_Driver/Src/stm32h7xx_hal_cordic.c ****   * @{
ARM GAS  C:\Users\thewo\AppData\Local\Temp\ccqHaRNc.s 			page 4


 146:Drivers/STM32H7xx_HAL_Driver/Src/stm32h7xx_hal_cordic.c ****   */
 147:Drivers/STM32H7xx_HAL_Driver/Src/stm32h7xx_hal_cordic.c **** 
 148:Drivers/STM32H7xx_HAL_Driver/Src/stm32h7xx_hal_cordic.c **** /** @defgroup CORDIC CORDIC
 149:Drivers/STM32H7xx_HAL_Driver/Src/stm32h7xx_hal_cordic.c ****   * @brief CORDIC HAL driver modules.
 150:Drivers/STM32H7xx_HAL_Driver/Src/stm32h7xx_hal_cordic.c ****   * @{
 151:Drivers/STM32H7xx_HAL_Driver/Src/stm32h7xx_hal_cordic.c ****   */
 152:Drivers/STM32H7xx_HAL_Driver/Src/stm32h7xx_hal_cordic.c **** 
 153:Drivers/STM32H7xx_HAL_Driver/Src/stm32h7xx_hal_cordic.c **** /* Private typedef -----------------------------------------------------------*/
 154:Drivers/STM32H7xx_HAL_Driver/Src/stm32h7xx_hal_cordic.c **** /* Private define ------------------------------------------------------------*/
 155:Drivers/STM32H7xx_HAL_Driver/Src/stm32h7xx_hal_cordic.c **** /* Private macro -------------------------------------------------------------*/
 156:Drivers/STM32H7xx_HAL_Driver/Src/stm32h7xx_hal_cordic.c **** /* Private variables ---------------------------------------------------------*/
 157:Drivers/STM32H7xx_HAL_Driver/Src/stm32h7xx_hal_cordic.c **** /* Private function prototypes -----------------------------------------------*/
 158:Drivers/STM32H7xx_HAL_Driver/Src/stm32h7xx_hal_cordic.c **** 
 159:Drivers/STM32H7xx_HAL_Driver/Src/stm32h7xx_hal_cordic.c **** /** @defgroup CORDIC_Private_Functions CORDIC Private Functions
 160:Drivers/STM32H7xx_HAL_Driver/Src/stm32h7xx_hal_cordic.c ****   * @{
 161:Drivers/STM32H7xx_HAL_Driver/Src/stm32h7xx_hal_cordic.c ****   */
 162:Drivers/STM32H7xx_HAL_Driver/Src/stm32h7xx_hal_cordic.c **** static void CORDIC_WriteInDataIncrementPtr(const CORDIC_HandleTypeDef *hcordic, const int32_t **ppI
 163:Drivers/STM32H7xx_HAL_Driver/Src/stm32h7xx_hal_cordic.c **** static void CORDIC_ReadOutDataIncrementPtr(const CORDIC_HandleTypeDef *hcordic, int32_t **ppOutBuff
 164:Drivers/STM32H7xx_HAL_Driver/Src/stm32h7xx_hal_cordic.c **** static void CORDIC_DMAInCplt(DMA_HandleTypeDef *hdma);
 165:Drivers/STM32H7xx_HAL_Driver/Src/stm32h7xx_hal_cordic.c **** static void CORDIC_DMAOutCplt(DMA_HandleTypeDef *hdma);
 166:Drivers/STM32H7xx_HAL_Driver/Src/stm32h7xx_hal_cordic.c **** static void CORDIC_DMAError(DMA_HandleTypeDef *hdma);
 167:Drivers/STM32H7xx_HAL_Driver/Src/stm32h7xx_hal_cordic.c **** 
 168:Drivers/STM32H7xx_HAL_Driver/Src/stm32h7xx_hal_cordic.c **** /**
 169:Drivers/STM32H7xx_HAL_Driver/Src/stm32h7xx_hal_cordic.c ****   * @}
 170:Drivers/STM32H7xx_HAL_Driver/Src/stm32h7xx_hal_cordic.c ****   */
 171:Drivers/STM32H7xx_HAL_Driver/Src/stm32h7xx_hal_cordic.c **** 
 172:Drivers/STM32H7xx_HAL_Driver/Src/stm32h7xx_hal_cordic.c **** /* Exported functions --------------------------------------------------------*/
 173:Drivers/STM32H7xx_HAL_Driver/Src/stm32h7xx_hal_cordic.c **** /** @defgroup CORDIC_Exported_Functions CORDIC Exported Functions
 174:Drivers/STM32H7xx_HAL_Driver/Src/stm32h7xx_hal_cordic.c ****   * @{
 175:Drivers/STM32H7xx_HAL_Driver/Src/stm32h7xx_hal_cordic.c ****   */
 176:Drivers/STM32H7xx_HAL_Driver/Src/stm32h7xx_hal_cordic.c **** 
 177:Drivers/STM32H7xx_HAL_Driver/Src/stm32h7xx_hal_cordic.c **** /** @defgroup CORDIC_Exported_Functions_Group1 Initialization and de-initialization functions
 178:Drivers/STM32H7xx_HAL_Driver/Src/stm32h7xx_hal_cordic.c ****   *  @brief    Initialization and Configuration functions.
 179:Drivers/STM32H7xx_HAL_Driver/Src/stm32h7xx_hal_cordic.c ****   *
 180:Drivers/STM32H7xx_HAL_Driver/Src/stm32h7xx_hal_cordic.c **** @verbatim
 181:Drivers/STM32H7xx_HAL_Driver/Src/stm32h7xx_hal_cordic.c ****   ==============================================================================
 182:Drivers/STM32H7xx_HAL_Driver/Src/stm32h7xx_hal_cordic.c ****               ##### Initialization and de-initialization functions #####
 183:Drivers/STM32H7xx_HAL_Driver/Src/stm32h7xx_hal_cordic.c ****   ==============================================================================
 184:Drivers/STM32H7xx_HAL_Driver/Src/stm32h7xx_hal_cordic.c ****     [..]  This section provides functions allowing to:
 185:Drivers/STM32H7xx_HAL_Driver/Src/stm32h7xx_hal_cordic.c ****       (+) Initialize the CORDIC peripheral and the associated handle
 186:Drivers/STM32H7xx_HAL_Driver/Src/stm32h7xx_hal_cordic.c ****       (+) DeInitialize the CORDIC peripheral
 187:Drivers/STM32H7xx_HAL_Driver/Src/stm32h7xx_hal_cordic.c ****       (+) Initialize the CORDIC MSP (MCU Specific Package)
 188:Drivers/STM32H7xx_HAL_Driver/Src/stm32h7xx_hal_cordic.c ****       (+) De-Initialize the CORDIC MSP
 189:Drivers/STM32H7xx_HAL_Driver/Src/stm32h7xx_hal_cordic.c **** 
 190:Drivers/STM32H7xx_HAL_Driver/Src/stm32h7xx_hal_cordic.c ****     [..]
 191:Drivers/STM32H7xx_HAL_Driver/Src/stm32h7xx_hal_cordic.c **** 
 192:Drivers/STM32H7xx_HAL_Driver/Src/stm32h7xx_hal_cordic.c **** @endverbatim
 193:Drivers/STM32H7xx_HAL_Driver/Src/stm32h7xx_hal_cordic.c ****   * @{
 194:Drivers/STM32H7xx_HAL_Driver/Src/stm32h7xx_hal_cordic.c ****   */
 195:Drivers/STM32H7xx_HAL_Driver/Src/stm32h7xx_hal_cordic.c **** 
 196:Drivers/STM32H7xx_HAL_Driver/Src/stm32h7xx_hal_cordic.c **** /**
 197:Drivers/STM32H7xx_HAL_Driver/Src/stm32h7xx_hal_cordic.c ****   * @brief  Initialize the CORDIC peripheral and the associated handle.
 198:Drivers/STM32H7xx_HAL_Driver/Src/stm32h7xx_hal_cordic.c ****   * @param  hcordic pointer to a CORDIC_HandleTypeDef structure.
 199:Drivers/STM32H7xx_HAL_Driver/Src/stm32h7xx_hal_cordic.c ****   * @retval HAL status
 200:Drivers/STM32H7xx_HAL_Driver/Src/stm32h7xx_hal_cordic.c ****   */
 201:Drivers/STM32H7xx_HAL_Driver/Src/stm32h7xx_hal_cordic.c **** HAL_StatusTypeDef HAL_CORDIC_Init(CORDIC_HandleTypeDef *hcordic)
 202:Drivers/STM32H7xx_HAL_Driver/Src/stm32h7xx_hal_cordic.c **** {
ARM GAS  C:\Users\thewo\AppData\Local\Temp\ccqHaRNc.s 			page 5


 203:Drivers/STM32H7xx_HAL_Driver/Src/stm32h7xx_hal_cordic.c ****   /* Check the CORDIC handle allocation */
 204:Drivers/STM32H7xx_HAL_Driver/Src/stm32h7xx_hal_cordic.c ****   if (hcordic == NULL)
 205:Drivers/STM32H7xx_HAL_Driver/Src/stm32h7xx_hal_cordic.c ****   {
 206:Drivers/STM32H7xx_HAL_Driver/Src/stm32h7xx_hal_cordic.c ****     /* Return error status */
 207:Drivers/STM32H7xx_HAL_Driver/Src/stm32h7xx_hal_cordic.c ****     return HAL_ERROR;
 208:Drivers/STM32H7xx_HAL_Driver/Src/stm32h7xx_hal_cordic.c ****   }
 209:Drivers/STM32H7xx_HAL_Driver/Src/stm32h7xx_hal_cordic.c **** 
 210:Drivers/STM32H7xx_HAL_Driver/Src/stm32h7xx_hal_cordic.c ****   /* Check the instance */
 211:Drivers/STM32H7xx_HAL_Driver/Src/stm32h7xx_hal_cordic.c ****   assert_param(IS_CORDIC_ALL_INSTANCE(hcordic->Instance));
 212:Drivers/STM32H7xx_HAL_Driver/Src/stm32h7xx_hal_cordic.c **** 
 213:Drivers/STM32H7xx_HAL_Driver/Src/stm32h7xx_hal_cordic.c **** #if USE_HAL_CORDIC_REGISTER_CALLBACKS == 1
 214:Drivers/STM32H7xx_HAL_Driver/Src/stm32h7xx_hal_cordic.c ****   if (hcordic->State == HAL_CORDIC_STATE_RESET)
 215:Drivers/STM32H7xx_HAL_Driver/Src/stm32h7xx_hal_cordic.c ****   {
 216:Drivers/STM32H7xx_HAL_Driver/Src/stm32h7xx_hal_cordic.c ****     /* Allocate lock resource and initialize it */
 217:Drivers/STM32H7xx_HAL_Driver/Src/stm32h7xx_hal_cordic.c ****     hcordic->Lock = HAL_UNLOCKED;
 218:Drivers/STM32H7xx_HAL_Driver/Src/stm32h7xx_hal_cordic.c **** 
 219:Drivers/STM32H7xx_HAL_Driver/Src/stm32h7xx_hal_cordic.c ****     /* Reset callbacks to legacy functions */
 220:Drivers/STM32H7xx_HAL_Driver/Src/stm32h7xx_hal_cordic.c ****     hcordic->ErrorCallback         = HAL_CORDIC_ErrorCallback;         /* Legacy weak ErrorCallback
 221:Drivers/STM32H7xx_HAL_Driver/Src/stm32h7xx_hal_cordic.c ****     hcordic->CalculateCpltCallback = HAL_CORDIC_CalculateCpltCallback; /* Legacy weak CalculateCplt
 222:Drivers/STM32H7xx_HAL_Driver/Src/stm32h7xx_hal_cordic.c **** 
 223:Drivers/STM32H7xx_HAL_Driver/Src/stm32h7xx_hal_cordic.c ****     if (hcordic->MspInitCallback == NULL)
 224:Drivers/STM32H7xx_HAL_Driver/Src/stm32h7xx_hal_cordic.c ****     {
 225:Drivers/STM32H7xx_HAL_Driver/Src/stm32h7xx_hal_cordic.c ****       hcordic->MspInitCallback = HAL_CORDIC_MspInit;                   /* Legacy weak MspInit */
 226:Drivers/STM32H7xx_HAL_Driver/Src/stm32h7xx_hal_cordic.c ****     }
 227:Drivers/STM32H7xx_HAL_Driver/Src/stm32h7xx_hal_cordic.c **** 
 228:Drivers/STM32H7xx_HAL_Driver/Src/stm32h7xx_hal_cordic.c ****     /* Initialize the low level hardware */
 229:Drivers/STM32H7xx_HAL_Driver/Src/stm32h7xx_hal_cordic.c ****     hcordic->MspInitCallback(hcordic);
 230:Drivers/STM32H7xx_HAL_Driver/Src/stm32h7xx_hal_cordic.c ****   }
 231:Drivers/STM32H7xx_HAL_Driver/Src/stm32h7xx_hal_cordic.c **** #else
 232:Drivers/STM32H7xx_HAL_Driver/Src/stm32h7xx_hal_cordic.c ****   if (hcordic->State == HAL_CORDIC_STATE_RESET)
 233:Drivers/STM32H7xx_HAL_Driver/Src/stm32h7xx_hal_cordic.c ****   {
 234:Drivers/STM32H7xx_HAL_Driver/Src/stm32h7xx_hal_cordic.c ****     /* Allocate lock resource and initialize it */
 235:Drivers/STM32H7xx_HAL_Driver/Src/stm32h7xx_hal_cordic.c ****     hcordic->Lock = HAL_UNLOCKED;
 236:Drivers/STM32H7xx_HAL_Driver/Src/stm32h7xx_hal_cordic.c **** 
 237:Drivers/STM32H7xx_HAL_Driver/Src/stm32h7xx_hal_cordic.c ****     /* Initialize the low level hardware */
 238:Drivers/STM32H7xx_HAL_Driver/Src/stm32h7xx_hal_cordic.c ****     HAL_CORDIC_MspInit(hcordic);
 239:Drivers/STM32H7xx_HAL_Driver/Src/stm32h7xx_hal_cordic.c ****   }
 240:Drivers/STM32H7xx_HAL_Driver/Src/stm32h7xx_hal_cordic.c **** #endif /* (USE_HAL_CORDIC_REGISTER_CALLBACKS) */
 241:Drivers/STM32H7xx_HAL_Driver/Src/stm32h7xx_hal_cordic.c **** 
 242:Drivers/STM32H7xx_HAL_Driver/Src/stm32h7xx_hal_cordic.c ****   /* Set CORDIC error code to none */
 243:Drivers/STM32H7xx_HAL_Driver/Src/stm32h7xx_hal_cordic.c ****   hcordic->ErrorCode = HAL_CORDIC_ERROR_NONE;
 244:Drivers/STM32H7xx_HAL_Driver/Src/stm32h7xx_hal_cordic.c **** 
 245:Drivers/STM32H7xx_HAL_Driver/Src/stm32h7xx_hal_cordic.c ****   /* Reset pInBuff and pOutBuff */
 246:Drivers/STM32H7xx_HAL_Driver/Src/stm32h7xx_hal_cordic.c ****   hcordic->pInBuff = NULL;
 247:Drivers/STM32H7xx_HAL_Driver/Src/stm32h7xx_hal_cordic.c ****   hcordic->pOutBuff = NULL;
 248:Drivers/STM32H7xx_HAL_Driver/Src/stm32h7xx_hal_cordic.c **** 
 249:Drivers/STM32H7xx_HAL_Driver/Src/stm32h7xx_hal_cordic.c ****   /* Reset NbCalcToOrder and NbCalcToGet */
 250:Drivers/STM32H7xx_HAL_Driver/Src/stm32h7xx_hal_cordic.c ****   hcordic->NbCalcToOrder = 0U;
 251:Drivers/STM32H7xx_HAL_Driver/Src/stm32h7xx_hal_cordic.c ****   hcordic->NbCalcToGet = 0U;
 252:Drivers/STM32H7xx_HAL_Driver/Src/stm32h7xx_hal_cordic.c **** 
 253:Drivers/STM32H7xx_HAL_Driver/Src/stm32h7xx_hal_cordic.c ****   /* Reset DMADirection */
 254:Drivers/STM32H7xx_HAL_Driver/Src/stm32h7xx_hal_cordic.c ****   hcordic->DMADirection = CORDIC_DMA_DIR_NONE;
 255:Drivers/STM32H7xx_HAL_Driver/Src/stm32h7xx_hal_cordic.c **** 
 256:Drivers/STM32H7xx_HAL_Driver/Src/stm32h7xx_hal_cordic.c ****   /* Change CORDIC peripheral state */
 257:Drivers/STM32H7xx_HAL_Driver/Src/stm32h7xx_hal_cordic.c ****   hcordic->State = HAL_CORDIC_STATE_READY;
 258:Drivers/STM32H7xx_HAL_Driver/Src/stm32h7xx_hal_cordic.c **** 
 259:Drivers/STM32H7xx_HAL_Driver/Src/stm32h7xx_hal_cordic.c ****   /* Return function status */
ARM GAS  C:\Users\thewo\AppData\Local\Temp\ccqHaRNc.s 			page 6


 260:Drivers/STM32H7xx_HAL_Driver/Src/stm32h7xx_hal_cordic.c ****   return HAL_OK;
 261:Drivers/STM32H7xx_HAL_Driver/Src/stm32h7xx_hal_cordic.c **** }
 262:Drivers/STM32H7xx_HAL_Driver/Src/stm32h7xx_hal_cordic.c **** 
 263:Drivers/STM32H7xx_HAL_Driver/Src/stm32h7xx_hal_cordic.c **** /**
 264:Drivers/STM32H7xx_HAL_Driver/Src/stm32h7xx_hal_cordic.c ****   * @brief  DeInitialize the CORDIC peripheral.
 265:Drivers/STM32H7xx_HAL_Driver/Src/stm32h7xx_hal_cordic.c ****   * @param  hcordic pointer to a CORDIC_HandleTypeDef structure.
 266:Drivers/STM32H7xx_HAL_Driver/Src/stm32h7xx_hal_cordic.c ****   * @retval HAL status
 267:Drivers/STM32H7xx_HAL_Driver/Src/stm32h7xx_hal_cordic.c ****   */
 268:Drivers/STM32H7xx_HAL_Driver/Src/stm32h7xx_hal_cordic.c **** HAL_StatusTypeDef HAL_CORDIC_DeInit(CORDIC_HandleTypeDef *hcordic)
 269:Drivers/STM32H7xx_HAL_Driver/Src/stm32h7xx_hal_cordic.c **** {
 270:Drivers/STM32H7xx_HAL_Driver/Src/stm32h7xx_hal_cordic.c ****   /* Check the CORDIC handle allocation */
 271:Drivers/STM32H7xx_HAL_Driver/Src/stm32h7xx_hal_cordic.c ****   if (hcordic == NULL)
 272:Drivers/STM32H7xx_HAL_Driver/Src/stm32h7xx_hal_cordic.c ****   {
 273:Drivers/STM32H7xx_HAL_Driver/Src/stm32h7xx_hal_cordic.c ****     /* Return error status */
 274:Drivers/STM32H7xx_HAL_Driver/Src/stm32h7xx_hal_cordic.c ****     return HAL_ERROR;
 275:Drivers/STM32H7xx_HAL_Driver/Src/stm32h7xx_hal_cordic.c ****   }
 276:Drivers/STM32H7xx_HAL_Driver/Src/stm32h7xx_hal_cordic.c **** 
 277:Drivers/STM32H7xx_HAL_Driver/Src/stm32h7xx_hal_cordic.c ****   /* Check the parameters */
 278:Drivers/STM32H7xx_HAL_Driver/Src/stm32h7xx_hal_cordic.c ****   assert_param(IS_CORDIC_ALL_INSTANCE(hcordic->Instance));
 279:Drivers/STM32H7xx_HAL_Driver/Src/stm32h7xx_hal_cordic.c **** 
 280:Drivers/STM32H7xx_HAL_Driver/Src/stm32h7xx_hal_cordic.c ****   /* Change CORDIC peripheral state */
 281:Drivers/STM32H7xx_HAL_Driver/Src/stm32h7xx_hal_cordic.c ****   hcordic->State = HAL_CORDIC_STATE_BUSY;
 282:Drivers/STM32H7xx_HAL_Driver/Src/stm32h7xx_hal_cordic.c **** 
 283:Drivers/STM32H7xx_HAL_Driver/Src/stm32h7xx_hal_cordic.c **** #if USE_HAL_CORDIC_REGISTER_CALLBACKS == 1
 284:Drivers/STM32H7xx_HAL_Driver/Src/stm32h7xx_hal_cordic.c ****   if (hcordic->MspDeInitCallback == NULL)
 285:Drivers/STM32H7xx_HAL_Driver/Src/stm32h7xx_hal_cordic.c ****   {
 286:Drivers/STM32H7xx_HAL_Driver/Src/stm32h7xx_hal_cordic.c ****     hcordic->MspDeInitCallback = HAL_CORDIC_MspDeInit;
 287:Drivers/STM32H7xx_HAL_Driver/Src/stm32h7xx_hal_cordic.c ****   }
 288:Drivers/STM32H7xx_HAL_Driver/Src/stm32h7xx_hal_cordic.c **** 
 289:Drivers/STM32H7xx_HAL_Driver/Src/stm32h7xx_hal_cordic.c ****   /* De-Initialize the low level hardware */
 290:Drivers/STM32H7xx_HAL_Driver/Src/stm32h7xx_hal_cordic.c ****   hcordic->MspDeInitCallback(hcordic);
 291:Drivers/STM32H7xx_HAL_Driver/Src/stm32h7xx_hal_cordic.c **** #else
 292:Drivers/STM32H7xx_HAL_Driver/Src/stm32h7xx_hal_cordic.c ****   /* De-Initialize the low level hardware: CLOCK, NVIC, DMA */
 293:Drivers/STM32H7xx_HAL_Driver/Src/stm32h7xx_hal_cordic.c ****   HAL_CORDIC_MspDeInit(hcordic);
 294:Drivers/STM32H7xx_HAL_Driver/Src/stm32h7xx_hal_cordic.c **** #endif /* USE_HAL_CORDIC_REGISTER_CALLBACKS */
 295:Drivers/STM32H7xx_HAL_Driver/Src/stm32h7xx_hal_cordic.c **** 
 296:Drivers/STM32H7xx_HAL_Driver/Src/stm32h7xx_hal_cordic.c ****   /* Set CORDIC error code to none */
 297:Drivers/STM32H7xx_HAL_Driver/Src/stm32h7xx_hal_cordic.c ****   hcordic->ErrorCode = HAL_CORDIC_ERROR_NONE;
 298:Drivers/STM32H7xx_HAL_Driver/Src/stm32h7xx_hal_cordic.c **** 
 299:Drivers/STM32H7xx_HAL_Driver/Src/stm32h7xx_hal_cordic.c ****   /* Reset pInBuff and pOutBuff */
 300:Drivers/STM32H7xx_HAL_Driver/Src/stm32h7xx_hal_cordic.c ****   hcordic->pInBuff = NULL;
 301:Drivers/STM32H7xx_HAL_Driver/Src/stm32h7xx_hal_cordic.c ****   hcordic->pOutBuff = NULL;
 302:Drivers/STM32H7xx_HAL_Driver/Src/stm32h7xx_hal_cordic.c **** 
 303:Drivers/STM32H7xx_HAL_Driver/Src/stm32h7xx_hal_cordic.c ****   /* Reset NbCalcToOrder and NbCalcToGet */
 304:Drivers/STM32H7xx_HAL_Driver/Src/stm32h7xx_hal_cordic.c ****   hcordic->NbCalcToOrder = 0U;
 305:Drivers/STM32H7xx_HAL_Driver/Src/stm32h7xx_hal_cordic.c ****   hcordic->NbCalcToGet = 0U;
 306:Drivers/STM32H7xx_HAL_Driver/Src/stm32h7xx_hal_cordic.c **** 
 307:Drivers/STM32H7xx_HAL_Driver/Src/stm32h7xx_hal_cordic.c ****   /* Reset DMADirection */
 308:Drivers/STM32H7xx_HAL_Driver/Src/stm32h7xx_hal_cordic.c ****   hcordic->DMADirection = CORDIC_DMA_DIR_NONE;
 309:Drivers/STM32H7xx_HAL_Driver/Src/stm32h7xx_hal_cordic.c **** 
 310:Drivers/STM32H7xx_HAL_Driver/Src/stm32h7xx_hal_cordic.c ****   /* Change CORDIC peripheral state */
 311:Drivers/STM32H7xx_HAL_Driver/Src/stm32h7xx_hal_cordic.c ****   hcordic->State = HAL_CORDIC_STATE_RESET;
 312:Drivers/STM32H7xx_HAL_Driver/Src/stm32h7xx_hal_cordic.c **** 
 313:Drivers/STM32H7xx_HAL_Driver/Src/stm32h7xx_hal_cordic.c ****   /* Reset Lock */
 314:Drivers/STM32H7xx_HAL_Driver/Src/stm32h7xx_hal_cordic.c ****   hcordic->Lock = HAL_UNLOCKED;
 315:Drivers/STM32H7xx_HAL_Driver/Src/stm32h7xx_hal_cordic.c **** 
 316:Drivers/STM32H7xx_HAL_Driver/Src/stm32h7xx_hal_cordic.c ****   /* Return function status */
ARM GAS  C:\Users\thewo\AppData\Local\Temp\ccqHaRNc.s 			page 7


 317:Drivers/STM32H7xx_HAL_Driver/Src/stm32h7xx_hal_cordic.c ****   return HAL_OK;
 318:Drivers/STM32H7xx_HAL_Driver/Src/stm32h7xx_hal_cordic.c **** }
 319:Drivers/STM32H7xx_HAL_Driver/Src/stm32h7xx_hal_cordic.c **** 
 320:Drivers/STM32H7xx_HAL_Driver/Src/stm32h7xx_hal_cordic.c **** /**
 321:Drivers/STM32H7xx_HAL_Driver/Src/stm32h7xx_hal_cordic.c ****   * @brief  Initialize the CORDIC MSP.
 322:Drivers/STM32H7xx_HAL_Driver/Src/stm32h7xx_hal_cordic.c ****   * @param  hcordic CORDIC handle
 323:Drivers/STM32H7xx_HAL_Driver/Src/stm32h7xx_hal_cordic.c ****   * @retval None
 324:Drivers/STM32H7xx_HAL_Driver/Src/stm32h7xx_hal_cordic.c ****   */
 325:Drivers/STM32H7xx_HAL_Driver/Src/stm32h7xx_hal_cordic.c **** __weak void HAL_CORDIC_MspInit(CORDIC_HandleTypeDef *hcordic)
 326:Drivers/STM32H7xx_HAL_Driver/Src/stm32h7xx_hal_cordic.c **** {
 327:Drivers/STM32H7xx_HAL_Driver/Src/stm32h7xx_hal_cordic.c ****   /* Prevent unused argument(s) compilation warning */
 328:Drivers/STM32H7xx_HAL_Driver/Src/stm32h7xx_hal_cordic.c ****   UNUSED(hcordic);
 329:Drivers/STM32H7xx_HAL_Driver/Src/stm32h7xx_hal_cordic.c **** 
 330:Drivers/STM32H7xx_HAL_Driver/Src/stm32h7xx_hal_cordic.c ****   /* NOTE : This function should not be modified, when the callback is needed,
 331:Drivers/STM32H7xx_HAL_Driver/Src/stm32h7xx_hal_cordic.c ****             the HAL_CORDIC_MspInit can be implemented in the user file
 332:Drivers/STM32H7xx_HAL_Driver/Src/stm32h7xx_hal_cordic.c ****    */
 333:Drivers/STM32H7xx_HAL_Driver/Src/stm32h7xx_hal_cordic.c **** }
 334:Drivers/STM32H7xx_HAL_Driver/Src/stm32h7xx_hal_cordic.c **** 
 335:Drivers/STM32H7xx_HAL_Driver/Src/stm32h7xx_hal_cordic.c **** /**
 336:Drivers/STM32H7xx_HAL_Driver/Src/stm32h7xx_hal_cordic.c ****   * @brief  DeInitialize the CORDIC MSP.
 337:Drivers/STM32H7xx_HAL_Driver/Src/stm32h7xx_hal_cordic.c ****   * @param  hcordic CORDIC handle
 338:Drivers/STM32H7xx_HAL_Driver/Src/stm32h7xx_hal_cordic.c ****   * @retval None
 339:Drivers/STM32H7xx_HAL_Driver/Src/stm32h7xx_hal_cordic.c ****   */
 340:Drivers/STM32H7xx_HAL_Driver/Src/stm32h7xx_hal_cordic.c **** __weak void HAL_CORDIC_MspDeInit(CORDIC_HandleTypeDef *hcordic)
 341:Drivers/STM32H7xx_HAL_Driver/Src/stm32h7xx_hal_cordic.c **** {
 342:Drivers/STM32H7xx_HAL_Driver/Src/stm32h7xx_hal_cordic.c ****   /* Prevent unused argument(s) compilation warning */
 343:Drivers/STM32H7xx_HAL_Driver/Src/stm32h7xx_hal_cordic.c ****   UNUSED(hcordic);
 344:Drivers/STM32H7xx_HAL_Driver/Src/stm32h7xx_hal_cordic.c **** 
 345:Drivers/STM32H7xx_HAL_Driver/Src/stm32h7xx_hal_cordic.c ****   /* NOTE : This function should not be modified, when the callback is needed,
 346:Drivers/STM32H7xx_HAL_Driver/Src/stm32h7xx_hal_cordic.c ****             the HAL_CORDIC_MspDeInit can be implemented in the user file
 347:Drivers/STM32H7xx_HAL_Driver/Src/stm32h7xx_hal_cordic.c ****    */
 348:Drivers/STM32H7xx_HAL_Driver/Src/stm32h7xx_hal_cordic.c **** }
 349:Drivers/STM32H7xx_HAL_Driver/Src/stm32h7xx_hal_cordic.c **** 
 350:Drivers/STM32H7xx_HAL_Driver/Src/stm32h7xx_hal_cordic.c **** #if USE_HAL_CORDIC_REGISTER_CALLBACKS == 1
 351:Drivers/STM32H7xx_HAL_Driver/Src/stm32h7xx_hal_cordic.c **** /**
 352:Drivers/STM32H7xx_HAL_Driver/Src/stm32h7xx_hal_cordic.c ****   * @brief  Register a CORDIC CallBack.
 353:Drivers/STM32H7xx_HAL_Driver/Src/stm32h7xx_hal_cordic.c ****   *         To be used instead of the weak predefined callback.
 354:Drivers/STM32H7xx_HAL_Driver/Src/stm32h7xx_hal_cordic.c ****   * @param  hcordic pointer to a CORDIC_HandleTypeDef structure that contains
 355:Drivers/STM32H7xx_HAL_Driver/Src/stm32h7xx_hal_cordic.c ****   *         the configuration information for CORDIC module
 356:Drivers/STM32H7xx_HAL_Driver/Src/stm32h7xx_hal_cordic.c ****   * @param  CallbackID ID of the callback to be registered
 357:Drivers/STM32H7xx_HAL_Driver/Src/stm32h7xx_hal_cordic.c ****   *         This parameter can be one of the following values:
 358:Drivers/STM32H7xx_HAL_Driver/Src/stm32h7xx_hal_cordic.c ****   *           @arg @ref HAL_CORDIC_ERROR_CB_ID error Callback ID
 359:Drivers/STM32H7xx_HAL_Driver/Src/stm32h7xx_hal_cordic.c ****   *           @arg @ref HAL_CORDIC_CALCULATE_CPLT_CB_ID calculate complete Callback ID
 360:Drivers/STM32H7xx_HAL_Driver/Src/stm32h7xx_hal_cordic.c ****   *           @arg @ref HAL_CORDIC_MSPINIT_CB_ID MspInit callback ID
 361:Drivers/STM32H7xx_HAL_Driver/Src/stm32h7xx_hal_cordic.c ****   *           @arg @ref HAL_CORDIC_MSPDEINIT_CB_ID MspDeInit callback ID
 362:Drivers/STM32H7xx_HAL_Driver/Src/stm32h7xx_hal_cordic.c ****   * @param  pCallback pointer to the Callback function
 363:Drivers/STM32H7xx_HAL_Driver/Src/stm32h7xx_hal_cordic.c ****   * @retval HAL status
 364:Drivers/STM32H7xx_HAL_Driver/Src/stm32h7xx_hal_cordic.c ****   */
 365:Drivers/STM32H7xx_HAL_Driver/Src/stm32h7xx_hal_cordic.c **** HAL_StatusTypeDef HAL_CORDIC_RegisterCallback(CORDIC_HandleTypeDef *hcordic, HAL_CORDIC_CallbackIDT
 366:Drivers/STM32H7xx_HAL_Driver/Src/stm32h7xx_hal_cordic.c ****                                               void (* pCallback)(CORDIC_HandleTypeDef *_hcordic))
 367:Drivers/STM32H7xx_HAL_Driver/Src/stm32h7xx_hal_cordic.c **** {
 368:Drivers/STM32H7xx_HAL_Driver/Src/stm32h7xx_hal_cordic.c ****   HAL_StatusTypeDef status = HAL_OK;
 369:Drivers/STM32H7xx_HAL_Driver/Src/stm32h7xx_hal_cordic.c **** 
 370:Drivers/STM32H7xx_HAL_Driver/Src/stm32h7xx_hal_cordic.c ****   if (pCallback == NULL)
 371:Drivers/STM32H7xx_HAL_Driver/Src/stm32h7xx_hal_cordic.c ****   {
 372:Drivers/STM32H7xx_HAL_Driver/Src/stm32h7xx_hal_cordic.c ****     /* Update the error code */
 373:Drivers/STM32H7xx_HAL_Driver/Src/stm32h7xx_hal_cordic.c ****     hcordic->ErrorCode |= HAL_CORDIC_ERROR_INVALID_CALLBACK;
ARM GAS  C:\Users\thewo\AppData\Local\Temp\ccqHaRNc.s 			page 8


 374:Drivers/STM32H7xx_HAL_Driver/Src/stm32h7xx_hal_cordic.c **** 
 375:Drivers/STM32H7xx_HAL_Driver/Src/stm32h7xx_hal_cordic.c ****     /* Return error status */
 376:Drivers/STM32H7xx_HAL_Driver/Src/stm32h7xx_hal_cordic.c ****     return HAL_ERROR;
 377:Drivers/STM32H7xx_HAL_Driver/Src/stm32h7xx_hal_cordic.c ****   }
 378:Drivers/STM32H7xx_HAL_Driver/Src/stm32h7xx_hal_cordic.c **** 
 379:Drivers/STM32H7xx_HAL_Driver/Src/stm32h7xx_hal_cordic.c ****   if (hcordic->State == HAL_CORDIC_STATE_READY)
 380:Drivers/STM32H7xx_HAL_Driver/Src/stm32h7xx_hal_cordic.c ****   {
 381:Drivers/STM32H7xx_HAL_Driver/Src/stm32h7xx_hal_cordic.c ****     switch (CallbackID)
 382:Drivers/STM32H7xx_HAL_Driver/Src/stm32h7xx_hal_cordic.c ****     {
 383:Drivers/STM32H7xx_HAL_Driver/Src/stm32h7xx_hal_cordic.c ****       case HAL_CORDIC_ERROR_CB_ID :
 384:Drivers/STM32H7xx_HAL_Driver/Src/stm32h7xx_hal_cordic.c ****         hcordic->ErrorCallback = pCallback;
 385:Drivers/STM32H7xx_HAL_Driver/Src/stm32h7xx_hal_cordic.c ****         break;
 386:Drivers/STM32H7xx_HAL_Driver/Src/stm32h7xx_hal_cordic.c **** 
 387:Drivers/STM32H7xx_HAL_Driver/Src/stm32h7xx_hal_cordic.c ****       case HAL_CORDIC_CALCULATE_CPLT_CB_ID :
 388:Drivers/STM32H7xx_HAL_Driver/Src/stm32h7xx_hal_cordic.c ****         hcordic->CalculateCpltCallback = pCallback;
 389:Drivers/STM32H7xx_HAL_Driver/Src/stm32h7xx_hal_cordic.c ****         break;
 390:Drivers/STM32H7xx_HAL_Driver/Src/stm32h7xx_hal_cordic.c **** 
 391:Drivers/STM32H7xx_HAL_Driver/Src/stm32h7xx_hal_cordic.c ****       case HAL_CORDIC_MSPINIT_CB_ID :
 392:Drivers/STM32H7xx_HAL_Driver/Src/stm32h7xx_hal_cordic.c ****         hcordic->MspInitCallback = pCallback;
 393:Drivers/STM32H7xx_HAL_Driver/Src/stm32h7xx_hal_cordic.c ****         break;
 394:Drivers/STM32H7xx_HAL_Driver/Src/stm32h7xx_hal_cordic.c **** 
 395:Drivers/STM32H7xx_HAL_Driver/Src/stm32h7xx_hal_cordic.c ****       case HAL_CORDIC_MSPDEINIT_CB_ID :
 396:Drivers/STM32H7xx_HAL_Driver/Src/stm32h7xx_hal_cordic.c ****         hcordic->MspDeInitCallback = pCallback;
 397:Drivers/STM32H7xx_HAL_Driver/Src/stm32h7xx_hal_cordic.c ****         break;
 398:Drivers/STM32H7xx_HAL_Driver/Src/stm32h7xx_hal_cordic.c **** 
 399:Drivers/STM32H7xx_HAL_Driver/Src/stm32h7xx_hal_cordic.c ****       default :
 400:Drivers/STM32H7xx_HAL_Driver/Src/stm32h7xx_hal_cordic.c ****         /* Update the error code */
 401:Drivers/STM32H7xx_HAL_Driver/Src/stm32h7xx_hal_cordic.c ****         hcordic->ErrorCode |= HAL_CORDIC_ERROR_INVALID_CALLBACK;
 402:Drivers/STM32H7xx_HAL_Driver/Src/stm32h7xx_hal_cordic.c **** 
 403:Drivers/STM32H7xx_HAL_Driver/Src/stm32h7xx_hal_cordic.c ****         /* Return error status */
 404:Drivers/STM32H7xx_HAL_Driver/Src/stm32h7xx_hal_cordic.c ****         status = HAL_ERROR;
 405:Drivers/STM32H7xx_HAL_Driver/Src/stm32h7xx_hal_cordic.c ****         break;
 406:Drivers/STM32H7xx_HAL_Driver/Src/stm32h7xx_hal_cordic.c ****     }
 407:Drivers/STM32H7xx_HAL_Driver/Src/stm32h7xx_hal_cordic.c ****   }
 408:Drivers/STM32H7xx_HAL_Driver/Src/stm32h7xx_hal_cordic.c ****   else if (hcordic->State == HAL_CORDIC_STATE_RESET)
 409:Drivers/STM32H7xx_HAL_Driver/Src/stm32h7xx_hal_cordic.c ****   {
 410:Drivers/STM32H7xx_HAL_Driver/Src/stm32h7xx_hal_cordic.c ****     switch (CallbackID)
 411:Drivers/STM32H7xx_HAL_Driver/Src/stm32h7xx_hal_cordic.c ****     {
 412:Drivers/STM32H7xx_HAL_Driver/Src/stm32h7xx_hal_cordic.c ****       case HAL_CORDIC_MSPINIT_CB_ID :
 413:Drivers/STM32H7xx_HAL_Driver/Src/stm32h7xx_hal_cordic.c ****         hcordic->MspInitCallback = pCallback;
 414:Drivers/STM32H7xx_HAL_Driver/Src/stm32h7xx_hal_cordic.c ****         break;
 415:Drivers/STM32H7xx_HAL_Driver/Src/stm32h7xx_hal_cordic.c **** 
 416:Drivers/STM32H7xx_HAL_Driver/Src/stm32h7xx_hal_cordic.c ****       case HAL_CORDIC_MSPDEINIT_CB_ID :
 417:Drivers/STM32H7xx_HAL_Driver/Src/stm32h7xx_hal_cordic.c ****         hcordic->MspDeInitCallback = pCallback;
 418:Drivers/STM32H7xx_HAL_Driver/Src/stm32h7xx_hal_cordic.c ****         break;
 419:Drivers/STM32H7xx_HAL_Driver/Src/stm32h7xx_hal_cordic.c **** 
 420:Drivers/STM32H7xx_HAL_Driver/Src/stm32h7xx_hal_cordic.c ****       default :
 421:Drivers/STM32H7xx_HAL_Driver/Src/stm32h7xx_hal_cordic.c ****         /* Update the error code */
 422:Drivers/STM32H7xx_HAL_Driver/Src/stm32h7xx_hal_cordic.c ****         hcordic->ErrorCode |= HAL_CORDIC_ERROR_INVALID_CALLBACK;
 423:Drivers/STM32H7xx_HAL_Driver/Src/stm32h7xx_hal_cordic.c **** 
 424:Drivers/STM32H7xx_HAL_Driver/Src/stm32h7xx_hal_cordic.c ****         /* Return error status */
 425:Drivers/STM32H7xx_HAL_Driver/Src/stm32h7xx_hal_cordic.c ****         status = HAL_ERROR;
 426:Drivers/STM32H7xx_HAL_Driver/Src/stm32h7xx_hal_cordic.c ****         break;
 427:Drivers/STM32H7xx_HAL_Driver/Src/stm32h7xx_hal_cordic.c ****     }
 428:Drivers/STM32H7xx_HAL_Driver/Src/stm32h7xx_hal_cordic.c ****   }
 429:Drivers/STM32H7xx_HAL_Driver/Src/stm32h7xx_hal_cordic.c ****   else
 430:Drivers/STM32H7xx_HAL_Driver/Src/stm32h7xx_hal_cordic.c ****   {
ARM GAS  C:\Users\thewo\AppData\Local\Temp\ccqHaRNc.s 			page 9


 431:Drivers/STM32H7xx_HAL_Driver/Src/stm32h7xx_hal_cordic.c ****     /* Update the error code */
 432:Drivers/STM32H7xx_HAL_Driver/Src/stm32h7xx_hal_cordic.c ****     hcordic->ErrorCode |= HAL_CORDIC_ERROR_INVALID_CALLBACK;
 433:Drivers/STM32H7xx_HAL_Driver/Src/stm32h7xx_hal_cordic.c **** 
 434:Drivers/STM32H7xx_HAL_Driver/Src/stm32h7xx_hal_cordic.c ****     /* Return error status */
 435:Drivers/STM32H7xx_HAL_Driver/Src/stm32h7xx_hal_cordic.c ****     status = HAL_ERROR;
 436:Drivers/STM32H7xx_HAL_Driver/Src/stm32h7xx_hal_cordic.c ****   }
 437:Drivers/STM32H7xx_HAL_Driver/Src/stm32h7xx_hal_cordic.c **** 
 438:Drivers/STM32H7xx_HAL_Driver/Src/stm32h7xx_hal_cordic.c ****   return status;
 439:Drivers/STM32H7xx_HAL_Driver/Src/stm32h7xx_hal_cordic.c **** }
 440:Drivers/STM32H7xx_HAL_Driver/Src/stm32h7xx_hal_cordic.c **** #endif /* USE_HAL_CORDIC_REGISTER_CALLBACKS */
 441:Drivers/STM32H7xx_HAL_Driver/Src/stm32h7xx_hal_cordic.c **** 
 442:Drivers/STM32H7xx_HAL_Driver/Src/stm32h7xx_hal_cordic.c **** #if USE_HAL_CORDIC_REGISTER_CALLBACKS == 1
 443:Drivers/STM32H7xx_HAL_Driver/Src/stm32h7xx_hal_cordic.c **** /**
 444:Drivers/STM32H7xx_HAL_Driver/Src/stm32h7xx_hal_cordic.c ****   * @brief  Unregister a CORDIC CallBack.
 445:Drivers/STM32H7xx_HAL_Driver/Src/stm32h7xx_hal_cordic.c ****   *         CORDIC callback is redirected to the weak predefined callback.
 446:Drivers/STM32H7xx_HAL_Driver/Src/stm32h7xx_hal_cordic.c ****   * @param  hcordic pointer to a CORDIC_HandleTypeDef structure that contains
 447:Drivers/STM32H7xx_HAL_Driver/Src/stm32h7xx_hal_cordic.c ****   *         the configuration information for CORDIC module
 448:Drivers/STM32H7xx_HAL_Driver/Src/stm32h7xx_hal_cordic.c ****   * @param  CallbackID ID of the callback to be unregistered
 449:Drivers/STM32H7xx_HAL_Driver/Src/stm32h7xx_hal_cordic.c ****   *         This parameter can be one of the following values:
 450:Drivers/STM32H7xx_HAL_Driver/Src/stm32h7xx_hal_cordic.c ****   *           @arg @ref HAL_CORDIC_ERROR_CB_ID error Callback ID
 451:Drivers/STM32H7xx_HAL_Driver/Src/stm32h7xx_hal_cordic.c ****   *           @arg @ref HAL_CORDIC_CALCULATE_CPLT_CB_ID calculate complete Callback ID
 452:Drivers/STM32H7xx_HAL_Driver/Src/stm32h7xx_hal_cordic.c ****   *           @arg @ref HAL_CORDIC_MSPINIT_CB_ID MspInit callback ID
 453:Drivers/STM32H7xx_HAL_Driver/Src/stm32h7xx_hal_cordic.c ****   *           @arg @ref HAL_CORDIC_MSPDEINIT_CB_ID MspDeInit callback ID
 454:Drivers/STM32H7xx_HAL_Driver/Src/stm32h7xx_hal_cordic.c ****   * @retval HAL status
 455:Drivers/STM32H7xx_HAL_Driver/Src/stm32h7xx_hal_cordic.c ****   */
 456:Drivers/STM32H7xx_HAL_Driver/Src/stm32h7xx_hal_cordic.c **** HAL_StatusTypeDef HAL_CORDIC_UnRegisterCallback(CORDIC_HandleTypeDef *hcordic, HAL_CORDIC_CallbackI
 457:Drivers/STM32H7xx_HAL_Driver/Src/stm32h7xx_hal_cordic.c **** {
 458:Drivers/STM32H7xx_HAL_Driver/Src/stm32h7xx_hal_cordic.c ****   HAL_StatusTypeDef status = HAL_OK;
 459:Drivers/STM32H7xx_HAL_Driver/Src/stm32h7xx_hal_cordic.c **** 
 460:Drivers/STM32H7xx_HAL_Driver/Src/stm32h7xx_hal_cordic.c ****   if (hcordic->State == HAL_CORDIC_STATE_READY)
 461:Drivers/STM32H7xx_HAL_Driver/Src/stm32h7xx_hal_cordic.c ****   {
 462:Drivers/STM32H7xx_HAL_Driver/Src/stm32h7xx_hal_cordic.c ****     switch (CallbackID)
 463:Drivers/STM32H7xx_HAL_Driver/Src/stm32h7xx_hal_cordic.c ****     {
 464:Drivers/STM32H7xx_HAL_Driver/Src/stm32h7xx_hal_cordic.c ****       case HAL_CORDIC_ERROR_CB_ID :
 465:Drivers/STM32H7xx_HAL_Driver/Src/stm32h7xx_hal_cordic.c ****         hcordic->ErrorCallback = HAL_CORDIC_ErrorCallback;
 466:Drivers/STM32H7xx_HAL_Driver/Src/stm32h7xx_hal_cordic.c ****         break;
 467:Drivers/STM32H7xx_HAL_Driver/Src/stm32h7xx_hal_cordic.c **** 
 468:Drivers/STM32H7xx_HAL_Driver/Src/stm32h7xx_hal_cordic.c ****       case HAL_CORDIC_CALCULATE_CPLT_CB_ID :
 469:Drivers/STM32H7xx_HAL_Driver/Src/stm32h7xx_hal_cordic.c ****         hcordic->CalculateCpltCallback = HAL_CORDIC_CalculateCpltCallback;
 470:Drivers/STM32H7xx_HAL_Driver/Src/stm32h7xx_hal_cordic.c ****         break;
 471:Drivers/STM32H7xx_HAL_Driver/Src/stm32h7xx_hal_cordic.c **** 
 472:Drivers/STM32H7xx_HAL_Driver/Src/stm32h7xx_hal_cordic.c ****       case HAL_CORDIC_MSPINIT_CB_ID :
 473:Drivers/STM32H7xx_HAL_Driver/Src/stm32h7xx_hal_cordic.c ****         hcordic->MspInitCallback = HAL_CORDIC_MspInit;
 474:Drivers/STM32H7xx_HAL_Driver/Src/stm32h7xx_hal_cordic.c ****         break;
 475:Drivers/STM32H7xx_HAL_Driver/Src/stm32h7xx_hal_cordic.c **** 
 476:Drivers/STM32H7xx_HAL_Driver/Src/stm32h7xx_hal_cordic.c ****       case HAL_CORDIC_MSPDEINIT_CB_ID :
 477:Drivers/STM32H7xx_HAL_Driver/Src/stm32h7xx_hal_cordic.c ****         hcordic->MspDeInitCallback = HAL_CORDIC_MspDeInit;
 478:Drivers/STM32H7xx_HAL_Driver/Src/stm32h7xx_hal_cordic.c ****         break;
 479:Drivers/STM32H7xx_HAL_Driver/Src/stm32h7xx_hal_cordic.c **** 
 480:Drivers/STM32H7xx_HAL_Driver/Src/stm32h7xx_hal_cordic.c ****       default :
 481:Drivers/STM32H7xx_HAL_Driver/Src/stm32h7xx_hal_cordic.c ****         /* Update the error code */
 482:Drivers/STM32H7xx_HAL_Driver/Src/stm32h7xx_hal_cordic.c ****         hcordic->ErrorCode |= HAL_CORDIC_ERROR_INVALID_CALLBACK;
 483:Drivers/STM32H7xx_HAL_Driver/Src/stm32h7xx_hal_cordic.c **** 
 484:Drivers/STM32H7xx_HAL_Driver/Src/stm32h7xx_hal_cordic.c ****         /* Return error status */
 485:Drivers/STM32H7xx_HAL_Driver/Src/stm32h7xx_hal_cordic.c ****         status = HAL_ERROR;
 486:Drivers/STM32H7xx_HAL_Driver/Src/stm32h7xx_hal_cordic.c ****         break;
 487:Drivers/STM32H7xx_HAL_Driver/Src/stm32h7xx_hal_cordic.c ****     }
ARM GAS  C:\Users\thewo\AppData\Local\Temp\ccqHaRNc.s 			page 10


 488:Drivers/STM32H7xx_HAL_Driver/Src/stm32h7xx_hal_cordic.c ****   }
 489:Drivers/STM32H7xx_HAL_Driver/Src/stm32h7xx_hal_cordic.c ****   else if (hcordic->State == HAL_CORDIC_STATE_RESET)
 490:Drivers/STM32H7xx_HAL_Driver/Src/stm32h7xx_hal_cordic.c ****   {
 491:Drivers/STM32H7xx_HAL_Driver/Src/stm32h7xx_hal_cordic.c ****     switch (CallbackID)
 492:Drivers/STM32H7xx_HAL_Driver/Src/stm32h7xx_hal_cordic.c ****     {
 493:Drivers/STM32H7xx_HAL_Driver/Src/stm32h7xx_hal_cordic.c ****       case HAL_CORDIC_MSPINIT_CB_ID :
 494:Drivers/STM32H7xx_HAL_Driver/Src/stm32h7xx_hal_cordic.c ****         hcordic->MspInitCallback = HAL_CORDIC_MspInit;
 495:Drivers/STM32H7xx_HAL_Driver/Src/stm32h7xx_hal_cordic.c ****         break;
 496:Drivers/STM32H7xx_HAL_Driver/Src/stm32h7xx_hal_cordic.c **** 
 497:Drivers/STM32H7xx_HAL_Driver/Src/stm32h7xx_hal_cordic.c ****       case HAL_CORDIC_MSPDEINIT_CB_ID :
 498:Drivers/STM32H7xx_HAL_Driver/Src/stm32h7xx_hal_cordic.c ****         hcordic->MspDeInitCallback = HAL_CORDIC_MspDeInit;
 499:Drivers/STM32H7xx_HAL_Driver/Src/stm32h7xx_hal_cordic.c ****         break;
 500:Drivers/STM32H7xx_HAL_Driver/Src/stm32h7xx_hal_cordic.c **** 
 501:Drivers/STM32H7xx_HAL_Driver/Src/stm32h7xx_hal_cordic.c ****       default :
 502:Drivers/STM32H7xx_HAL_Driver/Src/stm32h7xx_hal_cordic.c ****         /* Update the error code */
 503:Drivers/STM32H7xx_HAL_Driver/Src/stm32h7xx_hal_cordic.c ****         hcordic->ErrorCode |= HAL_CORDIC_ERROR_INVALID_CALLBACK;
 504:Drivers/STM32H7xx_HAL_Driver/Src/stm32h7xx_hal_cordic.c **** 
 505:Drivers/STM32H7xx_HAL_Driver/Src/stm32h7xx_hal_cordic.c ****         /* Return error status */
 506:Drivers/STM32H7xx_HAL_Driver/Src/stm32h7xx_hal_cordic.c ****         status = HAL_ERROR;
 507:Drivers/STM32H7xx_HAL_Driver/Src/stm32h7xx_hal_cordic.c ****         break;
 508:Drivers/STM32H7xx_HAL_Driver/Src/stm32h7xx_hal_cordic.c ****     }
 509:Drivers/STM32H7xx_HAL_Driver/Src/stm32h7xx_hal_cordic.c ****   }
 510:Drivers/STM32H7xx_HAL_Driver/Src/stm32h7xx_hal_cordic.c ****   else
 511:Drivers/STM32H7xx_HAL_Driver/Src/stm32h7xx_hal_cordic.c ****   {
 512:Drivers/STM32H7xx_HAL_Driver/Src/stm32h7xx_hal_cordic.c ****     /* Update the error code */
 513:Drivers/STM32H7xx_HAL_Driver/Src/stm32h7xx_hal_cordic.c ****     hcordic->ErrorCode |= HAL_CORDIC_ERROR_INVALID_CALLBACK;
 514:Drivers/STM32H7xx_HAL_Driver/Src/stm32h7xx_hal_cordic.c **** 
 515:Drivers/STM32H7xx_HAL_Driver/Src/stm32h7xx_hal_cordic.c ****     /* Return error status */
 516:Drivers/STM32H7xx_HAL_Driver/Src/stm32h7xx_hal_cordic.c ****     status = HAL_ERROR;
 517:Drivers/STM32H7xx_HAL_Driver/Src/stm32h7xx_hal_cordic.c ****   }
 518:Drivers/STM32H7xx_HAL_Driver/Src/stm32h7xx_hal_cordic.c **** 
 519:Drivers/STM32H7xx_HAL_Driver/Src/stm32h7xx_hal_cordic.c ****   return status;
 520:Drivers/STM32H7xx_HAL_Driver/Src/stm32h7xx_hal_cordic.c **** }
 521:Drivers/STM32H7xx_HAL_Driver/Src/stm32h7xx_hal_cordic.c **** #endif /* USE_HAL_CORDIC_REGISTER_CALLBACKS */
 522:Drivers/STM32H7xx_HAL_Driver/Src/stm32h7xx_hal_cordic.c **** 
 523:Drivers/STM32H7xx_HAL_Driver/Src/stm32h7xx_hal_cordic.c **** /**
 524:Drivers/STM32H7xx_HAL_Driver/Src/stm32h7xx_hal_cordic.c ****   * @}
 525:Drivers/STM32H7xx_HAL_Driver/Src/stm32h7xx_hal_cordic.c ****   */
 526:Drivers/STM32H7xx_HAL_Driver/Src/stm32h7xx_hal_cordic.c **** 
 527:Drivers/STM32H7xx_HAL_Driver/Src/stm32h7xx_hal_cordic.c **** /** @defgroup CORDIC_Exported_Functions_Group2 Peripheral Control functions
 528:Drivers/STM32H7xx_HAL_Driver/Src/stm32h7xx_hal_cordic.c ****   *  @brief    Control functions.
 529:Drivers/STM32H7xx_HAL_Driver/Src/stm32h7xx_hal_cordic.c ****   *
 530:Drivers/STM32H7xx_HAL_Driver/Src/stm32h7xx_hal_cordic.c **** @verbatim
 531:Drivers/STM32H7xx_HAL_Driver/Src/stm32h7xx_hal_cordic.c ****   ==============================================================================
 532:Drivers/STM32H7xx_HAL_Driver/Src/stm32h7xx_hal_cordic.c ****                       ##### Peripheral Control functions #####
 533:Drivers/STM32H7xx_HAL_Driver/Src/stm32h7xx_hal_cordic.c ****   ==============================================================================
 534:Drivers/STM32H7xx_HAL_Driver/Src/stm32h7xx_hal_cordic.c ****     [..]  This section provides functions allowing to:
 535:Drivers/STM32H7xx_HAL_Driver/Src/stm32h7xx_hal_cordic.c ****       (+) Configure the CORDIC peripheral: function, precision, scaling factor,
 536:Drivers/STM32H7xx_HAL_Driver/Src/stm32h7xx_hal_cordic.c ****           number of input data and output data, size of input data and output data.
 537:Drivers/STM32H7xx_HAL_Driver/Src/stm32h7xx_hal_cordic.c ****       (+) Calculate output data of CORDIC processing on input date, using the
 538:Drivers/STM32H7xx_HAL_Driver/Src/stm32h7xx_hal_cordic.c ****           existing CORDIC configuration
 539:Drivers/STM32H7xx_HAL_Driver/Src/stm32h7xx_hal_cordic.c ****     [..]  Four processing functions are available for calculation:
 540:Drivers/STM32H7xx_HAL_Driver/Src/stm32h7xx_hal_cordic.c ****       (+) Polling mode
 541:Drivers/STM32H7xx_HAL_Driver/Src/stm32h7xx_hal_cordic.c ****       (+) Polling mode, with Zero-Overhead register access
 542:Drivers/STM32H7xx_HAL_Driver/Src/stm32h7xx_hal_cordic.c ****       (+) Interrupt mode
 543:Drivers/STM32H7xx_HAL_Driver/Src/stm32h7xx_hal_cordic.c ****       (+) DMA mode
 544:Drivers/STM32H7xx_HAL_Driver/Src/stm32h7xx_hal_cordic.c **** 
ARM GAS  C:\Users\thewo\AppData\Local\Temp\ccqHaRNc.s 			page 11


 545:Drivers/STM32H7xx_HAL_Driver/Src/stm32h7xx_hal_cordic.c **** @endverbatim
 546:Drivers/STM32H7xx_HAL_Driver/Src/stm32h7xx_hal_cordic.c ****   * @{
 547:Drivers/STM32H7xx_HAL_Driver/Src/stm32h7xx_hal_cordic.c ****   */
 548:Drivers/STM32H7xx_HAL_Driver/Src/stm32h7xx_hal_cordic.c **** 
 549:Drivers/STM32H7xx_HAL_Driver/Src/stm32h7xx_hal_cordic.c **** /**
 550:Drivers/STM32H7xx_HAL_Driver/Src/stm32h7xx_hal_cordic.c ****   * @brief  Configure the CORDIC processing according to the specified
 551:Drivers/STM32H7xx_HAL_Driver/Src/stm32h7xx_hal_cordic.c ****             parameters in the CORDIC_ConfigTypeDef structure.
 552:Drivers/STM32H7xx_HAL_Driver/Src/stm32h7xx_hal_cordic.c ****   * @param  hcordic pointer to a CORDIC_HandleTypeDef structure that contains
 553:Drivers/STM32H7xx_HAL_Driver/Src/stm32h7xx_hal_cordic.c ****   *         the configuration information for CORDIC module
 554:Drivers/STM32H7xx_HAL_Driver/Src/stm32h7xx_hal_cordic.c ****   * @param  sConfig pointer to a CORDIC_ConfigTypeDef structure that
 555:Drivers/STM32H7xx_HAL_Driver/Src/stm32h7xx_hal_cordic.c ****   *         contains the CORDIC configuration information.
 556:Drivers/STM32H7xx_HAL_Driver/Src/stm32h7xx_hal_cordic.c ****   * @retval HAL status
 557:Drivers/STM32H7xx_HAL_Driver/Src/stm32h7xx_hal_cordic.c ****   */
 558:Drivers/STM32H7xx_HAL_Driver/Src/stm32h7xx_hal_cordic.c **** HAL_StatusTypeDef HAL_CORDIC_Configure(CORDIC_HandleTypeDef *hcordic, const CORDIC_ConfigTypeDef *s
 559:Drivers/STM32H7xx_HAL_Driver/Src/stm32h7xx_hal_cordic.c **** {
 560:Drivers/STM32H7xx_HAL_Driver/Src/stm32h7xx_hal_cordic.c ****   HAL_StatusTypeDef status = HAL_OK;
 561:Drivers/STM32H7xx_HAL_Driver/Src/stm32h7xx_hal_cordic.c **** 
 562:Drivers/STM32H7xx_HAL_Driver/Src/stm32h7xx_hal_cordic.c ****   /* Check the parameters */
 563:Drivers/STM32H7xx_HAL_Driver/Src/stm32h7xx_hal_cordic.c ****   assert_param(IS_CORDIC_FUNCTION(sConfig->Function));
 564:Drivers/STM32H7xx_HAL_Driver/Src/stm32h7xx_hal_cordic.c ****   assert_param(IS_CORDIC_PRECISION(sConfig->Precision));
 565:Drivers/STM32H7xx_HAL_Driver/Src/stm32h7xx_hal_cordic.c ****   assert_param(IS_CORDIC_SCALE(sConfig->Scale));
 566:Drivers/STM32H7xx_HAL_Driver/Src/stm32h7xx_hal_cordic.c ****   assert_param(IS_CORDIC_NBWRITE(sConfig->NbWrite));
 567:Drivers/STM32H7xx_HAL_Driver/Src/stm32h7xx_hal_cordic.c ****   assert_param(IS_CORDIC_NBREAD(sConfig->NbRead));
 568:Drivers/STM32H7xx_HAL_Driver/Src/stm32h7xx_hal_cordic.c ****   assert_param(IS_CORDIC_INSIZE(sConfig->InSize));
 569:Drivers/STM32H7xx_HAL_Driver/Src/stm32h7xx_hal_cordic.c ****   assert_param(IS_CORDIC_OUTSIZE(sConfig->OutSize));
 570:Drivers/STM32H7xx_HAL_Driver/Src/stm32h7xx_hal_cordic.c **** 
 571:Drivers/STM32H7xx_HAL_Driver/Src/stm32h7xx_hal_cordic.c ****   /* Check handle state is ready */
 572:Drivers/STM32H7xx_HAL_Driver/Src/stm32h7xx_hal_cordic.c ****   if (hcordic->State == HAL_CORDIC_STATE_READY)
 573:Drivers/STM32H7xx_HAL_Driver/Src/stm32h7xx_hal_cordic.c ****   {
 574:Drivers/STM32H7xx_HAL_Driver/Src/stm32h7xx_hal_cordic.c ****     /* Apply all configuration parameters in CORDIC control register */
 575:Drivers/STM32H7xx_HAL_Driver/Src/stm32h7xx_hal_cordic.c ****     MODIFY_REG(hcordic->Instance->CSR,                                                         \
 576:Drivers/STM32H7xx_HAL_Driver/Src/stm32h7xx_hal_cordic.c ****                (CORDIC_CSR_FUNC | CORDIC_CSR_PRECISION | CORDIC_CSR_SCALE |                    \
 577:Drivers/STM32H7xx_HAL_Driver/Src/stm32h7xx_hal_cordic.c ****                 CORDIC_CSR_NARGS | CORDIC_CSR_NRES | CORDIC_CSR_ARGSIZE | CORDIC_CSR_RESSIZE), \
 578:Drivers/STM32H7xx_HAL_Driver/Src/stm32h7xx_hal_cordic.c ****                (sConfig->Function | sConfig->Precision | sConfig->Scale |                      \
 579:Drivers/STM32H7xx_HAL_Driver/Src/stm32h7xx_hal_cordic.c ****                 sConfig->NbWrite | sConfig->NbRead | sConfig->InSize | sConfig->OutSize));
 580:Drivers/STM32H7xx_HAL_Driver/Src/stm32h7xx_hal_cordic.c ****   }
 581:Drivers/STM32H7xx_HAL_Driver/Src/stm32h7xx_hal_cordic.c ****   else
 582:Drivers/STM32H7xx_HAL_Driver/Src/stm32h7xx_hal_cordic.c ****   {
 583:Drivers/STM32H7xx_HAL_Driver/Src/stm32h7xx_hal_cordic.c ****     /* Set CORDIC error code */
 584:Drivers/STM32H7xx_HAL_Driver/Src/stm32h7xx_hal_cordic.c ****     hcordic->ErrorCode |= HAL_CORDIC_ERROR_NOT_READY;
 585:Drivers/STM32H7xx_HAL_Driver/Src/stm32h7xx_hal_cordic.c **** 
 586:Drivers/STM32H7xx_HAL_Driver/Src/stm32h7xx_hal_cordic.c ****     /* Return error status */
 587:Drivers/STM32H7xx_HAL_Driver/Src/stm32h7xx_hal_cordic.c ****     status = HAL_ERROR;
 588:Drivers/STM32H7xx_HAL_Driver/Src/stm32h7xx_hal_cordic.c ****   }
 589:Drivers/STM32H7xx_HAL_Driver/Src/stm32h7xx_hal_cordic.c **** 
 590:Drivers/STM32H7xx_HAL_Driver/Src/stm32h7xx_hal_cordic.c ****   /* Return function status */
 591:Drivers/STM32H7xx_HAL_Driver/Src/stm32h7xx_hal_cordic.c ****   return status;
 592:Drivers/STM32H7xx_HAL_Driver/Src/stm32h7xx_hal_cordic.c **** }
 593:Drivers/STM32H7xx_HAL_Driver/Src/stm32h7xx_hal_cordic.c **** 
 594:Drivers/STM32H7xx_HAL_Driver/Src/stm32h7xx_hal_cordic.c **** /**
 595:Drivers/STM32H7xx_HAL_Driver/Src/stm32h7xx_hal_cordic.c ****   * @brief  Carry out data of CORDIC processing in polling mode,
 596:Drivers/STM32H7xx_HAL_Driver/Src/stm32h7xx_hal_cordic.c ****   *         according to the existing CORDIC configuration.
 597:Drivers/STM32H7xx_HAL_Driver/Src/stm32h7xx_hal_cordic.c ****   * @param  hcordic pointer to a CORDIC_HandleTypeDef structure that contains
 598:Drivers/STM32H7xx_HAL_Driver/Src/stm32h7xx_hal_cordic.c ****   *         the configuration information for CORDIC module.
 599:Drivers/STM32H7xx_HAL_Driver/Src/stm32h7xx_hal_cordic.c ****   * @param  pInBuff Pointer to buffer containing input data for CORDIC processing.
 600:Drivers/STM32H7xx_HAL_Driver/Src/stm32h7xx_hal_cordic.c ****   * @param  pOutBuff Pointer to buffer where output data of CORDIC processing will be stored.
 601:Drivers/STM32H7xx_HAL_Driver/Src/stm32h7xx_hal_cordic.c ****   * @param  NbCalc Number of CORDIC calculation to process.
ARM GAS  C:\Users\thewo\AppData\Local\Temp\ccqHaRNc.s 			page 12


 602:Drivers/STM32H7xx_HAL_Driver/Src/stm32h7xx_hal_cordic.c ****   * @param  Timeout Specify Timeout value
 603:Drivers/STM32H7xx_HAL_Driver/Src/stm32h7xx_hal_cordic.c ****   * @retval HAL status
 604:Drivers/STM32H7xx_HAL_Driver/Src/stm32h7xx_hal_cordic.c ****   */
 605:Drivers/STM32H7xx_HAL_Driver/Src/stm32h7xx_hal_cordic.c **** HAL_StatusTypeDef HAL_CORDIC_Calculate(CORDIC_HandleTypeDef *hcordic, const int32_t *pInBuff, int32
 606:Drivers/STM32H7xx_HAL_Driver/Src/stm32h7xx_hal_cordic.c ****                                        uint32_t NbCalc, uint32_t Timeout)
 607:Drivers/STM32H7xx_HAL_Driver/Src/stm32h7xx_hal_cordic.c **** {
 608:Drivers/STM32H7xx_HAL_Driver/Src/stm32h7xx_hal_cordic.c ****   uint32_t tickstart;
 609:Drivers/STM32H7xx_HAL_Driver/Src/stm32h7xx_hal_cordic.c ****   uint32_t index;
 610:Drivers/STM32H7xx_HAL_Driver/Src/stm32h7xx_hal_cordic.c ****   const int32_t *p_tmp_in_buff = pInBuff;
 611:Drivers/STM32H7xx_HAL_Driver/Src/stm32h7xx_hal_cordic.c ****   int32_t *p_tmp_out_buff = pOutBuff;
 612:Drivers/STM32H7xx_HAL_Driver/Src/stm32h7xx_hal_cordic.c **** 
 613:Drivers/STM32H7xx_HAL_Driver/Src/stm32h7xx_hal_cordic.c ****   /* Check parameters setting */
 614:Drivers/STM32H7xx_HAL_Driver/Src/stm32h7xx_hal_cordic.c ****   if ((pInBuff == NULL) || (pOutBuff == NULL) || (NbCalc == 0U))
 615:Drivers/STM32H7xx_HAL_Driver/Src/stm32h7xx_hal_cordic.c ****   {
 616:Drivers/STM32H7xx_HAL_Driver/Src/stm32h7xx_hal_cordic.c ****     /* Update the error code */
 617:Drivers/STM32H7xx_HAL_Driver/Src/stm32h7xx_hal_cordic.c ****     hcordic->ErrorCode |= HAL_CORDIC_ERROR_PARAM;
 618:Drivers/STM32H7xx_HAL_Driver/Src/stm32h7xx_hal_cordic.c **** 
 619:Drivers/STM32H7xx_HAL_Driver/Src/stm32h7xx_hal_cordic.c ****     /* Return error status */
 620:Drivers/STM32H7xx_HAL_Driver/Src/stm32h7xx_hal_cordic.c ****     return HAL_ERROR;
 621:Drivers/STM32H7xx_HAL_Driver/Src/stm32h7xx_hal_cordic.c ****   }
 622:Drivers/STM32H7xx_HAL_Driver/Src/stm32h7xx_hal_cordic.c **** 
 623:Drivers/STM32H7xx_HAL_Driver/Src/stm32h7xx_hal_cordic.c ****   /* Check handle state is ready */
 624:Drivers/STM32H7xx_HAL_Driver/Src/stm32h7xx_hal_cordic.c ****   if (hcordic->State == HAL_CORDIC_STATE_READY)
 625:Drivers/STM32H7xx_HAL_Driver/Src/stm32h7xx_hal_cordic.c ****   {
 626:Drivers/STM32H7xx_HAL_Driver/Src/stm32h7xx_hal_cordic.c ****     /* Reset CORDIC error code */
 627:Drivers/STM32H7xx_HAL_Driver/Src/stm32h7xx_hal_cordic.c ****     hcordic->ErrorCode = HAL_CORDIC_ERROR_NONE;
 628:Drivers/STM32H7xx_HAL_Driver/Src/stm32h7xx_hal_cordic.c **** 
 629:Drivers/STM32H7xx_HAL_Driver/Src/stm32h7xx_hal_cordic.c ****     /* Change the CORDIC state */
 630:Drivers/STM32H7xx_HAL_Driver/Src/stm32h7xx_hal_cordic.c ****     hcordic->State = HAL_CORDIC_STATE_BUSY;
 631:Drivers/STM32H7xx_HAL_Driver/Src/stm32h7xx_hal_cordic.c **** 
 632:Drivers/STM32H7xx_HAL_Driver/Src/stm32h7xx_hal_cordic.c ****     /* Get tick */
 633:Drivers/STM32H7xx_HAL_Driver/Src/stm32h7xx_hal_cordic.c ****     tickstart = HAL_GetTick();
 634:Drivers/STM32H7xx_HAL_Driver/Src/stm32h7xx_hal_cordic.c **** 
 635:Drivers/STM32H7xx_HAL_Driver/Src/stm32h7xx_hal_cordic.c ****     /* Write of input data in Write Data register, and increment input buffer pointer */
 636:Drivers/STM32H7xx_HAL_Driver/Src/stm32h7xx_hal_cordic.c ****     CORDIC_WriteInDataIncrementPtr(hcordic, &p_tmp_in_buff);
 637:Drivers/STM32H7xx_HAL_Driver/Src/stm32h7xx_hal_cordic.c **** 
 638:Drivers/STM32H7xx_HAL_Driver/Src/stm32h7xx_hal_cordic.c ****     /* Calculation is started.
 639:Drivers/STM32H7xx_HAL_Driver/Src/stm32h7xx_hal_cordic.c ****        Provide next set of input data, until number of calculation is achieved */
 640:Drivers/STM32H7xx_HAL_Driver/Src/stm32h7xx_hal_cordic.c ****     for (index = (NbCalc - 1U); index > 0U; index--)
 641:Drivers/STM32H7xx_HAL_Driver/Src/stm32h7xx_hal_cordic.c ****     {
 642:Drivers/STM32H7xx_HAL_Driver/Src/stm32h7xx_hal_cordic.c ****       /* Write of input data in Write Data register, and increment input buffer pointer */
 643:Drivers/STM32H7xx_HAL_Driver/Src/stm32h7xx_hal_cordic.c ****       CORDIC_WriteInDataIncrementPtr(hcordic, &p_tmp_in_buff);
 644:Drivers/STM32H7xx_HAL_Driver/Src/stm32h7xx_hal_cordic.c **** 
 645:Drivers/STM32H7xx_HAL_Driver/Src/stm32h7xx_hal_cordic.c ****       /* Wait for RRDY flag to be raised */
 646:Drivers/STM32H7xx_HAL_Driver/Src/stm32h7xx_hal_cordic.c ****       do
 647:Drivers/STM32H7xx_HAL_Driver/Src/stm32h7xx_hal_cordic.c ****       {
 648:Drivers/STM32H7xx_HAL_Driver/Src/stm32h7xx_hal_cordic.c ****         /* Check for the Timeout */
 649:Drivers/STM32H7xx_HAL_Driver/Src/stm32h7xx_hal_cordic.c ****         if (Timeout != HAL_MAX_DELAY)
 650:Drivers/STM32H7xx_HAL_Driver/Src/stm32h7xx_hal_cordic.c ****         {
 651:Drivers/STM32H7xx_HAL_Driver/Src/stm32h7xx_hal_cordic.c ****           if ((HAL_GetTick() - tickstart) > Timeout)
 652:Drivers/STM32H7xx_HAL_Driver/Src/stm32h7xx_hal_cordic.c ****           {
 653:Drivers/STM32H7xx_HAL_Driver/Src/stm32h7xx_hal_cordic.c ****             /* Set CORDIC error code */
 654:Drivers/STM32H7xx_HAL_Driver/Src/stm32h7xx_hal_cordic.c ****             hcordic->ErrorCode = HAL_CORDIC_ERROR_TIMEOUT;
 655:Drivers/STM32H7xx_HAL_Driver/Src/stm32h7xx_hal_cordic.c **** 
 656:Drivers/STM32H7xx_HAL_Driver/Src/stm32h7xx_hal_cordic.c ****             /* Change the CORDIC state */
 657:Drivers/STM32H7xx_HAL_Driver/Src/stm32h7xx_hal_cordic.c ****             hcordic->State = HAL_CORDIC_STATE_READY;
 658:Drivers/STM32H7xx_HAL_Driver/Src/stm32h7xx_hal_cordic.c **** 
ARM GAS  C:\Users\thewo\AppData\Local\Temp\ccqHaRNc.s 			page 13


 659:Drivers/STM32H7xx_HAL_Driver/Src/stm32h7xx_hal_cordic.c ****             /* Return function status */
 660:Drivers/STM32H7xx_HAL_Driver/Src/stm32h7xx_hal_cordic.c ****             return HAL_ERROR;
 661:Drivers/STM32H7xx_HAL_Driver/Src/stm32h7xx_hal_cordic.c ****           }
 662:Drivers/STM32H7xx_HAL_Driver/Src/stm32h7xx_hal_cordic.c ****         }
 663:Drivers/STM32H7xx_HAL_Driver/Src/stm32h7xx_hal_cordic.c ****       } while (HAL_IS_BIT_CLR(hcordic->Instance->CSR, CORDIC_CSR_RRDY));
 664:Drivers/STM32H7xx_HAL_Driver/Src/stm32h7xx_hal_cordic.c **** 
 665:Drivers/STM32H7xx_HAL_Driver/Src/stm32h7xx_hal_cordic.c ****       /* Read output data from Read Data register, and increment output buffer pointer */
 666:Drivers/STM32H7xx_HAL_Driver/Src/stm32h7xx_hal_cordic.c ****       CORDIC_ReadOutDataIncrementPtr(hcordic, &p_tmp_out_buff);
 667:Drivers/STM32H7xx_HAL_Driver/Src/stm32h7xx_hal_cordic.c ****     }
 668:Drivers/STM32H7xx_HAL_Driver/Src/stm32h7xx_hal_cordic.c **** 
 669:Drivers/STM32H7xx_HAL_Driver/Src/stm32h7xx_hal_cordic.c ****     /* Read output data from Read Data register, and increment output buffer pointer */
 670:Drivers/STM32H7xx_HAL_Driver/Src/stm32h7xx_hal_cordic.c ****     CORDIC_ReadOutDataIncrementPtr(hcordic, &p_tmp_out_buff);
 671:Drivers/STM32H7xx_HAL_Driver/Src/stm32h7xx_hal_cordic.c **** 
 672:Drivers/STM32H7xx_HAL_Driver/Src/stm32h7xx_hal_cordic.c ****     /* Change the CORDIC state */
 673:Drivers/STM32H7xx_HAL_Driver/Src/stm32h7xx_hal_cordic.c ****     hcordic->State = HAL_CORDIC_STATE_READY;
 674:Drivers/STM32H7xx_HAL_Driver/Src/stm32h7xx_hal_cordic.c **** 
 675:Drivers/STM32H7xx_HAL_Driver/Src/stm32h7xx_hal_cordic.c ****     /* Return function status */
 676:Drivers/STM32H7xx_HAL_Driver/Src/stm32h7xx_hal_cordic.c ****     return HAL_OK;
 677:Drivers/STM32H7xx_HAL_Driver/Src/stm32h7xx_hal_cordic.c ****   }
 678:Drivers/STM32H7xx_HAL_Driver/Src/stm32h7xx_hal_cordic.c ****   else
 679:Drivers/STM32H7xx_HAL_Driver/Src/stm32h7xx_hal_cordic.c ****   {
 680:Drivers/STM32H7xx_HAL_Driver/Src/stm32h7xx_hal_cordic.c ****     /* Set CORDIC error code */
 681:Drivers/STM32H7xx_HAL_Driver/Src/stm32h7xx_hal_cordic.c ****     hcordic->ErrorCode |= HAL_CORDIC_ERROR_NOT_READY;
 682:Drivers/STM32H7xx_HAL_Driver/Src/stm32h7xx_hal_cordic.c **** 
 683:Drivers/STM32H7xx_HAL_Driver/Src/stm32h7xx_hal_cordic.c ****     /* Return function status */
 684:Drivers/STM32H7xx_HAL_Driver/Src/stm32h7xx_hal_cordic.c ****     return HAL_ERROR;
 685:Drivers/STM32H7xx_HAL_Driver/Src/stm32h7xx_hal_cordic.c ****   }
 686:Drivers/STM32H7xx_HAL_Driver/Src/stm32h7xx_hal_cordic.c **** }
 687:Drivers/STM32H7xx_HAL_Driver/Src/stm32h7xx_hal_cordic.c **** 
 688:Drivers/STM32H7xx_HAL_Driver/Src/stm32h7xx_hal_cordic.c **** /**
 689:Drivers/STM32H7xx_HAL_Driver/Src/stm32h7xx_hal_cordic.c ****   * @brief  Carry out data of CORDIC processing in Zero-Overhead mode (output data being read
 690:Drivers/STM32H7xx_HAL_Driver/Src/stm32h7xx_hal_cordic.c ****   *         soon as input data are written), according to the existing CORDIC configuration.
 691:Drivers/STM32H7xx_HAL_Driver/Src/stm32h7xx_hal_cordic.c ****   * @param  hcordic pointer to a CORDIC_HandleTypeDef structure that contains
 692:Drivers/STM32H7xx_HAL_Driver/Src/stm32h7xx_hal_cordic.c ****   *         the configuration information for CORDIC module.
 693:Drivers/STM32H7xx_HAL_Driver/Src/stm32h7xx_hal_cordic.c ****   * @param  pInBuff Pointer to buffer containing input data for CORDIC processing.
 694:Drivers/STM32H7xx_HAL_Driver/Src/stm32h7xx_hal_cordic.c ****   * @param  pOutBuff Pointer to buffer where output data of CORDIC processing will be stored.
 695:Drivers/STM32H7xx_HAL_Driver/Src/stm32h7xx_hal_cordic.c ****   * @param  NbCalc Number of CORDIC calculation to process.
 696:Drivers/STM32H7xx_HAL_Driver/Src/stm32h7xx_hal_cordic.c ****   * @param  Timeout Specify Timeout value
 697:Drivers/STM32H7xx_HAL_Driver/Src/stm32h7xx_hal_cordic.c ****   * @retval HAL status
 698:Drivers/STM32H7xx_HAL_Driver/Src/stm32h7xx_hal_cordic.c ****   */
 699:Drivers/STM32H7xx_HAL_Driver/Src/stm32h7xx_hal_cordic.c **** HAL_StatusTypeDef HAL_CORDIC_CalculateZO(CORDIC_HandleTypeDef *hcordic, const int32_t *pInBuff, int
 700:Drivers/STM32H7xx_HAL_Driver/Src/stm32h7xx_hal_cordic.c ****                                          uint32_t NbCalc, uint32_t Timeout)
 701:Drivers/STM32H7xx_HAL_Driver/Src/stm32h7xx_hal_cordic.c **** {
 702:Drivers/STM32H7xx_HAL_Driver/Src/stm32h7xx_hal_cordic.c ****   uint32_t tickstart;
 703:Drivers/STM32H7xx_HAL_Driver/Src/stm32h7xx_hal_cordic.c ****   uint32_t index;
 704:Drivers/STM32H7xx_HAL_Driver/Src/stm32h7xx_hal_cordic.c ****   const int32_t *p_tmp_in_buff = pInBuff;
 705:Drivers/STM32H7xx_HAL_Driver/Src/stm32h7xx_hal_cordic.c ****   int32_t *p_tmp_out_buff = pOutBuff;
 706:Drivers/STM32H7xx_HAL_Driver/Src/stm32h7xx_hal_cordic.c **** 
 707:Drivers/STM32H7xx_HAL_Driver/Src/stm32h7xx_hal_cordic.c ****   /* Check parameters setting */
 708:Drivers/STM32H7xx_HAL_Driver/Src/stm32h7xx_hal_cordic.c ****   if ((pInBuff == NULL) || (pOutBuff == NULL) || (NbCalc == 0U))
 709:Drivers/STM32H7xx_HAL_Driver/Src/stm32h7xx_hal_cordic.c ****   {
 710:Drivers/STM32H7xx_HAL_Driver/Src/stm32h7xx_hal_cordic.c ****     /* Update the error code */
 711:Drivers/STM32H7xx_HAL_Driver/Src/stm32h7xx_hal_cordic.c ****     hcordic->ErrorCode |= HAL_CORDIC_ERROR_PARAM;
 712:Drivers/STM32H7xx_HAL_Driver/Src/stm32h7xx_hal_cordic.c **** 
 713:Drivers/STM32H7xx_HAL_Driver/Src/stm32h7xx_hal_cordic.c ****     /* Return error status */
 714:Drivers/STM32H7xx_HAL_Driver/Src/stm32h7xx_hal_cordic.c ****     return HAL_ERROR;
 715:Drivers/STM32H7xx_HAL_Driver/Src/stm32h7xx_hal_cordic.c ****   }
ARM GAS  C:\Users\thewo\AppData\Local\Temp\ccqHaRNc.s 			page 14


 716:Drivers/STM32H7xx_HAL_Driver/Src/stm32h7xx_hal_cordic.c **** 
 717:Drivers/STM32H7xx_HAL_Driver/Src/stm32h7xx_hal_cordic.c ****   /* Check handle state is ready */
 718:Drivers/STM32H7xx_HAL_Driver/Src/stm32h7xx_hal_cordic.c ****   if (hcordic->State == HAL_CORDIC_STATE_READY)
 719:Drivers/STM32H7xx_HAL_Driver/Src/stm32h7xx_hal_cordic.c ****   {
 720:Drivers/STM32H7xx_HAL_Driver/Src/stm32h7xx_hal_cordic.c ****     /* Reset CORDIC error code */
 721:Drivers/STM32H7xx_HAL_Driver/Src/stm32h7xx_hal_cordic.c ****     hcordic->ErrorCode = HAL_CORDIC_ERROR_NONE;
 722:Drivers/STM32H7xx_HAL_Driver/Src/stm32h7xx_hal_cordic.c **** 
 723:Drivers/STM32H7xx_HAL_Driver/Src/stm32h7xx_hal_cordic.c ****     /* Change the CORDIC state */
 724:Drivers/STM32H7xx_HAL_Driver/Src/stm32h7xx_hal_cordic.c ****     hcordic->State = HAL_CORDIC_STATE_BUSY;
 725:Drivers/STM32H7xx_HAL_Driver/Src/stm32h7xx_hal_cordic.c **** 
 726:Drivers/STM32H7xx_HAL_Driver/Src/stm32h7xx_hal_cordic.c ****     /* Get tick */
 727:Drivers/STM32H7xx_HAL_Driver/Src/stm32h7xx_hal_cordic.c ****     tickstart = HAL_GetTick();
 728:Drivers/STM32H7xx_HAL_Driver/Src/stm32h7xx_hal_cordic.c **** 
 729:Drivers/STM32H7xx_HAL_Driver/Src/stm32h7xx_hal_cordic.c ****     /* Write of input data in Write Data register, and increment input buffer pointer */
 730:Drivers/STM32H7xx_HAL_Driver/Src/stm32h7xx_hal_cordic.c ****     CORDIC_WriteInDataIncrementPtr(hcordic, &p_tmp_in_buff);
 731:Drivers/STM32H7xx_HAL_Driver/Src/stm32h7xx_hal_cordic.c **** 
 732:Drivers/STM32H7xx_HAL_Driver/Src/stm32h7xx_hal_cordic.c ****     /* Calculation is started.
 733:Drivers/STM32H7xx_HAL_Driver/Src/stm32h7xx_hal_cordic.c ****        Provide next set of input data, until number of calculation is achieved */
 734:Drivers/STM32H7xx_HAL_Driver/Src/stm32h7xx_hal_cordic.c ****     for (index = (NbCalc - 1U); index > 0U; index--)
 735:Drivers/STM32H7xx_HAL_Driver/Src/stm32h7xx_hal_cordic.c ****     {
 736:Drivers/STM32H7xx_HAL_Driver/Src/stm32h7xx_hal_cordic.c ****       /* Write of input data in Write Data register, and increment input buffer pointer */
 737:Drivers/STM32H7xx_HAL_Driver/Src/stm32h7xx_hal_cordic.c ****       CORDIC_WriteInDataIncrementPtr(hcordic, &p_tmp_in_buff);
 738:Drivers/STM32H7xx_HAL_Driver/Src/stm32h7xx_hal_cordic.c **** 
 739:Drivers/STM32H7xx_HAL_Driver/Src/stm32h7xx_hal_cordic.c ****       /* Read output data from Read Data register, and increment output buffer pointer
 740:Drivers/STM32H7xx_HAL_Driver/Src/stm32h7xx_hal_cordic.c ****          The reading is performed in Zero-Overhead mode:
 741:Drivers/STM32H7xx_HAL_Driver/Src/stm32h7xx_hal_cordic.c ****          reading is ordered immediately without waiting result ready flag */
 742:Drivers/STM32H7xx_HAL_Driver/Src/stm32h7xx_hal_cordic.c ****       CORDIC_ReadOutDataIncrementPtr(hcordic, &p_tmp_out_buff);
 743:Drivers/STM32H7xx_HAL_Driver/Src/stm32h7xx_hal_cordic.c **** 
 744:Drivers/STM32H7xx_HAL_Driver/Src/stm32h7xx_hal_cordic.c ****       /* Check for the Timeout */
 745:Drivers/STM32H7xx_HAL_Driver/Src/stm32h7xx_hal_cordic.c ****       if (Timeout != HAL_MAX_DELAY)
 746:Drivers/STM32H7xx_HAL_Driver/Src/stm32h7xx_hal_cordic.c ****       {
 747:Drivers/STM32H7xx_HAL_Driver/Src/stm32h7xx_hal_cordic.c ****         if ((HAL_GetTick() - tickstart) > Timeout)
 748:Drivers/STM32H7xx_HAL_Driver/Src/stm32h7xx_hal_cordic.c ****         {
 749:Drivers/STM32H7xx_HAL_Driver/Src/stm32h7xx_hal_cordic.c ****           /* Set CORDIC error code */
 750:Drivers/STM32H7xx_HAL_Driver/Src/stm32h7xx_hal_cordic.c ****           hcordic->ErrorCode = HAL_CORDIC_ERROR_TIMEOUT;
 751:Drivers/STM32H7xx_HAL_Driver/Src/stm32h7xx_hal_cordic.c **** 
 752:Drivers/STM32H7xx_HAL_Driver/Src/stm32h7xx_hal_cordic.c ****           /* Change the CORDIC state */
 753:Drivers/STM32H7xx_HAL_Driver/Src/stm32h7xx_hal_cordic.c ****           hcordic->State = HAL_CORDIC_STATE_READY;
 754:Drivers/STM32H7xx_HAL_Driver/Src/stm32h7xx_hal_cordic.c **** 
 755:Drivers/STM32H7xx_HAL_Driver/Src/stm32h7xx_hal_cordic.c ****           /* Return function status */
 756:Drivers/STM32H7xx_HAL_Driver/Src/stm32h7xx_hal_cordic.c ****           return HAL_ERROR;
 757:Drivers/STM32H7xx_HAL_Driver/Src/stm32h7xx_hal_cordic.c ****         }
 758:Drivers/STM32H7xx_HAL_Driver/Src/stm32h7xx_hal_cordic.c ****       }
 759:Drivers/STM32H7xx_HAL_Driver/Src/stm32h7xx_hal_cordic.c ****     }
 760:Drivers/STM32H7xx_HAL_Driver/Src/stm32h7xx_hal_cordic.c **** 
 761:Drivers/STM32H7xx_HAL_Driver/Src/stm32h7xx_hal_cordic.c ****     /* Read output data from Read Data register, and increment output buffer pointer
 762:Drivers/STM32H7xx_HAL_Driver/Src/stm32h7xx_hal_cordic.c ****        The reading is performed in Zero-Overhead mode:
 763:Drivers/STM32H7xx_HAL_Driver/Src/stm32h7xx_hal_cordic.c ****        reading is ordered immediately without waiting result ready flag */
 764:Drivers/STM32H7xx_HAL_Driver/Src/stm32h7xx_hal_cordic.c ****     CORDIC_ReadOutDataIncrementPtr(hcordic, &p_tmp_out_buff);
 765:Drivers/STM32H7xx_HAL_Driver/Src/stm32h7xx_hal_cordic.c **** 
 766:Drivers/STM32H7xx_HAL_Driver/Src/stm32h7xx_hal_cordic.c ****     /* Change the CORDIC state */
 767:Drivers/STM32H7xx_HAL_Driver/Src/stm32h7xx_hal_cordic.c ****     hcordic->State = HAL_CORDIC_STATE_READY;
 768:Drivers/STM32H7xx_HAL_Driver/Src/stm32h7xx_hal_cordic.c **** 
 769:Drivers/STM32H7xx_HAL_Driver/Src/stm32h7xx_hal_cordic.c ****     /* Return function status */
 770:Drivers/STM32H7xx_HAL_Driver/Src/stm32h7xx_hal_cordic.c ****     return HAL_OK;
 771:Drivers/STM32H7xx_HAL_Driver/Src/stm32h7xx_hal_cordic.c ****   }
 772:Drivers/STM32H7xx_HAL_Driver/Src/stm32h7xx_hal_cordic.c ****   else
ARM GAS  C:\Users\thewo\AppData\Local\Temp\ccqHaRNc.s 			page 15


 773:Drivers/STM32H7xx_HAL_Driver/Src/stm32h7xx_hal_cordic.c ****   {
 774:Drivers/STM32H7xx_HAL_Driver/Src/stm32h7xx_hal_cordic.c ****     /* Set CORDIC error code */
 775:Drivers/STM32H7xx_HAL_Driver/Src/stm32h7xx_hal_cordic.c ****     hcordic->ErrorCode |= HAL_CORDIC_ERROR_NOT_READY;
 776:Drivers/STM32H7xx_HAL_Driver/Src/stm32h7xx_hal_cordic.c **** 
 777:Drivers/STM32H7xx_HAL_Driver/Src/stm32h7xx_hal_cordic.c ****     /* Return function status */
 778:Drivers/STM32H7xx_HAL_Driver/Src/stm32h7xx_hal_cordic.c ****     return HAL_ERROR;
 779:Drivers/STM32H7xx_HAL_Driver/Src/stm32h7xx_hal_cordic.c ****   }
 780:Drivers/STM32H7xx_HAL_Driver/Src/stm32h7xx_hal_cordic.c **** }
 781:Drivers/STM32H7xx_HAL_Driver/Src/stm32h7xx_hal_cordic.c **** 
 782:Drivers/STM32H7xx_HAL_Driver/Src/stm32h7xx_hal_cordic.c **** /**
 783:Drivers/STM32H7xx_HAL_Driver/Src/stm32h7xx_hal_cordic.c ****   * @brief  Carry out data of CORDIC processing in interrupt mode,
 784:Drivers/STM32H7xx_HAL_Driver/Src/stm32h7xx_hal_cordic.c ****   *         according to the existing CORDIC configuration.
 785:Drivers/STM32H7xx_HAL_Driver/Src/stm32h7xx_hal_cordic.c ****   * @param  hcordic pointer to a CORDIC_HandleTypeDef structure that contains
 786:Drivers/STM32H7xx_HAL_Driver/Src/stm32h7xx_hal_cordic.c ****   *         the configuration information for CORDIC module.
 787:Drivers/STM32H7xx_HAL_Driver/Src/stm32h7xx_hal_cordic.c ****   * @param  pInBuff Pointer to buffer containing input data for CORDIC processing.
 788:Drivers/STM32H7xx_HAL_Driver/Src/stm32h7xx_hal_cordic.c ****   * @param  pOutBuff Pointer to buffer where output data of CORDIC processing will be stored.
 789:Drivers/STM32H7xx_HAL_Driver/Src/stm32h7xx_hal_cordic.c ****   * @param  NbCalc Number of CORDIC calculation to process.
 790:Drivers/STM32H7xx_HAL_Driver/Src/stm32h7xx_hal_cordic.c ****   * @retval HAL status
 791:Drivers/STM32H7xx_HAL_Driver/Src/stm32h7xx_hal_cordic.c ****   */
 792:Drivers/STM32H7xx_HAL_Driver/Src/stm32h7xx_hal_cordic.c **** HAL_StatusTypeDef HAL_CORDIC_Calculate_IT(CORDIC_HandleTypeDef *hcordic, const int32_t *pInBuff, in
 793:Drivers/STM32H7xx_HAL_Driver/Src/stm32h7xx_hal_cordic.c ****                                           uint32_t NbCalc)
 794:Drivers/STM32H7xx_HAL_Driver/Src/stm32h7xx_hal_cordic.c **** {
 795:Drivers/STM32H7xx_HAL_Driver/Src/stm32h7xx_hal_cordic.c ****   const int32_t *tmp_pInBuff = pInBuff;
 796:Drivers/STM32H7xx_HAL_Driver/Src/stm32h7xx_hal_cordic.c **** 
 797:Drivers/STM32H7xx_HAL_Driver/Src/stm32h7xx_hal_cordic.c ****   /* Check parameters setting */
 798:Drivers/STM32H7xx_HAL_Driver/Src/stm32h7xx_hal_cordic.c ****   if ((pInBuff == NULL) || (pOutBuff == NULL) || (NbCalc == 0U))
 799:Drivers/STM32H7xx_HAL_Driver/Src/stm32h7xx_hal_cordic.c ****   {
 800:Drivers/STM32H7xx_HAL_Driver/Src/stm32h7xx_hal_cordic.c ****     /* Update the error code */
 801:Drivers/STM32H7xx_HAL_Driver/Src/stm32h7xx_hal_cordic.c ****     hcordic->ErrorCode |= HAL_CORDIC_ERROR_PARAM;
 802:Drivers/STM32H7xx_HAL_Driver/Src/stm32h7xx_hal_cordic.c **** 
 803:Drivers/STM32H7xx_HAL_Driver/Src/stm32h7xx_hal_cordic.c ****     /* Return error status */
 804:Drivers/STM32H7xx_HAL_Driver/Src/stm32h7xx_hal_cordic.c ****     return HAL_ERROR;
 805:Drivers/STM32H7xx_HAL_Driver/Src/stm32h7xx_hal_cordic.c ****   }
 806:Drivers/STM32H7xx_HAL_Driver/Src/stm32h7xx_hal_cordic.c **** 
 807:Drivers/STM32H7xx_HAL_Driver/Src/stm32h7xx_hal_cordic.c ****   /* Check handle state is ready */
 808:Drivers/STM32H7xx_HAL_Driver/Src/stm32h7xx_hal_cordic.c ****   if (hcordic->State == HAL_CORDIC_STATE_READY)
 809:Drivers/STM32H7xx_HAL_Driver/Src/stm32h7xx_hal_cordic.c ****   {
 810:Drivers/STM32H7xx_HAL_Driver/Src/stm32h7xx_hal_cordic.c ****     /* Reset CORDIC error code */
 811:Drivers/STM32H7xx_HAL_Driver/Src/stm32h7xx_hal_cordic.c ****     hcordic->ErrorCode = HAL_CORDIC_ERROR_NONE;
 812:Drivers/STM32H7xx_HAL_Driver/Src/stm32h7xx_hal_cordic.c **** 
 813:Drivers/STM32H7xx_HAL_Driver/Src/stm32h7xx_hal_cordic.c ****     /* Change the CORDIC state */
 814:Drivers/STM32H7xx_HAL_Driver/Src/stm32h7xx_hal_cordic.c ****     hcordic->State = HAL_CORDIC_STATE_BUSY;
 815:Drivers/STM32H7xx_HAL_Driver/Src/stm32h7xx_hal_cordic.c **** 
 816:Drivers/STM32H7xx_HAL_Driver/Src/stm32h7xx_hal_cordic.c ****     /* Store the buffers addresses and number of calculations in handle,
 817:Drivers/STM32H7xx_HAL_Driver/Src/stm32h7xx_hal_cordic.c ****        provisioning initial write of input data that will be done */
 818:Drivers/STM32H7xx_HAL_Driver/Src/stm32h7xx_hal_cordic.c ****     if (HAL_IS_BIT_SET(hcordic->Instance->CSR, CORDIC_CSR_NARGS))
 819:Drivers/STM32H7xx_HAL_Driver/Src/stm32h7xx_hal_cordic.c ****     {
 820:Drivers/STM32H7xx_HAL_Driver/Src/stm32h7xx_hal_cordic.c ****       /* Two writes of input data are expected */
 821:Drivers/STM32H7xx_HAL_Driver/Src/stm32h7xx_hal_cordic.c ****       tmp_pInBuff++;
 822:Drivers/STM32H7xx_HAL_Driver/Src/stm32h7xx_hal_cordic.c ****       tmp_pInBuff++;
 823:Drivers/STM32H7xx_HAL_Driver/Src/stm32h7xx_hal_cordic.c ****     }
 824:Drivers/STM32H7xx_HAL_Driver/Src/stm32h7xx_hal_cordic.c ****     else
 825:Drivers/STM32H7xx_HAL_Driver/Src/stm32h7xx_hal_cordic.c ****     {
 826:Drivers/STM32H7xx_HAL_Driver/Src/stm32h7xx_hal_cordic.c ****       /* One write of input data is expected */
 827:Drivers/STM32H7xx_HAL_Driver/Src/stm32h7xx_hal_cordic.c ****       tmp_pInBuff++;
 828:Drivers/STM32H7xx_HAL_Driver/Src/stm32h7xx_hal_cordic.c ****     }
 829:Drivers/STM32H7xx_HAL_Driver/Src/stm32h7xx_hal_cordic.c ****     hcordic->pInBuff = tmp_pInBuff;
ARM GAS  C:\Users\thewo\AppData\Local\Temp\ccqHaRNc.s 			page 16


 830:Drivers/STM32H7xx_HAL_Driver/Src/stm32h7xx_hal_cordic.c ****     hcordic->pOutBuff = pOutBuff;
 831:Drivers/STM32H7xx_HAL_Driver/Src/stm32h7xx_hal_cordic.c ****     hcordic->NbCalcToOrder = NbCalc - 1U;
 832:Drivers/STM32H7xx_HAL_Driver/Src/stm32h7xx_hal_cordic.c ****     hcordic->NbCalcToGet = NbCalc;
 833:Drivers/STM32H7xx_HAL_Driver/Src/stm32h7xx_hal_cordic.c **** 
 834:Drivers/STM32H7xx_HAL_Driver/Src/stm32h7xx_hal_cordic.c ****     /* Enable Result Ready Interrupt */
 835:Drivers/STM32H7xx_HAL_Driver/Src/stm32h7xx_hal_cordic.c ****     __HAL_CORDIC_ENABLE_IT(hcordic, CORDIC_IT_IEN);
 836:Drivers/STM32H7xx_HAL_Driver/Src/stm32h7xx_hal_cordic.c **** 
 837:Drivers/STM32H7xx_HAL_Driver/Src/stm32h7xx_hal_cordic.c ****     /* Set back pointer to start of input data buffer */
 838:Drivers/STM32H7xx_HAL_Driver/Src/stm32h7xx_hal_cordic.c ****     tmp_pInBuff = pInBuff;
 839:Drivers/STM32H7xx_HAL_Driver/Src/stm32h7xx_hal_cordic.c **** 
 840:Drivers/STM32H7xx_HAL_Driver/Src/stm32h7xx_hal_cordic.c ****     /* Initiate the processing by providing input data
 841:Drivers/STM32H7xx_HAL_Driver/Src/stm32h7xx_hal_cordic.c ****        in the Write Data register */
 842:Drivers/STM32H7xx_HAL_Driver/Src/stm32h7xx_hal_cordic.c ****     WRITE_REG(hcordic->Instance->WDATA, (uint32_t)*tmp_pInBuff);
 843:Drivers/STM32H7xx_HAL_Driver/Src/stm32h7xx_hal_cordic.c **** 
 844:Drivers/STM32H7xx_HAL_Driver/Src/stm32h7xx_hal_cordic.c ****     /* Check if second write of input data is expected */
 845:Drivers/STM32H7xx_HAL_Driver/Src/stm32h7xx_hal_cordic.c ****     if (HAL_IS_BIT_SET(hcordic->Instance->CSR, CORDIC_CSR_NARGS))
 846:Drivers/STM32H7xx_HAL_Driver/Src/stm32h7xx_hal_cordic.c ****     {
 847:Drivers/STM32H7xx_HAL_Driver/Src/stm32h7xx_hal_cordic.c ****       /* Increment pointer to input data */
 848:Drivers/STM32H7xx_HAL_Driver/Src/stm32h7xx_hal_cordic.c ****       tmp_pInBuff++;
 849:Drivers/STM32H7xx_HAL_Driver/Src/stm32h7xx_hal_cordic.c **** 
 850:Drivers/STM32H7xx_HAL_Driver/Src/stm32h7xx_hal_cordic.c ****       /* Perform second write of input data */
 851:Drivers/STM32H7xx_HAL_Driver/Src/stm32h7xx_hal_cordic.c ****       WRITE_REG(hcordic->Instance->WDATA, (uint32_t)*tmp_pInBuff);
 852:Drivers/STM32H7xx_HAL_Driver/Src/stm32h7xx_hal_cordic.c ****     }
 853:Drivers/STM32H7xx_HAL_Driver/Src/stm32h7xx_hal_cordic.c **** 
 854:Drivers/STM32H7xx_HAL_Driver/Src/stm32h7xx_hal_cordic.c ****     /* Return function status */
 855:Drivers/STM32H7xx_HAL_Driver/Src/stm32h7xx_hal_cordic.c ****     return HAL_OK;
 856:Drivers/STM32H7xx_HAL_Driver/Src/stm32h7xx_hal_cordic.c ****   }
 857:Drivers/STM32H7xx_HAL_Driver/Src/stm32h7xx_hal_cordic.c ****   else
 858:Drivers/STM32H7xx_HAL_Driver/Src/stm32h7xx_hal_cordic.c ****   {
 859:Drivers/STM32H7xx_HAL_Driver/Src/stm32h7xx_hal_cordic.c ****     /* Set CORDIC error code */
 860:Drivers/STM32H7xx_HAL_Driver/Src/stm32h7xx_hal_cordic.c ****     hcordic->ErrorCode |= HAL_CORDIC_ERROR_NOT_READY;
 861:Drivers/STM32H7xx_HAL_Driver/Src/stm32h7xx_hal_cordic.c **** 
 862:Drivers/STM32H7xx_HAL_Driver/Src/stm32h7xx_hal_cordic.c ****     /* Return function status */
 863:Drivers/STM32H7xx_HAL_Driver/Src/stm32h7xx_hal_cordic.c ****     return HAL_ERROR;
 864:Drivers/STM32H7xx_HAL_Driver/Src/stm32h7xx_hal_cordic.c ****   }
 865:Drivers/STM32H7xx_HAL_Driver/Src/stm32h7xx_hal_cordic.c **** }
 866:Drivers/STM32H7xx_HAL_Driver/Src/stm32h7xx_hal_cordic.c **** 
 867:Drivers/STM32H7xx_HAL_Driver/Src/stm32h7xx_hal_cordic.c **** /**
 868:Drivers/STM32H7xx_HAL_Driver/Src/stm32h7xx_hal_cordic.c ****   * @brief  Carry out input and/or output data of CORDIC processing in DMA mode,
 869:Drivers/STM32H7xx_HAL_Driver/Src/stm32h7xx_hal_cordic.c ****   *         according to the existing CORDIC configuration.
 870:Drivers/STM32H7xx_HAL_Driver/Src/stm32h7xx_hal_cordic.c ****   * @param  hcordic pointer to a CORDIC_HandleTypeDef structure that contains
 871:Drivers/STM32H7xx_HAL_Driver/Src/stm32h7xx_hal_cordic.c ****   *         the configuration information for CORDIC module.
 872:Drivers/STM32H7xx_HAL_Driver/Src/stm32h7xx_hal_cordic.c ****   * @param  pInBuff Pointer to buffer containing input data for CORDIC processing.
 873:Drivers/STM32H7xx_HAL_Driver/Src/stm32h7xx_hal_cordic.c ****   * @param  pOutBuff Pointer to buffer where output data of CORDIC processing will be stored.
 874:Drivers/STM32H7xx_HAL_Driver/Src/stm32h7xx_hal_cordic.c ****   * @param  NbCalc Number of CORDIC calculation to process.
 875:Drivers/STM32H7xx_HAL_Driver/Src/stm32h7xx_hal_cordic.c ****   * @param  DMADirection Direction of DMA transfers.
 876:Drivers/STM32H7xx_HAL_Driver/Src/stm32h7xx_hal_cordic.c ****   *         This parameter can be one of the following values:
 877:Drivers/STM32H7xx_HAL_Driver/Src/stm32h7xx_hal_cordic.c ****   *            @arg @ref CORDIC_DMA_Direction CORDIC DMA direction
 878:Drivers/STM32H7xx_HAL_Driver/Src/stm32h7xx_hal_cordic.c ****   * @note   pInBuff or pOutBuff is unused in case of unique DMADirection transfer, and can
 879:Drivers/STM32H7xx_HAL_Driver/Src/stm32h7xx_hal_cordic.c ****   *         be set to NULL value in this case.
 880:Drivers/STM32H7xx_HAL_Driver/Src/stm32h7xx_hal_cordic.c ****   * @note   pInBuff and pOutBuff buffers must be 32-bit aligned to ensure a correct
 881:Drivers/STM32H7xx_HAL_Driver/Src/stm32h7xx_hal_cordic.c ****   *         DMA transfer to and from the Peripheral.
 882:Drivers/STM32H7xx_HAL_Driver/Src/stm32h7xx_hal_cordic.c ****   * @retval HAL status
 883:Drivers/STM32H7xx_HAL_Driver/Src/stm32h7xx_hal_cordic.c ****   */
 884:Drivers/STM32H7xx_HAL_Driver/Src/stm32h7xx_hal_cordic.c **** HAL_StatusTypeDef HAL_CORDIC_Calculate_DMA(CORDIC_HandleTypeDef *hcordic, const int32_t *pInBuff, i
 885:Drivers/STM32H7xx_HAL_Driver/Src/stm32h7xx_hal_cordic.c ****                                            uint32_t NbCalc, uint32_t DMADirection)
 886:Drivers/STM32H7xx_HAL_Driver/Src/stm32h7xx_hal_cordic.c **** {
ARM GAS  C:\Users\thewo\AppData\Local\Temp\ccqHaRNc.s 			page 17


 887:Drivers/STM32H7xx_HAL_Driver/Src/stm32h7xx_hal_cordic.c ****   uint32_t sizeinbuff;
 888:Drivers/STM32H7xx_HAL_Driver/Src/stm32h7xx_hal_cordic.c ****   uint32_t sizeoutbuff;
 889:Drivers/STM32H7xx_HAL_Driver/Src/stm32h7xx_hal_cordic.c **** 
 890:Drivers/STM32H7xx_HAL_Driver/Src/stm32h7xx_hal_cordic.c ****   /* Check the parameters */
 891:Drivers/STM32H7xx_HAL_Driver/Src/stm32h7xx_hal_cordic.c ****   assert_param(IS_CORDIC_DMA_DIRECTION(DMADirection));
 892:Drivers/STM32H7xx_HAL_Driver/Src/stm32h7xx_hal_cordic.c **** 
 893:Drivers/STM32H7xx_HAL_Driver/Src/stm32h7xx_hal_cordic.c ****   /* Check parameters setting */
 894:Drivers/STM32H7xx_HAL_Driver/Src/stm32h7xx_hal_cordic.c ****   if (NbCalc == 0U)
 895:Drivers/STM32H7xx_HAL_Driver/Src/stm32h7xx_hal_cordic.c ****   {
 896:Drivers/STM32H7xx_HAL_Driver/Src/stm32h7xx_hal_cordic.c ****     /* Update the error code */
 897:Drivers/STM32H7xx_HAL_Driver/Src/stm32h7xx_hal_cordic.c ****     hcordic->ErrorCode |= HAL_CORDIC_ERROR_PARAM;
 898:Drivers/STM32H7xx_HAL_Driver/Src/stm32h7xx_hal_cordic.c **** 
 899:Drivers/STM32H7xx_HAL_Driver/Src/stm32h7xx_hal_cordic.c ****     /* Return error status */
 900:Drivers/STM32H7xx_HAL_Driver/Src/stm32h7xx_hal_cordic.c ****     return HAL_ERROR;
 901:Drivers/STM32H7xx_HAL_Driver/Src/stm32h7xx_hal_cordic.c ****   }
 902:Drivers/STM32H7xx_HAL_Driver/Src/stm32h7xx_hal_cordic.c **** 
 903:Drivers/STM32H7xx_HAL_Driver/Src/stm32h7xx_hal_cordic.c ****   /* Check if CORDIC DMA direction "Out" is requested */
 904:Drivers/STM32H7xx_HAL_Driver/Src/stm32h7xx_hal_cordic.c ****   if ((DMADirection == CORDIC_DMA_DIR_OUT) || (DMADirection == CORDIC_DMA_DIR_IN_OUT))
 905:Drivers/STM32H7xx_HAL_Driver/Src/stm32h7xx_hal_cordic.c ****   {
 906:Drivers/STM32H7xx_HAL_Driver/Src/stm32h7xx_hal_cordic.c ****     /* Check parameters setting */
 907:Drivers/STM32H7xx_HAL_Driver/Src/stm32h7xx_hal_cordic.c ****     if (pOutBuff == NULL)
 908:Drivers/STM32H7xx_HAL_Driver/Src/stm32h7xx_hal_cordic.c ****     {
 909:Drivers/STM32H7xx_HAL_Driver/Src/stm32h7xx_hal_cordic.c ****       /* Update the error code */
 910:Drivers/STM32H7xx_HAL_Driver/Src/stm32h7xx_hal_cordic.c ****       hcordic->ErrorCode |= HAL_CORDIC_ERROR_PARAM;
 911:Drivers/STM32H7xx_HAL_Driver/Src/stm32h7xx_hal_cordic.c **** 
 912:Drivers/STM32H7xx_HAL_Driver/Src/stm32h7xx_hal_cordic.c ****       /* Return error status */
 913:Drivers/STM32H7xx_HAL_Driver/Src/stm32h7xx_hal_cordic.c ****       return HAL_ERROR;
 914:Drivers/STM32H7xx_HAL_Driver/Src/stm32h7xx_hal_cordic.c ****     }
 915:Drivers/STM32H7xx_HAL_Driver/Src/stm32h7xx_hal_cordic.c ****   }
 916:Drivers/STM32H7xx_HAL_Driver/Src/stm32h7xx_hal_cordic.c **** 
 917:Drivers/STM32H7xx_HAL_Driver/Src/stm32h7xx_hal_cordic.c ****   /* Check if CORDIC DMA direction "In" is requested */
 918:Drivers/STM32H7xx_HAL_Driver/Src/stm32h7xx_hal_cordic.c ****   if ((DMADirection == CORDIC_DMA_DIR_IN) || (DMADirection == CORDIC_DMA_DIR_IN_OUT))
 919:Drivers/STM32H7xx_HAL_Driver/Src/stm32h7xx_hal_cordic.c ****   {
 920:Drivers/STM32H7xx_HAL_Driver/Src/stm32h7xx_hal_cordic.c ****     /* Check parameters setting */
 921:Drivers/STM32H7xx_HAL_Driver/Src/stm32h7xx_hal_cordic.c ****     if (pInBuff == NULL)
 922:Drivers/STM32H7xx_HAL_Driver/Src/stm32h7xx_hal_cordic.c ****     {
 923:Drivers/STM32H7xx_HAL_Driver/Src/stm32h7xx_hal_cordic.c ****       /* Update the error code */
 924:Drivers/STM32H7xx_HAL_Driver/Src/stm32h7xx_hal_cordic.c ****       hcordic->ErrorCode |= HAL_CORDIC_ERROR_PARAM;
 925:Drivers/STM32H7xx_HAL_Driver/Src/stm32h7xx_hal_cordic.c **** 
 926:Drivers/STM32H7xx_HAL_Driver/Src/stm32h7xx_hal_cordic.c ****       /* Return error status */
 927:Drivers/STM32H7xx_HAL_Driver/Src/stm32h7xx_hal_cordic.c ****       return HAL_ERROR;
 928:Drivers/STM32H7xx_HAL_Driver/Src/stm32h7xx_hal_cordic.c ****     }
 929:Drivers/STM32H7xx_HAL_Driver/Src/stm32h7xx_hal_cordic.c ****   }
 930:Drivers/STM32H7xx_HAL_Driver/Src/stm32h7xx_hal_cordic.c **** 
 931:Drivers/STM32H7xx_HAL_Driver/Src/stm32h7xx_hal_cordic.c ****   if (hcordic->State == HAL_CORDIC_STATE_READY)
 932:Drivers/STM32H7xx_HAL_Driver/Src/stm32h7xx_hal_cordic.c ****   {
 933:Drivers/STM32H7xx_HAL_Driver/Src/stm32h7xx_hal_cordic.c ****     /* Reset CORDIC error code */
 934:Drivers/STM32H7xx_HAL_Driver/Src/stm32h7xx_hal_cordic.c ****     hcordic->ErrorCode = HAL_CORDIC_ERROR_NONE;
 935:Drivers/STM32H7xx_HAL_Driver/Src/stm32h7xx_hal_cordic.c **** 
 936:Drivers/STM32H7xx_HAL_Driver/Src/stm32h7xx_hal_cordic.c ****     /* Change the CORDIC state */
 937:Drivers/STM32H7xx_HAL_Driver/Src/stm32h7xx_hal_cordic.c ****     hcordic->State = HAL_CORDIC_STATE_BUSY;
 938:Drivers/STM32H7xx_HAL_Driver/Src/stm32h7xx_hal_cordic.c **** 
 939:Drivers/STM32H7xx_HAL_Driver/Src/stm32h7xx_hal_cordic.c ****     /* Get DMA direction */
 940:Drivers/STM32H7xx_HAL_Driver/Src/stm32h7xx_hal_cordic.c ****     hcordic->DMADirection = DMADirection;
 941:Drivers/STM32H7xx_HAL_Driver/Src/stm32h7xx_hal_cordic.c **** 
 942:Drivers/STM32H7xx_HAL_Driver/Src/stm32h7xx_hal_cordic.c ****     /* Check if CORDIC DMA direction "Out" is requested */
 943:Drivers/STM32H7xx_HAL_Driver/Src/stm32h7xx_hal_cordic.c ****     if ((DMADirection == CORDIC_DMA_DIR_OUT) || (DMADirection == CORDIC_DMA_DIR_IN_OUT))
ARM GAS  C:\Users\thewo\AppData\Local\Temp\ccqHaRNc.s 			page 18


 944:Drivers/STM32H7xx_HAL_Driver/Src/stm32h7xx_hal_cordic.c ****     {
 945:Drivers/STM32H7xx_HAL_Driver/Src/stm32h7xx_hal_cordic.c ****       /* Set the CORDIC DMA transfer complete callback */
 946:Drivers/STM32H7xx_HAL_Driver/Src/stm32h7xx_hal_cordic.c ****       hcordic->hdmaOut->XferCpltCallback = CORDIC_DMAOutCplt;
 947:Drivers/STM32H7xx_HAL_Driver/Src/stm32h7xx_hal_cordic.c ****       /* Set the DMA error callback */
 948:Drivers/STM32H7xx_HAL_Driver/Src/stm32h7xx_hal_cordic.c ****       hcordic->hdmaOut->XferErrorCallback = CORDIC_DMAError;
 949:Drivers/STM32H7xx_HAL_Driver/Src/stm32h7xx_hal_cordic.c **** 
 950:Drivers/STM32H7xx_HAL_Driver/Src/stm32h7xx_hal_cordic.c ****       /* Check number of output data at each calculation,
 951:Drivers/STM32H7xx_HAL_Driver/Src/stm32h7xx_hal_cordic.c ****          to retrieve the size of output data buffer */
 952:Drivers/STM32H7xx_HAL_Driver/Src/stm32h7xx_hal_cordic.c ****       if (HAL_IS_BIT_SET(hcordic->Instance->CSR, CORDIC_CSR_NRES))
 953:Drivers/STM32H7xx_HAL_Driver/Src/stm32h7xx_hal_cordic.c ****       {
 954:Drivers/STM32H7xx_HAL_Driver/Src/stm32h7xx_hal_cordic.c ****         sizeoutbuff = 2U * NbCalc;
 955:Drivers/STM32H7xx_HAL_Driver/Src/stm32h7xx_hal_cordic.c ****       }
 956:Drivers/STM32H7xx_HAL_Driver/Src/stm32h7xx_hal_cordic.c ****       else
 957:Drivers/STM32H7xx_HAL_Driver/Src/stm32h7xx_hal_cordic.c ****       {
 958:Drivers/STM32H7xx_HAL_Driver/Src/stm32h7xx_hal_cordic.c ****         sizeoutbuff = NbCalc;
 959:Drivers/STM32H7xx_HAL_Driver/Src/stm32h7xx_hal_cordic.c ****       }
 960:Drivers/STM32H7xx_HAL_Driver/Src/stm32h7xx_hal_cordic.c **** 
 961:Drivers/STM32H7xx_HAL_Driver/Src/stm32h7xx_hal_cordic.c ****       /* Enable the DMA stream managing CORDIC output data read */
 962:Drivers/STM32H7xx_HAL_Driver/Src/stm32h7xx_hal_cordic.c ****       if (HAL_DMA_Start_IT(hcordic->hdmaOut, (uint32_t)&hcordic->Instance->RDATA, (uint32_t) pOutBu
 963:Drivers/STM32H7xx_HAL_Driver/Src/stm32h7xx_hal_cordic.c ****           != HAL_OK)
 964:Drivers/STM32H7xx_HAL_Driver/Src/stm32h7xx_hal_cordic.c ****       {
 965:Drivers/STM32H7xx_HAL_Driver/Src/stm32h7xx_hal_cordic.c ****         /* Update the error code */
 966:Drivers/STM32H7xx_HAL_Driver/Src/stm32h7xx_hal_cordic.c ****         hcordic->ErrorCode |= HAL_CORDIC_ERROR_DMA;
 967:Drivers/STM32H7xx_HAL_Driver/Src/stm32h7xx_hal_cordic.c **** 
 968:Drivers/STM32H7xx_HAL_Driver/Src/stm32h7xx_hal_cordic.c ****         /* Return error status */
 969:Drivers/STM32H7xx_HAL_Driver/Src/stm32h7xx_hal_cordic.c ****         return HAL_ERROR;
 970:Drivers/STM32H7xx_HAL_Driver/Src/stm32h7xx_hal_cordic.c ****       }
 971:Drivers/STM32H7xx_HAL_Driver/Src/stm32h7xx_hal_cordic.c **** 
 972:Drivers/STM32H7xx_HAL_Driver/Src/stm32h7xx_hal_cordic.c ****       /* Enable output data Read DMA requests */
 973:Drivers/STM32H7xx_HAL_Driver/Src/stm32h7xx_hal_cordic.c ****       SET_BIT(hcordic->Instance->CSR, CORDIC_DMA_REN);
 974:Drivers/STM32H7xx_HAL_Driver/Src/stm32h7xx_hal_cordic.c ****     }
 975:Drivers/STM32H7xx_HAL_Driver/Src/stm32h7xx_hal_cordic.c **** 
 976:Drivers/STM32H7xx_HAL_Driver/Src/stm32h7xx_hal_cordic.c ****     /* Check if CORDIC DMA direction "In" is requested */
 977:Drivers/STM32H7xx_HAL_Driver/Src/stm32h7xx_hal_cordic.c ****     if ((DMADirection == CORDIC_DMA_DIR_IN) || (DMADirection == CORDIC_DMA_DIR_IN_OUT))
 978:Drivers/STM32H7xx_HAL_Driver/Src/stm32h7xx_hal_cordic.c ****     {
 979:Drivers/STM32H7xx_HAL_Driver/Src/stm32h7xx_hal_cordic.c ****       /* Set the CORDIC DMA transfer complete callback */
 980:Drivers/STM32H7xx_HAL_Driver/Src/stm32h7xx_hal_cordic.c ****       hcordic->hdmaIn->XferCpltCallback = CORDIC_DMAInCplt;
 981:Drivers/STM32H7xx_HAL_Driver/Src/stm32h7xx_hal_cordic.c ****       /* Set the DMA error callback */
 982:Drivers/STM32H7xx_HAL_Driver/Src/stm32h7xx_hal_cordic.c ****       hcordic->hdmaIn->XferErrorCallback = CORDIC_DMAError;
 983:Drivers/STM32H7xx_HAL_Driver/Src/stm32h7xx_hal_cordic.c **** 
 984:Drivers/STM32H7xx_HAL_Driver/Src/stm32h7xx_hal_cordic.c ****       /* Check number of input data expected for each calculation,
 985:Drivers/STM32H7xx_HAL_Driver/Src/stm32h7xx_hal_cordic.c ****          to retrieve the size of input data buffer */
 986:Drivers/STM32H7xx_HAL_Driver/Src/stm32h7xx_hal_cordic.c ****       if (HAL_IS_BIT_SET(hcordic->Instance->CSR, CORDIC_CSR_NARGS))
 987:Drivers/STM32H7xx_HAL_Driver/Src/stm32h7xx_hal_cordic.c ****       {
 988:Drivers/STM32H7xx_HAL_Driver/Src/stm32h7xx_hal_cordic.c ****         sizeinbuff = 2U * NbCalc;
 989:Drivers/STM32H7xx_HAL_Driver/Src/stm32h7xx_hal_cordic.c ****       }
 990:Drivers/STM32H7xx_HAL_Driver/Src/stm32h7xx_hal_cordic.c ****       else
 991:Drivers/STM32H7xx_HAL_Driver/Src/stm32h7xx_hal_cordic.c ****       {
 992:Drivers/STM32H7xx_HAL_Driver/Src/stm32h7xx_hal_cordic.c ****         sizeinbuff = NbCalc;
 993:Drivers/STM32H7xx_HAL_Driver/Src/stm32h7xx_hal_cordic.c ****       }
 994:Drivers/STM32H7xx_HAL_Driver/Src/stm32h7xx_hal_cordic.c **** 
 995:Drivers/STM32H7xx_HAL_Driver/Src/stm32h7xx_hal_cordic.c ****       /* Enable the DMA stream managing CORDIC input data write */
 996:Drivers/STM32H7xx_HAL_Driver/Src/stm32h7xx_hal_cordic.c ****       if (HAL_DMA_Start_IT(hcordic->hdmaIn, (uint32_t) pInBuff, (uint32_t)&hcordic->Instance->WDATA
 997:Drivers/STM32H7xx_HAL_Driver/Src/stm32h7xx_hal_cordic.c ****           != HAL_OK)
 998:Drivers/STM32H7xx_HAL_Driver/Src/stm32h7xx_hal_cordic.c ****       {
 999:Drivers/STM32H7xx_HAL_Driver/Src/stm32h7xx_hal_cordic.c ****         /* Update the error code */
1000:Drivers/STM32H7xx_HAL_Driver/Src/stm32h7xx_hal_cordic.c ****         hcordic->ErrorCode |= HAL_CORDIC_ERROR_DMA;
ARM GAS  C:\Users\thewo\AppData\Local\Temp\ccqHaRNc.s 			page 19


1001:Drivers/STM32H7xx_HAL_Driver/Src/stm32h7xx_hal_cordic.c **** 
1002:Drivers/STM32H7xx_HAL_Driver/Src/stm32h7xx_hal_cordic.c ****         /* Return error status */
1003:Drivers/STM32H7xx_HAL_Driver/Src/stm32h7xx_hal_cordic.c ****         return HAL_ERROR;
1004:Drivers/STM32H7xx_HAL_Driver/Src/stm32h7xx_hal_cordic.c ****       }
1005:Drivers/STM32H7xx_HAL_Driver/Src/stm32h7xx_hal_cordic.c **** 
1006:Drivers/STM32H7xx_HAL_Driver/Src/stm32h7xx_hal_cordic.c ****       /* Enable input data Write DMA request */
1007:Drivers/STM32H7xx_HAL_Driver/Src/stm32h7xx_hal_cordic.c ****       SET_BIT(hcordic->Instance->CSR, CORDIC_DMA_WEN);
1008:Drivers/STM32H7xx_HAL_Driver/Src/stm32h7xx_hal_cordic.c ****     }
1009:Drivers/STM32H7xx_HAL_Driver/Src/stm32h7xx_hal_cordic.c **** 
1010:Drivers/STM32H7xx_HAL_Driver/Src/stm32h7xx_hal_cordic.c ****     /* Return function status */
1011:Drivers/STM32H7xx_HAL_Driver/Src/stm32h7xx_hal_cordic.c ****     return HAL_OK;
1012:Drivers/STM32H7xx_HAL_Driver/Src/stm32h7xx_hal_cordic.c ****   }
1013:Drivers/STM32H7xx_HAL_Driver/Src/stm32h7xx_hal_cordic.c ****   else
1014:Drivers/STM32H7xx_HAL_Driver/Src/stm32h7xx_hal_cordic.c ****   {
1015:Drivers/STM32H7xx_HAL_Driver/Src/stm32h7xx_hal_cordic.c ****     /* Set CORDIC error code */
1016:Drivers/STM32H7xx_HAL_Driver/Src/stm32h7xx_hal_cordic.c ****     hcordic->ErrorCode |= HAL_CORDIC_ERROR_NOT_READY;
1017:Drivers/STM32H7xx_HAL_Driver/Src/stm32h7xx_hal_cordic.c **** 
1018:Drivers/STM32H7xx_HAL_Driver/Src/stm32h7xx_hal_cordic.c ****     /* Return function status */
1019:Drivers/STM32H7xx_HAL_Driver/Src/stm32h7xx_hal_cordic.c ****     return HAL_ERROR;
1020:Drivers/STM32H7xx_HAL_Driver/Src/stm32h7xx_hal_cordic.c ****   }
1021:Drivers/STM32H7xx_HAL_Driver/Src/stm32h7xx_hal_cordic.c **** }
1022:Drivers/STM32H7xx_HAL_Driver/Src/stm32h7xx_hal_cordic.c **** 
1023:Drivers/STM32H7xx_HAL_Driver/Src/stm32h7xx_hal_cordic.c **** /**
1024:Drivers/STM32H7xx_HAL_Driver/Src/stm32h7xx_hal_cordic.c ****   * @}
1025:Drivers/STM32H7xx_HAL_Driver/Src/stm32h7xx_hal_cordic.c ****   */
1026:Drivers/STM32H7xx_HAL_Driver/Src/stm32h7xx_hal_cordic.c **** 
1027:Drivers/STM32H7xx_HAL_Driver/Src/stm32h7xx_hal_cordic.c **** /** @defgroup CORDIC_Exported_Functions_Group3 Callback functions
1028:Drivers/STM32H7xx_HAL_Driver/Src/stm32h7xx_hal_cordic.c ****   *  @brief    Callback functions.
1029:Drivers/STM32H7xx_HAL_Driver/Src/stm32h7xx_hal_cordic.c ****   *
1030:Drivers/STM32H7xx_HAL_Driver/Src/stm32h7xx_hal_cordic.c **** @verbatim
1031:Drivers/STM32H7xx_HAL_Driver/Src/stm32h7xx_hal_cordic.c ****   ==============================================================================
1032:Drivers/STM32H7xx_HAL_Driver/Src/stm32h7xx_hal_cordic.c ****                       ##### Callback functions  #####
1033:Drivers/STM32H7xx_HAL_Driver/Src/stm32h7xx_hal_cordic.c ****   ==============================================================================
1034:Drivers/STM32H7xx_HAL_Driver/Src/stm32h7xx_hal_cordic.c ****     [..]  This section provides Interruption and DMA callback functions:
1035:Drivers/STM32H7xx_HAL_Driver/Src/stm32h7xx_hal_cordic.c ****       (+) DMA or Interrupt calculate complete
1036:Drivers/STM32H7xx_HAL_Driver/Src/stm32h7xx_hal_cordic.c ****       (+) DMA or Interrupt error
1037:Drivers/STM32H7xx_HAL_Driver/Src/stm32h7xx_hal_cordic.c **** 
1038:Drivers/STM32H7xx_HAL_Driver/Src/stm32h7xx_hal_cordic.c **** @endverbatim
1039:Drivers/STM32H7xx_HAL_Driver/Src/stm32h7xx_hal_cordic.c ****   * @{
1040:Drivers/STM32H7xx_HAL_Driver/Src/stm32h7xx_hal_cordic.c ****   */
1041:Drivers/STM32H7xx_HAL_Driver/Src/stm32h7xx_hal_cordic.c **** 
1042:Drivers/STM32H7xx_HAL_Driver/Src/stm32h7xx_hal_cordic.c **** /**
1043:Drivers/STM32H7xx_HAL_Driver/Src/stm32h7xx_hal_cordic.c ****   * @brief  CORDIC error callback.
1044:Drivers/STM32H7xx_HAL_Driver/Src/stm32h7xx_hal_cordic.c ****   * @param  hcordic pointer to a CORDIC_HandleTypeDef structure that contains
1045:Drivers/STM32H7xx_HAL_Driver/Src/stm32h7xx_hal_cordic.c ****   *         the configuration information for CORDIC module
1046:Drivers/STM32H7xx_HAL_Driver/Src/stm32h7xx_hal_cordic.c ****   * @retval None
1047:Drivers/STM32H7xx_HAL_Driver/Src/stm32h7xx_hal_cordic.c ****   */
1048:Drivers/STM32H7xx_HAL_Driver/Src/stm32h7xx_hal_cordic.c **** __weak void HAL_CORDIC_ErrorCallback(CORDIC_HandleTypeDef *hcordic)
1049:Drivers/STM32H7xx_HAL_Driver/Src/stm32h7xx_hal_cordic.c **** {
1050:Drivers/STM32H7xx_HAL_Driver/Src/stm32h7xx_hal_cordic.c ****   /* Prevent unused argument(s) compilation warning */
1051:Drivers/STM32H7xx_HAL_Driver/Src/stm32h7xx_hal_cordic.c ****   UNUSED(hcordic);
1052:Drivers/STM32H7xx_HAL_Driver/Src/stm32h7xx_hal_cordic.c **** 
1053:Drivers/STM32H7xx_HAL_Driver/Src/stm32h7xx_hal_cordic.c ****   /* NOTE : This function should not be modified; when the callback is needed,
1054:Drivers/STM32H7xx_HAL_Driver/Src/stm32h7xx_hal_cordic.c ****             the HAL_CORDIC_ErrorCallback can be implemented in the user file
1055:Drivers/STM32H7xx_HAL_Driver/Src/stm32h7xx_hal_cordic.c ****    */
1056:Drivers/STM32H7xx_HAL_Driver/Src/stm32h7xx_hal_cordic.c **** }
1057:Drivers/STM32H7xx_HAL_Driver/Src/stm32h7xx_hal_cordic.c **** 
ARM GAS  C:\Users\thewo\AppData\Local\Temp\ccqHaRNc.s 			page 20


1058:Drivers/STM32H7xx_HAL_Driver/Src/stm32h7xx_hal_cordic.c **** /**
1059:Drivers/STM32H7xx_HAL_Driver/Src/stm32h7xx_hal_cordic.c ****   * @brief  CORDIC calculate complete callback.
1060:Drivers/STM32H7xx_HAL_Driver/Src/stm32h7xx_hal_cordic.c ****   * @param  hcordic pointer to a CORDIC_HandleTypeDef structure that contains
1061:Drivers/STM32H7xx_HAL_Driver/Src/stm32h7xx_hal_cordic.c ****   *         the configuration information for CORDIC module
1062:Drivers/STM32H7xx_HAL_Driver/Src/stm32h7xx_hal_cordic.c ****   * @retval None
1063:Drivers/STM32H7xx_HAL_Driver/Src/stm32h7xx_hal_cordic.c ****   */
1064:Drivers/STM32H7xx_HAL_Driver/Src/stm32h7xx_hal_cordic.c **** __weak void HAL_CORDIC_CalculateCpltCallback(CORDIC_HandleTypeDef *hcordic)
1065:Drivers/STM32H7xx_HAL_Driver/Src/stm32h7xx_hal_cordic.c **** {
1066:Drivers/STM32H7xx_HAL_Driver/Src/stm32h7xx_hal_cordic.c ****   /* Prevent unused argument(s) compilation warning */
1067:Drivers/STM32H7xx_HAL_Driver/Src/stm32h7xx_hal_cordic.c ****   UNUSED(hcordic);
1068:Drivers/STM32H7xx_HAL_Driver/Src/stm32h7xx_hal_cordic.c **** 
1069:Drivers/STM32H7xx_HAL_Driver/Src/stm32h7xx_hal_cordic.c ****   /* NOTE : This function should not be modified; when the callback is needed,
1070:Drivers/STM32H7xx_HAL_Driver/Src/stm32h7xx_hal_cordic.c ****             the HAL_CORDIC_CalculateCpltCallback can be implemented in the user file
1071:Drivers/STM32H7xx_HAL_Driver/Src/stm32h7xx_hal_cordic.c ****    */
1072:Drivers/STM32H7xx_HAL_Driver/Src/stm32h7xx_hal_cordic.c **** }
1073:Drivers/STM32H7xx_HAL_Driver/Src/stm32h7xx_hal_cordic.c **** 
1074:Drivers/STM32H7xx_HAL_Driver/Src/stm32h7xx_hal_cordic.c **** /**
1075:Drivers/STM32H7xx_HAL_Driver/Src/stm32h7xx_hal_cordic.c ****   * @}
1076:Drivers/STM32H7xx_HAL_Driver/Src/stm32h7xx_hal_cordic.c ****   */
1077:Drivers/STM32H7xx_HAL_Driver/Src/stm32h7xx_hal_cordic.c **** 
1078:Drivers/STM32H7xx_HAL_Driver/Src/stm32h7xx_hal_cordic.c **** /** @defgroup CORDIC_Exported_Functions_Group4 IRQ handler management
1079:Drivers/STM32H7xx_HAL_Driver/Src/stm32h7xx_hal_cordic.c ****   *  @brief    IRQ handler.
1080:Drivers/STM32H7xx_HAL_Driver/Src/stm32h7xx_hal_cordic.c ****   *
1081:Drivers/STM32H7xx_HAL_Driver/Src/stm32h7xx_hal_cordic.c **** @verbatim
1082:Drivers/STM32H7xx_HAL_Driver/Src/stm32h7xx_hal_cordic.c ****   ==============================================================================
1083:Drivers/STM32H7xx_HAL_Driver/Src/stm32h7xx_hal_cordic.c ****                 ##### IRQ handler management #####
1084:Drivers/STM32H7xx_HAL_Driver/Src/stm32h7xx_hal_cordic.c ****   ==============================================================================
1085:Drivers/STM32H7xx_HAL_Driver/Src/stm32h7xx_hal_cordic.c **** [..]  This section provides IRQ handler function.
1086:Drivers/STM32H7xx_HAL_Driver/Src/stm32h7xx_hal_cordic.c **** 
1087:Drivers/STM32H7xx_HAL_Driver/Src/stm32h7xx_hal_cordic.c **** @endverbatim
1088:Drivers/STM32H7xx_HAL_Driver/Src/stm32h7xx_hal_cordic.c ****   * @{
1089:Drivers/STM32H7xx_HAL_Driver/Src/stm32h7xx_hal_cordic.c ****   */
1090:Drivers/STM32H7xx_HAL_Driver/Src/stm32h7xx_hal_cordic.c **** 
1091:Drivers/STM32H7xx_HAL_Driver/Src/stm32h7xx_hal_cordic.c **** /**
1092:Drivers/STM32H7xx_HAL_Driver/Src/stm32h7xx_hal_cordic.c ****   * @brief  Handle CORDIC interrupt request.
1093:Drivers/STM32H7xx_HAL_Driver/Src/stm32h7xx_hal_cordic.c ****   * @param  hcordic pointer to a CORDIC_HandleTypeDef structure that contains
1094:Drivers/STM32H7xx_HAL_Driver/Src/stm32h7xx_hal_cordic.c ****   *         the configuration information for CORDIC module
1095:Drivers/STM32H7xx_HAL_Driver/Src/stm32h7xx_hal_cordic.c ****   * @retval None
1096:Drivers/STM32H7xx_HAL_Driver/Src/stm32h7xx_hal_cordic.c ****   */
1097:Drivers/STM32H7xx_HAL_Driver/Src/stm32h7xx_hal_cordic.c **** void HAL_CORDIC_IRQHandler(CORDIC_HandleTypeDef *hcordic)
1098:Drivers/STM32H7xx_HAL_Driver/Src/stm32h7xx_hal_cordic.c **** {
1099:Drivers/STM32H7xx_HAL_Driver/Src/stm32h7xx_hal_cordic.c ****   /* Check if calculation complete interrupt is enabled and if result ready
1100:Drivers/STM32H7xx_HAL_Driver/Src/stm32h7xx_hal_cordic.c ****      flag is raised */
1101:Drivers/STM32H7xx_HAL_Driver/Src/stm32h7xx_hal_cordic.c ****   if (__HAL_CORDIC_GET_IT_SOURCE(hcordic, CORDIC_IT_IEN) != 0U)
1102:Drivers/STM32H7xx_HAL_Driver/Src/stm32h7xx_hal_cordic.c ****   {
1103:Drivers/STM32H7xx_HAL_Driver/Src/stm32h7xx_hal_cordic.c ****     if (__HAL_CORDIC_GET_FLAG(hcordic, CORDIC_FLAG_RRDY) != 0U)
1104:Drivers/STM32H7xx_HAL_Driver/Src/stm32h7xx_hal_cordic.c ****     {
1105:Drivers/STM32H7xx_HAL_Driver/Src/stm32h7xx_hal_cordic.c ****       /* Decrement number of calculations to get */
1106:Drivers/STM32H7xx_HAL_Driver/Src/stm32h7xx_hal_cordic.c ****       hcordic->NbCalcToGet--;
1107:Drivers/STM32H7xx_HAL_Driver/Src/stm32h7xx_hal_cordic.c **** 
1108:Drivers/STM32H7xx_HAL_Driver/Src/stm32h7xx_hal_cordic.c ****       /* Read output data from Read Data register, and increment output buffer pointer */
1109:Drivers/STM32H7xx_HAL_Driver/Src/stm32h7xx_hal_cordic.c ****       CORDIC_ReadOutDataIncrementPtr(hcordic, &(hcordic->pOutBuff));
1110:Drivers/STM32H7xx_HAL_Driver/Src/stm32h7xx_hal_cordic.c **** 
1111:Drivers/STM32H7xx_HAL_Driver/Src/stm32h7xx_hal_cordic.c ****       /* Check if calculations are still to be ordered */
1112:Drivers/STM32H7xx_HAL_Driver/Src/stm32h7xx_hal_cordic.c ****       if (hcordic->NbCalcToOrder > 0U)
1113:Drivers/STM32H7xx_HAL_Driver/Src/stm32h7xx_hal_cordic.c ****       {
1114:Drivers/STM32H7xx_HAL_Driver/Src/stm32h7xx_hal_cordic.c ****         /* Decrement number of calculations to order */
ARM GAS  C:\Users\thewo\AppData\Local\Temp\ccqHaRNc.s 			page 21


1115:Drivers/STM32H7xx_HAL_Driver/Src/stm32h7xx_hal_cordic.c ****         hcordic->NbCalcToOrder--;
1116:Drivers/STM32H7xx_HAL_Driver/Src/stm32h7xx_hal_cordic.c **** 
1117:Drivers/STM32H7xx_HAL_Driver/Src/stm32h7xx_hal_cordic.c ****         /* Continue the processing by providing another write of input data
1118:Drivers/STM32H7xx_HAL_Driver/Src/stm32h7xx_hal_cordic.c ****            in the Write Data register, and increment input buffer pointer */
1119:Drivers/STM32H7xx_HAL_Driver/Src/stm32h7xx_hal_cordic.c ****         CORDIC_WriteInDataIncrementPtr(hcordic, &(hcordic->pInBuff));
1120:Drivers/STM32H7xx_HAL_Driver/Src/stm32h7xx_hal_cordic.c ****       }
1121:Drivers/STM32H7xx_HAL_Driver/Src/stm32h7xx_hal_cordic.c **** 
1122:Drivers/STM32H7xx_HAL_Driver/Src/stm32h7xx_hal_cordic.c ****       /* Check if all calculations results are got */
1123:Drivers/STM32H7xx_HAL_Driver/Src/stm32h7xx_hal_cordic.c ****       if (hcordic->NbCalcToGet == 0U)
1124:Drivers/STM32H7xx_HAL_Driver/Src/stm32h7xx_hal_cordic.c ****       {
1125:Drivers/STM32H7xx_HAL_Driver/Src/stm32h7xx_hal_cordic.c ****         /* Disable Result Ready Interrupt */
1126:Drivers/STM32H7xx_HAL_Driver/Src/stm32h7xx_hal_cordic.c ****         __HAL_CORDIC_DISABLE_IT(hcordic, CORDIC_IT_IEN);
1127:Drivers/STM32H7xx_HAL_Driver/Src/stm32h7xx_hal_cordic.c **** 
1128:Drivers/STM32H7xx_HAL_Driver/Src/stm32h7xx_hal_cordic.c ****         /* Change the CORDIC state */
1129:Drivers/STM32H7xx_HAL_Driver/Src/stm32h7xx_hal_cordic.c ****         hcordic->State = HAL_CORDIC_STATE_READY;
1130:Drivers/STM32H7xx_HAL_Driver/Src/stm32h7xx_hal_cordic.c **** 
1131:Drivers/STM32H7xx_HAL_Driver/Src/stm32h7xx_hal_cordic.c ****         /* Call calculation complete callback */
1132:Drivers/STM32H7xx_HAL_Driver/Src/stm32h7xx_hal_cordic.c **** #if USE_HAL_CORDIC_REGISTER_CALLBACKS == 1
1133:Drivers/STM32H7xx_HAL_Driver/Src/stm32h7xx_hal_cordic.c ****         /*Call registered callback*/
1134:Drivers/STM32H7xx_HAL_Driver/Src/stm32h7xx_hal_cordic.c ****         hcordic->CalculateCpltCallback(hcordic);
1135:Drivers/STM32H7xx_HAL_Driver/Src/stm32h7xx_hal_cordic.c **** #else
1136:Drivers/STM32H7xx_HAL_Driver/Src/stm32h7xx_hal_cordic.c ****         /*Call legacy weak callback*/
1137:Drivers/STM32H7xx_HAL_Driver/Src/stm32h7xx_hal_cordic.c ****         HAL_CORDIC_CalculateCpltCallback(hcordic);
1138:Drivers/STM32H7xx_HAL_Driver/Src/stm32h7xx_hal_cordic.c **** #endif /* USE_HAL_CORDIC_REGISTER_CALLBACKS */
1139:Drivers/STM32H7xx_HAL_Driver/Src/stm32h7xx_hal_cordic.c ****       }
1140:Drivers/STM32H7xx_HAL_Driver/Src/stm32h7xx_hal_cordic.c ****     }
1141:Drivers/STM32H7xx_HAL_Driver/Src/stm32h7xx_hal_cordic.c ****   }
1142:Drivers/STM32H7xx_HAL_Driver/Src/stm32h7xx_hal_cordic.c **** }
1143:Drivers/STM32H7xx_HAL_Driver/Src/stm32h7xx_hal_cordic.c **** 
1144:Drivers/STM32H7xx_HAL_Driver/Src/stm32h7xx_hal_cordic.c **** /**
1145:Drivers/STM32H7xx_HAL_Driver/Src/stm32h7xx_hal_cordic.c ****   * @}
1146:Drivers/STM32H7xx_HAL_Driver/Src/stm32h7xx_hal_cordic.c ****   */
1147:Drivers/STM32H7xx_HAL_Driver/Src/stm32h7xx_hal_cordic.c **** 
1148:Drivers/STM32H7xx_HAL_Driver/Src/stm32h7xx_hal_cordic.c **** /** @defgroup CORDIC_Exported_Functions_Group5 Peripheral State functions
1149:Drivers/STM32H7xx_HAL_Driver/Src/stm32h7xx_hal_cordic.c ****   *  @brief   Peripheral State functions.
1150:Drivers/STM32H7xx_HAL_Driver/Src/stm32h7xx_hal_cordic.c ****   *
1151:Drivers/STM32H7xx_HAL_Driver/Src/stm32h7xx_hal_cordic.c **** @verbatim
1152:Drivers/STM32H7xx_HAL_Driver/Src/stm32h7xx_hal_cordic.c ****   ==============================================================================
1153:Drivers/STM32H7xx_HAL_Driver/Src/stm32h7xx_hal_cordic.c ****                       ##### Peripheral State functions #####
1154:Drivers/STM32H7xx_HAL_Driver/Src/stm32h7xx_hal_cordic.c ****   ==============================================================================
1155:Drivers/STM32H7xx_HAL_Driver/Src/stm32h7xx_hal_cordic.c ****     [..]
1156:Drivers/STM32H7xx_HAL_Driver/Src/stm32h7xx_hal_cordic.c ****     This subsection permits to get in run-time the status of the peripheral.
1157:Drivers/STM32H7xx_HAL_Driver/Src/stm32h7xx_hal_cordic.c **** 
1158:Drivers/STM32H7xx_HAL_Driver/Src/stm32h7xx_hal_cordic.c **** @endverbatim
1159:Drivers/STM32H7xx_HAL_Driver/Src/stm32h7xx_hal_cordic.c ****   * @{
1160:Drivers/STM32H7xx_HAL_Driver/Src/stm32h7xx_hal_cordic.c ****   */
1161:Drivers/STM32H7xx_HAL_Driver/Src/stm32h7xx_hal_cordic.c **** 
1162:Drivers/STM32H7xx_HAL_Driver/Src/stm32h7xx_hal_cordic.c **** /**
1163:Drivers/STM32H7xx_HAL_Driver/Src/stm32h7xx_hal_cordic.c ****   * @brief  Return the CORDIC handle state.
1164:Drivers/STM32H7xx_HAL_Driver/Src/stm32h7xx_hal_cordic.c ****   * @param  hcordic pointer to a CORDIC_HandleTypeDef structure that contains
1165:Drivers/STM32H7xx_HAL_Driver/Src/stm32h7xx_hal_cordic.c ****   *         the configuration information for CORDIC module
1166:Drivers/STM32H7xx_HAL_Driver/Src/stm32h7xx_hal_cordic.c ****   * @retval HAL state
1167:Drivers/STM32H7xx_HAL_Driver/Src/stm32h7xx_hal_cordic.c ****   */
1168:Drivers/STM32H7xx_HAL_Driver/Src/stm32h7xx_hal_cordic.c **** HAL_CORDIC_StateTypeDef HAL_CORDIC_GetState(const CORDIC_HandleTypeDef *hcordic)
1169:Drivers/STM32H7xx_HAL_Driver/Src/stm32h7xx_hal_cordic.c **** {
1170:Drivers/STM32H7xx_HAL_Driver/Src/stm32h7xx_hal_cordic.c ****   /* Return CORDIC handle state */
1171:Drivers/STM32H7xx_HAL_Driver/Src/stm32h7xx_hal_cordic.c ****   return hcordic->State;
ARM GAS  C:\Users\thewo\AppData\Local\Temp\ccqHaRNc.s 			page 22


1172:Drivers/STM32H7xx_HAL_Driver/Src/stm32h7xx_hal_cordic.c **** }
1173:Drivers/STM32H7xx_HAL_Driver/Src/stm32h7xx_hal_cordic.c **** 
1174:Drivers/STM32H7xx_HAL_Driver/Src/stm32h7xx_hal_cordic.c **** /**
1175:Drivers/STM32H7xx_HAL_Driver/Src/stm32h7xx_hal_cordic.c ****   * @brief  Return the CORDIC peripheral error.
1176:Drivers/STM32H7xx_HAL_Driver/Src/stm32h7xx_hal_cordic.c ****   * @param  hcordic pointer to a CORDIC_HandleTypeDef structure that contains
1177:Drivers/STM32H7xx_HAL_Driver/Src/stm32h7xx_hal_cordic.c ****   *         the configuration information for CORDIC module
1178:Drivers/STM32H7xx_HAL_Driver/Src/stm32h7xx_hal_cordic.c ****   * @note   The returned error is a bit-map combination of possible errors
1179:Drivers/STM32H7xx_HAL_Driver/Src/stm32h7xx_hal_cordic.c ****   * @retval Error bit-map
1180:Drivers/STM32H7xx_HAL_Driver/Src/stm32h7xx_hal_cordic.c ****   */
1181:Drivers/STM32H7xx_HAL_Driver/Src/stm32h7xx_hal_cordic.c **** uint32_t HAL_CORDIC_GetError(const CORDIC_HandleTypeDef *hcordic)
1182:Drivers/STM32H7xx_HAL_Driver/Src/stm32h7xx_hal_cordic.c **** {
1183:Drivers/STM32H7xx_HAL_Driver/Src/stm32h7xx_hal_cordic.c ****   /* Return CORDIC error code */
1184:Drivers/STM32H7xx_HAL_Driver/Src/stm32h7xx_hal_cordic.c ****   return hcordic->ErrorCode;
1185:Drivers/STM32H7xx_HAL_Driver/Src/stm32h7xx_hal_cordic.c **** }
1186:Drivers/STM32H7xx_HAL_Driver/Src/stm32h7xx_hal_cordic.c **** 
1187:Drivers/STM32H7xx_HAL_Driver/Src/stm32h7xx_hal_cordic.c **** /**
1188:Drivers/STM32H7xx_HAL_Driver/Src/stm32h7xx_hal_cordic.c ****   * @}
1189:Drivers/STM32H7xx_HAL_Driver/Src/stm32h7xx_hal_cordic.c ****   */
1190:Drivers/STM32H7xx_HAL_Driver/Src/stm32h7xx_hal_cordic.c **** 
1191:Drivers/STM32H7xx_HAL_Driver/Src/stm32h7xx_hal_cordic.c **** /**
1192:Drivers/STM32H7xx_HAL_Driver/Src/stm32h7xx_hal_cordic.c ****   * @}
1193:Drivers/STM32H7xx_HAL_Driver/Src/stm32h7xx_hal_cordic.c ****   */
1194:Drivers/STM32H7xx_HAL_Driver/Src/stm32h7xx_hal_cordic.c **** 
1195:Drivers/STM32H7xx_HAL_Driver/Src/stm32h7xx_hal_cordic.c **** /** @addtogroup CORDIC_Private_Functions
1196:Drivers/STM32H7xx_HAL_Driver/Src/stm32h7xx_hal_cordic.c ****   * @{
1197:Drivers/STM32H7xx_HAL_Driver/Src/stm32h7xx_hal_cordic.c ****   */
1198:Drivers/STM32H7xx_HAL_Driver/Src/stm32h7xx_hal_cordic.c **** 
1199:Drivers/STM32H7xx_HAL_Driver/Src/stm32h7xx_hal_cordic.c **** /**
1200:Drivers/STM32H7xx_HAL_Driver/Src/stm32h7xx_hal_cordic.c ****   * @brief  Write input data for CORDIC processing, and increment input buffer pointer.
1201:Drivers/STM32H7xx_HAL_Driver/Src/stm32h7xx_hal_cordic.c ****   * @param  hcordic pointer to a CORDIC_HandleTypeDef structure that contains
1202:Drivers/STM32H7xx_HAL_Driver/Src/stm32h7xx_hal_cordic.c ****   *         the configuration information for CORDIC module.
1203:Drivers/STM32H7xx_HAL_Driver/Src/stm32h7xx_hal_cordic.c ****   * @param  ppInBuff Pointer to pointer to input buffer.
1204:Drivers/STM32H7xx_HAL_Driver/Src/stm32h7xx_hal_cordic.c ****   * @retval none
1205:Drivers/STM32H7xx_HAL_Driver/Src/stm32h7xx_hal_cordic.c ****   */
1206:Drivers/STM32H7xx_HAL_Driver/Src/stm32h7xx_hal_cordic.c **** static void CORDIC_WriteInDataIncrementPtr(const CORDIC_HandleTypeDef *hcordic, const int32_t **ppI
1207:Drivers/STM32H7xx_HAL_Driver/Src/stm32h7xx_hal_cordic.c **** {
  28              		.loc 1 1207 1 view -0
  29              		.cfi_startproc
  30              		@ args = 0, pretend = 0, frame = 0
  31              		@ frame_needed = 0, uses_anonymous_args = 0
  32              		@ link register save eliminated.
1208:Drivers/STM32H7xx_HAL_Driver/Src/stm32h7xx_hal_cordic.c ****   /* First write of input data in the Write Data register */
1209:Drivers/STM32H7xx_HAL_Driver/Src/stm32h7xx_hal_cordic.c ****   WRITE_REG(hcordic->Instance->WDATA, (uint32_t) **ppInBuff);
  33              		.loc 1 1209 3 view .LVU1
  34 0000 0B68     		ldr	r3, [r1]
  35 0002 1A68     		ldr	r2, [r3]
  36 0004 0368     		ldr	r3, [r0]
  37 0006 5A60     		str	r2, [r3, #4]
1210:Drivers/STM32H7xx_HAL_Driver/Src/stm32h7xx_hal_cordic.c **** 
1211:Drivers/STM32H7xx_HAL_Driver/Src/stm32h7xx_hal_cordic.c ****   /* Increment input data pointer */
1212:Drivers/STM32H7xx_HAL_Driver/Src/stm32h7xx_hal_cordic.c ****   (*ppInBuff)++;
  38              		.loc 1 1212 3 view .LVU2
  39              		.loc 1 1212 4 is_stmt 0 view .LVU3
  40 0008 0A68     		ldr	r2, [r1]
  41              		.loc 1 1212 14 view .LVU4
  42 000a 131D     		adds	r3, r2, #4
  43 000c 0B60     		str	r3, [r1]
ARM GAS  C:\Users\thewo\AppData\Local\Temp\ccqHaRNc.s 			page 23


1213:Drivers/STM32H7xx_HAL_Driver/Src/stm32h7xx_hal_cordic.c **** 
1214:Drivers/STM32H7xx_HAL_Driver/Src/stm32h7xx_hal_cordic.c ****   /* Check if second write of input data is expected */
1215:Drivers/STM32H7xx_HAL_Driver/Src/stm32h7xx_hal_cordic.c ****   if (HAL_IS_BIT_SET(hcordic->Instance->CSR, CORDIC_CSR_NARGS))
  44              		.loc 1 1215 3 is_stmt 1 view .LVU5
  45              		.loc 1 1215 7 is_stmt 0 view .LVU6
  46 000e 0368     		ldr	r3, [r0]
  47 0010 1868     		ldr	r0, [r3]
  48              	.LVL1:
  49              		.loc 1 1215 6 view .LVU7
  50 0012 10F4801F 		tst	r0, #1048576
  51 0016 04D0     		beq	.L1
1216:Drivers/STM32H7xx_HAL_Driver/Src/stm32h7xx_hal_cordic.c ****   {
1217:Drivers/STM32H7xx_HAL_Driver/Src/stm32h7xx_hal_cordic.c ****     /* Second write of input data in the Write Data register */
1218:Drivers/STM32H7xx_HAL_Driver/Src/stm32h7xx_hal_cordic.c ****     WRITE_REG(hcordic->Instance->WDATA, (uint32_t) **ppInBuff);
  52              		.loc 1 1218 5 is_stmt 1 view .LVU8
  53 0018 5268     		ldr	r2, [r2, #4]
  54 001a 5A60     		str	r2, [r3, #4]
1219:Drivers/STM32H7xx_HAL_Driver/Src/stm32h7xx_hal_cordic.c **** 
1220:Drivers/STM32H7xx_HAL_Driver/Src/stm32h7xx_hal_cordic.c ****     /* Increment input data pointer */
1221:Drivers/STM32H7xx_HAL_Driver/Src/stm32h7xx_hal_cordic.c ****     (*ppInBuff)++;
  55              		.loc 1 1221 5 view .LVU9
  56              		.loc 1 1221 6 is_stmt 0 view .LVU10
  57 001c 0B68     		ldr	r3, [r1]
  58              		.loc 1 1221 16 view .LVU11
  59 001e 0433     		adds	r3, r3, #4
  60 0020 0B60     		str	r3, [r1]
  61              	.L1:
1222:Drivers/STM32H7xx_HAL_Driver/Src/stm32h7xx_hal_cordic.c ****   }
1223:Drivers/STM32H7xx_HAL_Driver/Src/stm32h7xx_hal_cordic.c **** }
  62              		.loc 1 1223 1 view .LVU12
  63 0022 7047     		bx	lr
  64              		.cfi_endproc
  65              	.LFE364:
  67              		.section	.text.CORDIC_ReadOutDataIncrementPtr,"ax",%progbits
  68              		.align	1
  69              		.syntax unified
  70              		.thumb
  71              		.thumb_func
  73              	CORDIC_ReadOutDataIncrementPtr:
  74              	.LVL2:
  75              	.LFB365:
1224:Drivers/STM32H7xx_HAL_Driver/Src/stm32h7xx_hal_cordic.c **** 
1225:Drivers/STM32H7xx_HAL_Driver/Src/stm32h7xx_hal_cordic.c **** /**
1226:Drivers/STM32H7xx_HAL_Driver/Src/stm32h7xx_hal_cordic.c ****   * @brief  Read output data of CORDIC processing, and increment output buffer pointer.
1227:Drivers/STM32H7xx_HAL_Driver/Src/stm32h7xx_hal_cordic.c ****   * @param  hcordic pointer to a CORDIC_HandleTypeDef structure that contains
1228:Drivers/STM32H7xx_HAL_Driver/Src/stm32h7xx_hal_cordic.c ****   *         the configuration information for CORDIC module.
1229:Drivers/STM32H7xx_HAL_Driver/Src/stm32h7xx_hal_cordic.c ****   * @param  ppOutBuff Pointer to pointer to output buffer.
1230:Drivers/STM32H7xx_HAL_Driver/Src/stm32h7xx_hal_cordic.c ****   * @retval none
1231:Drivers/STM32H7xx_HAL_Driver/Src/stm32h7xx_hal_cordic.c ****   */
1232:Drivers/STM32H7xx_HAL_Driver/Src/stm32h7xx_hal_cordic.c **** static void CORDIC_ReadOutDataIncrementPtr(const CORDIC_HandleTypeDef *hcordic, int32_t **ppOutBuff
1233:Drivers/STM32H7xx_HAL_Driver/Src/stm32h7xx_hal_cordic.c **** {
  76              		.loc 1 1233 1 is_stmt 1 view -0
  77              		.cfi_startproc
  78              		@ args = 0, pretend = 0, frame = 0
  79              		@ frame_needed = 0, uses_anonymous_args = 0
  80              		@ link register save eliminated.
1234:Drivers/STM32H7xx_HAL_Driver/Src/stm32h7xx_hal_cordic.c ****   /* First read of output data from the Read Data register */
ARM GAS  C:\Users\thewo\AppData\Local\Temp\ccqHaRNc.s 			page 24


1235:Drivers/STM32H7xx_HAL_Driver/Src/stm32h7xx_hal_cordic.c ****   **ppOutBuff = (int32_t)READ_REG(hcordic->Instance->RDATA);
  81              		.loc 1 1235 3 view .LVU14
  82              		.loc 1 1235 26 is_stmt 0 view .LVU15
  83 0000 0368     		ldr	r3, [r0]
  84 0002 9A68     		ldr	r2, [r3, #8]
  85              		.loc 1 1235 4 view .LVU16
  86 0004 0B68     		ldr	r3, [r1]
  87              		.loc 1 1235 15 view .LVU17
  88 0006 1A60     		str	r2, [r3]
1236:Drivers/STM32H7xx_HAL_Driver/Src/stm32h7xx_hal_cordic.c **** 
1237:Drivers/STM32H7xx_HAL_Driver/Src/stm32h7xx_hal_cordic.c ****   /* Increment output data pointer */
1238:Drivers/STM32H7xx_HAL_Driver/Src/stm32h7xx_hal_cordic.c ****   (*ppOutBuff)++;
  89              		.loc 1 1238 3 is_stmt 1 view .LVU18
  90              		.loc 1 1238 4 is_stmt 0 view .LVU19
  91 0008 0B68     		ldr	r3, [r1]
  92              		.loc 1 1238 15 view .LVU20
  93 000a 1A1D     		adds	r2, r3, #4
  94 000c 0A60     		str	r2, [r1]
1239:Drivers/STM32H7xx_HAL_Driver/Src/stm32h7xx_hal_cordic.c **** 
1240:Drivers/STM32H7xx_HAL_Driver/Src/stm32h7xx_hal_cordic.c ****   /* Check if second read of output data is expected */
1241:Drivers/STM32H7xx_HAL_Driver/Src/stm32h7xx_hal_cordic.c ****   if (HAL_IS_BIT_SET(hcordic->Instance->CSR, CORDIC_CSR_NRES))
  95              		.loc 1 1241 3 is_stmt 1 view .LVU21
  96              		.loc 1 1241 7 is_stmt 0 view .LVU22
  97 000e 0268     		ldr	r2, [r0]
  98 0010 1068     		ldr	r0, [r2]
  99              	.LVL3:
 100              		.loc 1 1241 6 view .LVU23
 101 0012 10F4002F 		tst	r0, #524288
 102 0016 04D0     		beq	.L3
1242:Drivers/STM32H7xx_HAL_Driver/Src/stm32h7xx_hal_cordic.c ****   {
1243:Drivers/STM32H7xx_HAL_Driver/Src/stm32h7xx_hal_cordic.c ****     /* Second read of output data from the Read Data register */
1244:Drivers/STM32H7xx_HAL_Driver/Src/stm32h7xx_hal_cordic.c ****     **ppOutBuff = (int32_t)READ_REG(hcordic->Instance->RDATA);
 103              		.loc 1 1244 5 is_stmt 1 view .LVU24
 104              		.loc 1 1244 28 is_stmt 0 view .LVU25
 105 0018 9268     		ldr	r2, [r2, #8]
 106              		.loc 1 1244 17 view .LVU26
 107 001a 5A60     		str	r2, [r3, #4]
1245:Drivers/STM32H7xx_HAL_Driver/Src/stm32h7xx_hal_cordic.c **** 
1246:Drivers/STM32H7xx_HAL_Driver/Src/stm32h7xx_hal_cordic.c ****     /* Increment output data pointer */
1247:Drivers/STM32H7xx_HAL_Driver/Src/stm32h7xx_hal_cordic.c ****     (*ppOutBuff)++;
 108              		.loc 1 1247 5 is_stmt 1 view .LVU27
 109              		.loc 1 1247 6 is_stmt 0 view .LVU28
 110 001c 0B68     		ldr	r3, [r1]
 111              		.loc 1 1247 17 view .LVU29
 112 001e 0433     		adds	r3, r3, #4
 113 0020 0B60     		str	r3, [r1]
 114              	.L3:
1248:Drivers/STM32H7xx_HAL_Driver/Src/stm32h7xx_hal_cordic.c ****   }
1249:Drivers/STM32H7xx_HAL_Driver/Src/stm32h7xx_hal_cordic.c **** }
 115              		.loc 1 1249 1 view .LVU30
 116 0022 7047     		bx	lr
 117              		.cfi_endproc
 118              	.LFE365:
 120              		.section	.text.HAL_CORDIC_MspInit,"ax",%progbits
 121              		.align	1
 122              		.weak	HAL_CORDIC_MspInit
 123              		.syntax unified
ARM GAS  C:\Users\thewo\AppData\Local\Temp\ccqHaRNc.s 			page 25


 124              		.thumb
 125              		.thumb_func
 127              	HAL_CORDIC_MspInit:
 128              	.LVL4:
 129              	.LFB352:
 326:Drivers/STM32H7xx_HAL_Driver/Src/stm32h7xx_hal_cordic.c ****   /* Prevent unused argument(s) compilation warning */
 130              		.loc 1 326 1 is_stmt 1 view -0
 131              		.cfi_startproc
 132              		@ args = 0, pretend = 0, frame = 0
 133              		@ frame_needed = 0, uses_anonymous_args = 0
 134              		@ link register save eliminated.
 328:Drivers/STM32H7xx_HAL_Driver/Src/stm32h7xx_hal_cordic.c **** 
 135              		.loc 1 328 3 view .LVU32
 333:Drivers/STM32H7xx_HAL_Driver/Src/stm32h7xx_hal_cordic.c **** 
 136              		.loc 1 333 1 is_stmt 0 view .LVU33
 137 0000 7047     		bx	lr
 138              		.cfi_endproc
 139              	.LFE352:
 141              		.section	.rodata.HAL_CORDIC_Init.str1.4,"aMS",%progbits,1
 142              		.align	2
 143              	.LC0:
 144 0000 44726976 		.ascii	"Drivers/STM32H7xx_HAL_Driver/Src/stm32h7xx_hal_cord"
 144      6572732F 
 144      53544D33 
 144      32483778 
 144      785F4841 
 145 0033 69632E63 		.ascii	"ic.c\000"
 145      00
 146              		.section	.text.HAL_CORDIC_Init,"ax",%progbits
 147              		.align	1
 148              		.global	HAL_CORDIC_Init
 149              		.syntax unified
 150              		.thumb
 151              		.thumb_func
 153              	HAL_CORDIC_Init:
 154              	.LVL5:
 155              	.LFB350:
 202:Drivers/STM32H7xx_HAL_Driver/Src/stm32h7xx_hal_cordic.c ****   /* Check the CORDIC handle allocation */
 156              		.loc 1 202 1 is_stmt 1 view -0
 157              		.cfi_startproc
 158              		@ args = 0, pretend = 0, frame = 0
 159              		@ frame_needed = 0, uses_anonymous_args = 0
 204:Drivers/STM32H7xx_HAL_Driver/Src/stm32h7xx_hal_cordic.c ****   {
 160              		.loc 1 204 3 view .LVU35
 204:Drivers/STM32H7xx_HAL_Driver/Src/stm32h7xx_hal_cordic.c ****   {
 161              		.loc 1 204 6 is_stmt 0 view .LVU36
 162 0000 E8B1     		cbz	r0, .L10
 202:Drivers/STM32H7xx_HAL_Driver/Src/stm32h7xx_hal_cordic.c ****   /* Check the CORDIC handle allocation */
 163              		.loc 1 202 1 view .LVU37
 164 0002 10B5     		push	{r4, lr}
 165              		.cfi_def_cfa_offset 8
 166              		.cfi_offset 4, -8
 167              		.cfi_offset 14, -4
 168 0004 0446     		mov	r4, r0
 211:Drivers/STM32H7xx_HAL_Driver/Src/stm32h7xx_hal_cordic.c **** 
 169              		.loc 1 211 3 is_stmt 1 view .LVU38
 170 0006 0268     		ldr	r2, [r0]
ARM GAS  C:\Users\thewo\AppData\Local\Temp\ccqHaRNc.s 			page 26


 171 0008 0E4B     		ldr	r3, .L16
 172 000a 9A42     		cmp	r2, r3
 173 000c 03D0     		beq	.L8
 211:Drivers/STM32H7xx_HAL_Driver/Src/stm32h7xx_hal_cordic.c **** 
 174              		.loc 1 211 3 is_stmt 0 discriminator 1 view .LVU39
 175 000e D321     		movs	r1, #211
 176 0010 0D48     		ldr	r0, .L16+4
 177              	.LVL6:
 211:Drivers/STM32H7xx_HAL_Driver/Src/stm32h7xx_hal_cordic.c **** 
 178              		.loc 1 211 3 discriminator 1 view .LVU40
 179 0012 FFF7FEFF 		bl	assert_failed
 180              	.LVL7:
 181              	.L8:
 232:Drivers/STM32H7xx_HAL_Driver/Src/stm32h7xx_hal_cordic.c ****   {
 182              		.loc 1 232 3 is_stmt 1 view .LVU41
 232:Drivers/STM32H7xx_HAL_Driver/Src/stm32h7xx_hal_cordic.c ****   {
 183              		.loc 1 232 14 is_stmt 0 view .LVU42
 184 0016 94F82130 		ldrb	r3, [r4, #33]	@ zero_extendqisi2
 232:Drivers/STM32H7xx_HAL_Driver/Src/stm32h7xx_hal_cordic.c ****   {
 185              		.loc 1 232 6 view .LVU43
 186 001a 53B1     		cbz	r3, .L15
 187              	.L9:
 243:Drivers/STM32H7xx_HAL_Driver/Src/stm32h7xx_hal_cordic.c **** 
 188              		.loc 1 243 3 is_stmt 1 view .LVU44
 243:Drivers/STM32H7xx_HAL_Driver/Src/stm32h7xx_hal_cordic.c **** 
 189              		.loc 1 243 22 is_stmt 0 view .LVU45
 190 001c 0020     		movs	r0, #0
 191 001e 6062     		str	r0, [r4, #36]
 246:Drivers/STM32H7xx_HAL_Driver/Src/stm32h7xx_hal_cordic.c ****   hcordic->pOutBuff = NULL;
 192              		.loc 1 246 3 is_stmt 1 view .LVU46
 246:Drivers/STM32H7xx_HAL_Driver/Src/stm32h7xx_hal_cordic.c ****   hcordic->pOutBuff = NULL;
 193              		.loc 1 246 20 is_stmt 0 view .LVU47
 194 0020 6060     		str	r0, [r4, #4]
 247:Drivers/STM32H7xx_HAL_Driver/Src/stm32h7xx_hal_cordic.c **** 
 195              		.loc 1 247 3 is_stmt 1 view .LVU48
 247:Drivers/STM32H7xx_HAL_Driver/Src/stm32h7xx_hal_cordic.c **** 
 196              		.loc 1 247 21 is_stmt 0 view .LVU49
 197 0022 A060     		str	r0, [r4, #8]
 250:Drivers/STM32H7xx_HAL_Driver/Src/stm32h7xx_hal_cordic.c ****   hcordic->NbCalcToGet = 0U;
 198              		.loc 1 250 3 is_stmt 1 view .LVU50
 250:Drivers/STM32H7xx_HAL_Driver/Src/stm32h7xx_hal_cordic.c ****   hcordic->NbCalcToGet = 0U;
 199              		.loc 1 250 26 is_stmt 0 view .LVU51
 200 0024 E060     		str	r0, [r4, #12]
 251:Drivers/STM32H7xx_HAL_Driver/Src/stm32h7xx_hal_cordic.c **** 
 201              		.loc 1 251 3 is_stmt 1 view .LVU52
 251:Drivers/STM32H7xx_HAL_Driver/Src/stm32h7xx_hal_cordic.c **** 
 202              		.loc 1 251 24 is_stmt 0 view .LVU53
 203 0026 2061     		str	r0, [r4, #16]
 254:Drivers/STM32H7xx_HAL_Driver/Src/stm32h7xx_hal_cordic.c **** 
 204              		.loc 1 254 3 is_stmt 1 view .LVU54
 254:Drivers/STM32H7xx_HAL_Driver/Src/stm32h7xx_hal_cordic.c **** 
 205              		.loc 1 254 25 is_stmt 0 view .LVU55
 206 0028 6061     		str	r0, [r4, #20]
 257:Drivers/STM32H7xx_HAL_Driver/Src/stm32h7xx_hal_cordic.c **** 
 207              		.loc 1 257 3 is_stmt 1 view .LVU56
 257:Drivers/STM32H7xx_HAL_Driver/Src/stm32h7xx_hal_cordic.c **** 
 208              		.loc 1 257 18 is_stmt 0 view .LVU57
ARM GAS  C:\Users\thewo\AppData\Local\Temp\ccqHaRNc.s 			page 27


 209 002a 0123     		movs	r3, #1
 210 002c 84F82130 		strb	r3, [r4, #33]
 260:Drivers/STM32H7xx_HAL_Driver/Src/stm32h7xx_hal_cordic.c **** }
 211              		.loc 1 260 3 is_stmt 1 view .LVU58
 261:Drivers/STM32H7xx_HAL_Driver/Src/stm32h7xx_hal_cordic.c **** 
 212              		.loc 1 261 1 is_stmt 0 view .LVU59
 213 0030 10BD     		pop	{r4, pc}
 214              	.LVL8:
 215              	.L15:
 235:Drivers/STM32H7xx_HAL_Driver/Src/stm32h7xx_hal_cordic.c **** 
 216              		.loc 1 235 5 is_stmt 1 view .LVU60
 235:Drivers/STM32H7xx_HAL_Driver/Src/stm32h7xx_hal_cordic.c **** 
 217              		.loc 1 235 19 is_stmt 0 view .LVU61
 218 0032 84F82030 		strb	r3, [r4, #32]
 238:Drivers/STM32H7xx_HAL_Driver/Src/stm32h7xx_hal_cordic.c ****   }
 219              		.loc 1 238 5 is_stmt 1 view .LVU62
 220 0036 2046     		mov	r0, r4
 221 0038 FFF7FEFF 		bl	HAL_CORDIC_MspInit
 222              	.LVL9:
 223 003c EEE7     		b	.L9
 224              	.LVL10:
 225              	.L10:
 226              		.cfi_def_cfa_offset 0
 227              		.cfi_restore 4
 228              		.cfi_restore 14
 207:Drivers/STM32H7xx_HAL_Driver/Src/stm32h7xx_hal_cordic.c ****   }
 229              		.loc 1 207 12 is_stmt 0 view .LVU63
 230 003e 0120     		movs	r0, #1
 231              	.LVL11:
 261:Drivers/STM32H7xx_HAL_Driver/Src/stm32h7xx_hal_cordic.c **** 
 232              		.loc 1 261 1 view .LVU64
 233 0040 7047     		bx	lr
 234              	.L17:
 235 0042 00BF     		.align	2
 236              	.L16:
 237 0044 00440248 		.word	1208108032
 238 0048 00000000 		.word	.LC0
 239              		.cfi_endproc
 240              	.LFE350:
 242              		.section	.text.HAL_CORDIC_MspDeInit,"ax",%progbits
 243              		.align	1
 244              		.weak	HAL_CORDIC_MspDeInit
 245              		.syntax unified
 246              		.thumb
 247              		.thumb_func
 249              	HAL_CORDIC_MspDeInit:
 250              	.LVL12:
 251              	.LFB353:
 341:Drivers/STM32H7xx_HAL_Driver/Src/stm32h7xx_hal_cordic.c ****   /* Prevent unused argument(s) compilation warning */
 252              		.loc 1 341 1 is_stmt 1 view -0
 253              		.cfi_startproc
 254              		@ args = 0, pretend = 0, frame = 0
 255              		@ frame_needed = 0, uses_anonymous_args = 0
 256              		@ link register save eliminated.
 343:Drivers/STM32H7xx_HAL_Driver/Src/stm32h7xx_hal_cordic.c **** 
 257              		.loc 1 343 3 view .LVU66
 348:Drivers/STM32H7xx_HAL_Driver/Src/stm32h7xx_hal_cordic.c **** 
ARM GAS  C:\Users\thewo\AppData\Local\Temp\ccqHaRNc.s 			page 28


 258              		.loc 1 348 1 is_stmt 0 view .LVU67
 259 0000 7047     		bx	lr
 260              		.cfi_endproc
 261              	.LFE353:
 263              		.section	.text.HAL_CORDIC_DeInit,"ax",%progbits
 264              		.align	1
 265              		.global	HAL_CORDIC_DeInit
 266              		.syntax unified
 267              		.thumb
 268              		.thumb_func
 270              	HAL_CORDIC_DeInit:
 271              	.LVL13:
 272              	.LFB351:
 269:Drivers/STM32H7xx_HAL_Driver/Src/stm32h7xx_hal_cordic.c ****   /* Check the CORDIC handle allocation */
 273              		.loc 1 269 1 is_stmt 1 view -0
 274              		.cfi_startproc
 275              		@ args = 0, pretend = 0, frame = 0
 276              		@ frame_needed = 0, uses_anonymous_args = 0
 271:Drivers/STM32H7xx_HAL_Driver/Src/stm32h7xx_hal_cordic.c ****   {
 277              		.loc 1 271 3 view .LVU69
 271:Drivers/STM32H7xx_HAL_Driver/Src/stm32h7xx_hal_cordic.c ****   {
 278              		.loc 1 271 6 is_stmt 0 view .LVU70
 279 0000 E0B1     		cbz	r0, .L22
 269:Drivers/STM32H7xx_HAL_Driver/Src/stm32h7xx_hal_cordic.c ****   /* Check the CORDIC handle allocation */
 280              		.loc 1 269 1 view .LVU71
 281 0002 10B5     		push	{r4, lr}
 282              		.cfi_def_cfa_offset 8
 283              		.cfi_offset 4, -8
 284              		.cfi_offset 14, -4
 285 0004 0446     		mov	r4, r0
 278:Drivers/STM32H7xx_HAL_Driver/Src/stm32h7xx_hal_cordic.c **** 
 286              		.loc 1 278 3 is_stmt 1 view .LVU72
 287 0006 0268     		ldr	r2, [r0]
 288 0008 0D4B     		ldr	r3, .L27
 289 000a 9A42     		cmp	r2, r3
 290 000c 04D0     		beq	.L21
 278:Drivers/STM32H7xx_HAL_Driver/Src/stm32h7xx_hal_cordic.c **** 
 291              		.loc 1 278 3 is_stmt 0 discriminator 1 view .LVU73
 292 000e 4FF48B71 		mov	r1, #278
 293 0012 0C48     		ldr	r0, .L27+4
 294              	.LVL14:
 278:Drivers/STM32H7xx_HAL_Driver/Src/stm32h7xx_hal_cordic.c **** 
 295              		.loc 1 278 3 discriminator 1 view .LVU74
 296 0014 FFF7FEFF 		bl	assert_failed
 297              	.LVL15:
 298              	.L21:
 281:Drivers/STM32H7xx_HAL_Driver/Src/stm32h7xx_hal_cordic.c **** 
 299              		.loc 1 281 3 is_stmt 1 view .LVU75
 281:Drivers/STM32H7xx_HAL_Driver/Src/stm32h7xx_hal_cordic.c **** 
 300              		.loc 1 281 18 is_stmt 0 view .LVU76
 301 0018 0223     		movs	r3, #2
 302 001a 84F82130 		strb	r3, [r4, #33]
 293:Drivers/STM32H7xx_HAL_Driver/Src/stm32h7xx_hal_cordic.c **** #endif /* USE_HAL_CORDIC_REGISTER_CALLBACKS */
 303              		.loc 1 293 3 is_stmt 1 view .LVU77
 304 001e 2046     		mov	r0, r4
 305 0020 FFF7FEFF 		bl	HAL_CORDIC_MspDeInit
 306              	.LVL16:
ARM GAS  C:\Users\thewo\AppData\Local\Temp\ccqHaRNc.s 			page 29


 297:Drivers/STM32H7xx_HAL_Driver/Src/stm32h7xx_hal_cordic.c **** 
 307              		.loc 1 297 3 view .LVU78
 297:Drivers/STM32H7xx_HAL_Driver/Src/stm32h7xx_hal_cordic.c **** 
 308              		.loc 1 297 22 is_stmt 0 view .LVU79
 309 0024 0020     		movs	r0, #0
 310 0026 6062     		str	r0, [r4, #36]
 300:Drivers/STM32H7xx_HAL_Driver/Src/stm32h7xx_hal_cordic.c ****   hcordic->pOutBuff = NULL;
 311              		.loc 1 300 3 is_stmt 1 view .LVU80
 300:Drivers/STM32H7xx_HAL_Driver/Src/stm32h7xx_hal_cordic.c ****   hcordic->pOutBuff = NULL;
 312              		.loc 1 300 20 is_stmt 0 view .LVU81
 313 0028 6060     		str	r0, [r4, #4]
 301:Drivers/STM32H7xx_HAL_Driver/Src/stm32h7xx_hal_cordic.c **** 
 314              		.loc 1 301 3 is_stmt 1 view .LVU82
 301:Drivers/STM32H7xx_HAL_Driver/Src/stm32h7xx_hal_cordic.c **** 
 315              		.loc 1 301 21 is_stmt 0 view .LVU83
 316 002a A060     		str	r0, [r4, #8]
 304:Drivers/STM32H7xx_HAL_Driver/Src/stm32h7xx_hal_cordic.c ****   hcordic->NbCalcToGet = 0U;
 317              		.loc 1 304 3 is_stmt 1 view .LVU84
 304:Drivers/STM32H7xx_HAL_Driver/Src/stm32h7xx_hal_cordic.c ****   hcordic->NbCalcToGet = 0U;
 318              		.loc 1 304 26 is_stmt 0 view .LVU85
 319 002c E060     		str	r0, [r4, #12]
 305:Drivers/STM32H7xx_HAL_Driver/Src/stm32h7xx_hal_cordic.c **** 
 320              		.loc 1 305 3 is_stmt 1 view .LVU86
 305:Drivers/STM32H7xx_HAL_Driver/Src/stm32h7xx_hal_cordic.c **** 
 321              		.loc 1 305 24 is_stmt 0 view .LVU87
 322 002e 2061     		str	r0, [r4, #16]
 308:Drivers/STM32H7xx_HAL_Driver/Src/stm32h7xx_hal_cordic.c **** 
 323              		.loc 1 308 3 is_stmt 1 view .LVU88
 308:Drivers/STM32H7xx_HAL_Driver/Src/stm32h7xx_hal_cordic.c **** 
 324              		.loc 1 308 25 is_stmt 0 view .LVU89
 325 0030 6061     		str	r0, [r4, #20]
 311:Drivers/STM32H7xx_HAL_Driver/Src/stm32h7xx_hal_cordic.c **** 
 326              		.loc 1 311 3 is_stmt 1 view .LVU90
 311:Drivers/STM32H7xx_HAL_Driver/Src/stm32h7xx_hal_cordic.c **** 
 327              		.loc 1 311 18 is_stmt 0 view .LVU91
 328 0032 84F82100 		strb	r0, [r4, #33]
 314:Drivers/STM32H7xx_HAL_Driver/Src/stm32h7xx_hal_cordic.c **** 
 329              		.loc 1 314 3 is_stmt 1 view .LVU92
 314:Drivers/STM32H7xx_HAL_Driver/Src/stm32h7xx_hal_cordic.c **** 
 330              		.loc 1 314 17 is_stmt 0 view .LVU93
 331 0036 84F82000 		strb	r0, [r4, #32]
 317:Drivers/STM32H7xx_HAL_Driver/Src/stm32h7xx_hal_cordic.c **** }
 332              		.loc 1 317 3 is_stmt 1 view .LVU94
 318:Drivers/STM32H7xx_HAL_Driver/Src/stm32h7xx_hal_cordic.c **** 
 333              		.loc 1 318 1 is_stmt 0 view .LVU95
 334 003a 10BD     		pop	{r4, pc}
 335              	.LVL17:
 336              	.L22:
 337              		.cfi_def_cfa_offset 0
 338              		.cfi_restore 4
 339              		.cfi_restore 14
 274:Drivers/STM32H7xx_HAL_Driver/Src/stm32h7xx_hal_cordic.c ****   }
 340              		.loc 1 274 12 view .LVU96
 341 003c 0120     		movs	r0, #1
 342              	.LVL18:
 318:Drivers/STM32H7xx_HAL_Driver/Src/stm32h7xx_hal_cordic.c **** 
 343              		.loc 1 318 1 view .LVU97
ARM GAS  C:\Users\thewo\AppData\Local\Temp\ccqHaRNc.s 			page 30


 344 003e 7047     		bx	lr
 345              	.L28:
 346              		.align	2
 347              	.L27:
 348 0040 00440248 		.word	1208108032
 349 0044 00000000 		.word	.LC0
 350              		.cfi_endproc
 351              	.LFE351:
 353              		.section	.text.HAL_CORDIC_Configure,"ax",%progbits
 354              		.align	1
 355              		.global	HAL_CORDIC_Configure
 356              		.syntax unified
 357              		.thumb
 358              		.thumb_func
 360              	HAL_CORDIC_Configure:
 361              	.LVL19:
 362              	.LFB354:
 559:Drivers/STM32H7xx_HAL_Driver/Src/stm32h7xx_hal_cordic.c ****   HAL_StatusTypeDef status = HAL_OK;
 363              		.loc 1 559 1 is_stmt 1 view -0
 364              		.cfi_startproc
 365              		@ args = 0, pretend = 0, frame = 0
 366              		@ frame_needed = 0, uses_anonymous_args = 0
 559:Drivers/STM32H7xx_HAL_Driver/Src/stm32h7xx_hal_cordic.c ****   HAL_StatusTypeDef status = HAL_OK;
 367              		.loc 1 559 1 is_stmt 0 view .LVU99
 368 0000 38B5     		push	{r3, r4, r5, lr}
 369              		.cfi_def_cfa_offset 16
 370              		.cfi_offset 3, -16
 371              		.cfi_offset 4, -12
 372              		.cfi_offset 5, -8
 373              		.cfi_offset 14, -4
 374 0002 0546     		mov	r5, r0
 375 0004 0C46     		mov	r4, r1
 560:Drivers/STM32H7xx_HAL_Driver/Src/stm32h7xx_hal_cordic.c **** 
 376              		.loc 1 560 3 is_stmt 1 view .LVU100
 377              	.LVL20:
 563:Drivers/STM32H7xx_HAL_Driver/Src/stm32h7xx_hal_cordic.c ****   assert_param(IS_CORDIC_PRECISION(sConfig->Precision));
 378              		.loc 1 563 3 view .LVU101
 379 0006 0B68     		ldr	r3, [r1]
 380 0008 092B     		cmp	r3, #9
 381 000a 11D8     		bhi	.L44
 382              	.LVL21:
 383              	.L30:
 564:Drivers/STM32H7xx_HAL_Driver/Src/stm32h7xx_hal_cordic.c ****   assert_param(IS_CORDIC_SCALE(sConfig->Scale));
 384              		.loc 1 564 3 view .LVU102
 385 000c A369     		ldr	r3, [r4, #24]
 386 000e 102B     		cmp	r3, #16
 387 0010 18BF     		it	ne
 388 0012 202B     		cmpne	r3, #32
 389 0014 1BD0     		beq	.L31
 390 0016 902B     		cmp	r3, #144
 391 0018 19D0     		beq	.L31
 392 001a 52D8     		bhi	.L32
 393 001c 602B     		cmp	r3, #96
 394 001e 16D0     		beq	.L31
 395 0020 0CD8     		bhi	.L33
 396 0022 402B     		cmp	r3, #64
 397 0024 13D0     		beq	.L31
ARM GAS  C:\Users\thewo\AppData\Local\Temp\ccqHaRNc.s 			page 31


 398 0026 502B     		cmp	r3, #80
 399 0028 11D0     		beq	.L31
 400 002a 302B     		cmp	r3, #48
 401 002c 0AD1     		bne	.L34
 402 002e 0EE0     		b	.L31
 403              	.LVL22:
 404              	.L44:
 563:Drivers/STM32H7xx_HAL_Driver/Src/stm32h7xx_hal_cordic.c ****   assert_param(IS_CORDIC_PRECISION(sConfig->Precision));
 405              		.loc 1 563 3 is_stmt 0 discriminator 1 view .LVU103
 406 0030 40F23321 		movw	r1, #563
 407              	.LVL23:
 563:Drivers/STM32H7xx_HAL_Driver/Src/stm32h7xx_hal_cordic.c ****   assert_param(IS_CORDIC_PRECISION(sConfig->Precision));
 408              		.loc 1 563 3 discriminator 1 view .LVU104
 409 0034 4448     		ldr	r0, .L51
 410              	.LVL24:
 563:Drivers/STM32H7xx_HAL_Driver/Src/stm32h7xx_hal_cordic.c ****   assert_param(IS_CORDIC_PRECISION(sConfig->Precision));
 411              		.loc 1 563 3 discriminator 1 view .LVU105
 412 0036 FFF7FEFF 		bl	assert_failed
 413              	.LVL25:
 414 003a E7E7     		b	.L30
 415              	.L33:
 563:Drivers/STM32H7xx_HAL_Driver/Src/stm32h7xx_hal_cordic.c ****   assert_param(IS_CORDIC_PRECISION(sConfig->Precision));
 416              		.loc 1 563 3 discriminator 1 view .LVU106
 417 003c 702B     		cmp	r3, #112
 418 003e 06D0     		beq	.L31
 419 0040 802B     		cmp	r3, #128
 420 0042 04D0     		beq	.L31
 421              	.L34:
 564:Drivers/STM32H7xx_HAL_Driver/Src/stm32h7xx_hal_cordic.c ****   assert_param(IS_CORDIC_SCALE(sConfig->Scale));
 422              		.loc 1 564 3 discriminator 14 view .LVU107
 423 0044 4FF40D71 		mov	r1, #564
 424 0048 3F48     		ldr	r0, .L51
 425 004a FFF7FEFF 		bl	assert_failed
 426              	.LVL26:
 427              	.L31:
 565:Drivers/STM32H7xx_HAL_Driver/Src/stm32h7xx_hal_cordic.c ****   assert_param(IS_CORDIC_NBWRITE(sConfig->NbWrite));
 428              		.loc 1 565 3 is_stmt 1 view .LVU108
 429 004e 6368     		ldr	r3, [r4, #4]
 430 0050 002B     		cmp	r3, #0
 431 0052 18BF     		it	ne
 432 0054 B3F5807F 		cmpne	r3, #256
 433 0058 11D0     		beq	.L36
 565:Drivers/STM32H7xx_HAL_Driver/Src/stm32h7xx_hal_cordic.c ****   assert_param(IS_CORDIC_NBWRITE(sConfig->NbWrite));
 434              		.loc 1 565 3 is_stmt 0 discriminator 1 view .LVU109
 435 005a B3F5007F 		cmp	r3, #512
 436 005e 0ED0     		beq	.L36
 565:Drivers/STM32H7xx_HAL_Driver/Src/stm32h7xx_hal_cordic.c ****   assert_param(IS_CORDIC_NBWRITE(sConfig->NbWrite));
 437              		.loc 1 565 3 discriminator 2 view .LVU110
 438 0060 B3F5407F 		cmp	r3, #768
 439 0064 0BD0     		beq	.L36
 565:Drivers/STM32H7xx_HAL_Driver/Src/stm32h7xx_hal_cordic.c ****   assert_param(IS_CORDIC_NBWRITE(sConfig->NbWrite));
 440              		.loc 1 565 3 discriminator 3 view .LVU111
 441 0066 B3F5806F 		cmp	r3, #1024
 442 006a 08D0     		beq	.L36
 565:Drivers/STM32H7xx_HAL_Driver/Src/stm32h7xx_hal_cordic.c ****   assert_param(IS_CORDIC_NBWRITE(sConfig->NbWrite));
 443              		.loc 1 565 3 discriminator 4 view .LVU112
 444 006c B3F5A06F 		cmp	r3, #1280
ARM GAS  C:\Users\thewo\AppData\Local\Temp\ccqHaRNc.s 			page 32


 445 0070 05D0     		beq	.L36
 565:Drivers/STM32H7xx_HAL_Driver/Src/stm32h7xx_hal_cordic.c ****   assert_param(IS_CORDIC_NBWRITE(sConfig->NbWrite));
 446              		.loc 1 565 3 discriminator 5 view .LVU113
 447 0072 B3F5C06F 		cmp	r3, #1536
 448 0076 02D0     		beq	.L36
 565:Drivers/STM32H7xx_HAL_Driver/Src/stm32h7xx_hal_cordic.c ****   assert_param(IS_CORDIC_NBWRITE(sConfig->NbWrite));
 449              		.loc 1 565 3 discriminator 6 view .LVU114
 450 0078 B3F5E06F 		cmp	r3, #1792
 451 007c 30D1     		bne	.L45
 452              	.L36:
 566:Drivers/STM32H7xx_HAL_Driver/Src/stm32h7xx_hal_cordic.c ****   assert_param(IS_CORDIC_NBREAD(sConfig->NbRead));
 453              		.loc 1 566 3 is_stmt 1 view .LVU115
 454 007e 2369     		ldr	r3, [r4, #16]
 455 0080 002B     		cmp	r3, #0
 456 0082 18BF     		it	ne
 457 0084 B3F5801F 		cmpne	r3, #1048576
 458 0088 30D1     		bne	.L46
 459              	.L37:
 567:Drivers/STM32H7xx_HAL_Driver/Src/stm32h7xx_hal_cordic.c ****   assert_param(IS_CORDIC_INSIZE(sConfig->InSize));
 460              		.loc 1 567 3 view .LVU116
 461 008a 6369     		ldr	r3, [r4, #20]
 462 008c 002B     		cmp	r3, #0
 463 008e 18BF     		it	ne
 464 0090 B3F5002F 		cmpne	r3, #524288
 465 0094 30D1     		bne	.L47
 466              	.L38:
 568:Drivers/STM32H7xx_HAL_Driver/Src/stm32h7xx_hal_cordic.c ****   assert_param(IS_CORDIC_OUTSIZE(sConfig->OutSize));
 467              		.loc 1 568 3 view .LVU117
 468 0096 A368     		ldr	r3, [r4, #8]
 469 0098 002B     		cmp	r3, #0
 470 009a 18BF     		it	ne
 471 009c B3F5800F 		cmpne	r3, #4194304
 472 00a0 30D1     		bne	.L48
 473              	.L39:
 569:Drivers/STM32H7xx_HAL_Driver/Src/stm32h7xx_hal_cordic.c **** 
 474              		.loc 1 569 3 view .LVU118
 475 00a2 E368     		ldr	r3, [r4, #12]
 476 00a4 002B     		cmp	r3, #0
 477 00a6 18BF     		it	ne
 478 00a8 B3F5001F 		cmpne	r3, #2097152
 479 00ac 30D1     		bne	.L49
 480              	.L40:
 572:Drivers/STM32H7xx_HAL_Driver/Src/stm32h7xx_hal_cordic.c ****   {
 481              		.loc 1 572 3 view .LVU119
 572:Drivers/STM32H7xx_HAL_Driver/Src/stm32h7xx_hal_cordic.c ****   {
 482              		.loc 1 572 14 is_stmt 0 view .LVU120
 483 00ae 95F82130 		ldrb	r3, [r5, #33]	@ zero_extendqisi2
 572:Drivers/STM32H7xx_HAL_Driver/Src/stm32h7xx_hal_cordic.c ****   {
 484              		.loc 1 572 6 view .LVU121
 485 00b2 012B     		cmp	r3, #1
 486 00b4 32D0     		beq	.L50
 584:Drivers/STM32H7xx_HAL_Driver/Src/stm32h7xx_hal_cordic.c **** 
 487              		.loc 1 584 5 is_stmt 1 view .LVU122
 584:Drivers/STM32H7xx_HAL_Driver/Src/stm32h7xx_hal_cordic.c **** 
 488              		.loc 1 584 12 is_stmt 0 view .LVU123
 489 00b6 6B6A     		ldr	r3, [r5, #36]
 584:Drivers/STM32H7xx_HAL_Driver/Src/stm32h7xx_hal_cordic.c **** 
ARM GAS  C:\Users\thewo\AppData\Local\Temp\ccqHaRNc.s 			page 33


 490              		.loc 1 584 24 view .LVU124
 491 00b8 43F00203 		orr	r3, r3, #2
 492 00bc 6B62     		str	r3, [r5, #36]
 587:Drivers/STM32H7xx_HAL_Driver/Src/stm32h7xx_hal_cordic.c ****   }
 493              		.loc 1 587 5 is_stmt 1 view .LVU125
 494              	.LVL27:
 587:Drivers/STM32H7xx_HAL_Driver/Src/stm32h7xx_hal_cordic.c ****   }
 495              		.loc 1 587 12 is_stmt 0 view .LVU126
 496 00be 0120     		movs	r0, #1
 497              	.LVL28:
 498              	.L42:
 591:Drivers/STM32H7xx_HAL_Driver/Src/stm32h7xx_hal_cordic.c **** }
 499              		.loc 1 591 3 is_stmt 1 view .LVU127
 592:Drivers/STM32H7xx_HAL_Driver/Src/stm32h7xx_hal_cordic.c **** 
 500              		.loc 1 592 1 is_stmt 0 view .LVU128
 501 00c0 38BD     		pop	{r3, r4, r5, pc}
 502              	.LVL29:
 503              	.L32:
 592:Drivers/STM32H7xx_HAL_Driver/Src/stm32h7xx_hal_cordic.c **** 
 504              		.loc 1 592 1 view .LVU129
 505 00c2 D02B     		cmp	r3, #208
 506 00c4 C3D0     		beq	.L31
 507 00c6 06D8     		bhi	.L35
 508 00c8 B02B     		cmp	r3, #176
 509 00ca C0D0     		beq	.L31
 510 00cc C02B     		cmp	r3, #192
 511 00ce BED0     		beq	.L31
 512 00d0 A02B     		cmp	r3, #160
 513 00d2 B7D1     		bne	.L34
 514 00d4 BBE7     		b	.L31
 515              	.L35:
 516 00d6 E02B     		cmp	r3, #224
 517 00d8 B9D0     		beq	.L31
 518 00da F02B     		cmp	r3, #240
 519 00dc B2D1     		bne	.L34
 520 00de B6E7     		b	.L31
 521              	.L45:
 565:Drivers/STM32H7xx_HAL_Driver/Src/stm32h7xx_hal_cordic.c ****   assert_param(IS_CORDIC_NBWRITE(sConfig->NbWrite));
 522              		.loc 1 565 3 discriminator 7 view .LVU130
 523 00e0 40F23521 		movw	r1, #565
 524 00e4 1848     		ldr	r0, .L51
 525 00e6 FFF7FEFF 		bl	assert_failed
 526              	.LVL30:
 527 00ea C8E7     		b	.L36
 528              	.L46:
 566:Drivers/STM32H7xx_HAL_Driver/Src/stm32h7xx_hal_cordic.c ****   assert_param(IS_CORDIC_NBREAD(sConfig->NbRead));
 529              		.loc 1 566 3 discriminator 1 view .LVU131
 530 00ec 40F23621 		movw	r1, #566
 531 00f0 1548     		ldr	r0, .L51
 532 00f2 FFF7FEFF 		bl	assert_failed
 533              	.LVL31:
 534 00f6 C8E7     		b	.L37
 535              	.L47:
 567:Drivers/STM32H7xx_HAL_Driver/Src/stm32h7xx_hal_cordic.c ****   assert_param(IS_CORDIC_INSIZE(sConfig->InSize));
 536              		.loc 1 567 3 discriminator 1 view .LVU132
 537 00f8 40F23721 		movw	r1, #567
 538 00fc 1248     		ldr	r0, .L51
ARM GAS  C:\Users\thewo\AppData\Local\Temp\ccqHaRNc.s 			page 34


 539 00fe FFF7FEFF 		bl	assert_failed
 540              	.LVL32:
 541 0102 C8E7     		b	.L38
 542              	.L48:
 568:Drivers/STM32H7xx_HAL_Driver/Src/stm32h7xx_hal_cordic.c ****   assert_param(IS_CORDIC_OUTSIZE(sConfig->OutSize));
 543              		.loc 1 568 3 discriminator 1 view .LVU133
 544 0104 4FF40E71 		mov	r1, #568
 545 0108 0F48     		ldr	r0, .L51
 546 010a FFF7FEFF 		bl	assert_failed
 547              	.LVL33:
 548 010e C8E7     		b	.L39
 549              	.L49:
 569:Drivers/STM32H7xx_HAL_Driver/Src/stm32h7xx_hal_cordic.c **** 
 550              		.loc 1 569 3 discriminator 1 view .LVU134
 551 0110 40F23921 		movw	r1, #569
 552 0114 0C48     		ldr	r0, .L51
 553 0116 FFF7FEFF 		bl	assert_failed
 554              	.LVL34:
 555 011a C8E7     		b	.L40
 556              	.L50:
 575:Drivers/STM32H7xx_HAL_Driver/Src/stm32h7xx_hal_cordic.c ****                (CORDIC_CSR_FUNC | CORDIC_CSR_PRECISION | CORDIC_CSR_SCALE |                    \
 557              		.loc 1 575 5 is_stmt 1 view .LVU135
 558 011c 2968     		ldr	r1, [r5]
 559 011e 0B68     		ldr	r3, [r1]
 560 0120 0A4A     		ldr	r2, .L51+4
 561 0122 1A40     		ands	r2, r2, r3
 562 0124 2368     		ldr	r3, [r4]
 563 0126 A069     		ldr	r0, [r4, #24]
 564 0128 0343     		orrs	r3, r3, r0
 565 012a 6068     		ldr	r0, [r4, #4]
 566 012c 0343     		orrs	r3, r3, r0
 567 012e 2069     		ldr	r0, [r4, #16]
 568 0130 0343     		orrs	r3, r3, r0
 569 0132 6069     		ldr	r0, [r4, #20]
 570 0134 0343     		orrs	r3, r3, r0
 571 0136 A068     		ldr	r0, [r4, #8]
 572 0138 0343     		orrs	r3, r3, r0
 573 013a E068     		ldr	r0, [r4, #12]
 574 013c 0343     		orrs	r3, r3, r0
 575 013e 1A43     		orrs	r2, r2, r3
 576 0140 0A60     		str	r2, [r1]
 560:Drivers/STM32H7xx_HAL_Driver/Src/stm32h7xx_hal_cordic.c **** 
 577              		.loc 1 560 21 is_stmt 0 view .LVU136
 578 0142 0020     		movs	r0, #0
 579 0144 BCE7     		b	.L42
 580              	.L52:
 581 0146 00BF     		.align	2
 582              	.L51:
 583 0148 00000000 		.word	.LC0
 584 014c 00F887FF 		.word	-7866368
 585              		.cfi_endproc
 586              	.LFE354:
 588              		.section	.text.HAL_CORDIC_Calculate,"ax",%progbits
 589              		.align	1
 590              		.global	HAL_CORDIC_Calculate
 591              		.syntax unified
 592              		.thumb
ARM GAS  C:\Users\thewo\AppData\Local\Temp\ccqHaRNc.s 			page 35


 593              		.thumb_func
 595              	HAL_CORDIC_Calculate:
 596              	.LVL35:
 597              	.LFB355:
 607:Drivers/STM32H7xx_HAL_Driver/Src/stm32h7xx_hal_cordic.c ****   uint32_t tickstart;
 598              		.loc 1 607 1 is_stmt 1 view -0
 599              		.cfi_startproc
 600              		@ args = 4, pretend = 0, frame = 8
 601              		@ frame_needed = 0, uses_anonymous_args = 0
 607:Drivers/STM32H7xx_HAL_Driver/Src/stm32h7xx_hal_cordic.c ****   uint32_t tickstart;
 602              		.loc 1 607 1 is_stmt 0 view .LVU138
 603 0000 2DE9F041 		push	{r4, r5, r6, r7, r8, lr}
 604              		.cfi_def_cfa_offset 24
 605              		.cfi_offset 4, -24
 606              		.cfi_offset 5, -20
 607              		.cfi_offset 6, -16
 608              		.cfi_offset 7, -12
 609              		.cfi_offset 8, -8
 610              		.cfi_offset 14, -4
 611 0004 82B0     		sub	sp, sp, #8
 612              		.cfi_def_cfa_offset 32
 613 0006 0446     		mov	r4, r0
 614 0008 089D     		ldr	r5, [sp, #32]
 608:Drivers/STM32H7xx_HAL_Driver/Src/stm32h7xx_hal_cordic.c ****   uint32_t index;
 615              		.loc 1 608 3 is_stmt 1 view .LVU139
 609:Drivers/STM32H7xx_HAL_Driver/Src/stm32h7xx_hal_cordic.c ****   const int32_t *p_tmp_in_buff = pInBuff;
 616              		.loc 1 609 3 view .LVU140
 610:Drivers/STM32H7xx_HAL_Driver/Src/stm32h7xx_hal_cordic.c ****   int32_t *p_tmp_out_buff = pOutBuff;
 617              		.loc 1 610 3 view .LVU141
 610:Drivers/STM32H7xx_HAL_Driver/Src/stm32h7xx_hal_cordic.c ****   int32_t *p_tmp_out_buff = pOutBuff;
 618              		.loc 1 610 18 is_stmt 0 view .LVU142
 619 000a 0191     		str	r1, [sp, #4]
 611:Drivers/STM32H7xx_HAL_Driver/Src/stm32h7xx_hal_cordic.c **** 
 620              		.loc 1 611 3 is_stmt 1 view .LVU143
 611:Drivers/STM32H7xx_HAL_Driver/Src/stm32h7xx_hal_cordic.c **** 
 621              		.loc 1 611 12 is_stmt 0 view .LVU144
 622 000c 0092     		str	r2, [sp]
 614:Drivers/STM32H7xx_HAL_Driver/Src/stm32h7xx_hal_cordic.c ****   {
 623              		.loc 1 614 3 is_stmt 1 view .LVU145
 614:Drivers/STM32H7xx_HAL_Driver/Src/stm32h7xx_hal_cordic.c ****   {
 624              		.loc 1 614 6 is_stmt 0 view .LVU146
 625 000e 002A     		cmp	r2, #0
 626 0010 18BF     		it	ne
 627 0012 0029     		cmpne	r1, #0
 628 0014 0ED0     		beq	.L54
 629 0016 1E46     		mov	r6, r3
 614:Drivers/STM32H7xx_HAL_Driver/Src/stm32h7xx_hal_cordic.c ****   {
 630              		.loc 1 614 47 discriminator 1 view .LVU147
 631 0018 63B1     		cbz	r3, .L54
 624:Drivers/STM32H7xx_HAL_Driver/Src/stm32h7xx_hal_cordic.c ****   {
 632              		.loc 1 624 3 is_stmt 1 view .LVU148
 624:Drivers/STM32H7xx_HAL_Driver/Src/stm32h7xx_hal_cordic.c ****   {
 633              		.loc 1 624 14 is_stmt 0 view .LVU149
 634 001a 90F82130 		ldrb	r3, [r0, #33]	@ zero_extendqisi2
 635              	.LVL36:
 624:Drivers/STM32H7xx_HAL_Driver/Src/stm32h7xx_hal_cordic.c ****   {
 636              		.loc 1 624 14 view .LVU150
ARM GAS  C:\Users\thewo\AppData\Local\Temp\ccqHaRNc.s 			page 36


 637 001e 5FFA83F8 		uxtb	r8, r3
 624:Drivers/STM32H7xx_HAL_Driver/Src/stm32h7xx_hal_cordic.c ****   {
 638              		.loc 1 624 6 view .LVU151
 639 0022 012B     		cmp	r3, #1
 640 0024 10D0     		beq	.L63
 681:Drivers/STM32H7xx_HAL_Driver/Src/stm32h7xx_hal_cordic.c **** 
 641              		.loc 1 681 5 is_stmt 1 view .LVU152
 681:Drivers/STM32H7xx_HAL_Driver/Src/stm32h7xx_hal_cordic.c **** 
 642              		.loc 1 681 12 is_stmt 0 view .LVU153
 643 0026 436A     		ldr	r3, [r0, #36]
 681:Drivers/STM32H7xx_HAL_Driver/Src/stm32h7xx_hal_cordic.c **** 
 644              		.loc 1 681 24 view .LVU154
 645 0028 43F00203 		orr	r3, r3, #2
 646 002c 4362     		str	r3, [r0, #36]
 684:Drivers/STM32H7xx_HAL_Driver/Src/stm32h7xx_hal_cordic.c ****   }
 647              		.loc 1 684 5 is_stmt 1 view .LVU155
 684:Drivers/STM32H7xx_HAL_Driver/Src/stm32h7xx_hal_cordic.c ****   }
 648              		.loc 1 684 12 is_stmt 0 view .LVU156
 649 002e 4FF00108 		mov	r8, #1
 650 0032 05E0     		b	.L56
 651              	.LVL37:
 652              	.L54:
 617:Drivers/STM32H7xx_HAL_Driver/Src/stm32h7xx_hal_cordic.c **** 
 653              		.loc 1 617 5 is_stmt 1 view .LVU157
 617:Drivers/STM32H7xx_HAL_Driver/Src/stm32h7xx_hal_cordic.c **** 
 654              		.loc 1 617 12 is_stmt 0 view .LVU158
 655 0034 636A     		ldr	r3, [r4, #36]
 656              	.LVL38:
 617:Drivers/STM32H7xx_HAL_Driver/Src/stm32h7xx_hal_cordic.c **** 
 657              		.loc 1 617 24 view .LVU159
 658 0036 43F00103 		orr	r3, r3, #1
 659 003a 6362     		str	r3, [r4, #36]
 620:Drivers/STM32H7xx_HAL_Driver/Src/stm32h7xx_hal_cordic.c ****   }
 660              		.loc 1 620 5 is_stmt 1 view .LVU160
 620:Drivers/STM32H7xx_HAL_Driver/Src/stm32h7xx_hal_cordic.c ****   }
 661              		.loc 1 620 12 is_stmt 0 view .LVU161
 662 003c 4FF00108 		mov	r8, #1
 663              	.LVL39:
 664              	.L56:
 686:Drivers/STM32H7xx_HAL_Driver/Src/stm32h7xx_hal_cordic.c **** 
 665              		.loc 1 686 1 view .LVU162
 666 0040 4046     		mov	r0, r8
 667 0042 02B0     		add	sp, sp, #8
 668              		.cfi_remember_state
 669              		.cfi_def_cfa_offset 24
 670              		@ sp needed
 671 0044 BDE8F081 		pop	{r4, r5, r6, r7, r8, pc}
 672              	.LVL40:
 673              	.L63:
 674              		.cfi_restore_state
 627:Drivers/STM32H7xx_HAL_Driver/Src/stm32h7xx_hal_cordic.c **** 
 675              		.loc 1 627 5 is_stmt 1 view .LVU163
 627:Drivers/STM32H7xx_HAL_Driver/Src/stm32h7xx_hal_cordic.c **** 
 676              		.loc 1 627 24 is_stmt 0 view .LVU164
 677 0048 0023     		movs	r3, #0
 678 004a 4362     		str	r3, [r0, #36]
 630:Drivers/STM32H7xx_HAL_Driver/Src/stm32h7xx_hal_cordic.c **** 
ARM GAS  C:\Users\thewo\AppData\Local\Temp\ccqHaRNc.s 			page 37


 679              		.loc 1 630 5 is_stmt 1 view .LVU165
 630:Drivers/STM32H7xx_HAL_Driver/Src/stm32h7xx_hal_cordic.c **** 
 680              		.loc 1 630 20 is_stmt 0 view .LVU166
 681 004c 0223     		movs	r3, #2
 682 004e 80F82130 		strb	r3, [r0, #33]
 633:Drivers/STM32H7xx_HAL_Driver/Src/stm32h7xx_hal_cordic.c **** 
 683              		.loc 1 633 5 is_stmt 1 view .LVU167
 633:Drivers/STM32H7xx_HAL_Driver/Src/stm32h7xx_hal_cordic.c **** 
 684              		.loc 1 633 17 is_stmt 0 view .LVU168
 685 0052 FFF7FEFF 		bl	HAL_GetTick
 686              	.LVL41:
 633:Drivers/STM32H7xx_HAL_Driver/Src/stm32h7xx_hal_cordic.c **** 
 687              		.loc 1 633 17 view .LVU169
 688 0056 0746     		mov	r7, r0
 689              	.LVL42:
 636:Drivers/STM32H7xx_HAL_Driver/Src/stm32h7xx_hal_cordic.c **** 
 690              		.loc 1 636 5 is_stmt 1 view .LVU170
 691 0058 01A9     		add	r1, sp, #4
 692 005a 2046     		mov	r0, r4
 693              	.LVL43:
 636:Drivers/STM32H7xx_HAL_Driver/Src/stm32h7xx_hal_cordic.c **** 
 694              		.loc 1 636 5 is_stmt 0 view .LVU171
 695 005c FFF7FEFF 		bl	CORDIC_WriteInDataIncrementPtr
 696              	.LVL44:
 640:Drivers/STM32H7xx_HAL_Driver/Src/stm32h7xx_hal_cordic.c ****     {
 697              		.loc 1 640 5 is_stmt 1 view .LVU172
 640:Drivers/STM32H7xx_HAL_Driver/Src/stm32h7xx_hal_cordic.c ****     {
 698              		.loc 1 640 16 is_stmt 0 view .LVU173
 699 0060 013E     		subs	r6, r6, #1
 700              	.LVL45:
 640:Drivers/STM32H7xx_HAL_Driver/Src/stm32h7xx_hal_cordic.c ****     {
 701              		.loc 1 640 5 view .LVU174
 702 0062 16E0     		b	.L58
 703              	.LVL46:
 704              	.L59:
 663:Drivers/STM32H7xx_HAL_Driver/Src/stm32h7xx_hal_cordic.c **** 
 705              		.loc 1 663 16 is_stmt 1 view .LVU175
 706 0064 2368     		ldr	r3, [r4]
 707 0066 1A68     		ldr	r2, [r3]
 708 0068 002A     		cmp	r2, #0
 709 006a 0DDB     		blt	.L64
 710              	.L60:
 646:Drivers/STM32H7xx_HAL_Driver/Src/stm32h7xx_hal_cordic.c ****       {
 711              		.loc 1 646 7 view .LVU176
 649:Drivers/STM32H7xx_HAL_Driver/Src/stm32h7xx_hal_cordic.c ****         {
 712              		.loc 1 649 9 view .LVU177
 649:Drivers/STM32H7xx_HAL_Driver/Src/stm32h7xx_hal_cordic.c ****         {
 713              		.loc 1 649 12 is_stmt 0 view .LVU178
 714 006c B5F1FF3F 		cmp	r5, #-1
 715 0070 F8D0     		beq	.L59
 651:Drivers/STM32H7xx_HAL_Driver/Src/stm32h7xx_hal_cordic.c ****           {
 716              		.loc 1 651 11 is_stmt 1 view .LVU179
 651:Drivers/STM32H7xx_HAL_Driver/Src/stm32h7xx_hal_cordic.c ****           {
 717              		.loc 1 651 16 is_stmt 0 view .LVU180
 718 0072 FFF7FEFF 		bl	HAL_GetTick
 719              	.LVL47:
 651:Drivers/STM32H7xx_HAL_Driver/Src/stm32h7xx_hal_cordic.c ****           {
ARM GAS  C:\Users\thewo\AppData\Local\Temp\ccqHaRNc.s 			page 38


 720              		.loc 1 651 30 discriminator 1 view .LVU181
 721 0076 C01B     		subs	r0, r0, r7
 651:Drivers/STM32H7xx_HAL_Driver/Src/stm32h7xx_hal_cordic.c ****           {
 722              		.loc 1 651 14 discriminator 1 view .LVU182
 723 0078 A842     		cmp	r0, r5
 724 007a F3D9     		bls	.L59
 654:Drivers/STM32H7xx_HAL_Driver/Src/stm32h7xx_hal_cordic.c **** 
 725              		.loc 1 654 13 is_stmt 1 view .LVU183
 654:Drivers/STM32H7xx_HAL_Driver/Src/stm32h7xx_hal_cordic.c **** 
 726              		.loc 1 654 32 is_stmt 0 view .LVU184
 727 007c 0423     		movs	r3, #4
 728 007e 6362     		str	r3, [r4, #36]
 657:Drivers/STM32H7xx_HAL_Driver/Src/stm32h7xx_hal_cordic.c **** 
 729              		.loc 1 657 13 is_stmt 1 view .LVU185
 657:Drivers/STM32H7xx_HAL_Driver/Src/stm32h7xx_hal_cordic.c **** 
 730              		.loc 1 657 28 is_stmt 0 view .LVU186
 731 0080 0123     		movs	r3, #1
 732 0082 84F82130 		strb	r3, [r4, #33]
 660:Drivers/STM32H7xx_HAL_Driver/Src/stm32h7xx_hal_cordic.c ****           }
 733              		.loc 1 660 13 is_stmt 1 view .LVU187
 660:Drivers/STM32H7xx_HAL_Driver/Src/stm32h7xx_hal_cordic.c ****           }
 734              		.loc 1 660 20 is_stmt 0 view .LVU188
 735 0086 DBE7     		b	.L56
 736              	.L64:
 666:Drivers/STM32H7xx_HAL_Driver/Src/stm32h7xx_hal_cordic.c ****     }
 737              		.loc 1 666 7 is_stmt 1 view .LVU189
 738 0088 6946     		mov	r1, sp
 739 008a 2046     		mov	r0, r4
 740 008c FFF7FEFF 		bl	CORDIC_ReadOutDataIncrementPtr
 741              	.LVL48:
 640:Drivers/STM32H7xx_HAL_Driver/Src/stm32h7xx_hal_cordic.c ****     {
 742              		.loc 1 640 50 discriminator 2 view .LVU190
 743 0090 013E     		subs	r6, r6, #1
 744              	.LVL49:
 745              	.L58:
 640:Drivers/STM32H7xx_HAL_Driver/Src/stm32h7xx_hal_cordic.c ****     {
 746              		.loc 1 640 39 discriminator 1 view .LVU191
 747 0092 26B1     		cbz	r6, .L65
 643:Drivers/STM32H7xx_HAL_Driver/Src/stm32h7xx_hal_cordic.c **** 
 748              		.loc 1 643 7 view .LVU192
 749 0094 01A9     		add	r1, sp, #4
 750 0096 2046     		mov	r0, r4
 751 0098 FFF7FEFF 		bl	CORDIC_WriteInDataIncrementPtr
 752              	.LVL50:
 753 009c E6E7     		b	.L60
 754              	.L65:
 670:Drivers/STM32H7xx_HAL_Driver/Src/stm32h7xx_hal_cordic.c **** 
 755              		.loc 1 670 5 view .LVU193
 756 009e 6946     		mov	r1, sp
 757 00a0 2046     		mov	r0, r4
 758 00a2 FFF7FEFF 		bl	CORDIC_ReadOutDataIncrementPtr
 759              	.LVL51:
 673:Drivers/STM32H7xx_HAL_Driver/Src/stm32h7xx_hal_cordic.c **** 
 760              		.loc 1 673 5 view .LVU194
 673:Drivers/STM32H7xx_HAL_Driver/Src/stm32h7xx_hal_cordic.c **** 
 761              		.loc 1 673 20 is_stmt 0 view .LVU195
 762 00a6 0123     		movs	r3, #1
ARM GAS  C:\Users\thewo\AppData\Local\Temp\ccqHaRNc.s 			page 39


 763 00a8 84F82130 		strb	r3, [r4, #33]
 676:Drivers/STM32H7xx_HAL_Driver/Src/stm32h7xx_hal_cordic.c ****   }
 764              		.loc 1 676 5 is_stmt 1 view .LVU196
 676:Drivers/STM32H7xx_HAL_Driver/Src/stm32h7xx_hal_cordic.c ****   }
 765              		.loc 1 676 12 is_stmt 0 view .LVU197
 766 00ac 4FF00008 		mov	r8, #0
 767 00b0 C6E7     		b	.L56
 768              		.cfi_endproc
 769              	.LFE355:
 771              		.section	.text.HAL_CORDIC_CalculateZO,"ax",%progbits
 772              		.align	1
 773              		.global	HAL_CORDIC_CalculateZO
 774              		.syntax unified
 775              		.thumb
 776              		.thumb_func
 778              	HAL_CORDIC_CalculateZO:
 779              	.LVL52:
 780              	.LFB356:
 701:Drivers/STM32H7xx_HAL_Driver/Src/stm32h7xx_hal_cordic.c ****   uint32_t tickstart;
 781              		.loc 1 701 1 is_stmt 1 view -0
 782              		.cfi_startproc
 783              		@ args = 4, pretend = 0, frame = 8
 784              		@ frame_needed = 0, uses_anonymous_args = 0
 701:Drivers/STM32H7xx_HAL_Driver/Src/stm32h7xx_hal_cordic.c ****   uint32_t tickstart;
 785              		.loc 1 701 1 is_stmt 0 view .LVU199
 786 0000 2DE9F041 		push	{r4, r5, r6, r7, r8, lr}
 787              		.cfi_def_cfa_offset 24
 788              		.cfi_offset 4, -24
 789              		.cfi_offset 5, -20
 790              		.cfi_offset 6, -16
 791              		.cfi_offset 7, -12
 792              		.cfi_offset 8, -8
 793              		.cfi_offset 14, -4
 794 0004 82B0     		sub	sp, sp, #8
 795              		.cfi_def_cfa_offset 32
 796 0006 0446     		mov	r4, r0
 797 0008 089E     		ldr	r6, [sp, #32]
 702:Drivers/STM32H7xx_HAL_Driver/Src/stm32h7xx_hal_cordic.c ****   uint32_t index;
 798              		.loc 1 702 3 is_stmt 1 view .LVU200
 703:Drivers/STM32H7xx_HAL_Driver/Src/stm32h7xx_hal_cordic.c ****   const int32_t *p_tmp_in_buff = pInBuff;
 799              		.loc 1 703 3 view .LVU201
 704:Drivers/STM32H7xx_HAL_Driver/Src/stm32h7xx_hal_cordic.c ****   int32_t *p_tmp_out_buff = pOutBuff;
 800              		.loc 1 704 3 view .LVU202
 704:Drivers/STM32H7xx_HAL_Driver/Src/stm32h7xx_hal_cordic.c ****   int32_t *p_tmp_out_buff = pOutBuff;
 801              		.loc 1 704 18 is_stmt 0 view .LVU203
 802 000a 0191     		str	r1, [sp, #4]
 705:Drivers/STM32H7xx_HAL_Driver/Src/stm32h7xx_hal_cordic.c **** 
 803              		.loc 1 705 3 is_stmt 1 view .LVU204
 705:Drivers/STM32H7xx_HAL_Driver/Src/stm32h7xx_hal_cordic.c **** 
 804              		.loc 1 705 12 is_stmt 0 view .LVU205
 805 000c 0092     		str	r2, [sp]
 708:Drivers/STM32H7xx_HAL_Driver/Src/stm32h7xx_hal_cordic.c ****   {
 806              		.loc 1 708 3 is_stmt 1 view .LVU206
 708:Drivers/STM32H7xx_HAL_Driver/Src/stm32h7xx_hal_cordic.c ****   {
 807              		.loc 1 708 6 is_stmt 0 view .LVU207
 808 000e 002A     		cmp	r2, #0
 809 0010 18BF     		it	ne
ARM GAS  C:\Users\thewo\AppData\Local\Temp\ccqHaRNc.s 			page 40


 810 0012 0029     		cmpne	r1, #0
 811 0014 0CD0     		beq	.L67
 812 0016 1D46     		mov	r5, r3
 708:Drivers/STM32H7xx_HAL_Driver/Src/stm32h7xx_hal_cordic.c ****   {
 813              		.loc 1 708 47 discriminator 1 view .LVU208
 814 0018 53B1     		cbz	r3, .L67
 718:Drivers/STM32H7xx_HAL_Driver/Src/stm32h7xx_hal_cordic.c ****   {
 815              		.loc 1 718 3 is_stmt 1 view .LVU209
 718:Drivers/STM32H7xx_HAL_Driver/Src/stm32h7xx_hal_cordic.c ****   {
 816              		.loc 1 718 14 is_stmt 0 view .LVU210
 817 001a 90F82130 		ldrb	r3, [r0, #33]	@ zero_extendqisi2
 818              	.LVL53:
 718:Drivers/STM32H7xx_HAL_Driver/Src/stm32h7xx_hal_cordic.c ****   {
 819              		.loc 1 718 14 view .LVU211
 820 001e DFB2     		uxtb	r7, r3
 718:Drivers/STM32H7xx_HAL_Driver/Src/stm32h7xx_hal_cordic.c ****   {
 821              		.loc 1 718 6 view .LVU212
 822 0020 012B     		cmp	r3, #1
 823 0022 0ED0     		beq	.L75
 775:Drivers/STM32H7xx_HAL_Driver/Src/stm32h7xx_hal_cordic.c **** 
 824              		.loc 1 775 5 is_stmt 1 view .LVU213
 775:Drivers/STM32H7xx_HAL_Driver/Src/stm32h7xx_hal_cordic.c **** 
 825              		.loc 1 775 12 is_stmt 0 view .LVU214
 826 0024 436A     		ldr	r3, [r0, #36]
 775:Drivers/STM32H7xx_HAL_Driver/Src/stm32h7xx_hal_cordic.c **** 
 827              		.loc 1 775 24 view .LVU215
 828 0026 43F00203 		orr	r3, r3, #2
 829 002a 4362     		str	r3, [r0, #36]
 778:Drivers/STM32H7xx_HAL_Driver/Src/stm32h7xx_hal_cordic.c ****   }
 830              		.loc 1 778 5 is_stmt 1 view .LVU216
 778:Drivers/STM32H7xx_HAL_Driver/Src/stm32h7xx_hal_cordic.c ****   }
 831              		.loc 1 778 12 is_stmt 0 view .LVU217
 832 002c 0127     		movs	r7, #1
 833 002e 04E0     		b	.L69
 834              	.LVL54:
 835              	.L67:
 711:Drivers/STM32H7xx_HAL_Driver/Src/stm32h7xx_hal_cordic.c **** 
 836              		.loc 1 711 5 is_stmt 1 view .LVU218
 711:Drivers/STM32H7xx_HAL_Driver/Src/stm32h7xx_hal_cordic.c **** 
 837              		.loc 1 711 12 is_stmt 0 view .LVU219
 838 0030 636A     		ldr	r3, [r4, #36]
 839              	.LVL55:
 711:Drivers/STM32H7xx_HAL_Driver/Src/stm32h7xx_hal_cordic.c **** 
 840              		.loc 1 711 24 view .LVU220
 841 0032 43F00103 		orr	r3, r3, #1
 842 0036 6362     		str	r3, [r4, #36]
 714:Drivers/STM32H7xx_HAL_Driver/Src/stm32h7xx_hal_cordic.c ****   }
 843              		.loc 1 714 5 is_stmt 1 view .LVU221
 714:Drivers/STM32H7xx_HAL_Driver/Src/stm32h7xx_hal_cordic.c ****   }
 844              		.loc 1 714 12 is_stmt 0 view .LVU222
 845 0038 0127     		movs	r7, #1
 846              	.LVL56:
 847              	.L69:
 780:Drivers/STM32H7xx_HAL_Driver/Src/stm32h7xx_hal_cordic.c **** 
 848              		.loc 1 780 1 view .LVU223
 849 003a 3846     		mov	r0, r7
 850 003c 02B0     		add	sp, sp, #8
ARM GAS  C:\Users\thewo\AppData\Local\Temp\ccqHaRNc.s 			page 41


 851              		.cfi_remember_state
 852              		.cfi_def_cfa_offset 24
 853              		@ sp needed
 854 003e BDE8F081 		pop	{r4, r5, r6, r7, r8, pc}
 855              	.LVL57:
 856              	.L75:
 857              		.cfi_restore_state
 721:Drivers/STM32H7xx_HAL_Driver/Src/stm32h7xx_hal_cordic.c **** 
 858              		.loc 1 721 5 is_stmt 1 view .LVU224
 721:Drivers/STM32H7xx_HAL_Driver/Src/stm32h7xx_hal_cordic.c **** 
 859              		.loc 1 721 24 is_stmt 0 view .LVU225
 860 0042 0023     		movs	r3, #0
 861 0044 4362     		str	r3, [r0, #36]
 724:Drivers/STM32H7xx_HAL_Driver/Src/stm32h7xx_hal_cordic.c **** 
 862              		.loc 1 724 5 is_stmt 1 view .LVU226
 724:Drivers/STM32H7xx_HAL_Driver/Src/stm32h7xx_hal_cordic.c **** 
 863              		.loc 1 724 20 is_stmt 0 view .LVU227
 864 0046 0223     		movs	r3, #2
 865 0048 80F82130 		strb	r3, [r0, #33]
 727:Drivers/STM32H7xx_HAL_Driver/Src/stm32h7xx_hal_cordic.c **** 
 866              		.loc 1 727 5 is_stmt 1 view .LVU228
 727:Drivers/STM32H7xx_HAL_Driver/Src/stm32h7xx_hal_cordic.c **** 
 867              		.loc 1 727 17 is_stmt 0 view .LVU229
 868 004c FFF7FEFF 		bl	HAL_GetTick
 869              	.LVL58:
 727:Drivers/STM32H7xx_HAL_Driver/Src/stm32h7xx_hal_cordic.c **** 
 870              		.loc 1 727 17 view .LVU230
 871 0050 8046     		mov	r8, r0
 872              	.LVL59:
 730:Drivers/STM32H7xx_HAL_Driver/Src/stm32h7xx_hal_cordic.c **** 
 873              		.loc 1 730 5 is_stmt 1 view .LVU231
 874 0052 01A9     		add	r1, sp, #4
 875 0054 2046     		mov	r0, r4
 876              	.LVL60:
 730:Drivers/STM32H7xx_HAL_Driver/Src/stm32h7xx_hal_cordic.c **** 
 877              		.loc 1 730 5 is_stmt 0 view .LVU232
 878 0056 FFF7FEFF 		bl	CORDIC_WriteInDataIncrementPtr
 879              	.LVL61:
 734:Drivers/STM32H7xx_HAL_Driver/Src/stm32h7xx_hal_cordic.c ****     {
 880              		.loc 1 734 5 is_stmt 1 view .LVU233
 734:Drivers/STM32H7xx_HAL_Driver/Src/stm32h7xx_hal_cordic.c ****     {
 881              		.loc 1 734 16 is_stmt 0 view .LVU234
 882 005a 013D     		subs	r5, r5, #1
 883              	.LVL62:
 734:Drivers/STM32H7xx_HAL_Driver/Src/stm32h7xx_hal_cordic.c ****     {
 884              		.loc 1 734 5 view .LVU235
 885 005c 00E0     		b	.L71
 886              	.LVL63:
 887              	.L72:
 734:Drivers/STM32H7xx_HAL_Driver/Src/stm32h7xx_hal_cordic.c ****     {
 888              		.loc 1 734 50 is_stmt 1 discriminator 2 view .LVU236
 889 005e 013D     		subs	r5, r5, #1
 890              	.LVL64:
 891              	.L71:
 734:Drivers/STM32H7xx_HAL_Driver/Src/stm32h7xx_hal_cordic.c ****     {
 892              		.loc 1 734 39 discriminator 1 view .LVU237
 893 0060 B5B1     		cbz	r5, .L76
ARM GAS  C:\Users\thewo\AppData\Local\Temp\ccqHaRNc.s 			page 42


 737:Drivers/STM32H7xx_HAL_Driver/Src/stm32h7xx_hal_cordic.c **** 
 894              		.loc 1 737 7 view .LVU238
 895 0062 01A9     		add	r1, sp, #4
 896 0064 2046     		mov	r0, r4
 897 0066 FFF7FEFF 		bl	CORDIC_WriteInDataIncrementPtr
 898              	.LVL65:
 742:Drivers/STM32H7xx_HAL_Driver/Src/stm32h7xx_hal_cordic.c **** 
 899              		.loc 1 742 7 view .LVU239
 900 006a 6946     		mov	r1, sp
 901 006c 2046     		mov	r0, r4
 902 006e FFF7FEFF 		bl	CORDIC_ReadOutDataIncrementPtr
 903              	.LVL66:
 745:Drivers/STM32H7xx_HAL_Driver/Src/stm32h7xx_hal_cordic.c ****       {
 904              		.loc 1 745 7 view .LVU240
 745:Drivers/STM32H7xx_HAL_Driver/Src/stm32h7xx_hal_cordic.c ****       {
 905              		.loc 1 745 10 is_stmt 0 view .LVU241
 906 0072 B6F1FF3F 		cmp	r6, #-1
 907 0076 F2D0     		beq	.L72
 747:Drivers/STM32H7xx_HAL_Driver/Src/stm32h7xx_hal_cordic.c ****         {
 908              		.loc 1 747 9 is_stmt 1 view .LVU242
 747:Drivers/STM32H7xx_HAL_Driver/Src/stm32h7xx_hal_cordic.c ****         {
 909              		.loc 1 747 14 is_stmt 0 view .LVU243
 910 0078 FFF7FEFF 		bl	HAL_GetTick
 911              	.LVL67:
 747:Drivers/STM32H7xx_HAL_Driver/Src/stm32h7xx_hal_cordic.c ****         {
 912              		.loc 1 747 28 discriminator 1 view .LVU244
 913 007c A0EB0800 		sub	r0, r0, r8
 747:Drivers/STM32H7xx_HAL_Driver/Src/stm32h7xx_hal_cordic.c ****         {
 914              		.loc 1 747 12 discriminator 1 view .LVU245
 915 0080 B042     		cmp	r0, r6
 916 0082 ECD9     		bls	.L72
 750:Drivers/STM32H7xx_HAL_Driver/Src/stm32h7xx_hal_cordic.c **** 
 917              		.loc 1 750 11 is_stmt 1 view .LVU246
 750:Drivers/STM32H7xx_HAL_Driver/Src/stm32h7xx_hal_cordic.c **** 
 918              		.loc 1 750 30 is_stmt 0 view .LVU247
 919 0084 0423     		movs	r3, #4
 920 0086 6362     		str	r3, [r4, #36]
 753:Drivers/STM32H7xx_HAL_Driver/Src/stm32h7xx_hal_cordic.c **** 
 921              		.loc 1 753 11 is_stmt 1 view .LVU248
 753:Drivers/STM32H7xx_HAL_Driver/Src/stm32h7xx_hal_cordic.c **** 
 922              		.loc 1 753 26 is_stmt 0 view .LVU249
 923 0088 0123     		movs	r3, #1
 924 008a 84F82130 		strb	r3, [r4, #33]
 756:Drivers/STM32H7xx_HAL_Driver/Src/stm32h7xx_hal_cordic.c ****         }
 925              		.loc 1 756 11 is_stmt 1 view .LVU250
 756:Drivers/STM32H7xx_HAL_Driver/Src/stm32h7xx_hal_cordic.c ****         }
 926              		.loc 1 756 18 is_stmt 0 view .LVU251
 927 008e D4E7     		b	.L69
 928              	.L76:
 764:Drivers/STM32H7xx_HAL_Driver/Src/stm32h7xx_hal_cordic.c **** 
 929              		.loc 1 764 5 is_stmt 1 view .LVU252
 930 0090 6946     		mov	r1, sp
 931 0092 2046     		mov	r0, r4
 932 0094 FFF7FEFF 		bl	CORDIC_ReadOutDataIncrementPtr
 933              	.LVL68:
 767:Drivers/STM32H7xx_HAL_Driver/Src/stm32h7xx_hal_cordic.c **** 
 934              		.loc 1 767 5 view .LVU253
ARM GAS  C:\Users\thewo\AppData\Local\Temp\ccqHaRNc.s 			page 43


 767:Drivers/STM32H7xx_HAL_Driver/Src/stm32h7xx_hal_cordic.c **** 
 935              		.loc 1 767 20 is_stmt 0 view .LVU254
 936 0098 0123     		movs	r3, #1
 937 009a 84F82130 		strb	r3, [r4, #33]
 770:Drivers/STM32H7xx_HAL_Driver/Src/stm32h7xx_hal_cordic.c ****   }
 938              		.loc 1 770 5 is_stmt 1 view .LVU255
 770:Drivers/STM32H7xx_HAL_Driver/Src/stm32h7xx_hal_cordic.c ****   }
 939              		.loc 1 770 12 is_stmt 0 view .LVU256
 940 009e 0027     		movs	r7, #0
 941 00a0 CBE7     		b	.L69
 942              		.cfi_endproc
 943              	.LFE356:
 945              		.section	.text.HAL_CORDIC_Calculate_IT,"ax",%progbits
 946              		.align	1
 947              		.global	HAL_CORDIC_Calculate_IT
 948              		.syntax unified
 949              		.thumb
 950              		.thumb_func
 952              	HAL_CORDIC_Calculate_IT:
 953              	.LVL69:
 954              	.LFB357:
 794:Drivers/STM32H7xx_HAL_Driver/Src/stm32h7xx_hal_cordic.c ****   const int32_t *tmp_pInBuff = pInBuff;
 955              		.loc 1 794 1 is_stmt 1 view -0
 956              		.cfi_startproc
 957              		@ args = 0, pretend = 0, frame = 0
 958              		@ frame_needed = 0, uses_anonymous_args = 0
 959              		@ link register save eliminated.
 795:Drivers/STM32H7xx_HAL_Driver/Src/stm32h7xx_hal_cordic.c **** 
 960              		.loc 1 795 3 view .LVU258
 798:Drivers/STM32H7xx_HAL_Driver/Src/stm32h7xx_hal_cordic.c ****   {
 961              		.loc 1 798 3 view .LVU259
 798:Drivers/STM32H7xx_HAL_Driver/Src/stm32h7xx_hal_cordic.c ****   {
 962              		.loc 1 798 6 is_stmt 0 view .LVU260
 963 0000 002A     		cmp	r2, #0
 964 0002 18BF     		it	ne
 965 0004 0029     		cmpne	r1, #0
 966 0006 0BD0     		beq	.L78
 798:Drivers/STM32H7xx_HAL_Driver/Src/stm32h7xx_hal_cordic.c ****   {
 967              		.loc 1 798 47 discriminator 1 view .LVU261
 968 0008 53B1     		cbz	r3, .L78
 808:Drivers/STM32H7xx_HAL_Driver/Src/stm32h7xx_hal_cordic.c ****   {
 969              		.loc 1 808 3 is_stmt 1 view .LVU262
 808:Drivers/STM32H7xx_HAL_Driver/Src/stm32h7xx_hal_cordic.c ****   {
 970              		.loc 1 808 14 is_stmt 0 view .LVU263
 971 000a 90F821C0 		ldrb	ip, [r0, #33]	@ zero_extendqisi2
 808:Drivers/STM32H7xx_HAL_Driver/Src/stm32h7xx_hal_cordic.c ****   {
 972              		.loc 1 808 6 view .LVU264
 973 000e BCF1010F 		cmp	ip, #1
 974 0012 0BD0     		beq	.L89
 860:Drivers/STM32H7xx_HAL_Driver/Src/stm32h7xx_hal_cordic.c **** 
 975              		.loc 1 860 5 is_stmt 1 view .LVU265
 860:Drivers/STM32H7xx_HAL_Driver/Src/stm32h7xx_hal_cordic.c **** 
 976              		.loc 1 860 12 is_stmt 0 view .LVU266
 977 0014 436A     		ldr	r3, [r0, #36]
 978              	.LVL70:
 860:Drivers/STM32H7xx_HAL_Driver/Src/stm32h7xx_hal_cordic.c **** 
 979              		.loc 1 860 24 view .LVU267
ARM GAS  C:\Users\thewo\AppData\Local\Temp\ccqHaRNc.s 			page 44


 980 0016 43F00203 		orr	r3, r3, #2
 981 001a 4362     		str	r3, [r0, #36]
 863:Drivers/STM32H7xx_HAL_Driver/Src/stm32h7xx_hal_cordic.c ****   }
 982              		.loc 1 863 5 is_stmt 1 view .LVU268
 863:Drivers/STM32H7xx_HAL_Driver/Src/stm32h7xx_hal_cordic.c ****   }
 983              		.loc 1 863 12 is_stmt 0 view .LVU269
 984 001c 0120     		movs	r0, #1
 985              	.LVL71:
 865:Drivers/STM32H7xx_HAL_Driver/Src/stm32h7xx_hal_cordic.c **** 
 986              		.loc 1 865 1 view .LVU270
 987 001e 7047     		bx	lr
 988              	.LVL72:
 989              	.L78:
 801:Drivers/STM32H7xx_HAL_Driver/Src/stm32h7xx_hal_cordic.c **** 
 990              		.loc 1 801 5 is_stmt 1 view .LVU271
 801:Drivers/STM32H7xx_HAL_Driver/Src/stm32h7xx_hal_cordic.c **** 
 991              		.loc 1 801 12 is_stmt 0 view .LVU272
 992 0020 436A     		ldr	r3, [r0, #36]
 993              	.LVL73:
 801:Drivers/STM32H7xx_HAL_Driver/Src/stm32h7xx_hal_cordic.c **** 
 994              		.loc 1 801 24 view .LVU273
 995 0022 43F00103 		orr	r3, r3, #1
 996 0026 4362     		str	r3, [r0, #36]
 804:Drivers/STM32H7xx_HAL_Driver/Src/stm32h7xx_hal_cordic.c ****   }
 997              		.loc 1 804 5 is_stmt 1 view .LVU274
 804:Drivers/STM32H7xx_HAL_Driver/Src/stm32h7xx_hal_cordic.c ****   }
 998              		.loc 1 804 12 is_stmt 0 view .LVU275
 999 0028 0120     		movs	r0, #1
 1000              	.LVL74:
 804:Drivers/STM32H7xx_HAL_Driver/Src/stm32h7xx_hal_cordic.c ****   }
 1001              		.loc 1 804 12 view .LVU276
 1002 002a 7047     		bx	lr
 1003              	.LVL75:
 1004              	.L89:
 794:Drivers/STM32H7xx_HAL_Driver/Src/stm32h7xx_hal_cordic.c ****   const int32_t *tmp_pInBuff = pInBuff;
 1005              		.loc 1 794 1 view .LVU277
 1006 002c 30B4     		push	{r4, r5}
 1007              		.cfi_def_cfa_offset 8
 1008              		.cfi_offset 4, -8
 1009              		.cfi_offset 5, -4
 811:Drivers/STM32H7xx_HAL_Driver/Src/stm32h7xx_hal_cordic.c **** 
 1010              		.loc 1 811 5 is_stmt 1 view .LVU278
 811:Drivers/STM32H7xx_HAL_Driver/Src/stm32h7xx_hal_cordic.c **** 
 1011              		.loc 1 811 24 is_stmt 0 view .LVU279
 1012 002e 0024     		movs	r4, #0
 1013 0030 4462     		str	r4, [r0, #36]
 814:Drivers/STM32H7xx_HAL_Driver/Src/stm32h7xx_hal_cordic.c **** 
 1014              		.loc 1 814 5 is_stmt 1 view .LVU280
 814:Drivers/STM32H7xx_HAL_Driver/Src/stm32h7xx_hal_cordic.c **** 
 1015              		.loc 1 814 20 is_stmt 0 view .LVU281
 1016 0032 0224     		movs	r4, #2
 1017 0034 80F82140 		strb	r4, [r0, #33]
 818:Drivers/STM32H7xx_HAL_Driver/Src/stm32h7xx_hal_cordic.c ****     {
 1018              		.loc 1 818 5 is_stmt 1 view .LVU282
 818:Drivers/STM32H7xx_HAL_Driver/Src/stm32h7xx_hal_cordic.c ****     {
 1019              		.loc 1 818 9 is_stmt 0 view .LVU283
 1020 0038 0468     		ldr	r4, [r0]
ARM GAS  C:\Users\thewo\AppData\Local\Temp\ccqHaRNc.s 			page 45


 1021 003a 2568     		ldr	r5, [r4]
 818:Drivers/STM32H7xx_HAL_Driver/Src/stm32h7xx_hal_cordic.c ****     {
 1022              		.loc 1 818 8 view .LVU284
 1023 003c 15F4801F 		tst	r5, #1048576
 1024 0040 17D0     		beq	.L82
 821:Drivers/STM32H7xx_HAL_Driver/Src/stm32h7xx_hal_cordic.c ****       tmp_pInBuff++;
 1025              		.loc 1 821 7 is_stmt 1 view .LVU285
 1026              	.LVL76:
 822:Drivers/STM32H7xx_HAL_Driver/Src/stm32h7xx_hal_cordic.c ****     }
 1027              		.loc 1 822 7 view .LVU286
 822:Drivers/STM32H7xx_HAL_Driver/Src/stm32h7xx_hal_cordic.c ****     }
 1028              		.loc 1 822 18 is_stmt 0 view .LVU287
 1029 0042 01F10805 		add	r5, r1, #8
 1030              	.LVL77:
 1031              	.L83:
 829:Drivers/STM32H7xx_HAL_Driver/Src/stm32h7xx_hal_cordic.c ****     hcordic->pOutBuff = pOutBuff;
 1032              		.loc 1 829 5 is_stmt 1 view .LVU288
 829:Drivers/STM32H7xx_HAL_Driver/Src/stm32h7xx_hal_cordic.c ****     hcordic->pOutBuff = pOutBuff;
 1033              		.loc 1 829 22 is_stmt 0 view .LVU289
 1034 0046 4560     		str	r5, [r0, #4]
 830:Drivers/STM32H7xx_HAL_Driver/Src/stm32h7xx_hal_cordic.c ****     hcordic->NbCalcToOrder = NbCalc - 1U;
 1035              		.loc 1 830 5 is_stmt 1 view .LVU290
 830:Drivers/STM32H7xx_HAL_Driver/Src/stm32h7xx_hal_cordic.c ****     hcordic->NbCalcToOrder = NbCalc - 1U;
 1036              		.loc 1 830 23 is_stmt 0 view .LVU291
 1037 0048 8260     		str	r2, [r0, #8]
 831:Drivers/STM32H7xx_HAL_Driver/Src/stm32h7xx_hal_cordic.c ****     hcordic->NbCalcToGet = NbCalc;
 1038              		.loc 1 831 5 is_stmt 1 view .LVU292
 831:Drivers/STM32H7xx_HAL_Driver/Src/stm32h7xx_hal_cordic.c ****     hcordic->NbCalcToGet = NbCalc;
 1039              		.loc 1 831 37 is_stmt 0 view .LVU293
 1040 004a 5A1E     		subs	r2, r3, #1
 1041              	.LVL78:
 831:Drivers/STM32H7xx_HAL_Driver/Src/stm32h7xx_hal_cordic.c ****     hcordic->NbCalcToGet = NbCalc;
 1042              		.loc 1 831 28 view .LVU294
 1043 004c C260     		str	r2, [r0, #12]
 832:Drivers/STM32H7xx_HAL_Driver/Src/stm32h7xx_hal_cordic.c **** 
 1044              		.loc 1 832 5 is_stmt 1 view .LVU295
 832:Drivers/STM32H7xx_HAL_Driver/Src/stm32h7xx_hal_cordic.c **** 
 1045              		.loc 1 832 26 is_stmt 0 view .LVU296
 1046 004e 0361     		str	r3, [r0, #16]
 835:Drivers/STM32H7xx_HAL_Driver/Src/stm32h7xx_hal_cordic.c **** 
 1047              		.loc 1 835 5 is_stmt 1 view .LVU297
 1048 0050 2368     		ldr	r3, [r4]
 1049              	.LVL79:
 835:Drivers/STM32H7xx_HAL_Driver/Src/stm32h7xx_hal_cordic.c **** 
 1050              		.loc 1 835 5 is_stmt 0 view .LVU298
 1051 0052 43F48033 		orr	r3, r3, #65536
 1052 0056 2360     		str	r3, [r4]
 1053              	.LVL80:
 838:Drivers/STM32H7xx_HAL_Driver/Src/stm32h7xx_hal_cordic.c **** 
 1054              		.loc 1 838 5 is_stmt 1 view .LVU299
 842:Drivers/STM32H7xx_HAL_Driver/Src/stm32h7xx_hal_cordic.c **** 
 1055              		.loc 1 842 5 view .LVU300
 1056 0058 0A68     		ldr	r2, [r1]
 1057              	.LVL81:
 842:Drivers/STM32H7xx_HAL_Driver/Src/stm32h7xx_hal_cordic.c **** 
 1058              		.loc 1 842 5 is_stmt 0 view .LVU301
 1059 005a 0368     		ldr	r3, [r0]
ARM GAS  C:\Users\thewo\AppData\Local\Temp\ccqHaRNc.s 			page 46


 1060 005c 5A60     		str	r2, [r3, #4]
 845:Drivers/STM32H7xx_HAL_Driver/Src/stm32h7xx_hal_cordic.c ****     {
 1061              		.loc 1 845 5 is_stmt 1 view .LVU302
 845:Drivers/STM32H7xx_HAL_Driver/Src/stm32h7xx_hal_cordic.c ****     {
 1062              		.loc 1 845 9 is_stmt 0 view .LVU303
 1063 005e 0368     		ldr	r3, [r0]
 1064 0060 1A68     		ldr	r2, [r3]
 845:Drivers/STM32H7xx_HAL_Driver/Src/stm32h7xx_hal_cordic.c ****     {
 1065              		.loc 1 845 8 view .LVU304
 1066 0062 12F4801F 		tst	r2, #1048576
 1067 0066 01D0     		beq	.L84
 848:Drivers/STM32H7xx_HAL_Driver/Src/stm32h7xx_hal_cordic.c **** 
 1068              		.loc 1 848 7 is_stmt 1 view .LVU305
 1069              	.LVL82:
 851:Drivers/STM32H7xx_HAL_Driver/Src/stm32h7xx_hal_cordic.c ****     }
 1070              		.loc 1 851 7 view .LVU306
 1071 0068 4A68     		ldr	r2, [r1, #4]
 1072 006a 5A60     		str	r2, [r3, #4]
 1073              	.LVL83:
 1074              	.L84:
 855:Drivers/STM32H7xx_HAL_Driver/Src/stm32h7xx_hal_cordic.c ****   }
 1075              		.loc 1 855 5 view .LVU307
 855:Drivers/STM32H7xx_HAL_Driver/Src/stm32h7xx_hal_cordic.c ****   }
 1076              		.loc 1 855 12 is_stmt 0 view .LVU308
 1077 006c 0020     		movs	r0, #0
 1078              	.LVL84:
 865:Drivers/STM32H7xx_HAL_Driver/Src/stm32h7xx_hal_cordic.c **** 
 1079              		.loc 1 865 1 view .LVU309
 1080 006e 30BC     		pop	{r4, r5}
 1081              		.cfi_remember_state
 1082              		.cfi_restore 5
 1083              		.cfi_restore 4
 1084              		.cfi_def_cfa_offset 0
 1085 0070 7047     		bx	lr
 1086              	.LVL85:
 1087              	.L82:
 1088              		.cfi_restore_state
 827:Drivers/STM32H7xx_HAL_Driver/Src/stm32h7xx_hal_cordic.c ****     }
 1089              		.loc 1 827 7 is_stmt 1 view .LVU310
 827:Drivers/STM32H7xx_HAL_Driver/Src/stm32h7xx_hal_cordic.c ****     }
 1090              		.loc 1 827 18 is_stmt 0 view .LVU311
 1091 0072 0D1D     		adds	r5, r1, #4
 1092 0074 E7E7     		b	.L83
 1093              		.cfi_endproc
 1094              	.LFE357:
 1096              		.section	.text.HAL_CORDIC_Calculate_DMA,"ax",%progbits
 1097              		.align	1
 1098              		.global	HAL_CORDIC_Calculate_DMA
 1099              		.syntax unified
 1100              		.thumb
 1101              		.thumb_func
 1103              	HAL_CORDIC_Calculate_DMA:
 1104              	.LVL86:
 1105              	.LFB358:
 886:Drivers/STM32H7xx_HAL_Driver/Src/stm32h7xx_hal_cordic.c ****   uint32_t sizeinbuff;
 1106              		.loc 1 886 1 is_stmt 1 view -0
 1107              		.cfi_startproc
ARM GAS  C:\Users\thewo\AppData\Local\Temp\ccqHaRNc.s 			page 47


 1108              		@ args = 4, pretend = 0, frame = 0
 1109              		@ frame_needed = 0, uses_anonymous_args = 0
 886:Drivers/STM32H7xx_HAL_Driver/Src/stm32h7xx_hal_cordic.c ****   uint32_t sizeinbuff;
 1110              		.loc 1 886 1 is_stmt 0 view .LVU313
 1111 0000 2DE9F047 		push	{r4, r5, r6, r7, r8, r9, r10, lr}
 1112              		.cfi_def_cfa_offset 32
 1113              		.cfi_offset 4, -32
 1114              		.cfi_offset 5, -28
 1115              		.cfi_offset 6, -24
 1116              		.cfi_offset 7, -20
 1117              		.cfi_offset 8, -16
 1118              		.cfi_offset 9, -12
 1119              		.cfi_offset 10, -8
 1120              		.cfi_offset 14, -4
 1121 0004 0446     		mov	r4, r0
 1122 0006 8846     		mov	r8, r1
 1123 0008 9146     		mov	r9, r2
 1124 000a 1E46     		mov	r6, r3
 1125 000c 089D     		ldr	r5, [sp, #32]
 887:Drivers/STM32H7xx_HAL_Driver/Src/stm32h7xx_hal_cordic.c ****   uint32_t sizeoutbuff;
 1126              		.loc 1 887 3 is_stmt 1 view .LVU314
 888:Drivers/STM32H7xx_HAL_Driver/Src/stm32h7xx_hal_cordic.c **** 
 1127              		.loc 1 888 3 view .LVU315
 891:Drivers/STM32H7xx_HAL_Driver/Src/stm32h7xx_hal_cordic.c **** 
 1128              		.loc 1 891 3 view .LVU316
 1129 000e 6B1E     		subs	r3, r5, #1
 1130              	.LVL87:
 891:Drivers/STM32H7xx_HAL_Driver/Src/stm32h7xx_hal_cordic.c **** 
 1131              		.loc 1 891 3 is_stmt 0 view .LVU317
 1132 0010 022B     		cmp	r3, #2
 1133 0012 39D8     		bhi	.L105
 1134              	.LVL88:
 1135              	.L91:
 894:Drivers/STM32H7xx_HAL_Driver/Src/stm32h7xx_hal_cordic.c ****   {
 1136              		.loc 1 894 3 is_stmt 1 view .LVU318
 894:Drivers/STM32H7xx_HAL_Driver/Src/stm32h7xx_hal_cordic.c ****   {
 1137              		.loc 1 894 6 is_stmt 0 view .LVU319
 1138 0014 002E     		cmp	r6, #0
 1139 0016 3DD0     		beq	.L106
 904:Drivers/STM32H7xx_HAL_Driver/Src/stm32h7xx_hal_cordic.c ****   {
 1140              		.loc 1 904 3 is_stmt 1 view .LVU320
 904:Drivers/STM32H7xx_HAL_Driver/Src/stm32h7xx_hal_cordic.c ****   {
 1141              		.loc 1 904 44 is_stmt 0 view .LVU321
 1142 0018 AA1E     		subs	r2, r5, #2
 904:Drivers/STM32H7xx_HAL_Driver/Src/stm32h7xx_hal_cordic.c ****   {
 1143              		.loc 1 904 6 view .LVU322
 1144 001a 012A     		cmp	r2, #1
 1145 001c 42D9     		bls	.L107
 1146              	.L94:
 918:Drivers/STM32H7xx_HAL_Driver/Src/stm32h7xx_hal_cordic.c ****   {
 1147              		.loc 1 918 3 is_stmt 1 view .LVU323
 918:Drivers/STM32H7xx_HAL_Driver/Src/stm32h7xx_hal_cordic.c ****   {
 1148              		.loc 1 918 6 is_stmt 0 view .LVU324
 1149 001e 032D     		cmp	r5, #3
 1150 0020 18BF     		it	ne
 1151 0022 012D     		cmpne	r5, #1
 1152 0024 0CBF     		ite	eq
ARM GAS  C:\Users\thewo\AppData\Local\Temp\ccqHaRNc.s 			page 48


 1153 0026 4FF0010A 		moveq	r10, #1
 1154 002a 4FF0000A 		movne	r10, #0
 1155 002e 02D1     		bne	.L95
 921:Drivers/STM32H7xx_HAL_Driver/Src/stm32h7xx_hal_cordic.c ****     {
 1156              		.loc 1 921 5 is_stmt 1 view .LVU325
 921:Drivers/STM32H7xx_HAL_Driver/Src/stm32h7xx_hal_cordic.c ****     {
 1157              		.loc 1 921 8 is_stmt 0 view .LVU326
 1158 0030 B8F1000F 		cmp	r8, #0
 1159 0034 3FD0     		beq	.L108
 1160              	.L95:
 931:Drivers/STM32H7xx_HAL_Driver/Src/stm32h7xx_hal_cordic.c ****   {
 1161              		.loc 1 931 3 is_stmt 1 view .LVU327
 931:Drivers/STM32H7xx_HAL_Driver/Src/stm32h7xx_hal_cordic.c ****   {
 1162              		.loc 1 931 14 is_stmt 0 view .LVU328
 1163 0036 94F82130 		ldrb	r3, [r4, #33]	@ zero_extendqisi2
 1164 003a DFB2     		uxtb	r7, r3
 931:Drivers/STM32H7xx_HAL_Driver/Src/stm32h7xx_hal_cordic.c ****   {
 1165              		.loc 1 931 6 view .LVU329
 1166 003c 012B     		cmp	r3, #1
 1167 003e 66D1     		bne	.L96
 934:Drivers/STM32H7xx_HAL_Driver/Src/stm32h7xx_hal_cordic.c **** 
 1168              		.loc 1 934 5 is_stmt 1 view .LVU330
 934:Drivers/STM32H7xx_HAL_Driver/Src/stm32h7xx_hal_cordic.c **** 
 1169              		.loc 1 934 24 is_stmt 0 view .LVU331
 1170 0040 0023     		movs	r3, #0
 1171 0042 6362     		str	r3, [r4, #36]
 937:Drivers/STM32H7xx_HAL_Driver/Src/stm32h7xx_hal_cordic.c **** 
 1172              		.loc 1 937 5 is_stmt 1 view .LVU332
 937:Drivers/STM32H7xx_HAL_Driver/Src/stm32h7xx_hal_cordic.c **** 
 1173              		.loc 1 937 20 is_stmt 0 view .LVU333
 1174 0044 0223     		movs	r3, #2
 1175 0046 84F82130 		strb	r3, [r4, #33]
 940:Drivers/STM32H7xx_HAL_Driver/Src/stm32h7xx_hal_cordic.c **** 
 1176              		.loc 1 940 5 is_stmt 1 view .LVU334
 940:Drivers/STM32H7xx_HAL_Driver/Src/stm32h7xx_hal_cordic.c **** 
 1177              		.loc 1 940 27 is_stmt 0 view .LVU335
 1178 004a 6561     		str	r5, [r4, #20]
 943:Drivers/STM32H7xx_HAL_Driver/Src/stm32h7xx_hal_cordic.c ****     {
 1179              		.loc 1 943 5 is_stmt 1 view .LVU336
 943:Drivers/STM32H7xx_HAL_Driver/Src/stm32h7xx_hal_cordic.c ****     {
 1180              		.loc 1 943 8 is_stmt 0 view .LVU337
 1181 004c 012A     		cmp	r2, #1
 1182 004e 38D9     		bls	.L109
 1183              	.L97:
 977:Drivers/STM32H7xx_HAL_Driver/Src/stm32h7xx_hal_cordic.c ****     {
 1184              		.loc 1 977 5 is_stmt 1 view .LVU338
 977:Drivers/STM32H7xx_HAL_Driver/Src/stm32h7xx_hal_cordic.c ****     {
 1185              		.loc 1 977 8 is_stmt 0 view .LVU339
 1186 0050 BAF1000F 		cmp	r10, #0
 1187 0054 59D0     		beq	.L100
 980:Drivers/STM32H7xx_HAL_Driver/Src/stm32h7xx_hal_cordic.c ****       /* Set the DMA error callback */
 1188              		.loc 1 980 7 is_stmt 1 view .LVU340
 980:Drivers/STM32H7xx_HAL_Driver/Src/stm32h7xx_hal_cordic.c ****       /* Set the DMA error callback */
 1189              		.loc 1 980 14 is_stmt 0 view .LVU341
 1190 0056 A369     		ldr	r3, [r4, #24]
 980:Drivers/STM32H7xx_HAL_Driver/Src/stm32h7xx_hal_cordic.c ****       /* Set the DMA error callback */
 1191              		.loc 1 980 41 view .LVU342
ARM GAS  C:\Users\thewo\AppData\Local\Temp\ccqHaRNc.s 			page 49


 1192 0058 304A     		ldr	r2, .L111
 1193 005a DA63     		str	r2, [r3, #60]
 982:Drivers/STM32H7xx_HAL_Driver/Src/stm32h7xx_hal_cordic.c **** 
 1194              		.loc 1 982 7 is_stmt 1 view .LVU343
 982:Drivers/STM32H7xx_HAL_Driver/Src/stm32h7xx_hal_cordic.c **** 
 1195              		.loc 1 982 14 is_stmt 0 view .LVU344
 1196 005c A369     		ldr	r3, [r4, #24]
 982:Drivers/STM32H7xx_HAL_Driver/Src/stm32h7xx_hal_cordic.c **** 
 1197              		.loc 1 982 42 view .LVU345
 1198 005e 304A     		ldr	r2, .L111+4
 1199 0060 DA64     		str	r2, [r3, #76]
 986:Drivers/STM32H7xx_HAL_Driver/Src/stm32h7xx_hal_cordic.c ****       {
 1200              		.loc 1 986 7 is_stmt 1 view .LVU346
 986:Drivers/STM32H7xx_HAL_Driver/Src/stm32h7xx_hal_cordic.c ****       {
 1201              		.loc 1 986 11 is_stmt 0 view .LVU347
 1202 0062 2268     		ldr	r2, [r4]
 1203 0064 1368     		ldr	r3, [r2]
 986:Drivers/STM32H7xx_HAL_Driver/Src/stm32h7xx_hal_cordic.c ****       {
 1204              		.loc 1 986 10 view .LVU348
 1205 0066 13F4801F 		tst	r3, #1048576
 1206 006a 00D0     		beq	.L101
 988:Drivers/STM32H7xx_HAL_Driver/Src/stm32h7xx_hal_cordic.c ****       }
 1207              		.loc 1 988 9 is_stmt 1 view .LVU349
 988:Drivers/STM32H7xx_HAL_Driver/Src/stm32h7xx_hal_cordic.c ****       }
 1208              		.loc 1 988 20 is_stmt 0 view .LVU350
 1209 006c 7600     		lsls	r6, r6, #1
 1210              	.LVL89:
 1211              	.L101:
 996:Drivers/STM32H7xx_HAL_Driver/Src/stm32h7xx_hal_cordic.c ****           != HAL_OK)
 1212              		.loc 1 996 7 is_stmt 1 view .LVU351
 996:Drivers/STM32H7xx_HAL_Driver/Src/stm32h7xx_hal_cordic.c ****           != HAL_OK)
 1213              		.loc 1 996 11 is_stmt 0 view .LVU352
 1214 006e 3346     		mov	r3, r6
 1215 0070 0432     		adds	r2, r2, #4
 1216 0072 4146     		mov	r1, r8
 1217 0074 A069     		ldr	r0, [r4, #24]
 1218 0076 FFF7FEFF 		bl	HAL_DMA_Start_IT
 1219              	.LVL90:
 996:Drivers/STM32H7xx_HAL_Driver/Src/stm32h7xx_hal_cordic.c ****           != HAL_OK)
 1220              		.loc 1 996 10 discriminator 1 view .LVU353
 1221 007a 0028     		cmp	r0, #0
 1222 007c 40D0     		beq	.L102
1000:Drivers/STM32H7xx_HAL_Driver/Src/stm32h7xx_hal_cordic.c **** 
 1223              		.loc 1 1000 9 is_stmt 1 view .LVU354
1000:Drivers/STM32H7xx_HAL_Driver/Src/stm32h7xx_hal_cordic.c **** 
 1224              		.loc 1 1000 16 is_stmt 0 view .LVU355
 1225 007e 636A     		ldr	r3, [r4, #36]
1000:Drivers/STM32H7xx_HAL_Driver/Src/stm32h7xx_hal_cordic.c **** 
 1226              		.loc 1 1000 28 view .LVU356
 1227 0080 43F00803 		orr	r3, r3, #8
 1228 0084 6362     		str	r3, [r4, #36]
1003:Drivers/STM32H7xx_HAL_Driver/Src/stm32h7xx_hal_cordic.c ****       }
 1229              		.loc 1 1003 9 is_stmt 1 view .LVU357
1003:Drivers/STM32H7xx_HAL_Driver/Src/stm32h7xx_hal_cordic.c ****       }
 1230              		.loc 1 1003 16 is_stmt 0 view .LVU358
 1231 0086 0AE0     		b	.L93
 1232              	.LVL91:
ARM GAS  C:\Users\thewo\AppData\Local\Temp\ccqHaRNc.s 			page 50


 1233              	.L105:
 891:Drivers/STM32H7xx_HAL_Driver/Src/stm32h7xx_hal_cordic.c **** 
 1234              		.loc 1 891 3 discriminator 1 view .LVU359
 1235 0088 40F27B31 		movw	r1, #891
 1236              	.LVL92:
 891:Drivers/STM32H7xx_HAL_Driver/Src/stm32h7xx_hal_cordic.c **** 
 1237              		.loc 1 891 3 discriminator 1 view .LVU360
 1238 008c 2548     		ldr	r0, .L111+8
 1239              	.LVL93:
 891:Drivers/STM32H7xx_HAL_Driver/Src/stm32h7xx_hal_cordic.c **** 
 1240              		.loc 1 891 3 discriminator 1 view .LVU361
 1241 008e FFF7FEFF 		bl	assert_failed
 1242              	.LVL94:
 891:Drivers/STM32H7xx_HAL_Driver/Src/stm32h7xx_hal_cordic.c **** 
 1243              		.loc 1 891 3 discriminator 1 view .LVU362
 1244 0092 BFE7     		b	.L91
 1245              	.L106:
 897:Drivers/STM32H7xx_HAL_Driver/Src/stm32h7xx_hal_cordic.c **** 
 1246              		.loc 1 897 5 is_stmt 1 view .LVU363
 897:Drivers/STM32H7xx_HAL_Driver/Src/stm32h7xx_hal_cordic.c **** 
 1247              		.loc 1 897 12 is_stmt 0 view .LVU364
 1248 0094 636A     		ldr	r3, [r4, #36]
 897:Drivers/STM32H7xx_HAL_Driver/Src/stm32h7xx_hal_cordic.c **** 
 1249              		.loc 1 897 24 view .LVU365
 1250 0096 43F00103 		orr	r3, r3, #1
 1251 009a 6362     		str	r3, [r4, #36]
 900:Drivers/STM32H7xx_HAL_Driver/Src/stm32h7xx_hal_cordic.c ****   }
 1252              		.loc 1 900 5 is_stmt 1 view .LVU366
 900:Drivers/STM32H7xx_HAL_Driver/Src/stm32h7xx_hal_cordic.c ****   }
 1253              		.loc 1 900 12 is_stmt 0 view .LVU367
 1254 009c 0127     		movs	r7, #1
 1255              	.LVL95:
 1256              	.L93:
1021:Drivers/STM32H7xx_HAL_Driver/Src/stm32h7xx_hal_cordic.c **** 
 1257              		.loc 1 1021 1 view .LVU368
 1258 009e 3846     		mov	r0, r7
 1259 00a0 BDE8F087 		pop	{r4, r5, r6, r7, r8, r9, r10, pc}
 1260              	.LVL96:
 1261              	.L107:
 907:Drivers/STM32H7xx_HAL_Driver/Src/stm32h7xx_hal_cordic.c ****     {
 1262              		.loc 1 907 5 is_stmt 1 view .LVU369
 907:Drivers/STM32H7xx_HAL_Driver/Src/stm32h7xx_hal_cordic.c ****     {
 1263              		.loc 1 907 8 is_stmt 0 view .LVU370
 1264 00a4 B9F1000F 		cmp	r9, #0
 1265 00a8 B9D1     		bne	.L94
 910:Drivers/STM32H7xx_HAL_Driver/Src/stm32h7xx_hal_cordic.c **** 
 1266              		.loc 1 910 7 is_stmt 1 view .LVU371
 910:Drivers/STM32H7xx_HAL_Driver/Src/stm32h7xx_hal_cordic.c **** 
 1267              		.loc 1 910 14 is_stmt 0 view .LVU372
 1268 00aa 636A     		ldr	r3, [r4, #36]
 910:Drivers/STM32H7xx_HAL_Driver/Src/stm32h7xx_hal_cordic.c **** 
 1269              		.loc 1 910 26 view .LVU373
 1270 00ac 43F00103 		orr	r3, r3, #1
 1271 00b0 6362     		str	r3, [r4, #36]
 913:Drivers/STM32H7xx_HAL_Driver/Src/stm32h7xx_hal_cordic.c ****     }
 1272              		.loc 1 913 7 is_stmt 1 view .LVU374
 913:Drivers/STM32H7xx_HAL_Driver/Src/stm32h7xx_hal_cordic.c ****     }
ARM GAS  C:\Users\thewo\AppData\Local\Temp\ccqHaRNc.s 			page 51


 1273              		.loc 1 913 14 is_stmt 0 view .LVU375
 1274 00b2 0127     		movs	r7, #1
 1275 00b4 F3E7     		b	.L93
 1276              	.L108:
 924:Drivers/STM32H7xx_HAL_Driver/Src/stm32h7xx_hal_cordic.c **** 
 1277              		.loc 1 924 7 is_stmt 1 view .LVU376
 924:Drivers/STM32H7xx_HAL_Driver/Src/stm32h7xx_hal_cordic.c **** 
 1278              		.loc 1 924 14 is_stmt 0 view .LVU377
 1279 00b6 636A     		ldr	r3, [r4, #36]
 924:Drivers/STM32H7xx_HAL_Driver/Src/stm32h7xx_hal_cordic.c **** 
 1280              		.loc 1 924 26 view .LVU378
 1281 00b8 43F00103 		orr	r3, r3, #1
 1282 00bc 6362     		str	r3, [r4, #36]
 927:Drivers/STM32H7xx_HAL_Driver/Src/stm32h7xx_hal_cordic.c ****     }
 1283              		.loc 1 927 7 is_stmt 1 view .LVU379
 927:Drivers/STM32H7xx_HAL_Driver/Src/stm32h7xx_hal_cordic.c ****     }
 1284              		.loc 1 927 14 is_stmt 0 view .LVU380
 1285 00be 0127     		movs	r7, #1
 1286 00c0 EDE7     		b	.L93
 1287              	.L109:
 946:Drivers/STM32H7xx_HAL_Driver/Src/stm32h7xx_hal_cordic.c ****       /* Set the DMA error callback */
 1288              		.loc 1 946 7 is_stmt 1 view .LVU381
 946:Drivers/STM32H7xx_HAL_Driver/Src/stm32h7xx_hal_cordic.c ****       /* Set the DMA error callback */
 1289              		.loc 1 946 14 is_stmt 0 view .LVU382
 1290 00c2 E369     		ldr	r3, [r4, #28]
 946:Drivers/STM32H7xx_HAL_Driver/Src/stm32h7xx_hal_cordic.c ****       /* Set the DMA error callback */
 1291              		.loc 1 946 42 view .LVU383
 1292 00c4 184A     		ldr	r2, .L111+12
 1293 00c6 DA63     		str	r2, [r3, #60]
 948:Drivers/STM32H7xx_HAL_Driver/Src/stm32h7xx_hal_cordic.c **** 
 1294              		.loc 1 948 7 is_stmt 1 view .LVU384
 948:Drivers/STM32H7xx_HAL_Driver/Src/stm32h7xx_hal_cordic.c **** 
 1295              		.loc 1 948 14 is_stmt 0 view .LVU385
 1296 00c8 E369     		ldr	r3, [r4, #28]
 948:Drivers/STM32H7xx_HAL_Driver/Src/stm32h7xx_hal_cordic.c **** 
 1297              		.loc 1 948 43 view .LVU386
 1298 00ca 154A     		ldr	r2, .L111+4
 1299 00cc DA64     		str	r2, [r3, #76]
 952:Drivers/STM32H7xx_HAL_Driver/Src/stm32h7xx_hal_cordic.c ****       {
 1300              		.loc 1 952 7 is_stmt 1 view .LVU387
 952:Drivers/STM32H7xx_HAL_Driver/Src/stm32h7xx_hal_cordic.c ****       {
 1301              		.loc 1 952 11 is_stmt 0 view .LVU388
 1302 00ce 2168     		ldr	r1, [r4]
 1303 00d0 0B68     		ldr	r3, [r1]
 952:Drivers/STM32H7xx_HAL_Driver/Src/stm32h7xx_hal_cordic.c ****       {
 1304              		.loc 1 952 10 view .LVU389
 1305 00d2 13F4002F 		tst	r3, #524288
 1306 00d6 0CD0     		beq	.L103
 954:Drivers/STM32H7xx_HAL_Driver/Src/stm32h7xx_hal_cordic.c ****       }
 1307              		.loc 1 954 9 is_stmt 1 view .LVU390
 954:Drivers/STM32H7xx_HAL_Driver/Src/stm32h7xx_hal_cordic.c ****       }
 1308              		.loc 1 954 21 is_stmt 0 view .LVU391
 1309 00d8 7300     		lsls	r3, r6, #1
 1310              	.LVL97:
 1311              	.L98:
 962:Drivers/STM32H7xx_HAL_Driver/Src/stm32h7xx_hal_cordic.c ****           != HAL_OK)
 1312              		.loc 1 962 7 is_stmt 1 view .LVU392
ARM GAS  C:\Users\thewo\AppData\Local\Temp\ccqHaRNc.s 			page 52


 962:Drivers/STM32H7xx_HAL_Driver/Src/stm32h7xx_hal_cordic.c ****           != HAL_OK)
 1313              		.loc 1 962 11 is_stmt 0 view .LVU393
 1314 00da 4A46     		mov	r2, r9
 1315 00dc 0831     		adds	r1, r1, #8
 1316 00de E069     		ldr	r0, [r4, #28]
 1317 00e0 FFF7FEFF 		bl	HAL_DMA_Start_IT
 1318              	.LVL98:
 962:Drivers/STM32H7xx_HAL_Driver/Src/stm32h7xx_hal_cordic.c ****           != HAL_OK)
 1319              		.loc 1 962 10 discriminator 1 view .LVU394
 1320 00e4 38B9     		cbnz	r0, .L110
 973:Drivers/STM32H7xx_HAL_Driver/Src/stm32h7xx_hal_cordic.c ****     }
 1321              		.loc 1 973 7 is_stmt 1 view .LVU395
 1322 00e6 2268     		ldr	r2, [r4]
 1323 00e8 1368     		ldr	r3, [r2]
 1324 00ea 43F40033 		orr	r3, r3, #131072
 1325 00ee 1360     		str	r3, [r2]
 1326 00f0 AEE7     		b	.L97
 1327              	.LVL99:
 1328              	.L103:
 958:Drivers/STM32H7xx_HAL_Driver/Src/stm32h7xx_hal_cordic.c ****       }
 1329              		.loc 1 958 21 is_stmt 0 view .LVU396
 1330 00f2 3346     		mov	r3, r6
 1331 00f4 F1E7     		b	.L98
 1332              	.LVL100:
 1333              	.L110:
 966:Drivers/STM32H7xx_HAL_Driver/Src/stm32h7xx_hal_cordic.c **** 
 1334              		.loc 1 966 9 is_stmt 1 view .LVU397
 966:Drivers/STM32H7xx_HAL_Driver/Src/stm32h7xx_hal_cordic.c **** 
 1335              		.loc 1 966 16 is_stmt 0 view .LVU398
 1336 00f6 636A     		ldr	r3, [r4, #36]
 966:Drivers/STM32H7xx_HAL_Driver/Src/stm32h7xx_hal_cordic.c **** 
 1337              		.loc 1 966 28 view .LVU399
 1338 00f8 43F00803 		orr	r3, r3, #8
 1339 00fc 6362     		str	r3, [r4, #36]
 969:Drivers/STM32H7xx_HAL_Driver/Src/stm32h7xx_hal_cordic.c ****       }
 1340              		.loc 1 969 9 is_stmt 1 view .LVU400
 969:Drivers/STM32H7xx_HAL_Driver/Src/stm32h7xx_hal_cordic.c ****       }
 1341              		.loc 1 969 16 is_stmt 0 view .LVU401
 1342 00fe CEE7     		b	.L93
 1343              	.LVL101:
 1344              	.L102:
1007:Drivers/STM32H7xx_HAL_Driver/Src/stm32h7xx_hal_cordic.c ****     }
 1345              		.loc 1 1007 7 is_stmt 1 view .LVU402
 1346 0100 2268     		ldr	r2, [r4]
 1347 0102 1368     		ldr	r3, [r2]
 1348 0104 43F48023 		orr	r3, r3, #262144
 1349 0108 1360     		str	r3, [r2]
 1350              	.LVL102:
 1351              	.L100:
1011:Drivers/STM32H7xx_HAL_Driver/Src/stm32h7xx_hal_cordic.c ****   }
 1352              		.loc 1 1011 5 view .LVU403
1011:Drivers/STM32H7xx_HAL_Driver/Src/stm32h7xx_hal_cordic.c ****   }
 1353              		.loc 1 1011 12 is_stmt 0 view .LVU404
 1354 010a 0027     		movs	r7, #0
 1355 010c C7E7     		b	.L93
 1356              	.LVL103:
 1357              	.L96:
ARM GAS  C:\Users\thewo\AppData\Local\Temp\ccqHaRNc.s 			page 53


1016:Drivers/STM32H7xx_HAL_Driver/Src/stm32h7xx_hal_cordic.c **** 
 1358              		.loc 1 1016 5 is_stmt 1 view .LVU405
1016:Drivers/STM32H7xx_HAL_Driver/Src/stm32h7xx_hal_cordic.c **** 
 1359              		.loc 1 1016 12 is_stmt 0 view .LVU406
 1360 010e 636A     		ldr	r3, [r4, #36]
1016:Drivers/STM32H7xx_HAL_Driver/Src/stm32h7xx_hal_cordic.c **** 
 1361              		.loc 1 1016 24 view .LVU407
 1362 0110 43F00203 		orr	r3, r3, #2
 1363 0114 6362     		str	r3, [r4, #36]
1019:Drivers/STM32H7xx_HAL_Driver/Src/stm32h7xx_hal_cordic.c ****   }
 1364              		.loc 1 1019 5 is_stmt 1 view .LVU408
1019:Drivers/STM32H7xx_HAL_Driver/Src/stm32h7xx_hal_cordic.c ****   }
 1365              		.loc 1 1019 12 is_stmt 0 view .LVU409
 1366 0116 0127     		movs	r7, #1
 1367 0118 C1E7     		b	.L93
 1368              	.L112:
 1369 011a 00BF     		.align	2
 1370              	.L111:
 1371 011c 00000000 		.word	CORDIC_DMAInCplt
 1372 0120 00000000 		.word	CORDIC_DMAError
 1373 0124 00000000 		.word	.LC0
 1374 0128 00000000 		.word	CORDIC_DMAOutCplt
 1375              		.cfi_endproc
 1376              	.LFE358:
 1378              		.section	.text.HAL_CORDIC_ErrorCallback,"ax",%progbits
 1379              		.align	1
 1380              		.weak	HAL_CORDIC_ErrorCallback
 1381              		.syntax unified
 1382              		.thumb
 1383              		.thumb_func
 1385              	HAL_CORDIC_ErrorCallback:
 1386              	.LVL104:
 1387              	.LFB359:
1049:Drivers/STM32H7xx_HAL_Driver/Src/stm32h7xx_hal_cordic.c ****   /* Prevent unused argument(s) compilation warning */
 1388              		.loc 1 1049 1 is_stmt 1 view -0
 1389              		.cfi_startproc
 1390              		@ args = 0, pretend = 0, frame = 0
 1391              		@ frame_needed = 0, uses_anonymous_args = 0
 1392              		@ link register save eliminated.
1051:Drivers/STM32H7xx_HAL_Driver/Src/stm32h7xx_hal_cordic.c **** 
 1393              		.loc 1 1051 3 view .LVU411
1056:Drivers/STM32H7xx_HAL_Driver/Src/stm32h7xx_hal_cordic.c **** 
 1394              		.loc 1 1056 1 is_stmt 0 view .LVU412
 1395 0000 7047     		bx	lr
 1396              		.cfi_endproc
 1397              	.LFE359:
 1399              		.section	.text.CORDIC_DMAError,"ax",%progbits
 1400              		.align	1
 1401              		.syntax unified
 1402              		.thumb
 1403              		.thumb_func
 1405              	CORDIC_DMAError:
 1406              	.LVL105:
 1407              	.LFB368:
1250:Drivers/STM32H7xx_HAL_Driver/Src/stm32h7xx_hal_cordic.c **** 
1251:Drivers/STM32H7xx_HAL_Driver/Src/stm32h7xx_hal_cordic.c **** /**
1252:Drivers/STM32H7xx_HAL_Driver/Src/stm32h7xx_hal_cordic.c ****   * @brief  DMA CORDIC Input Data process complete callback.
ARM GAS  C:\Users\thewo\AppData\Local\Temp\ccqHaRNc.s 			page 54


1253:Drivers/STM32H7xx_HAL_Driver/Src/stm32h7xx_hal_cordic.c ****   * @param  hdma DMA handle.
1254:Drivers/STM32H7xx_HAL_Driver/Src/stm32h7xx_hal_cordic.c ****   * @retval None
1255:Drivers/STM32H7xx_HAL_Driver/Src/stm32h7xx_hal_cordic.c ****   */
1256:Drivers/STM32H7xx_HAL_Driver/Src/stm32h7xx_hal_cordic.c **** static void CORDIC_DMAInCplt(DMA_HandleTypeDef *hdma)
1257:Drivers/STM32H7xx_HAL_Driver/Src/stm32h7xx_hal_cordic.c **** {
1258:Drivers/STM32H7xx_HAL_Driver/Src/stm32h7xx_hal_cordic.c ****   CORDIC_HandleTypeDef *hcordic = (CORDIC_HandleTypeDef *)((DMA_HandleTypeDef *)hdma)->Parent;
1259:Drivers/STM32H7xx_HAL_Driver/Src/stm32h7xx_hal_cordic.c **** 
1260:Drivers/STM32H7xx_HAL_Driver/Src/stm32h7xx_hal_cordic.c ****   /* Disable the DMA transfer for input request */
1261:Drivers/STM32H7xx_HAL_Driver/Src/stm32h7xx_hal_cordic.c ****   CLEAR_BIT(hcordic->Instance->CSR, CORDIC_DMA_WEN);
1262:Drivers/STM32H7xx_HAL_Driver/Src/stm32h7xx_hal_cordic.c **** 
1263:Drivers/STM32H7xx_HAL_Driver/Src/stm32h7xx_hal_cordic.c ****   /* Check if DMA direction is CORDIC Input only (no DMA for CORDIC Output) */
1264:Drivers/STM32H7xx_HAL_Driver/Src/stm32h7xx_hal_cordic.c ****   if (hcordic->DMADirection == CORDIC_DMA_DIR_IN)
1265:Drivers/STM32H7xx_HAL_Driver/Src/stm32h7xx_hal_cordic.c ****   {
1266:Drivers/STM32H7xx_HAL_Driver/Src/stm32h7xx_hal_cordic.c ****     /* Change the CORDIC DMA direction to none */
1267:Drivers/STM32H7xx_HAL_Driver/Src/stm32h7xx_hal_cordic.c ****     hcordic->DMADirection = CORDIC_DMA_DIR_NONE;
1268:Drivers/STM32H7xx_HAL_Driver/Src/stm32h7xx_hal_cordic.c **** 
1269:Drivers/STM32H7xx_HAL_Driver/Src/stm32h7xx_hal_cordic.c ****     /* Change the CORDIC state to ready */
1270:Drivers/STM32H7xx_HAL_Driver/Src/stm32h7xx_hal_cordic.c ****     hcordic->State = HAL_CORDIC_STATE_READY;
1271:Drivers/STM32H7xx_HAL_Driver/Src/stm32h7xx_hal_cordic.c **** 
1272:Drivers/STM32H7xx_HAL_Driver/Src/stm32h7xx_hal_cordic.c ****     /* Call calculation complete callback */
1273:Drivers/STM32H7xx_HAL_Driver/Src/stm32h7xx_hal_cordic.c **** #if USE_HAL_CORDIC_REGISTER_CALLBACKS == 1
1274:Drivers/STM32H7xx_HAL_Driver/Src/stm32h7xx_hal_cordic.c ****     /*Call registered callback*/
1275:Drivers/STM32H7xx_HAL_Driver/Src/stm32h7xx_hal_cordic.c ****     hcordic->CalculateCpltCallback(hcordic);
1276:Drivers/STM32H7xx_HAL_Driver/Src/stm32h7xx_hal_cordic.c **** #else
1277:Drivers/STM32H7xx_HAL_Driver/Src/stm32h7xx_hal_cordic.c ****     /*Call legacy weak callback*/
1278:Drivers/STM32H7xx_HAL_Driver/Src/stm32h7xx_hal_cordic.c ****     HAL_CORDIC_CalculateCpltCallback(hcordic);
1279:Drivers/STM32H7xx_HAL_Driver/Src/stm32h7xx_hal_cordic.c **** #endif /* USE_HAL_CORDIC_REGISTER_CALLBACKS */
1280:Drivers/STM32H7xx_HAL_Driver/Src/stm32h7xx_hal_cordic.c ****   }
1281:Drivers/STM32H7xx_HAL_Driver/Src/stm32h7xx_hal_cordic.c **** }
1282:Drivers/STM32H7xx_HAL_Driver/Src/stm32h7xx_hal_cordic.c **** 
1283:Drivers/STM32H7xx_HAL_Driver/Src/stm32h7xx_hal_cordic.c **** /**
1284:Drivers/STM32H7xx_HAL_Driver/Src/stm32h7xx_hal_cordic.c ****   * @brief  DMA CORDIC Output Data process complete callback.
1285:Drivers/STM32H7xx_HAL_Driver/Src/stm32h7xx_hal_cordic.c ****   * @param  hdma DMA handle.
1286:Drivers/STM32H7xx_HAL_Driver/Src/stm32h7xx_hal_cordic.c ****   * @retval None
1287:Drivers/STM32H7xx_HAL_Driver/Src/stm32h7xx_hal_cordic.c ****   */
1288:Drivers/STM32H7xx_HAL_Driver/Src/stm32h7xx_hal_cordic.c **** static void CORDIC_DMAOutCplt(DMA_HandleTypeDef *hdma)
1289:Drivers/STM32H7xx_HAL_Driver/Src/stm32h7xx_hal_cordic.c **** {
1290:Drivers/STM32H7xx_HAL_Driver/Src/stm32h7xx_hal_cordic.c ****   CORDIC_HandleTypeDef *hcordic = (CORDIC_HandleTypeDef *)((DMA_HandleTypeDef *)hdma)->Parent;
1291:Drivers/STM32H7xx_HAL_Driver/Src/stm32h7xx_hal_cordic.c **** 
1292:Drivers/STM32H7xx_HAL_Driver/Src/stm32h7xx_hal_cordic.c ****   /* Disable the DMA transfer for output request */
1293:Drivers/STM32H7xx_HAL_Driver/Src/stm32h7xx_hal_cordic.c ****   CLEAR_BIT(hcordic->Instance->CSR, CORDIC_DMA_REN);
1294:Drivers/STM32H7xx_HAL_Driver/Src/stm32h7xx_hal_cordic.c **** 
1295:Drivers/STM32H7xx_HAL_Driver/Src/stm32h7xx_hal_cordic.c ****   /* Change the CORDIC DMA direction to none */
1296:Drivers/STM32H7xx_HAL_Driver/Src/stm32h7xx_hal_cordic.c ****   hcordic->DMADirection = CORDIC_DMA_DIR_NONE;
1297:Drivers/STM32H7xx_HAL_Driver/Src/stm32h7xx_hal_cordic.c **** 
1298:Drivers/STM32H7xx_HAL_Driver/Src/stm32h7xx_hal_cordic.c ****   /* Change the CORDIC state to ready */
1299:Drivers/STM32H7xx_HAL_Driver/Src/stm32h7xx_hal_cordic.c ****   hcordic->State = HAL_CORDIC_STATE_READY;
1300:Drivers/STM32H7xx_HAL_Driver/Src/stm32h7xx_hal_cordic.c **** 
1301:Drivers/STM32H7xx_HAL_Driver/Src/stm32h7xx_hal_cordic.c ****   /* Call calculation complete callback */
1302:Drivers/STM32H7xx_HAL_Driver/Src/stm32h7xx_hal_cordic.c **** #if USE_HAL_CORDIC_REGISTER_CALLBACKS == 1
1303:Drivers/STM32H7xx_HAL_Driver/Src/stm32h7xx_hal_cordic.c ****   /*Call registered callback*/
1304:Drivers/STM32H7xx_HAL_Driver/Src/stm32h7xx_hal_cordic.c ****   hcordic->CalculateCpltCallback(hcordic);
1305:Drivers/STM32H7xx_HAL_Driver/Src/stm32h7xx_hal_cordic.c **** #else
1306:Drivers/STM32H7xx_HAL_Driver/Src/stm32h7xx_hal_cordic.c ****   /*Call legacy weak callback*/
1307:Drivers/STM32H7xx_HAL_Driver/Src/stm32h7xx_hal_cordic.c ****   HAL_CORDIC_CalculateCpltCallback(hcordic);
1308:Drivers/STM32H7xx_HAL_Driver/Src/stm32h7xx_hal_cordic.c **** #endif /* USE_HAL_CORDIC_REGISTER_CALLBACKS */
1309:Drivers/STM32H7xx_HAL_Driver/Src/stm32h7xx_hal_cordic.c **** }
ARM GAS  C:\Users\thewo\AppData\Local\Temp\ccqHaRNc.s 			page 55


1310:Drivers/STM32H7xx_HAL_Driver/Src/stm32h7xx_hal_cordic.c **** 
1311:Drivers/STM32H7xx_HAL_Driver/Src/stm32h7xx_hal_cordic.c **** /**
1312:Drivers/STM32H7xx_HAL_Driver/Src/stm32h7xx_hal_cordic.c ****   * @brief  DMA CORDIC communication error callback.
1313:Drivers/STM32H7xx_HAL_Driver/Src/stm32h7xx_hal_cordic.c ****   * @param  hdma DMA handle.
1314:Drivers/STM32H7xx_HAL_Driver/Src/stm32h7xx_hal_cordic.c ****   * @retval None
1315:Drivers/STM32H7xx_HAL_Driver/Src/stm32h7xx_hal_cordic.c ****   */
1316:Drivers/STM32H7xx_HAL_Driver/Src/stm32h7xx_hal_cordic.c **** static void CORDIC_DMAError(DMA_HandleTypeDef *hdma)
1317:Drivers/STM32H7xx_HAL_Driver/Src/stm32h7xx_hal_cordic.c **** {
 1408              		.loc 1 1317 1 is_stmt 1 view -0
 1409              		.cfi_startproc
 1410              		@ args = 0, pretend = 0, frame = 0
 1411              		@ frame_needed = 0, uses_anonymous_args = 0
 1412              		.loc 1 1317 1 is_stmt 0 view .LVU414
 1413 0000 08B5     		push	{r3, lr}
 1414              		.cfi_def_cfa_offset 8
 1415              		.cfi_offset 3, -8
 1416              		.cfi_offset 14, -4
1318:Drivers/STM32H7xx_HAL_Driver/Src/stm32h7xx_hal_cordic.c ****   CORDIC_HandleTypeDef *hcordic = (CORDIC_HandleTypeDef *)((DMA_HandleTypeDef *)hdma)->Parent;
 1417              		.loc 1 1318 3 is_stmt 1 view .LVU415
 1418              		.loc 1 1318 25 is_stmt 0 view .LVU416
 1419 0002 806B     		ldr	r0, [r0, #56]
 1420              	.LVL106:
1319:Drivers/STM32H7xx_HAL_Driver/Src/stm32h7xx_hal_cordic.c **** 
1320:Drivers/STM32H7xx_HAL_Driver/Src/stm32h7xx_hal_cordic.c ****   /* Set CORDIC handle state to error */
1321:Drivers/STM32H7xx_HAL_Driver/Src/stm32h7xx_hal_cordic.c ****   hcordic->State = HAL_CORDIC_STATE_READY;
 1421              		.loc 1 1321 3 is_stmt 1 view .LVU417
 1422              		.loc 1 1321 18 is_stmt 0 view .LVU418
 1423 0004 0123     		movs	r3, #1
 1424 0006 80F82130 		strb	r3, [r0, #33]
1322:Drivers/STM32H7xx_HAL_Driver/Src/stm32h7xx_hal_cordic.c **** 
1323:Drivers/STM32H7xx_HAL_Driver/Src/stm32h7xx_hal_cordic.c ****   /* Set CORDIC handle error code to DMA error */
1324:Drivers/STM32H7xx_HAL_Driver/Src/stm32h7xx_hal_cordic.c ****   hcordic->ErrorCode |= HAL_CORDIC_ERROR_DMA;
 1425              		.loc 1 1324 3 is_stmt 1 view .LVU419
 1426              		.loc 1 1324 10 is_stmt 0 view .LVU420
 1427 000a 436A     		ldr	r3, [r0, #36]
 1428              		.loc 1 1324 22 view .LVU421
 1429 000c 43F00803 		orr	r3, r3, #8
 1430 0010 4362     		str	r3, [r0, #36]
1325:Drivers/STM32H7xx_HAL_Driver/Src/stm32h7xx_hal_cordic.c **** 
1326:Drivers/STM32H7xx_HAL_Driver/Src/stm32h7xx_hal_cordic.c ****   /* Call user callback */
1327:Drivers/STM32H7xx_HAL_Driver/Src/stm32h7xx_hal_cordic.c **** #if USE_HAL_CORDIC_REGISTER_CALLBACKS == 1
1328:Drivers/STM32H7xx_HAL_Driver/Src/stm32h7xx_hal_cordic.c ****   /*Call registered callback*/
1329:Drivers/STM32H7xx_HAL_Driver/Src/stm32h7xx_hal_cordic.c ****   hcordic->ErrorCallback(hcordic);
1330:Drivers/STM32H7xx_HAL_Driver/Src/stm32h7xx_hal_cordic.c **** #else
1331:Drivers/STM32H7xx_HAL_Driver/Src/stm32h7xx_hal_cordic.c ****   /*Call legacy weak callback*/
1332:Drivers/STM32H7xx_HAL_Driver/Src/stm32h7xx_hal_cordic.c ****   HAL_CORDIC_ErrorCallback(hcordic);
 1431              		.loc 1 1332 3 is_stmt 1 view .LVU422
 1432 0012 FFF7FEFF 		bl	HAL_CORDIC_ErrorCallback
 1433              	.LVL107:
1333:Drivers/STM32H7xx_HAL_Driver/Src/stm32h7xx_hal_cordic.c **** #endif /* USE_HAL_CORDIC_REGISTER_CALLBACKS */
1334:Drivers/STM32H7xx_HAL_Driver/Src/stm32h7xx_hal_cordic.c **** }
 1434              		.loc 1 1334 1 is_stmt 0 view .LVU423
 1435 0016 08BD     		pop	{r3, pc}
 1436              		.cfi_endproc
 1437              	.LFE368:
 1439              		.section	.text.HAL_CORDIC_CalculateCpltCallback,"ax",%progbits
 1440              		.align	1
ARM GAS  C:\Users\thewo\AppData\Local\Temp\ccqHaRNc.s 			page 56


 1441              		.weak	HAL_CORDIC_CalculateCpltCallback
 1442              		.syntax unified
 1443              		.thumb
 1444              		.thumb_func
 1446              	HAL_CORDIC_CalculateCpltCallback:
 1447              	.LVL108:
 1448              	.LFB360:
1065:Drivers/STM32H7xx_HAL_Driver/Src/stm32h7xx_hal_cordic.c ****   /* Prevent unused argument(s) compilation warning */
 1449              		.loc 1 1065 1 is_stmt 1 view -0
 1450              		.cfi_startproc
 1451              		@ args = 0, pretend = 0, frame = 0
 1452              		@ frame_needed = 0, uses_anonymous_args = 0
 1453              		@ link register save eliminated.
1067:Drivers/STM32H7xx_HAL_Driver/Src/stm32h7xx_hal_cordic.c **** 
 1454              		.loc 1 1067 3 view .LVU425
1072:Drivers/STM32H7xx_HAL_Driver/Src/stm32h7xx_hal_cordic.c **** 
 1455              		.loc 1 1072 1 is_stmt 0 view .LVU426
 1456 0000 7047     		bx	lr
 1457              		.cfi_endproc
 1458              	.LFE360:
 1460              		.section	.text.CORDIC_DMAInCplt,"ax",%progbits
 1461              		.align	1
 1462              		.syntax unified
 1463              		.thumb
 1464              		.thumb_func
 1466              	CORDIC_DMAInCplt:
 1467              	.LVL109:
 1468              	.LFB366:
1257:Drivers/STM32H7xx_HAL_Driver/Src/stm32h7xx_hal_cordic.c ****   CORDIC_HandleTypeDef *hcordic = (CORDIC_HandleTypeDef *)((DMA_HandleTypeDef *)hdma)->Parent;
 1469              		.loc 1 1257 1 is_stmt 1 view -0
 1470              		.cfi_startproc
 1471              		@ args = 0, pretend = 0, frame = 0
 1472              		@ frame_needed = 0, uses_anonymous_args = 0
1257:Drivers/STM32H7xx_HAL_Driver/Src/stm32h7xx_hal_cordic.c ****   CORDIC_HandleTypeDef *hcordic = (CORDIC_HandleTypeDef *)((DMA_HandleTypeDef *)hdma)->Parent;
 1473              		.loc 1 1257 1 is_stmt 0 view .LVU428
 1474 0000 08B5     		push	{r3, lr}
 1475              		.cfi_def_cfa_offset 8
 1476              		.cfi_offset 3, -8
 1477              		.cfi_offset 14, -4
1258:Drivers/STM32H7xx_HAL_Driver/Src/stm32h7xx_hal_cordic.c **** 
 1478              		.loc 1 1258 3 is_stmt 1 view .LVU429
1258:Drivers/STM32H7xx_HAL_Driver/Src/stm32h7xx_hal_cordic.c **** 
 1479              		.loc 1 1258 25 is_stmt 0 view .LVU430
 1480 0002 806B     		ldr	r0, [r0, #56]
 1481              	.LVL110:
1261:Drivers/STM32H7xx_HAL_Driver/Src/stm32h7xx_hal_cordic.c **** 
 1482              		.loc 1 1261 3 is_stmt 1 view .LVU431
 1483 0004 0268     		ldr	r2, [r0]
 1484 0006 1368     		ldr	r3, [r2]
 1485 0008 23F48023 		bic	r3, r3, #262144
 1486 000c 1360     		str	r3, [r2]
1264:Drivers/STM32H7xx_HAL_Driver/Src/stm32h7xx_hal_cordic.c ****   {
 1487              		.loc 1 1264 3 view .LVU432
1264:Drivers/STM32H7xx_HAL_Driver/Src/stm32h7xx_hal_cordic.c ****   {
 1488              		.loc 1 1264 14 is_stmt 0 view .LVU433
 1489 000e 4369     		ldr	r3, [r0, #20]
1264:Drivers/STM32H7xx_HAL_Driver/Src/stm32h7xx_hal_cordic.c ****   {
ARM GAS  C:\Users\thewo\AppData\Local\Temp\ccqHaRNc.s 			page 57


 1490              		.loc 1 1264 6 view .LVU434
 1491 0010 012B     		cmp	r3, #1
 1492 0012 00D0     		beq	.L120
 1493              	.LVL111:
 1494              	.L117:
1281:Drivers/STM32H7xx_HAL_Driver/Src/stm32h7xx_hal_cordic.c **** 
 1495              		.loc 1 1281 1 view .LVU435
 1496 0014 08BD     		pop	{r3, pc}
 1497              	.LVL112:
 1498              	.L120:
1267:Drivers/STM32H7xx_HAL_Driver/Src/stm32h7xx_hal_cordic.c **** 
 1499              		.loc 1 1267 5 is_stmt 1 view .LVU436
1267:Drivers/STM32H7xx_HAL_Driver/Src/stm32h7xx_hal_cordic.c **** 
 1500              		.loc 1 1267 27 is_stmt 0 view .LVU437
 1501 0016 0023     		movs	r3, #0
 1502 0018 4361     		str	r3, [r0, #20]
1270:Drivers/STM32H7xx_HAL_Driver/Src/stm32h7xx_hal_cordic.c **** 
 1503              		.loc 1 1270 5 is_stmt 1 view .LVU438
1270:Drivers/STM32H7xx_HAL_Driver/Src/stm32h7xx_hal_cordic.c **** 
 1504              		.loc 1 1270 20 is_stmt 0 view .LVU439
 1505 001a 0123     		movs	r3, #1
 1506 001c 80F82130 		strb	r3, [r0, #33]
1278:Drivers/STM32H7xx_HAL_Driver/Src/stm32h7xx_hal_cordic.c **** #endif /* USE_HAL_CORDIC_REGISTER_CALLBACKS */
 1507              		.loc 1 1278 5 is_stmt 1 view .LVU440
 1508 0020 FFF7FEFF 		bl	HAL_CORDIC_CalculateCpltCallback
 1509              	.LVL113:
1281:Drivers/STM32H7xx_HAL_Driver/Src/stm32h7xx_hal_cordic.c **** 
 1510              		.loc 1 1281 1 is_stmt 0 view .LVU441
 1511 0024 F6E7     		b	.L117
 1512              		.cfi_endproc
 1513              	.LFE366:
 1515              		.section	.text.CORDIC_DMAOutCplt,"ax",%progbits
 1516              		.align	1
 1517              		.syntax unified
 1518              		.thumb
 1519              		.thumb_func
 1521              	CORDIC_DMAOutCplt:
 1522              	.LVL114:
 1523              	.LFB367:
1289:Drivers/STM32H7xx_HAL_Driver/Src/stm32h7xx_hal_cordic.c ****   CORDIC_HandleTypeDef *hcordic = (CORDIC_HandleTypeDef *)((DMA_HandleTypeDef *)hdma)->Parent;
 1524              		.loc 1 1289 1 is_stmt 1 view -0
 1525              		.cfi_startproc
 1526              		@ args = 0, pretend = 0, frame = 0
 1527              		@ frame_needed = 0, uses_anonymous_args = 0
1289:Drivers/STM32H7xx_HAL_Driver/Src/stm32h7xx_hal_cordic.c ****   CORDIC_HandleTypeDef *hcordic = (CORDIC_HandleTypeDef *)((DMA_HandleTypeDef *)hdma)->Parent;
 1528              		.loc 1 1289 1 is_stmt 0 view .LVU443
 1529 0000 08B5     		push	{r3, lr}
 1530              		.cfi_def_cfa_offset 8
 1531              		.cfi_offset 3, -8
 1532              		.cfi_offset 14, -4
1290:Drivers/STM32H7xx_HAL_Driver/Src/stm32h7xx_hal_cordic.c **** 
 1533              		.loc 1 1290 3 is_stmt 1 view .LVU444
1290:Drivers/STM32H7xx_HAL_Driver/Src/stm32h7xx_hal_cordic.c **** 
 1534              		.loc 1 1290 25 is_stmt 0 view .LVU445
 1535 0002 806B     		ldr	r0, [r0, #56]
 1536              	.LVL115:
1293:Drivers/STM32H7xx_HAL_Driver/Src/stm32h7xx_hal_cordic.c **** 
ARM GAS  C:\Users\thewo\AppData\Local\Temp\ccqHaRNc.s 			page 58


 1537              		.loc 1 1293 3 is_stmt 1 view .LVU446
 1538 0004 0268     		ldr	r2, [r0]
 1539 0006 1368     		ldr	r3, [r2]
 1540 0008 23F40033 		bic	r3, r3, #131072
 1541 000c 1360     		str	r3, [r2]
1296:Drivers/STM32H7xx_HAL_Driver/Src/stm32h7xx_hal_cordic.c **** 
 1542              		.loc 1 1296 3 view .LVU447
1296:Drivers/STM32H7xx_HAL_Driver/Src/stm32h7xx_hal_cordic.c **** 
 1543              		.loc 1 1296 25 is_stmt 0 view .LVU448
 1544 000e 0023     		movs	r3, #0
 1545 0010 4361     		str	r3, [r0, #20]
1299:Drivers/STM32H7xx_HAL_Driver/Src/stm32h7xx_hal_cordic.c **** 
 1546              		.loc 1 1299 3 is_stmt 1 view .LVU449
1299:Drivers/STM32H7xx_HAL_Driver/Src/stm32h7xx_hal_cordic.c **** 
 1547              		.loc 1 1299 18 is_stmt 0 view .LVU450
 1548 0012 0123     		movs	r3, #1
 1549 0014 80F82130 		strb	r3, [r0, #33]
1307:Drivers/STM32H7xx_HAL_Driver/Src/stm32h7xx_hal_cordic.c **** #endif /* USE_HAL_CORDIC_REGISTER_CALLBACKS */
 1550              		.loc 1 1307 3 is_stmt 1 view .LVU451
 1551 0018 FFF7FEFF 		bl	HAL_CORDIC_CalculateCpltCallback
 1552              	.LVL116:
1309:Drivers/STM32H7xx_HAL_Driver/Src/stm32h7xx_hal_cordic.c **** 
 1553              		.loc 1 1309 1 is_stmt 0 view .LVU452
 1554 001c 08BD     		pop	{r3, pc}
 1555              		.cfi_endproc
 1556              	.LFE367:
 1558              		.section	.text.HAL_CORDIC_IRQHandler,"ax",%progbits
 1559              		.align	1
 1560              		.global	HAL_CORDIC_IRQHandler
 1561              		.syntax unified
 1562              		.thumb
 1563              		.thumb_func
 1565              	HAL_CORDIC_IRQHandler:
 1566              	.LVL117:
 1567              	.LFB361:
1098:Drivers/STM32H7xx_HAL_Driver/Src/stm32h7xx_hal_cordic.c ****   /* Check if calculation complete interrupt is enabled and if result ready
 1568              		.loc 1 1098 1 is_stmt 1 view -0
 1569              		.cfi_startproc
 1570              		@ args = 0, pretend = 0, frame = 0
 1571              		@ frame_needed = 0, uses_anonymous_args = 0
1101:Drivers/STM32H7xx_HAL_Driver/Src/stm32h7xx_hal_cordic.c ****   {
 1572              		.loc 1 1101 3 view .LVU454
1101:Drivers/STM32H7xx_HAL_Driver/Src/stm32h7xx_hal_cordic.c ****   {
 1573              		.loc 1 1101 7 is_stmt 0 view .LVU455
 1574 0000 0368     		ldr	r3, [r0]
 1575 0002 1A68     		ldr	r2, [r3]
1101:Drivers/STM32H7xx_HAL_Driver/Src/stm32h7xx_hal_cordic.c ****   {
 1576              		.loc 1 1101 6 view .LVU456
 1577 0004 12F4803F 		tst	r2, #65536
 1578 0008 24D0     		beq	.L127
1098:Drivers/STM32H7xx_HAL_Driver/Src/stm32h7xx_hal_cordic.c ****   /* Check if calculation complete interrupt is enabled and if result ready
 1579              		.loc 1 1098 1 view .LVU457
 1580 000a 10B5     		push	{r4, lr}
 1581              		.cfi_def_cfa_offset 8
 1582              		.cfi_offset 4, -8
 1583              		.cfi_offset 14, -4
 1584 000c 0446     		mov	r4, r0
ARM GAS  C:\Users\thewo\AppData\Local\Temp\ccqHaRNc.s 			page 59


1103:Drivers/STM32H7xx_HAL_Driver/Src/stm32h7xx_hal_cordic.c ****     {
 1585              		.loc 1 1103 5 is_stmt 1 view .LVU458
1103:Drivers/STM32H7xx_HAL_Driver/Src/stm32h7xx_hal_cordic.c ****     {
 1586              		.loc 1 1103 9 is_stmt 0 view .LVU459
 1587 000e 1B68     		ldr	r3, [r3]
1103:Drivers/STM32H7xx_HAL_Driver/Src/stm32h7xx_hal_cordic.c ****     {
 1588              		.loc 1 1103 58 view .LVU460
 1589 0010 002B     		cmp	r3, #0
 1590 0012 00DB     		blt	.L130
 1591              	.LVL118:
 1592              	.L123:
1142:Drivers/STM32H7xx_HAL_Driver/Src/stm32h7xx_hal_cordic.c **** 
 1593              		.loc 1 1142 1 view .LVU461
 1594 0014 10BD     		pop	{r4, pc}
 1595              	.LVL119:
 1596              	.L130:
1106:Drivers/STM32H7xx_HAL_Driver/Src/stm32h7xx_hal_cordic.c **** 
 1597              		.loc 1 1106 7 is_stmt 1 view .LVU462
1106:Drivers/STM32H7xx_HAL_Driver/Src/stm32h7xx_hal_cordic.c **** 
 1598              		.loc 1 1106 14 is_stmt 0 view .LVU463
 1599 0016 0369     		ldr	r3, [r0, #16]
1106:Drivers/STM32H7xx_HAL_Driver/Src/stm32h7xx_hal_cordic.c **** 
 1600              		.loc 1 1106 27 view .LVU464
 1601 0018 013B     		subs	r3, r3, #1
 1602 001a 0361     		str	r3, [r0, #16]
1109:Drivers/STM32H7xx_HAL_Driver/Src/stm32h7xx_hal_cordic.c **** 
 1603              		.loc 1 1109 7 is_stmt 1 view .LVU465
 1604 001c 00F10801 		add	r1, r0, #8
 1605 0020 FFF7FEFF 		bl	CORDIC_ReadOutDataIncrementPtr
 1606              	.LVL120:
1112:Drivers/STM32H7xx_HAL_Driver/Src/stm32h7xx_hal_cordic.c ****       {
 1607              		.loc 1 1112 7 view .LVU466
1112:Drivers/STM32H7xx_HAL_Driver/Src/stm32h7xx_hal_cordic.c ****       {
 1608              		.loc 1 1112 18 is_stmt 0 view .LVU467
 1609 0024 E368     		ldr	r3, [r4, #12]
1112:Drivers/STM32H7xx_HAL_Driver/Src/stm32h7xx_hal_cordic.c ****       {
 1610              		.loc 1 1112 10 view .LVU468
 1611 0026 73B9     		cbnz	r3, .L131
 1612              	.L125:
1123:Drivers/STM32H7xx_HAL_Driver/Src/stm32h7xx_hal_cordic.c ****       {
 1613              		.loc 1 1123 7 is_stmt 1 view .LVU469
1123:Drivers/STM32H7xx_HAL_Driver/Src/stm32h7xx_hal_cordic.c ****       {
 1614              		.loc 1 1123 18 is_stmt 0 view .LVU470
 1615 0028 2369     		ldr	r3, [r4, #16]
1123:Drivers/STM32H7xx_HAL_Driver/Src/stm32h7xx_hal_cordic.c ****       {
 1616              		.loc 1 1123 10 view .LVU471
 1617 002a 002B     		cmp	r3, #0
 1618 002c F2D1     		bne	.L123
1126:Drivers/STM32H7xx_HAL_Driver/Src/stm32h7xx_hal_cordic.c **** 
 1619              		.loc 1 1126 9 is_stmt 1 view .LVU472
 1620 002e 2268     		ldr	r2, [r4]
 1621 0030 1368     		ldr	r3, [r2]
 1622 0032 23F48033 		bic	r3, r3, #65536
 1623 0036 1360     		str	r3, [r2]
1129:Drivers/STM32H7xx_HAL_Driver/Src/stm32h7xx_hal_cordic.c **** 
 1624              		.loc 1 1129 9 view .LVU473
1129:Drivers/STM32H7xx_HAL_Driver/Src/stm32h7xx_hal_cordic.c **** 
ARM GAS  C:\Users\thewo\AppData\Local\Temp\ccqHaRNc.s 			page 60


 1625              		.loc 1 1129 24 is_stmt 0 view .LVU474
 1626 0038 0123     		movs	r3, #1
 1627 003a 84F82130 		strb	r3, [r4, #33]
1137:Drivers/STM32H7xx_HAL_Driver/Src/stm32h7xx_hal_cordic.c **** #endif /* USE_HAL_CORDIC_REGISTER_CALLBACKS */
 1628              		.loc 1 1137 9 is_stmt 1 view .LVU475
 1629 003e 2046     		mov	r0, r4
 1630 0040 FFF7FEFF 		bl	HAL_CORDIC_CalculateCpltCallback
 1631              	.LVL121:
1142:Drivers/STM32H7xx_HAL_Driver/Src/stm32h7xx_hal_cordic.c **** 
 1632              		.loc 1 1142 1 is_stmt 0 view .LVU476
 1633 0044 E6E7     		b	.L123
 1634              	.L131:
1115:Drivers/STM32H7xx_HAL_Driver/Src/stm32h7xx_hal_cordic.c **** 
 1635              		.loc 1 1115 9 is_stmt 1 view .LVU477
1115:Drivers/STM32H7xx_HAL_Driver/Src/stm32h7xx_hal_cordic.c **** 
 1636              		.loc 1 1115 31 is_stmt 0 view .LVU478
 1637 0046 013B     		subs	r3, r3, #1
 1638 0048 E360     		str	r3, [r4, #12]
1119:Drivers/STM32H7xx_HAL_Driver/Src/stm32h7xx_hal_cordic.c ****       }
 1639              		.loc 1 1119 9 is_stmt 1 view .LVU479
 1640 004a 211D     		adds	r1, r4, #4
 1641 004c 2046     		mov	r0, r4
 1642 004e FFF7FEFF 		bl	CORDIC_WriteInDataIncrementPtr
 1643              	.LVL122:
 1644 0052 E9E7     		b	.L125
 1645              	.LVL123:
 1646              	.L127:
 1647              		.cfi_def_cfa_offset 0
 1648              		.cfi_restore 4
 1649              		.cfi_restore 14
1119:Drivers/STM32H7xx_HAL_Driver/Src/stm32h7xx_hal_cordic.c ****       }
 1650              		.loc 1 1119 9 is_stmt 0 view .LVU480
 1651 0054 7047     		bx	lr
 1652              		.cfi_endproc
 1653              	.LFE361:
 1655              		.section	.text.HAL_CORDIC_GetState,"ax",%progbits
 1656              		.align	1
 1657              		.global	HAL_CORDIC_GetState
 1658              		.syntax unified
 1659              		.thumb
 1660              		.thumb_func
 1662              	HAL_CORDIC_GetState:
 1663              	.LVL124:
 1664              	.LFB362:
1169:Drivers/STM32H7xx_HAL_Driver/Src/stm32h7xx_hal_cordic.c ****   /* Return CORDIC handle state */
 1665              		.loc 1 1169 1 is_stmt 1 view -0
 1666              		.cfi_startproc
 1667              		@ args = 0, pretend = 0, frame = 0
 1668              		@ frame_needed = 0, uses_anonymous_args = 0
 1669              		@ link register save eliminated.
1171:Drivers/STM32H7xx_HAL_Driver/Src/stm32h7xx_hal_cordic.c **** }
 1670              		.loc 1 1171 3 view .LVU482
1171:Drivers/STM32H7xx_HAL_Driver/Src/stm32h7xx_hal_cordic.c **** }
 1671              		.loc 1 1171 17 is_stmt 0 view .LVU483
 1672 0000 90F82100 		ldrb	r0, [r0, #33]	@ zero_extendqisi2
 1673              	.LVL125:
1172:Drivers/STM32H7xx_HAL_Driver/Src/stm32h7xx_hal_cordic.c **** 
ARM GAS  C:\Users\thewo\AppData\Local\Temp\ccqHaRNc.s 			page 61


 1674              		.loc 1 1172 1 view .LVU484
 1675 0004 7047     		bx	lr
 1676              		.cfi_endproc
 1677              	.LFE362:
 1679              		.section	.text.HAL_CORDIC_GetError,"ax",%progbits
 1680              		.align	1
 1681              		.global	HAL_CORDIC_GetError
 1682              		.syntax unified
 1683              		.thumb
 1684              		.thumb_func
 1686              	HAL_CORDIC_GetError:
 1687              	.LVL126:
 1688              	.LFB363:
1182:Drivers/STM32H7xx_HAL_Driver/Src/stm32h7xx_hal_cordic.c ****   /* Return CORDIC error code */
 1689              		.loc 1 1182 1 is_stmt 1 view -0
 1690              		.cfi_startproc
 1691              		@ args = 0, pretend = 0, frame = 0
 1692              		@ frame_needed = 0, uses_anonymous_args = 0
 1693              		@ link register save eliminated.
1184:Drivers/STM32H7xx_HAL_Driver/Src/stm32h7xx_hal_cordic.c **** }
 1694              		.loc 1 1184 3 view .LVU486
1184:Drivers/STM32H7xx_HAL_Driver/Src/stm32h7xx_hal_cordic.c **** }
 1695              		.loc 1 1184 17 is_stmt 0 view .LVU487
 1696 0000 406A     		ldr	r0, [r0, #36]
 1697              	.LVL127:
1185:Drivers/STM32H7xx_HAL_Driver/Src/stm32h7xx_hal_cordic.c **** 
 1698              		.loc 1 1185 1 view .LVU488
 1699 0002 7047     		bx	lr
 1700              		.cfi_endproc
 1701              	.LFE363:
 1703              		.text
 1704              	.Letext0:
 1705              		.file 2 "C:/Users/thewo/AppData/Roaming/Code/User/globalStorage/bmd.stm32-for-vscode/@xpack-dev-to
 1706              		.file 3 "C:/Users/thewo/AppData/Roaming/Code/User/globalStorage/bmd.stm32-for-vscode/@xpack-dev-to
 1707              		.file 4 "Drivers/CMSIS/Device/ST/STM32H7xx/Include/stm32h725xx.h"
 1708              		.file 5 "Drivers/STM32H7xx_HAL_Driver/Inc/stm32h7xx_hal_def.h"
 1709              		.file 6 "Drivers/STM32H7xx_HAL_Driver/Inc/stm32h7xx_hal_dma.h"
 1710              		.file 7 "Drivers/STM32H7xx_HAL_Driver/Inc/stm32h7xx_hal_cordic.h"
 1711              		.file 8 "Drivers/STM32H7xx_HAL_Driver/Inc/stm32h7xx_hal.h"
 1712              		.file 9 "Core/Inc/stm32h7xx_hal_conf.h"
ARM GAS  C:\Users\thewo\AppData\Local\Temp\ccqHaRNc.s 			page 62


DEFINED SYMBOLS
                            *ABS*:00000000 stm32h7xx_hal_cordic.c
C:\Users\thewo\AppData\Local\Temp\ccqHaRNc.s:20     .text.CORDIC_WriteInDataIncrementPtr:00000000 $t
C:\Users\thewo\AppData\Local\Temp\ccqHaRNc.s:25     .text.CORDIC_WriteInDataIncrementPtr:00000000 CORDIC_WriteInDataIncrementPtr
C:\Users\thewo\AppData\Local\Temp\ccqHaRNc.s:68     .text.CORDIC_ReadOutDataIncrementPtr:00000000 $t
C:\Users\thewo\AppData\Local\Temp\ccqHaRNc.s:73     .text.CORDIC_ReadOutDataIncrementPtr:00000000 CORDIC_ReadOutDataIncrementPtr
C:\Users\thewo\AppData\Local\Temp\ccqHaRNc.s:121    .text.HAL_CORDIC_MspInit:00000000 $t
C:\Users\thewo\AppData\Local\Temp\ccqHaRNc.s:127    .text.HAL_CORDIC_MspInit:00000000 HAL_CORDIC_MspInit
C:\Users\thewo\AppData\Local\Temp\ccqHaRNc.s:142    .rodata.HAL_CORDIC_Init.str1.4:00000000 $d
C:\Users\thewo\AppData\Local\Temp\ccqHaRNc.s:147    .text.HAL_CORDIC_Init:00000000 $t
C:\Users\thewo\AppData\Local\Temp\ccqHaRNc.s:153    .text.HAL_CORDIC_Init:00000000 HAL_CORDIC_Init
C:\Users\thewo\AppData\Local\Temp\ccqHaRNc.s:237    .text.HAL_CORDIC_Init:00000044 $d
C:\Users\thewo\AppData\Local\Temp\ccqHaRNc.s:243    .text.HAL_CORDIC_MspDeInit:00000000 $t
C:\Users\thewo\AppData\Local\Temp\ccqHaRNc.s:249    .text.HAL_CORDIC_MspDeInit:00000000 HAL_CORDIC_MspDeInit
C:\Users\thewo\AppData\Local\Temp\ccqHaRNc.s:264    .text.HAL_CORDIC_DeInit:00000000 $t
C:\Users\thewo\AppData\Local\Temp\ccqHaRNc.s:270    .text.HAL_CORDIC_DeInit:00000000 HAL_CORDIC_DeInit
C:\Users\thewo\AppData\Local\Temp\ccqHaRNc.s:348    .text.HAL_CORDIC_DeInit:00000040 $d
C:\Users\thewo\AppData\Local\Temp\ccqHaRNc.s:354    .text.HAL_CORDIC_Configure:00000000 $t
C:\Users\thewo\AppData\Local\Temp\ccqHaRNc.s:360    .text.HAL_CORDIC_Configure:00000000 HAL_CORDIC_Configure
C:\Users\thewo\AppData\Local\Temp\ccqHaRNc.s:583    .text.HAL_CORDIC_Configure:00000148 $d
C:\Users\thewo\AppData\Local\Temp\ccqHaRNc.s:589    .text.HAL_CORDIC_Calculate:00000000 $t
C:\Users\thewo\AppData\Local\Temp\ccqHaRNc.s:595    .text.HAL_CORDIC_Calculate:00000000 HAL_CORDIC_Calculate
C:\Users\thewo\AppData\Local\Temp\ccqHaRNc.s:772    .text.HAL_CORDIC_CalculateZO:00000000 $t
C:\Users\thewo\AppData\Local\Temp\ccqHaRNc.s:778    .text.HAL_CORDIC_CalculateZO:00000000 HAL_CORDIC_CalculateZO
C:\Users\thewo\AppData\Local\Temp\ccqHaRNc.s:946    .text.HAL_CORDIC_Calculate_IT:00000000 $t
C:\Users\thewo\AppData\Local\Temp\ccqHaRNc.s:952    .text.HAL_CORDIC_Calculate_IT:00000000 HAL_CORDIC_Calculate_IT
C:\Users\thewo\AppData\Local\Temp\ccqHaRNc.s:1097   .text.HAL_CORDIC_Calculate_DMA:00000000 $t
C:\Users\thewo\AppData\Local\Temp\ccqHaRNc.s:1103   .text.HAL_CORDIC_Calculate_DMA:00000000 HAL_CORDIC_Calculate_DMA
C:\Users\thewo\AppData\Local\Temp\ccqHaRNc.s:1371   .text.HAL_CORDIC_Calculate_DMA:0000011c $d
C:\Users\thewo\AppData\Local\Temp\ccqHaRNc.s:1466   .text.CORDIC_DMAInCplt:00000000 CORDIC_DMAInCplt
C:\Users\thewo\AppData\Local\Temp\ccqHaRNc.s:1405   .text.CORDIC_DMAError:00000000 CORDIC_DMAError
C:\Users\thewo\AppData\Local\Temp\ccqHaRNc.s:1521   .text.CORDIC_DMAOutCplt:00000000 CORDIC_DMAOutCplt
C:\Users\thewo\AppData\Local\Temp\ccqHaRNc.s:1379   .text.HAL_CORDIC_ErrorCallback:00000000 $t
C:\Users\thewo\AppData\Local\Temp\ccqHaRNc.s:1385   .text.HAL_CORDIC_ErrorCallback:00000000 HAL_CORDIC_ErrorCallback
C:\Users\thewo\AppData\Local\Temp\ccqHaRNc.s:1400   .text.CORDIC_DMAError:00000000 $t
C:\Users\thewo\AppData\Local\Temp\ccqHaRNc.s:1440   .text.HAL_CORDIC_CalculateCpltCallback:00000000 $t
C:\Users\thewo\AppData\Local\Temp\ccqHaRNc.s:1446   .text.HAL_CORDIC_CalculateCpltCallback:00000000 HAL_CORDIC_CalculateCpltCallback
C:\Users\thewo\AppData\Local\Temp\ccqHaRNc.s:1461   .text.CORDIC_DMAInCplt:00000000 $t
C:\Users\thewo\AppData\Local\Temp\ccqHaRNc.s:1516   .text.CORDIC_DMAOutCplt:00000000 $t
C:\Users\thewo\AppData\Local\Temp\ccqHaRNc.s:1559   .text.HAL_CORDIC_IRQHandler:00000000 $t
C:\Users\thewo\AppData\Local\Temp\ccqHaRNc.s:1565   .text.HAL_CORDIC_IRQHandler:00000000 HAL_CORDIC_IRQHandler
C:\Users\thewo\AppData\Local\Temp\ccqHaRNc.s:1656   .text.HAL_CORDIC_GetState:00000000 $t
C:\Users\thewo\AppData\Local\Temp\ccqHaRNc.s:1662   .text.HAL_CORDIC_GetState:00000000 HAL_CORDIC_GetState
C:\Users\thewo\AppData\Local\Temp\ccqHaRNc.s:1680   .text.HAL_CORDIC_GetError:00000000 $t
C:\Users\thewo\AppData\Local\Temp\ccqHaRNc.s:1686   .text.HAL_CORDIC_GetError:00000000 HAL_CORDIC_GetError

UNDEFINED SYMBOLS
assert_failed
HAL_GetTick
HAL_DMA_Start_IT
