ARM GAS  C:\Users\thewo\AppData\Local\Temp\ccxuDTrk.s 			page 1


   1              		.cpu cortex-m7
   2              		.arch armv7e-m
   3              		.fpu fpv5-d16
   4              		.eabi_attribute 28, 1
   5              		.eabi_attribute 20, 1
   6              		.eabi_attribute 21, 1
   7              		.eabi_attribute 23, 3
   8              		.eabi_attribute 24, 1
   9              		.eabi_attribute 25, 1
  10              		.eabi_attribute 26, 1
  11              		.eabi_attribute 30, 1
  12              		.eabi_attribute 34, 1
  13              		.eabi_attribute 18, 4
  14              		.file	"stm32h7xx_hal_rcc.c"
  15              		.text
  16              	.Ltext0:
  17              		.cfi_sections	.debug_frame
  18              		.file 1 "Drivers/STM32H7xx_HAL_Driver/Src/stm32h7xx_hal_rcc.c"
  19              		.section	.text.HAL_RCC_DeInit,"ax",%progbits
  20              		.align	1
  21              		.global	HAL_RCC_DeInit
  22              		.syntax unified
  23              		.thumb
  24              		.thumb_func
  26              	HAL_RCC_DeInit:
  27              	.LFB350:
   1:Drivers/STM32H7xx_HAL_Driver/Src/stm32h7xx_hal_rcc.c **** /**
   2:Drivers/STM32H7xx_HAL_Driver/Src/stm32h7xx_hal_rcc.c ****   ******************************************************************************
   3:Drivers/STM32H7xx_HAL_Driver/Src/stm32h7xx_hal_rcc.c ****   * @file    stm32h7xx_hal_rcc.c
   4:Drivers/STM32H7xx_HAL_Driver/Src/stm32h7xx_hal_rcc.c ****   * @author  MCD Application Team
   5:Drivers/STM32H7xx_HAL_Driver/Src/stm32h7xx_hal_rcc.c ****   * @brief   RCC HAL module driver.
   6:Drivers/STM32H7xx_HAL_Driver/Src/stm32h7xx_hal_rcc.c ****   *          This file provides firmware functions to manage the following
   7:Drivers/STM32H7xx_HAL_Driver/Src/stm32h7xx_hal_rcc.c ****   *          functionalities of the Reset and Clock Control (RCC) peripheral:
   8:Drivers/STM32H7xx_HAL_Driver/Src/stm32h7xx_hal_rcc.c ****   *           + Initialization and de-initialization functions
   9:Drivers/STM32H7xx_HAL_Driver/Src/stm32h7xx_hal_rcc.c ****   *           + Peripheral Control functions
  10:Drivers/STM32H7xx_HAL_Driver/Src/stm32h7xx_hal_rcc.c ****   *
  11:Drivers/STM32H7xx_HAL_Driver/Src/stm32h7xx_hal_rcc.c ****   @verbatim
  12:Drivers/STM32H7xx_HAL_Driver/Src/stm32h7xx_hal_rcc.c ****   ==============================================================================
  13:Drivers/STM32H7xx_HAL_Driver/Src/stm32h7xx_hal_rcc.c ****                       ##### RCC specific features #####
  14:Drivers/STM32H7xx_HAL_Driver/Src/stm32h7xx_hal_rcc.c ****   ==============================================================================
  15:Drivers/STM32H7xx_HAL_Driver/Src/stm32h7xx_hal_rcc.c ****     [..]
  16:Drivers/STM32H7xx_HAL_Driver/Src/stm32h7xx_hal_rcc.c ****       After reset the device is running from Internal High Speed oscillator
  17:Drivers/STM32H7xx_HAL_Driver/Src/stm32h7xx_hal_rcc.c ****       (HSI 64MHz) with Flash 0 wait state,and all peripherals are off except
  18:Drivers/STM32H7xx_HAL_Driver/Src/stm32h7xx_hal_rcc.c ****       internal SRAM, Flash, JTAG and PWR
  19:Drivers/STM32H7xx_HAL_Driver/Src/stm32h7xx_hal_rcc.c ****       (+) There is no pre-scaler on High speed (AHB) and Low speed (APB) buses;
  20:Drivers/STM32H7xx_HAL_Driver/Src/stm32h7xx_hal_rcc.c ****           all peripherals mapped on these buses are running at HSI speed.
  21:Drivers/STM32H7xx_HAL_Driver/Src/stm32h7xx_hal_rcc.c ****       (+) The clock for all peripherals is switched off, except the SRAM and FLASH.
  22:Drivers/STM32H7xx_HAL_Driver/Src/stm32h7xx_hal_rcc.c ****       (+) All GPIOs are in analogue mode , except the JTAG pins which
  23:Drivers/STM32H7xx_HAL_Driver/Src/stm32h7xx_hal_rcc.c ****           are assigned to be used for debug purpose.
  24:Drivers/STM32H7xx_HAL_Driver/Src/stm32h7xx_hal_rcc.c **** 
  25:Drivers/STM32H7xx_HAL_Driver/Src/stm32h7xx_hal_rcc.c ****     [..]
  26:Drivers/STM32H7xx_HAL_Driver/Src/stm32h7xx_hal_rcc.c ****       Once the device started from reset, the user application has to:
  27:Drivers/STM32H7xx_HAL_Driver/Src/stm32h7xx_hal_rcc.c ****       (+) Configure the clock source to be used to drive the System clock
  28:Drivers/STM32H7xx_HAL_Driver/Src/stm32h7xx_hal_rcc.c ****           (if the application needs higher frequency/performance)
  29:Drivers/STM32H7xx_HAL_Driver/Src/stm32h7xx_hal_rcc.c ****       (+) Configure the System clock frequency and Flash settings
  30:Drivers/STM32H7xx_HAL_Driver/Src/stm32h7xx_hal_rcc.c ****       (+) Configure the AHB and APB buses pre-scalers
  31:Drivers/STM32H7xx_HAL_Driver/Src/stm32h7xx_hal_rcc.c ****       (+) Enable the clock for the peripheral(s) to be used
ARM GAS  C:\Users\thewo\AppData\Local\Temp\ccxuDTrk.s 			page 2


  32:Drivers/STM32H7xx_HAL_Driver/Src/stm32h7xx_hal_rcc.c ****       (+) Configure the clock kernel source(s) for peripherals which clocks are not
  33:Drivers/STM32H7xx_HAL_Driver/Src/stm32h7xx_hal_rcc.c ****           derived from the System clock through :RCC_D1CCIPR,RCC_D2CCIP1R,RCC_D2CCIP2R
  34:Drivers/STM32H7xx_HAL_Driver/Src/stm32h7xx_hal_rcc.c ****           and RCC_D3CCIPR registers
  35:Drivers/STM32H7xx_HAL_Driver/Src/stm32h7xx_hal_rcc.c **** 
  36:Drivers/STM32H7xx_HAL_Driver/Src/stm32h7xx_hal_rcc.c ****                       ##### RCC Limitations #####
  37:Drivers/STM32H7xx_HAL_Driver/Src/stm32h7xx_hal_rcc.c ****   ==============================================================================
  38:Drivers/STM32H7xx_HAL_Driver/Src/stm32h7xx_hal_rcc.c ****     [..]
  39:Drivers/STM32H7xx_HAL_Driver/Src/stm32h7xx_hal_rcc.c ****       A delay between an RCC peripheral clock enable and the effective peripheral
  40:Drivers/STM32H7xx_HAL_Driver/Src/stm32h7xx_hal_rcc.c ****       enabling should be taken into account in order to manage the peripheral read/write
  41:Drivers/STM32H7xx_HAL_Driver/Src/stm32h7xx_hal_rcc.c ****       from/to registers.
  42:Drivers/STM32H7xx_HAL_Driver/Src/stm32h7xx_hal_rcc.c ****       (+) This delay depends on the peripheral mapping.
  43:Drivers/STM32H7xx_HAL_Driver/Src/stm32h7xx_hal_rcc.c ****       (+) If peripheral is mapped on AHB: the delay is 2 AHB clock cycle
  44:Drivers/STM32H7xx_HAL_Driver/Src/stm32h7xx_hal_rcc.c ****           after the clock enable bit is set on the hardware register
  45:Drivers/STM32H7xx_HAL_Driver/Src/stm32h7xx_hal_rcc.c ****       (+) If peripheral is mapped on APB: the delay is 2 APB clock cycle
  46:Drivers/STM32H7xx_HAL_Driver/Src/stm32h7xx_hal_rcc.c ****           after the clock enable bit is set on the hardware register
  47:Drivers/STM32H7xx_HAL_Driver/Src/stm32h7xx_hal_rcc.c **** 
  48:Drivers/STM32H7xx_HAL_Driver/Src/stm32h7xx_hal_rcc.c ****     [..]
  49:Drivers/STM32H7xx_HAL_Driver/Src/stm32h7xx_hal_rcc.c ****       Implemented Workaround:
  50:Drivers/STM32H7xx_HAL_Driver/Src/stm32h7xx_hal_rcc.c ****       (+) For AHB & APB peripherals, a dummy read to the peripheral register has been
  51:Drivers/STM32H7xx_HAL_Driver/Src/stm32h7xx_hal_rcc.c ****           inserted in each __HAL_RCC_PPP_CLK_ENABLE() macro.
  52:Drivers/STM32H7xx_HAL_Driver/Src/stm32h7xx_hal_rcc.c **** 
  53:Drivers/STM32H7xx_HAL_Driver/Src/stm32h7xx_hal_rcc.c ****   @endverbatim
  54:Drivers/STM32H7xx_HAL_Driver/Src/stm32h7xx_hal_rcc.c ****  ******************************************************************************
  55:Drivers/STM32H7xx_HAL_Driver/Src/stm32h7xx_hal_rcc.c ****   * @attention
  56:Drivers/STM32H7xx_HAL_Driver/Src/stm32h7xx_hal_rcc.c ****   *
  57:Drivers/STM32H7xx_HAL_Driver/Src/stm32h7xx_hal_rcc.c ****   * Copyright (c) 2017 STMicroelectronics.
  58:Drivers/STM32H7xx_HAL_Driver/Src/stm32h7xx_hal_rcc.c ****   * All rights reserved.
  59:Drivers/STM32H7xx_HAL_Driver/Src/stm32h7xx_hal_rcc.c ****   *
  60:Drivers/STM32H7xx_HAL_Driver/Src/stm32h7xx_hal_rcc.c ****   * This software is licensed under terms that can be found in the LICENSE file in
  61:Drivers/STM32H7xx_HAL_Driver/Src/stm32h7xx_hal_rcc.c ****   * the root directory of this software component.
  62:Drivers/STM32H7xx_HAL_Driver/Src/stm32h7xx_hal_rcc.c ****   * If no LICENSE file comes with this software, it is provided AS-IS.
  63:Drivers/STM32H7xx_HAL_Driver/Src/stm32h7xx_hal_rcc.c ****   ******************************************************************************
  64:Drivers/STM32H7xx_HAL_Driver/Src/stm32h7xx_hal_rcc.c ****   */
  65:Drivers/STM32H7xx_HAL_Driver/Src/stm32h7xx_hal_rcc.c **** 
  66:Drivers/STM32H7xx_HAL_Driver/Src/stm32h7xx_hal_rcc.c **** /* Includes ------------------------------------------------------------------*/
  67:Drivers/STM32H7xx_HAL_Driver/Src/stm32h7xx_hal_rcc.c **** #include "stm32h7xx_hal.h"
  68:Drivers/STM32H7xx_HAL_Driver/Src/stm32h7xx_hal_rcc.c **** 
  69:Drivers/STM32H7xx_HAL_Driver/Src/stm32h7xx_hal_rcc.c **** /** @addtogroup STM32H7xx_HAL_Driver
  70:Drivers/STM32H7xx_HAL_Driver/Src/stm32h7xx_hal_rcc.c ****   * @{
  71:Drivers/STM32H7xx_HAL_Driver/Src/stm32h7xx_hal_rcc.c ****   */
  72:Drivers/STM32H7xx_HAL_Driver/Src/stm32h7xx_hal_rcc.c **** 
  73:Drivers/STM32H7xx_HAL_Driver/Src/stm32h7xx_hal_rcc.c **** /** @defgroup RCC  RCC
  74:Drivers/STM32H7xx_HAL_Driver/Src/stm32h7xx_hal_rcc.c ****   * @brief RCC HAL module driver
  75:Drivers/STM32H7xx_HAL_Driver/Src/stm32h7xx_hal_rcc.c ****   * @{
  76:Drivers/STM32H7xx_HAL_Driver/Src/stm32h7xx_hal_rcc.c ****   */
  77:Drivers/STM32H7xx_HAL_Driver/Src/stm32h7xx_hal_rcc.c **** 
  78:Drivers/STM32H7xx_HAL_Driver/Src/stm32h7xx_hal_rcc.c **** #ifdef HAL_RCC_MODULE_ENABLED
  79:Drivers/STM32H7xx_HAL_Driver/Src/stm32h7xx_hal_rcc.c **** 
  80:Drivers/STM32H7xx_HAL_Driver/Src/stm32h7xx_hal_rcc.c **** /* Private typedef -----------------------------------------------------------*/
  81:Drivers/STM32H7xx_HAL_Driver/Src/stm32h7xx_hal_rcc.c **** /* Private define ------------------------------------------------------------*/
  82:Drivers/STM32H7xx_HAL_Driver/Src/stm32h7xx_hal_rcc.c **** /* Private macro -------------------------------------------------------------*/
  83:Drivers/STM32H7xx_HAL_Driver/Src/stm32h7xx_hal_rcc.c **** /** @defgroup RCC_Private_Macros RCC Private Macros
  84:Drivers/STM32H7xx_HAL_Driver/Src/stm32h7xx_hal_rcc.c ****   * @{
  85:Drivers/STM32H7xx_HAL_Driver/Src/stm32h7xx_hal_rcc.c ****   */
  86:Drivers/STM32H7xx_HAL_Driver/Src/stm32h7xx_hal_rcc.c **** #define MCO1_CLK_ENABLE()     __HAL_RCC_GPIOA_CLK_ENABLE()
  87:Drivers/STM32H7xx_HAL_Driver/Src/stm32h7xx_hal_rcc.c **** #define MCO1_GPIO_PORT        GPIOA
  88:Drivers/STM32H7xx_HAL_Driver/Src/stm32h7xx_hal_rcc.c **** #define MCO1_PIN              GPIO_PIN_8
ARM GAS  C:\Users\thewo\AppData\Local\Temp\ccxuDTrk.s 			page 3


  89:Drivers/STM32H7xx_HAL_Driver/Src/stm32h7xx_hal_rcc.c **** 
  90:Drivers/STM32H7xx_HAL_Driver/Src/stm32h7xx_hal_rcc.c **** #define MCO2_CLK_ENABLE()      __HAL_RCC_GPIOC_CLK_ENABLE()
  91:Drivers/STM32H7xx_HAL_Driver/Src/stm32h7xx_hal_rcc.c **** #define MCO2_GPIO_PORT         GPIOC
  92:Drivers/STM32H7xx_HAL_Driver/Src/stm32h7xx_hal_rcc.c **** #define MCO2_PIN               GPIO_PIN_9
  93:Drivers/STM32H7xx_HAL_Driver/Src/stm32h7xx_hal_rcc.c **** 
  94:Drivers/STM32H7xx_HAL_Driver/Src/stm32h7xx_hal_rcc.c **** /**
  95:Drivers/STM32H7xx_HAL_Driver/Src/stm32h7xx_hal_rcc.c ****   * @}
  96:Drivers/STM32H7xx_HAL_Driver/Src/stm32h7xx_hal_rcc.c ****   */
  97:Drivers/STM32H7xx_HAL_Driver/Src/stm32h7xx_hal_rcc.c **** /* Private variables ---------------------------------------------------------*/
  98:Drivers/STM32H7xx_HAL_Driver/Src/stm32h7xx_hal_rcc.c **** /** @defgroup RCC_Private_Variables RCC Private Variables
  99:Drivers/STM32H7xx_HAL_Driver/Src/stm32h7xx_hal_rcc.c ****   * @{
 100:Drivers/STM32H7xx_HAL_Driver/Src/stm32h7xx_hal_rcc.c ****   */
 101:Drivers/STM32H7xx_HAL_Driver/Src/stm32h7xx_hal_rcc.c **** 
 102:Drivers/STM32H7xx_HAL_Driver/Src/stm32h7xx_hal_rcc.c **** /**
 103:Drivers/STM32H7xx_HAL_Driver/Src/stm32h7xx_hal_rcc.c ****   * @}
 104:Drivers/STM32H7xx_HAL_Driver/Src/stm32h7xx_hal_rcc.c ****   */
 105:Drivers/STM32H7xx_HAL_Driver/Src/stm32h7xx_hal_rcc.c **** /* Private function prototypes -----------------------------------------------*/
 106:Drivers/STM32H7xx_HAL_Driver/Src/stm32h7xx_hal_rcc.c **** /* Exported functions --------------------------------------------------------*/
 107:Drivers/STM32H7xx_HAL_Driver/Src/stm32h7xx_hal_rcc.c **** 
 108:Drivers/STM32H7xx_HAL_Driver/Src/stm32h7xx_hal_rcc.c **** /** @defgroup RCC_Exported_Functions RCC Exported Functions
 109:Drivers/STM32H7xx_HAL_Driver/Src/stm32h7xx_hal_rcc.c ****   * @{
 110:Drivers/STM32H7xx_HAL_Driver/Src/stm32h7xx_hal_rcc.c ****   */
 111:Drivers/STM32H7xx_HAL_Driver/Src/stm32h7xx_hal_rcc.c **** 
 112:Drivers/STM32H7xx_HAL_Driver/Src/stm32h7xx_hal_rcc.c **** /** @defgroup RCC_Exported_Functions_Group1 Initialization and de-initialization functions
 113:Drivers/STM32H7xx_HAL_Driver/Src/stm32h7xx_hal_rcc.c ****  *  @brief    Initialization and Configuration functions
 114:Drivers/STM32H7xx_HAL_Driver/Src/stm32h7xx_hal_rcc.c ****  *
 115:Drivers/STM32H7xx_HAL_Driver/Src/stm32h7xx_hal_rcc.c **** @verbatim
 116:Drivers/STM32H7xx_HAL_Driver/Src/stm32h7xx_hal_rcc.c ****  ===============================================================================
 117:Drivers/STM32H7xx_HAL_Driver/Src/stm32h7xx_hal_rcc.c ****            ##### Initialization and de-initialization functions #####
 118:Drivers/STM32H7xx_HAL_Driver/Src/stm32h7xx_hal_rcc.c ****  ===============================================================================
 119:Drivers/STM32H7xx_HAL_Driver/Src/stm32h7xx_hal_rcc.c ****     [..]
 120:Drivers/STM32H7xx_HAL_Driver/Src/stm32h7xx_hal_rcc.c ****       This section provides functions allowing to configure the internal/external oscillators
 121:Drivers/STM32H7xx_HAL_Driver/Src/stm32h7xx_hal_rcc.c ****       (HSE, HSI, LSE,CSI, LSI,HSI48, PLL, CSS and MCO) and the System buses clocks (SYSCLK, AHB3, A
 122:Drivers/STM32H7xx_HAL_Driver/Src/stm32h7xx_hal_rcc.c ****        AHB2,AHB4,APB3, APB1L, APB1H, APB2, and APB4).
 123:Drivers/STM32H7xx_HAL_Driver/Src/stm32h7xx_hal_rcc.c **** 
 124:Drivers/STM32H7xx_HAL_Driver/Src/stm32h7xx_hal_rcc.c ****     [..] Internal/external clock and PLL configuration
 125:Drivers/STM32H7xx_HAL_Driver/Src/stm32h7xx_hal_rcc.c ****          (#) HSI (high-speed internal), 64 MHz factory-trimmed RC used directly or through
 126:Drivers/STM32H7xx_HAL_Driver/Src/stm32h7xx_hal_rcc.c ****              the PLL as System clock source.
 127:Drivers/STM32H7xx_HAL_Driver/Src/stm32h7xx_hal_rcc.c ****          (#) CSI is a low-power RC oscillator which can be used directly as system clock, periphera
 128:Drivers/STM32H7xx_HAL_Driver/Src/stm32h7xx_hal_rcc.c ****              clock, or PLL input.But even with frequency calibration, is less accurate than an
 129:Drivers/STM32H7xx_HAL_Driver/Src/stm32h7xx_hal_rcc.c ****              external crystal oscillator or ceramic resonator.
 130:Drivers/STM32H7xx_HAL_Driver/Src/stm32h7xx_hal_rcc.c ****          (#) LSI (low-speed internal), 32 KHz low consumption RC used as IWDG and/or RTC
 131:Drivers/STM32H7xx_HAL_Driver/Src/stm32h7xx_hal_rcc.c ****              clock source.
 132:Drivers/STM32H7xx_HAL_Driver/Src/stm32h7xx_hal_rcc.c **** 
 133:Drivers/STM32H7xx_HAL_Driver/Src/stm32h7xx_hal_rcc.c ****          (#) HSE (high-speed external), 4 to 48 MHz crystal oscillator used directly or
 134:Drivers/STM32H7xx_HAL_Driver/Src/stm32h7xx_hal_rcc.c ****              through the PLL as System clock source. Can be used also as RTC clock source.
 135:Drivers/STM32H7xx_HAL_Driver/Src/stm32h7xx_hal_rcc.c **** 
 136:Drivers/STM32H7xx_HAL_Driver/Src/stm32h7xx_hal_rcc.c ****          (#) LSE (low-speed external), 32 KHz oscillator used as RTC clock source.
 137:Drivers/STM32H7xx_HAL_Driver/Src/stm32h7xx_hal_rcc.c **** 
 138:Drivers/STM32H7xx_HAL_Driver/Src/stm32h7xx_hal_rcc.c ****          (#) PLL , The RCC features three independent PLLs (clocked by HSI , HSE or CSI),
 139:Drivers/STM32H7xx_HAL_Driver/Src/stm32h7xx_hal_rcc.c ****              featuring three different output clocks and able  to work either in integer or Fractio
 140:Drivers/STM32H7xx_HAL_Driver/Src/stm32h7xx_hal_rcc.c ****            (++) A main PLL, PLL1, which is generally used to provide clocks to the CPU
 141:Drivers/STM32H7xx_HAL_Driver/Src/stm32h7xx_hal_rcc.c ****                 and to some peripherals.
 142:Drivers/STM32H7xx_HAL_Driver/Src/stm32h7xx_hal_rcc.c ****            (++) Two dedicated PLLs, PLL2 and PLL3, which are used to generate the kernel clock for 
 143:Drivers/STM32H7xx_HAL_Driver/Src/stm32h7xx_hal_rcc.c **** 
 144:Drivers/STM32H7xx_HAL_Driver/Src/stm32h7xx_hal_rcc.c **** 
 145:Drivers/STM32H7xx_HAL_Driver/Src/stm32h7xx_hal_rcc.c ****          (#) CSS (Clock security system), once enabled and if a HSE clock failure occurs
ARM GAS  C:\Users\thewo\AppData\Local\Temp\ccxuDTrk.s 			page 4


 146:Drivers/STM32H7xx_HAL_Driver/Src/stm32h7xx_hal_rcc.c ****             (HSE used directly or through PLL as System clock source), the System clock
 147:Drivers/STM32H7xx_HAL_Driver/Src/stm32h7xx_hal_rcc.c ****              is automatically switched to HSI and an interrupt is generated if enabled.
 148:Drivers/STM32H7xx_HAL_Driver/Src/stm32h7xx_hal_rcc.c ****              The interrupt is linked to the Cortex-M NMI (Non-Mask-able Interrupt)
 149:Drivers/STM32H7xx_HAL_Driver/Src/stm32h7xx_hal_rcc.c ****              exception vector.
 150:Drivers/STM32H7xx_HAL_Driver/Src/stm32h7xx_hal_rcc.c **** 
 151:Drivers/STM32H7xx_HAL_Driver/Src/stm32h7xx_hal_rcc.c ****          (#) MCO1 (micro controller clock output), used to output HSI, LSE, HSE, PLL1(PLL1_Q)
 152:Drivers/STM32H7xx_HAL_Driver/Src/stm32h7xx_hal_rcc.c ****              or HSI48 clock (through a configurable pre-scaler) on PA8 pin.
 153:Drivers/STM32H7xx_HAL_Driver/Src/stm32h7xx_hal_rcc.c **** 
 154:Drivers/STM32H7xx_HAL_Driver/Src/stm32h7xx_hal_rcc.c ****          (#) MCO2 (micro controller clock output), used to output HSE, PLL2(PLL2_P), SYSCLK,
 155:Drivers/STM32H7xx_HAL_Driver/Src/stm32h7xx_hal_rcc.c ****              LSI, CSI, or PLL1(PLL1_P) clock (through a configurable pre-scaler) on PC9 pin.
 156:Drivers/STM32H7xx_HAL_Driver/Src/stm32h7xx_hal_rcc.c **** 
 157:Drivers/STM32H7xx_HAL_Driver/Src/stm32h7xx_hal_rcc.c ****     [..] System, AHB and APB buses clocks configuration
 158:Drivers/STM32H7xx_HAL_Driver/Src/stm32h7xx_hal_rcc.c ****          (#) Several clock sources can be used to drive the System clock (SYSCLK): CSI,HSI,
 159:Drivers/STM32H7xx_HAL_Driver/Src/stm32h7xx_hal_rcc.c ****              HSE and PLL.
 160:Drivers/STM32H7xx_HAL_Driver/Src/stm32h7xx_hal_rcc.c ****              The AHB clock (HCLK) is derived from System core clock through configurable
 161:Drivers/STM32H7xx_HAL_Driver/Src/stm32h7xx_hal_rcc.c ****              pre-scaler and used to clock the CPU, memory and peripherals mapped
 162:Drivers/STM32H7xx_HAL_Driver/Src/stm32h7xx_hal_rcc.c ****              on AHB and APB bus of the 3 Domains (D1, D2, D3)* through configurable pre-scalers
 163:Drivers/STM32H7xx_HAL_Driver/Src/stm32h7xx_hal_rcc.c ****              and used to clock the peripherals mapped on these buses. You can use
 164:Drivers/STM32H7xx_HAL_Driver/Src/stm32h7xx_hal_rcc.c ****              "HAL_RCC_GetSysClockFreq()" function to retrieve system clock frequency.
 165:Drivers/STM32H7xx_HAL_Driver/Src/stm32h7xx_hal_rcc.c **** 
 166:Drivers/STM32H7xx_HAL_Driver/Src/stm32h7xx_hal_rcc.c ****          -@- All the peripheral clocks are derived from the System clock (SYSCLK) except those
 167:Drivers/STM32H7xx_HAL_Driver/Src/stm32h7xx_hal_rcc.c ****              with dual clock domain where kernel source clock could be selected through
 168:Drivers/STM32H7xx_HAL_Driver/Src/stm32h7xx_hal_rcc.c ****              RCC_D1CCIPR,RCC_D2CCIP1R,RCC_D2CCIP2R and RCC_D3CCIPR registers.
 169:Drivers/STM32H7xx_HAL_Driver/Src/stm32h7xx_hal_rcc.c **** 
 170:Drivers/STM32H7xx_HAL_Driver/Src/stm32h7xx_hal_rcc.c ****      (*) : 2 Domains (CD and SRD) for stm32h7a3xx and stm32h7b3xx family lines.
 171:Drivers/STM32H7xx_HAL_Driver/Src/stm32h7xx_hal_rcc.c **** @endverbatim
 172:Drivers/STM32H7xx_HAL_Driver/Src/stm32h7xx_hal_rcc.c ****   * @{
 173:Drivers/STM32H7xx_HAL_Driver/Src/stm32h7xx_hal_rcc.c ****   */
 174:Drivers/STM32H7xx_HAL_Driver/Src/stm32h7xx_hal_rcc.c **** 
 175:Drivers/STM32H7xx_HAL_Driver/Src/stm32h7xx_hal_rcc.c **** /**
 176:Drivers/STM32H7xx_HAL_Driver/Src/stm32h7xx_hal_rcc.c ****   * @brief  Resets the RCC clock configuration to the default reset state.
 177:Drivers/STM32H7xx_HAL_Driver/Src/stm32h7xx_hal_rcc.c ****   * @note   The default reset state of the clock configuration is given below:
 178:Drivers/STM32H7xx_HAL_Driver/Src/stm32h7xx_hal_rcc.c ****   *            - HSI ON and used as system clock source
 179:Drivers/STM32H7xx_HAL_Driver/Src/stm32h7xx_hal_rcc.c ****   *            - HSE, PLL1, PLL2 and PLL3 OFF
 180:Drivers/STM32H7xx_HAL_Driver/Src/stm32h7xx_hal_rcc.c ****   *            - AHB, APB Bus pre-scaler set to 1.
 181:Drivers/STM32H7xx_HAL_Driver/Src/stm32h7xx_hal_rcc.c ****   *            - CSS, MCO1 and MCO2 OFF
 182:Drivers/STM32H7xx_HAL_Driver/Src/stm32h7xx_hal_rcc.c ****   *            - All interrupts disabled
 183:Drivers/STM32H7xx_HAL_Driver/Src/stm32h7xx_hal_rcc.c ****   * @note   This function doesn't modify the configuration of the
 184:Drivers/STM32H7xx_HAL_Driver/Src/stm32h7xx_hal_rcc.c ****   *            - Peripheral clocks
 185:Drivers/STM32H7xx_HAL_Driver/Src/stm32h7xx_hal_rcc.c ****   *            - LSI, LSE and RTC clocks
 186:Drivers/STM32H7xx_HAL_Driver/Src/stm32h7xx_hal_rcc.c ****   * @retval HAL status
 187:Drivers/STM32H7xx_HAL_Driver/Src/stm32h7xx_hal_rcc.c ****   */
 188:Drivers/STM32H7xx_HAL_Driver/Src/stm32h7xx_hal_rcc.c **** HAL_StatusTypeDef HAL_RCC_DeInit(void)
 189:Drivers/STM32H7xx_HAL_Driver/Src/stm32h7xx_hal_rcc.c **** {
  28              		.loc 1 189 1 view -0
  29              		.cfi_startproc
  30              		@ args = 0, pretend = 0, frame = 0
  31              		@ frame_needed = 0, uses_anonymous_args = 0
  32 0000 38B5     		push	{r3, r4, r5, lr}
  33              		.cfi_def_cfa_offset 16
  34              		.cfi_offset 3, -16
  35              		.cfi_offset 4, -12
  36              		.cfi_offset 5, -8
  37              		.cfi_offset 14, -4
 190:Drivers/STM32H7xx_HAL_Driver/Src/stm32h7xx_hal_rcc.c ****   uint32_t tickstart;
  38              		.loc 1 190 3 view .LVU1
 191:Drivers/STM32H7xx_HAL_Driver/Src/stm32h7xx_hal_rcc.c **** 
ARM GAS  C:\Users\thewo\AppData\Local\Temp\ccxuDTrk.s 			page 5


 192:Drivers/STM32H7xx_HAL_Driver/Src/stm32h7xx_hal_rcc.c ****   /* Increasing the CPU frequency */
 193:Drivers/STM32H7xx_HAL_Driver/Src/stm32h7xx_hal_rcc.c ****   if (FLASH_LATENCY_DEFAULT  > __HAL_FLASH_GET_LATENCY())
  39              		.loc 1 193 3 view .LVU2
  40              		.loc 1 193 32 is_stmt 0 view .LVU3
  41 0002 684B     		ldr	r3, .L33
  42 0004 1B68     		ldr	r3, [r3]
  43 0006 03F00F03 		and	r3, r3, #15
  44              		.loc 1 193 6 view .LVU4
  45 000a 062B     		cmp	r3, #6
  46 000c 0CD8     		bhi	.L2
 194:Drivers/STM32H7xx_HAL_Driver/Src/stm32h7xx_hal_rcc.c ****   {
 195:Drivers/STM32H7xx_HAL_Driver/Src/stm32h7xx_hal_rcc.c ****     /* Program the new number of wait states to the LATENCY bits in the FLASH_ACR register */
 196:Drivers/STM32H7xx_HAL_Driver/Src/stm32h7xx_hal_rcc.c ****     __HAL_FLASH_SET_LATENCY(FLASH_LATENCY_DEFAULT);
  47              		.loc 1 196 5 is_stmt 1 view .LVU5
  48 000e 654A     		ldr	r2, .L33
  49 0010 1368     		ldr	r3, [r2]
  50 0012 23F00F03 		bic	r3, r3, #15
  51 0016 43F00703 		orr	r3, r3, #7
  52 001a 1360     		str	r3, [r2]
 197:Drivers/STM32H7xx_HAL_Driver/Src/stm32h7xx_hal_rcc.c **** 
 198:Drivers/STM32H7xx_HAL_Driver/Src/stm32h7xx_hal_rcc.c ****     /* Check that the new number of wait states is taken into account to access the Flash
 199:Drivers/STM32H7xx_HAL_Driver/Src/stm32h7xx_hal_rcc.c ****     memory by reading the FLASH_ACR register */
 200:Drivers/STM32H7xx_HAL_Driver/Src/stm32h7xx_hal_rcc.c ****     if (__HAL_FLASH_GET_LATENCY() != FLASH_LATENCY_DEFAULT)
  53              		.loc 1 200 5 view .LVU6
  54              		.loc 1 200 9 is_stmt 0 view .LVU7
  55 001c 1368     		ldr	r3, [r2]
  56 001e 03F00F03 		and	r3, r3, #15
  57              		.loc 1 200 8 view .LVU8
  58 0022 072B     		cmp	r3, #7
  59 0024 40F0BA80 		bne	.L16
  60              	.L2:
 201:Drivers/STM32H7xx_HAL_Driver/Src/stm32h7xx_hal_rcc.c ****     {
 202:Drivers/STM32H7xx_HAL_Driver/Src/stm32h7xx_hal_rcc.c ****       return HAL_ERROR;
 203:Drivers/STM32H7xx_HAL_Driver/Src/stm32h7xx_hal_rcc.c ****     }
 204:Drivers/STM32H7xx_HAL_Driver/Src/stm32h7xx_hal_rcc.c **** 
 205:Drivers/STM32H7xx_HAL_Driver/Src/stm32h7xx_hal_rcc.c ****   }
 206:Drivers/STM32H7xx_HAL_Driver/Src/stm32h7xx_hal_rcc.c **** 
 207:Drivers/STM32H7xx_HAL_Driver/Src/stm32h7xx_hal_rcc.c **** 
 208:Drivers/STM32H7xx_HAL_Driver/Src/stm32h7xx_hal_rcc.c ****   /* Get Start Tick */
 209:Drivers/STM32H7xx_HAL_Driver/Src/stm32h7xx_hal_rcc.c ****   tickstart = HAL_GetTick();
  61              		.loc 1 209 3 is_stmt 1 view .LVU9
  62              		.loc 1 209 15 is_stmt 0 view .LVU10
  63 0028 FFF7FEFF 		bl	HAL_GetTick
  64              	.LVL0:
  65 002c 0446     		mov	r4, r0
  66              	.LVL1:
 210:Drivers/STM32H7xx_HAL_Driver/Src/stm32h7xx_hal_rcc.c **** 
 211:Drivers/STM32H7xx_HAL_Driver/Src/stm32h7xx_hal_rcc.c ****   /* Set HSION bit */
 212:Drivers/STM32H7xx_HAL_Driver/Src/stm32h7xx_hal_rcc.c ****   SET_BIT(RCC->CR, RCC_CR_HSION);
  67              		.loc 1 212 3 is_stmt 1 view .LVU11
  68 002e 5E4A     		ldr	r2, .L33+4
  69 0030 1368     		ldr	r3, [r2]
  70 0032 43F00103 		orr	r3, r3, #1
  71 0036 1360     		str	r3, [r2]
 213:Drivers/STM32H7xx_HAL_Driver/Src/stm32h7xx_hal_rcc.c **** 
 214:Drivers/STM32H7xx_HAL_Driver/Src/stm32h7xx_hal_rcc.c ****   /* Wait till HSI is ready */
 215:Drivers/STM32H7xx_HAL_Driver/Src/stm32h7xx_hal_rcc.c ****   while (READ_BIT(RCC->CR, RCC_CR_HSIRDY) == 0U)
ARM GAS  C:\Users\thewo\AppData\Local\Temp\ccxuDTrk.s 			page 6


  72              		.loc 1 215 3 view .LVU12
  73              	.LVL2:
  74              	.L4:
  75              		.loc 1 215 43 view .LVU13
  76              		.loc 1 215 10 is_stmt 0 view .LVU14
  77 0038 5B4B     		ldr	r3, .L33+4
  78 003a 1B68     		ldr	r3, [r3]
  79              		.loc 1 215 43 view .LVU15
  80 003c 13F0040F 		tst	r3, #4
  81 0040 06D1     		bne	.L26
 216:Drivers/STM32H7xx_HAL_Driver/Src/stm32h7xx_hal_rcc.c ****   {
 217:Drivers/STM32H7xx_HAL_Driver/Src/stm32h7xx_hal_rcc.c ****     if ((HAL_GetTick() - tickstart) > HSI_TIMEOUT_VALUE)
  82              		.loc 1 217 5 is_stmt 1 view .LVU16
  83              		.loc 1 217 10 is_stmt 0 view .LVU17
  84 0042 FFF7FEFF 		bl	HAL_GetTick
  85              	.LVL3:
  86              		.loc 1 217 24 discriminator 1 view .LVU18
  87 0046 001B     		subs	r0, r0, r4
  88              		.loc 1 217 8 discriminator 1 view .LVU19
  89 0048 0228     		cmp	r0, #2
  90 004a F5D9     		bls	.L4
 218:Drivers/STM32H7xx_HAL_Driver/Src/stm32h7xx_hal_rcc.c ****     {
 219:Drivers/STM32H7xx_HAL_Driver/Src/stm32h7xx_hal_rcc.c ****       return HAL_TIMEOUT;
  91              		.loc 1 219 14 view .LVU20
  92 004c 0324     		movs	r4, #3
  93              	.LVL4:
  94              		.loc 1 219 14 view .LVU21
  95 004e A6E0     		b	.L3
  96              	.LVL5:
  97              	.L26:
 220:Drivers/STM32H7xx_HAL_Driver/Src/stm32h7xx_hal_rcc.c ****     }
 221:Drivers/STM32H7xx_HAL_Driver/Src/stm32h7xx_hal_rcc.c ****   }
 222:Drivers/STM32H7xx_HAL_Driver/Src/stm32h7xx_hal_rcc.c **** 
 223:Drivers/STM32H7xx_HAL_Driver/Src/stm32h7xx_hal_rcc.c ****   /* Set HSITRIM[6:0] bits to the reset value */
 224:Drivers/STM32H7xx_HAL_Driver/Src/stm32h7xx_hal_rcc.c ****   SET_BIT(RCC->HSICFGR, RCC_HSICFGR_HSITRIM_6);
  98              		.loc 1 224 3 is_stmt 1 view .LVU22
  99 0050 554B     		ldr	r3, .L33+4
 100 0052 5A68     		ldr	r2, [r3, #4]
 101 0054 42F08042 		orr	r2, r2, #1073741824
 102 0058 5A60     		str	r2, [r3, #4]
 225:Drivers/STM32H7xx_HAL_Driver/Src/stm32h7xx_hal_rcc.c **** 
 226:Drivers/STM32H7xx_HAL_Driver/Src/stm32h7xx_hal_rcc.c ****   /* Reset CFGR register */
 227:Drivers/STM32H7xx_HAL_Driver/Src/stm32h7xx_hal_rcc.c ****   CLEAR_REG(RCC->CFGR);
 103              		.loc 1 227 3 view .LVU23
 104 005a 0022     		movs	r2, #0
 105 005c 1A61     		str	r2, [r3, #16]
 228:Drivers/STM32H7xx_HAL_Driver/Src/stm32h7xx_hal_rcc.c **** 
 229:Drivers/STM32H7xx_HAL_Driver/Src/stm32h7xx_hal_rcc.c ****   /* Update the SystemCoreClock and SystemD2Clock global variables */
 230:Drivers/STM32H7xx_HAL_Driver/Src/stm32h7xx_hal_rcc.c ****   SystemCoreClock = HSI_VALUE;
 106              		.loc 1 230 3 view .LVU24
 107              		.loc 1 230 19 is_stmt 0 view .LVU25
 108 005e 534B     		ldr	r3, .L33+8
 109 0060 534A     		ldr	r2, .L33+12
 110 0062 1360     		str	r3, [r2]
 231:Drivers/STM32H7xx_HAL_Driver/Src/stm32h7xx_hal_rcc.c ****   SystemD2Clock = HSI_VALUE;
 111              		.loc 1 231 3 is_stmt 1 view .LVU26
 112              		.loc 1 231 17 is_stmt 0 view .LVU27
ARM GAS  C:\Users\thewo\AppData\Local\Temp\ccxuDTrk.s 			page 7


 113 0064 534A     		ldr	r2, .L33+16
 114 0066 1360     		str	r3, [r2]
 232:Drivers/STM32H7xx_HAL_Driver/Src/stm32h7xx_hal_rcc.c **** 
 233:Drivers/STM32H7xx_HAL_Driver/Src/stm32h7xx_hal_rcc.c ****   /* Adapt Systick interrupt period */
 234:Drivers/STM32H7xx_HAL_Driver/Src/stm32h7xx_hal_rcc.c ****   if (HAL_InitTick(uwTickPrio) != HAL_OK)
 115              		.loc 1 234 3 is_stmt 1 view .LVU28
 116              		.loc 1 234 7 is_stmt 0 view .LVU29
 117 0068 534B     		ldr	r3, .L33+20
 118 006a 1868     		ldr	r0, [r3]
 119 006c FFF7FEFF 		bl	HAL_InitTick
 120              	.LVL6:
 121              		.loc 1 234 6 discriminator 1 view .LVU30
 122 0070 0446     		mov	r4, r0
 123              	.LVL7:
 124              		.loc 1 234 6 discriminator 1 view .LVU31
 125 0072 08B1     		cbz	r0, .L27
 235:Drivers/STM32H7xx_HAL_Driver/Src/stm32h7xx_hal_rcc.c ****   {
 236:Drivers/STM32H7xx_HAL_Driver/Src/stm32h7xx_hal_rcc.c ****     return HAL_ERROR;
 126              		.loc 1 236 12 view .LVU32
 127 0074 0124     		movs	r4, #1
 128 0076 92E0     		b	.L3
 129              	.L27:
 237:Drivers/STM32H7xx_HAL_Driver/Src/stm32h7xx_hal_rcc.c ****   }
 238:Drivers/STM32H7xx_HAL_Driver/Src/stm32h7xx_hal_rcc.c **** 
 239:Drivers/STM32H7xx_HAL_Driver/Src/stm32h7xx_hal_rcc.c ****   /* Get Start Tick */
 240:Drivers/STM32H7xx_HAL_Driver/Src/stm32h7xx_hal_rcc.c ****   tickstart = HAL_GetTick();
 130              		.loc 1 240 3 is_stmt 1 view .LVU33
 131              		.loc 1 240 15 is_stmt 0 view .LVU34
 132 0078 FFF7FEFF 		bl	HAL_GetTick
 133              	.LVL8:
 134 007c 0546     		mov	r5, r0
 135              	.LVL9:
 241:Drivers/STM32H7xx_HAL_Driver/Src/stm32h7xx_hal_rcc.c **** 
 242:Drivers/STM32H7xx_HAL_Driver/Src/stm32h7xx_hal_rcc.c ****   /* Wait till clock switch is ready */
 243:Drivers/STM32H7xx_HAL_Driver/Src/stm32h7xx_hal_rcc.c ****   while (READ_BIT(RCC->CFGR, RCC_CFGR_SWS) != 0U)
 136              		.loc 1 243 3 is_stmt 1 view .LVU35
 137              	.L6:
 138              		.loc 1 243 44 view .LVU36
 139              		.loc 1 243 10 is_stmt 0 view .LVU37
 140 007e 4A4B     		ldr	r3, .L33+4
 141 0080 1B69     		ldr	r3, [r3, #16]
 142              		.loc 1 243 44 view .LVU38
 143 0082 13F0380F 		tst	r3, #56
 144 0086 08D0     		beq	.L28
 244:Drivers/STM32H7xx_HAL_Driver/Src/stm32h7xx_hal_rcc.c ****   {
 245:Drivers/STM32H7xx_HAL_Driver/Src/stm32h7xx_hal_rcc.c ****     if ((HAL_GetTick() - tickstart) > CLOCKSWITCH_TIMEOUT_VALUE)
 145              		.loc 1 245 5 is_stmt 1 view .LVU39
 146              		.loc 1 245 10 is_stmt 0 view .LVU40
 147 0088 FFF7FEFF 		bl	HAL_GetTick
 148              	.LVL10:
 149              		.loc 1 245 24 discriminator 1 view .LVU41
 150 008c 401B     		subs	r0, r0, r5
 151              		.loc 1 245 8 discriminator 1 view .LVU42
 152 008e 41F28833 		movw	r3, #5000
 153 0092 9842     		cmp	r0, r3
 154 0094 F3D9     		bls	.L6
 246:Drivers/STM32H7xx_HAL_Driver/Src/stm32h7xx_hal_rcc.c ****     {
ARM GAS  C:\Users\thewo\AppData\Local\Temp\ccxuDTrk.s 			page 8


 247:Drivers/STM32H7xx_HAL_Driver/Src/stm32h7xx_hal_rcc.c ****       return HAL_TIMEOUT;
 155              		.loc 1 247 14 view .LVU43
 156 0096 0324     		movs	r4, #3
 157 0098 81E0     		b	.L3
 158              	.L28:
 248:Drivers/STM32H7xx_HAL_Driver/Src/stm32h7xx_hal_rcc.c ****     }
 249:Drivers/STM32H7xx_HAL_Driver/Src/stm32h7xx_hal_rcc.c ****   }
 250:Drivers/STM32H7xx_HAL_Driver/Src/stm32h7xx_hal_rcc.c **** 
 251:Drivers/STM32H7xx_HAL_Driver/Src/stm32h7xx_hal_rcc.c ****   /* Get Start Tick */
 252:Drivers/STM32H7xx_HAL_Driver/Src/stm32h7xx_hal_rcc.c ****   tickstart = HAL_GetTick();
 159              		.loc 1 252 3 is_stmt 1 view .LVU44
 160              		.loc 1 252 15 is_stmt 0 view .LVU45
 161 009a FFF7FEFF 		bl	HAL_GetTick
 162              	.LVL11:
 163 009e 0546     		mov	r5, r0
 164              	.LVL12:
 253:Drivers/STM32H7xx_HAL_Driver/Src/stm32h7xx_hal_rcc.c **** 
 254:Drivers/STM32H7xx_HAL_Driver/Src/stm32h7xx_hal_rcc.c ****   /* Reset CSION, CSIKERON, HSEON, HSI48ON, HSECSSON, HSIDIV bits */
 255:Drivers/STM32H7xx_HAL_Driver/Src/stm32h7xx_hal_rcc.c ****   CLEAR_BIT(RCC->CR, RCC_CR_HSEON | RCC_CR_HSIKERON | RCC_CR_HSIDIV | RCC_CR_HSIDIVF | RCC_CR_CSION
 165              		.loc 1 255 3 is_stmt 1 view .LVU46
 166 00a0 414A     		ldr	r2, .L33+4
 167 00a2 1168     		ldr	r1, [r2]
 168 00a4 454B     		ldr	r3, .L33+24
 169 00a6 0B40     		ands	r3, r3, r1
 170 00a8 1360     		str	r3, [r2]
 256:Drivers/STM32H7xx_HAL_Driver/Src/stm32h7xx_hal_rcc.c ****             | RCC_CR_HSI48ON | RCC_CR_CSSHSEON);
 257:Drivers/STM32H7xx_HAL_Driver/Src/stm32h7xx_hal_rcc.c **** 
 258:Drivers/STM32H7xx_HAL_Driver/Src/stm32h7xx_hal_rcc.c ****   /* Wait till HSE is disabled */
 259:Drivers/STM32H7xx_HAL_Driver/Src/stm32h7xx_hal_rcc.c ****   while (READ_BIT(RCC->CR, RCC_CR_HSERDY) != 0U)
 171              		.loc 1 259 3 view .LVU47
 172              	.LVL13:
 173              	.L8:
 174              		.loc 1 259 43 view .LVU48
 175              		.loc 1 259 10 is_stmt 0 view .LVU49
 176 00aa 3F4B     		ldr	r3, .L33+4
 177 00ac 1B68     		ldr	r3, [r3]
 178              		.loc 1 259 43 view .LVU50
 179 00ae 13F4003F 		tst	r3, #131072
 180 00b2 06D0     		beq	.L29
 260:Drivers/STM32H7xx_HAL_Driver/Src/stm32h7xx_hal_rcc.c ****   {
 261:Drivers/STM32H7xx_HAL_Driver/Src/stm32h7xx_hal_rcc.c ****     if ((HAL_GetTick() - tickstart) > HSE_TIMEOUT_VALUE)
 181              		.loc 1 261 5 is_stmt 1 view .LVU51
 182              		.loc 1 261 10 is_stmt 0 view .LVU52
 183 00b4 FFF7FEFF 		bl	HAL_GetTick
 184              	.LVL14:
 185              		.loc 1 261 24 discriminator 1 view .LVU53
 186 00b8 401B     		subs	r0, r0, r5
 187              		.loc 1 261 8 discriminator 1 view .LVU54
 188 00ba 6428     		cmp	r0, #100
 189 00bc F5D9     		bls	.L8
 262:Drivers/STM32H7xx_HAL_Driver/Src/stm32h7xx_hal_rcc.c ****     {
 263:Drivers/STM32H7xx_HAL_Driver/Src/stm32h7xx_hal_rcc.c ****       return HAL_TIMEOUT;
 190              		.loc 1 263 14 view .LVU55
 191 00be 0324     		movs	r4, #3
 192 00c0 6DE0     		b	.L3
 193              	.L29:
 264:Drivers/STM32H7xx_HAL_Driver/Src/stm32h7xx_hal_rcc.c ****     }
ARM GAS  C:\Users\thewo\AppData\Local\Temp\ccxuDTrk.s 			page 9


 265:Drivers/STM32H7xx_HAL_Driver/Src/stm32h7xx_hal_rcc.c ****   }
 266:Drivers/STM32H7xx_HAL_Driver/Src/stm32h7xx_hal_rcc.c **** 
 267:Drivers/STM32H7xx_HAL_Driver/Src/stm32h7xx_hal_rcc.c ****   /* Get Start Tick */
 268:Drivers/STM32H7xx_HAL_Driver/Src/stm32h7xx_hal_rcc.c ****   tickstart = HAL_GetTick();
 194              		.loc 1 268 3 is_stmt 1 view .LVU56
 195              		.loc 1 268 15 is_stmt 0 view .LVU57
 196 00c2 FFF7FEFF 		bl	HAL_GetTick
 197              	.LVL15:
 198 00c6 0546     		mov	r5, r0
 199              	.LVL16:
 269:Drivers/STM32H7xx_HAL_Driver/Src/stm32h7xx_hal_rcc.c **** 
 270:Drivers/STM32H7xx_HAL_Driver/Src/stm32h7xx_hal_rcc.c ****   /* Clear PLLON bit */
 271:Drivers/STM32H7xx_HAL_Driver/Src/stm32h7xx_hal_rcc.c ****   CLEAR_BIT(RCC->CR, RCC_CR_PLL1ON);
 200              		.loc 1 271 3 is_stmt 1 view .LVU58
 201 00c8 374A     		ldr	r2, .L33+4
 202 00ca 1368     		ldr	r3, [r2]
 203 00cc 23F08073 		bic	r3, r3, #16777216
 204 00d0 1360     		str	r3, [r2]
 272:Drivers/STM32H7xx_HAL_Driver/Src/stm32h7xx_hal_rcc.c **** 
 273:Drivers/STM32H7xx_HAL_Driver/Src/stm32h7xx_hal_rcc.c ****   /* Wait till PLL is disabled */
 274:Drivers/STM32H7xx_HAL_Driver/Src/stm32h7xx_hal_rcc.c ****   while (READ_BIT(RCC->CR, RCC_CR_PLL1RDY) != 0U)
 205              		.loc 1 274 3 view .LVU59
 206              	.LVL17:
 207              	.L10:
 208              		.loc 1 274 44 view .LVU60
 209              		.loc 1 274 10 is_stmt 0 view .LVU61
 210 00d2 354B     		ldr	r3, .L33+4
 211 00d4 1B68     		ldr	r3, [r3]
 212              		.loc 1 274 44 view .LVU62
 213 00d6 13F0007F 		tst	r3, #33554432
 214 00da 06D0     		beq	.L30
 275:Drivers/STM32H7xx_HAL_Driver/Src/stm32h7xx_hal_rcc.c ****   {
 276:Drivers/STM32H7xx_HAL_Driver/Src/stm32h7xx_hal_rcc.c ****     if ((HAL_GetTick() - tickstart) > PLL_TIMEOUT_VALUE)
 215              		.loc 1 276 5 is_stmt 1 view .LVU63
 216              		.loc 1 276 10 is_stmt 0 view .LVU64
 217 00dc FFF7FEFF 		bl	HAL_GetTick
 218              	.LVL18:
 219              		.loc 1 276 24 discriminator 1 view .LVU65
 220 00e0 401B     		subs	r0, r0, r5
 221              		.loc 1 276 8 discriminator 1 view .LVU66
 222 00e2 0228     		cmp	r0, #2
 223 00e4 F5D9     		bls	.L10
 277:Drivers/STM32H7xx_HAL_Driver/Src/stm32h7xx_hal_rcc.c ****     {
 278:Drivers/STM32H7xx_HAL_Driver/Src/stm32h7xx_hal_rcc.c ****       return HAL_TIMEOUT;
 224              		.loc 1 278 14 view .LVU67
 225 00e6 0324     		movs	r4, #3
 226 00e8 59E0     		b	.L3
 227              	.L30:
 279:Drivers/STM32H7xx_HAL_Driver/Src/stm32h7xx_hal_rcc.c ****     }
 280:Drivers/STM32H7xx_HAL_Driver/Src/stm32h7xx_hal_rcc.c ****   }
 281:Drivers/STM32H7xx_HAL_Driver/Src/stm32h7xx_hal_rcc.c **** 
 282:Drivers/STM32H7xx_HAL_Driver/Src/stm32h7xx_hal_rcc.c ****   /* Get Start Tick */
 283:Drivers/STM32H7xx_HAL_Driver/Src/stm32h7xx_hal_rcc.c ****   tickstart = HAL_GetTick();
 228              		.loc 1 283 3 is_stmt 1 view .LVU68
 229              		.loc 1 283 15 is_stmt 0 view .LVU69
 230 00ea FFF7FEFF 		bl	HAL_GetTick
 231              	.LVL19:
ARM GAS  C:\Users\thewo\AppData\Local\Temp\ccxuDTrk.s 			page 10


 232 00ee 0546     		mov	r5, r0
 233              	.LVL20:
 284:Drivers/STM32H7xx_HAL_Driver/Src/stm32h7xx_hal_rcc.c **** 
 285:Drivers/STM32H7xx_HAL_Driver/Src/stm32h7xx_hal_rcc.c ****   /* Reset PLL2ON bit */
 286:Drivers/STM32H7xx_HAL_Driver/Src/stm32h7xx_hal_rcc.c ****   CLEAR_BIT(RCC->CR, RCC_CR_PLL2ON);
 234              		.loc 1 286 3 is_stmt 1 view .LVU70
 235 00f0 2D4A     		ldr	r2, .L33+4
 236 00f2 1368     		ldr	r3, [r2]
 237 00f4 23F08063 		bic	r3, r3, #67108864
 238 00f8 1360     		str	r3, [r2]
 287:Drivers/STM32H7xx_HAL_Driver/Src/stm32h7xx_hal_rcc.c **** 
 288:Drivers/STM32H7xx_HAL_Driver/Src/stm32h7xx_hal_rcc.c ****   /* Wait till PLL2 is disabled */
 289:Drivers/STM32H7xx_HAL_Driver/Src/stm32h7xx_hal_rcc.c ****   while (READ_BIT(RCC->CR, RCC_CR_PLL2RDY) != 0U)
 239              		.loc 1 289 3 view .LVU71
 240              	.LVL21:
 241              	.L12:
 242              		.loc 1 289 44 view .LVU72
 243              		.loc 1 289 10 is_stmt 0 view .LVU73
 244 00fa 2B4B     		ldr	r3, .L33+4
 245 00fc 1B68     		ldr	r3, [r3]
 246              		.loc 1 289 44 view .LVU74
 247 00fe 13F0006F 		tst	r3, #134217728
 248 0102 06D0     		beq	.L31
 290:Drivers/STM32H7xx_HAL_Driver/Src/stm32h7xx_hal_rcc.c ****   {
 291:Drivers/STM32H7xx_HAL_Driver/Src/stm32h7xx_hal_rcc.c ****     if ((HAL_GetTick() - tickstart) > PLL_TIMEOUT_VALUE)
 249              		.loc 1 291 5 is_stmt 1 view .LVU75
 250              		.loc 1 291 10 is_stmt 0 view .LVU76
 251 0104 FFF7FEFF 		bl	HAL_GetTick
 252              	.LVL22:
 253              		.loc 1 291 24 discriminator 1 view .LVU77
 254 0108 401B     		subs	r0, r0, r5
 255              		.loc 1 291 8 discriminator 1 view .LVU78
 256 010a 0228     		cmp	r0, #2
 257 010c F5D9     		bls	.L12
 292:Drivers/STM32H7xx_HAL_Driver/Src/stm32h7xx_hal_rcc.c ****     {
 293:Drivers/STM32H7xx_HAL_Driver/Src/stm32h7xx_hal_rcc.c ****       return HAL_TIMEOUT;
 258              		.loc 1 293 14 view .LVU79
 259 010e 0324     		movs	r4, #3
 260 0110 45E0     		b	.L3
 261              	.L31:
 294:Drivers/STM32H7xx_HAL_Driver/Src/stm32h7xx_hal_rcc.c ****     }
 295:Drivers/STM32H7xx_HAL_Driver/Src/stm32h7xx_hal_rcc.c ****   }
 296:Drivers/STM32H7xx_HAL_Driver/Src/stm32h7xx_hal_rcc.c **** 
 297:Drivers/STM32H7xx_HAL_Driver/Src/stm32h7xx_hal_rcc.c ****   /* Get Start Tick */
 298:Drivers/STM32H7xx_HAL_Driver/Src/stm32h7xx_hal_rcc.c ****   tickstart = HAL_GetTick();
 262              		.loc 1 298 3 is_stmt 1 view .LVU80
 263              		.loc 1 298 15 is_stmt 0 view .LVU81
 264 0112 FFF7FEFF 		bl	HAL_GetTick
 265              	.LVL23:
 266 0116 0546     		mov	r5, r0
 267              	.LVL24:
 299:Drivers/STM32H7xx_HAL_Driver/Src/stm32h7xx_hal_rcc.c **** 
 300:Drivers/STM32H7xx_HAL_Driver/Src/stm32h7xx_hal_rcc.c ****   /* Reset PLL3 bit */
 301:Drivers/STM32H7xx_HAL_Driver/Src/stm32h7xx_hal_rcc.c ****   CLEAR_BIT(RCC->CR, RCC_CR_PLL3ON);
 268              		.loc 1 301 3 is_stmt 1 view .LVU82
 269 0118 234A     		ldr	r2, .L33+4
 270 011a 1368     		ldr	r3, [r2]
ARM GAS  C:\Users\thewo\AppData\Local\Temp\ccxuDTrk.s 			page 11


 271 011c 23F08053 		bic	r3, r3, #268435456
 272 0120 1360     		str	r3, [r2]
 302:Drivers/STM32H7xx_HAL_Driver/Src/stm32h7xx_hal_rcc.c **** 
 303:Drivers/STM32H7xx_HAL_Driver/Src/stm32h7xx_hal_rcc.c ****   /* Wait till PLL3 is disabled */
 304:Drivers/STM32H7xx_HAL_Driver/Src/stm32h7xx_hal_rcc.c ****   while (READ_BIT(RCC->CR, RCC_CR_PLL3RDY) != 0U)
 273              		.loc 1 304 3 view .LVU83
 274              	.LVL25:
 275              	.L14:
 276              		.loc 1 304 44 view .LVU84
 277              		.loc 1 304 10 is_stmt 0 view .LVU85
 278 0122 214B     		ldr	r3, .L33+4
 279 0124 1B68     		ldr	r3, [r3]
 280              		.loc 1 304 44 view .LVU86
 281 0126 13F0005F 		tst	r3, #536870912
 282 012a 06D0     		beq	.L32
 305:Drivers/STM32H7xx_HAL_Driver/Src/stm32h7xx_hal_rcc.c ****   {
 306:Drivers/STM32H7xx_HAL_Driver/Src/stm32h7xx_hal_rcc.c ****     if ((HAL_GetTick() - tickstart) > PLL_TIMEOUT_VALUE)
 283              		.loc 1 306 5 is_stmt 1 view .LVU87
 284              		.loc 1 306 10 is_stmt 0 view .LVU88
 285 012c FFF7FEFF 		bl	HAL_GetTick
 286              	.LVL26:
 287              		.loc 1 306 24 discriminator 1 view .LVU89
 288 0130 401B     		subs	r0, r0, r5
 289              		.loc 1 306 8 discriminator 1 view .LVU90
 290 0132 0228     		cmp	r0, #2
 291 0134 F5D9     		bls	.L14
 307:Drivers/STM32H7xx_HAL_Driver/Src/stm32h7xx_hal_rcc.c ****     {
 308:Drivers/STM32H7xx_HAL_Driver/Src/stm32h7xx_hal_rcc.c ****       return HAL_TIMEOUT;
 292              		.loc 1 308 14 view .LVU91
 293 0136 0324     		movs	r4, #3
 294 0138 31E0     		b	.L3
 295              	.L32:
 309:Drivers/STM32H7xx_HAL_Driver/Src/stm32h7xx_hal_rcc.c ****     }
 310:Drivers/STM32H7xx_HAL_Driver/Src/stm32h7xx_hal_rcc.c ****   }
 311:Drivers/STM32H7xx_HAL_Driver/Src/stm32h7xx_hal_rcc.c **** 
 312:Drivers/STM32H7xx_HAL_Driver/Src/stm32h7xx_hal_rcc.c **** #if defined(RCC_D1CFGR_HPRE)
 313:Drivers/STM32H7xx_HAL_Driver/Src/stm32h7xx_hal_rcc.c ****   /* Reset D1CFGR register */
 314:Drivers/STM32H7xx_HAL_Driver/Src/stm32h7xx_hal_rcc.c ****   CLEAR_REG(RCC->D1CFGR);
 296              		.loc 1 314 3 is_stmt 1 view .LVU92
 297 013a 1B4B     		ldr	r3, .L33+4
 298 013c 0022     		movs	r2, #0
 299 013e 9A61     		str	r2, [r3, #24]
 315:Drivers/STM32H7xx_HAL_Driver/Src/stm32h7xx_hal_rcc.c **** 
 316:Drivers/STM32H7xx_HAL_Driver/Src/stm32h7xx_hal_rcc.c ****   /* Reset D2CFGR register */
 317:Drivers/STM32H7xx_HAL_Driver/Src/stm32h7xx_hal_rcc.c ****   CLEAR_REG(RCC->D2CFGR);
 300              		.loc 1 317 3 view .LVU93
 301 0140 DA61     		str	r2, [r3, #28]
 318:Drivers/STM32H7xx_HAL_Driver/Src/stm32h7xx_hal_rcc.c **** 
 319:Drivers/STM32H7xx_HAL_Driver/Src/stm32h7xx_hal_rcc.c ****   /* Reset D3CFGR register */
 320:Drivers/STM32H7xx_HAL_Driver/Src/stm32h7xx_hal_rcc.c ****   CLEAR_REG(RCC->D3CFGR);
 302              		.loc 1 320 3 view .LVU94
 303 0142 1A62     		str	r2, [r3, #32]
 321:Drivers/STM32H7xx_HAL_Driver/Src/stm32h7xx_hal_rcc.c **** #else
 322:Drivers/STM32H7xx_HAL_Driver/Src/stm32h7xx_hal_rcc.c ****   /* Reset CDCFGR1 register */
 323:Drivers/STM32H7xx_HAL_Driver/Src/stm32h7xx_hal_rcc.c ****   CLEAR_REG(RCC->CDCFGR1);
 324:Drivers/STM32H7xx_HAL_Driver/Src/stm32h7xx_hal_rcc.c **** 
 325:Drivers/STM32H7xx_HAL_Driver/Src/stm32h7xx_hal_rcc.c ****   /* Reset CDCFGR2 register */
ARM GAS  C:\Users\thewo\AppData\Local\Temp\ccxuDTrk.s 			page 12


 326:Drivers/STM32H7xx_HAL_Driver/Src/stm32h7xx_hal_rcc.c ****   CLEAR_REG(RCC->CDCFGR2);
 327:Drivers/STM32H7xx_HAL_Driver/Src/stm32h7xx_hal_rcc.c **** 
 328:Drivers/STM32H7xx_HAL_Driver/Src/stm32h7xx_hal_rcc.c ****   /* Reset SRDCFGR register */
 329:Drivers/STM32H7xx_HAL_Driver/Src/stm32h7xx_hal_rcc.c ****   CLEAR_REG(RCC->SRDCFGR);
 330:Drivers/STM32H7xx_HAL_Driver/Src/stm32h7xx_hal_rcc.c **** #endif
 331:Drivers/STM32H7xx_HAL_Driver/Src/stm32h7xx_hal_rcc.c **** 
 332:Drivers/STM32H7xx_HAL_Driver/Src/stm32h7xx_hal_rcc.c ****   /* Reset PLLCKSELR register to default value */
 333:Drivers/STM32H7xx_HAL_Driver/Src/stm32h7xx_hal_rcc.c ****   RCC->PLLCKSELR = RCC_PLLCKSELR_DIVM1_5 | RCC_PLLCKSELR_DIVM2_5 | RCC_PLLCKSELR_DIVM3_5;
 304              		.loc 1 333 3 view .LVU95
 305              		.loc 1 333 18 is_stmt 0 view .LVU96
 306 0144 1E49     		ldr	r1, .L33+28
 307 0146 9962     		str	r1, [r3, #40]
 334:Drivers/STM32H7xx_HAL_Driver/Src/stm32h7xx_hal_rcc.c **** 
 335:Drivers/STM32H7xx_HAL_Driver/Src/stm32h7xx_hal_rcc.c ****   /* Reset PLLCFGR register to default value */
 336:Drivers/STM32H7xx_HAL_Driver/Src/stm32h7xx_hal_rcc.c ****   WRITE_REG(RCC->PLLCFGR, 0x01FF0000U);
 308              		.loc 1 336 3 is_stmt 1 view .LVU97
 309 0148 1E49     		ldr	r1, .L33+32
 310 014a D962     		str	r1, [r3, #44]
 337:Drivers/STM32H7xx_HAL_Driver/Src/stm32h7xx_hal_rcc.c **** 
 338:Drivers/STM32H7xx_HAL_Driver/Src/stm32h7xx_hal_rcc.c ****   /* Reset PLL1DIVR register to default value */
 339:Drivers/STM32H7xx_HAL_Driver/Src/stm32h7xx_hal_rcc.c ****   WRITE_REG(RCC->PLL1DIVR, 0x01010280U);
 311              		.loc 1 339 3 view .LVU98
 312 014c 1E49     		ldr	r1, .L33+36
 313 014e 1963     		str	r1, [r3, #48]
 340:Drivers/STM32H7xx_HAL_Driver/Src/stm32h7xx_hal_rcc.c **** 
 341:Drivers/STM32H7xx_HAL_Driver/Src/stm32h7xx_hal_rcc.c ****   /* Reset PLL1FRACR register */
 342:Drivers/STM32H7xx_HAL_Driver/Src/stm32h7xx_hal_rcc.c ****   CLEAR_REG(RCC->PLL1FRACR);
 314              		.loc 1 342 3 view .LVU99
 315 0150 5A63     		str	r2, [r3, #52]
 343:Drivers/STM32H7xx_HAL_Driver/Src/stm32h7xx_hal_rcc.c **** 
 344:Drivers/STM32H7xx_HAL_Driver/Src/stm32h7xx_hal_rcc.c ****   /* Reset PLL2DIVR register to default value */
 345:Drivers/STM32H7xx_HAL_Driver/Src/stm32h7xx_hal_rcc.c ****   WRITE_REG(RCC->PLL2DIVR, 0x01010280U);
 316              		.loc 1 345 3 view .LVU100
 317 0152 9963     		str	r1, [r3, #56]
 346:Drivers/STM32H7xx_HAL_Driver/Src/stm32h7xx_hal_rcc.c **** 
 347:Drivers/STM32H7xx_HAL_Driver/Src/stm32h7xx_hal_rcc.c ****   /* Reset PLL2FRACR register */
 348:Drivers/STM32H7xx_HAL_Driver/Src/stm32h7xx_hal_rcc.c ****   CLEAR_REG(RCC->PLL2FRACR);
 318              		.loc 1 348 3 view .LVU101
 319 0154 DA63     		str	r2, [r3, #60]
 349:Drivers/STM32H7xx_HAL_Driver/Src/stm32h7xx_hal_rcc.c **** 
 350:Drivers/STM32H7xx_HAL_Driver/Src/stm32h7xx_hal_rcc.c ****   /* Reset PLL3DIVR register to default value */
 351:Drivers/STM32H7xx_HAL_Driver/Src/stm32h7xx_hal_rcc.c ****   WRITE_REG(RCC->PLL3DIVR, 0x01010280U);
 320              		.loc 1 351 3 view .LVU102
 321 0156 1964     		str	r1, [r3, #64]
 352:Drivers/STM32H7xx_HAL_Driver/Src/stm32h7xx_hal_rcc.c **** 
 353:Drivers/STM32H7xx_HAL_Driver/Src/stm32h7xx_hal_rcc.c ****   /* Reset PLL3FRACR register */
 354:Drivers/STM32H7xx_HAL_Driver/Src/stm32h7xx_hal_rcc.c ****   CLEAR_REG(RCC->PLL3FRACR);
 322              		.loc 1 354 3 view .LVU103
 323 0158 5A64     		str	r2, [r3, #68]
 355:Drivers/STM32H7xx_HAL_Driver/Src/stm32h7xx_hal_rcc.c **** 
 356:Drivers/STM32H7xx_HAL_Driver/Src/stm32h7xx_hal_rcc.c **** #if defined(RCC_CR_HSEEXT)
 357:Drivers/STM32H7xx_HAL_Driver/Src/stm32h7xx_hal_rcc.c ****   /* Reset HSEEXT  */
 358:Drivers/STM32H7xx_HAL_Driver/Src/stm32h7xx_hal_rcc.c ****   CLEAR_BIT(RCC->CR, RCC_CR_HSEEXT);
 359:Drivers/STM32H7xx_HAL_Driver/Src/stm32h7xx_hal_rcc.c **** #endif /* RCC_CR_HSEEXT */
 360:Drivers/STM32H7xx_HAL_Driver/Src/stm32h7xx_hal_rcc.c **** 
 361:Drivers/STM32H7xx_HAL_Driver/Src/stm32h7xx_hal_rcc.c ****   /* Reset HSEBYP bit */
 362:Drivers/STM32H7xx_HAL_Driver/Src/stm32h7xx_hal_rcc.c ****   CLEAR_BIT(RCC->CR, RCC_CR_HSEBYP);
ARM GAS  C:\Users\thewo\AppData\Local\Temp\ccxuDTrk.s 			page 13


 324              		.loc 1 362 3 view .LVU104
 325 015a 1968     		ldr	r1, [r3]
 326 015c 21F48021 		bic	r1, r1, #262144
 327 0160 1960     		str	r1, [r3]
 363:Drivers/STM32H7xx_HAL_Driver/Src/stm32h7xx_hal_rcc.c **** 
 364:Drivers/STM32H7xx_HAL_Driver/Src/stm32h7xx_hal_rcc.c ****   /* Disable all interrupts */
 365:Drivers/STM32H7xx_HAL_Driver/Src/stm32h7xx_hal_rcc.c ****   CLEAR_REG(RCC->CIER);
 328              		.loc 1 365 3 view .LVU105
 329 0162 1A66     		str	r2, [r3, #96]
 366:Drivers/STM32H7xx_HAL_Driver/Src/stm32h7xx_hal_rcc.c **** 
 367:Drivers/STM32H7xx_HAL_Driver/Src/stm32h7xx_hal_rcc.c ****   /* Clear all interrupts flags */
 368:Drivers/STM32H7xx_HAL_Driver/Src/stm32h7xx_hal_rcc.c ****   WRITE_REG(RCC->CICR, 0xFFFFFFFFU);
 330              		.loc 1 368 3 view .LVU106
 331 0164 4FF0FF32 		mov	r2, #-1
 332 0168 9A66     		str	r2, [r3, #104]
 369:Drivers/STM32H7xx_HAL_Driver/Src/stm32h7xx_hal_rcc.c **** 
 370:Drivers/STM32H7xx_HAL_Driver/Src/stm32h7xx_hal_rcc.c ****   /* Reset all RSR flags */
 371:Drivers/STM32H7xx_HAL_Driver/Src/stm32h7xx_hal_rcc.c ****   SET_BIT(RCC->RSR, RCC_RSR_RMVF);
 333              		.loc 1 371 3 view .LVU107
 334 016a D3F8D020 		ldr	r2, [r3, #208]
 335 016e 42F48032 		orr	r2, r2, #65536
 336 0172 C3F8D020 		str	r2, [r3, #208]
 372:Drivers/STM32H7xx_HAL_Driver/Src/stm32h7xx_hal_rcc.c **** 
 373:Drivers/STM32H7xx_HAL_Driver/Src/stm32h7xx_hal_rcc.c ****   /* Decreasing the number of wait states because of lower CPU frequency */
 374:Drivers/STM32H7xx_HAL_Driver/Src/stm32h7xx_hal_rcc.c ****   if (FLASH_LATENCY_DEFAULT  < __HAL_FLASH_GET_LATENCY())
 337              		.loc 1 374 3 view .LVU108
 338              		.loc 1 374 32 is_stmt 0 view .LVU109
 339 0176 0B4B     		ldr	r3, .L33
 340 0178 1B68     		ldr	r3, [r3]
 341              		.loc 1 374 6 view .LVU110
 342 017a 13F0080F 		tst	r3, #8
 343 017e 0ED0     		beq	.L3
 375:Drivers/STM32H7xx_HAL_Driver/Src/stm32h7xx_hal_rcc.c ****   {
 376:Drivers/STM32H7xx_HAL_Driver/Src/stm32h7xx_hal_rcc.c ****     /* Program the new number of wait states to the LATENCY bits in the FLASH_ACR register */
 377:Drivers/STM32H7xx_HAL_Driver/Src/stm32h7xx_hal_rcc.c ****     __HAL_FLASH_SET_LATENCY(FLASH_LATENCY_DEFAULT);
 344              		.loc 1 377 5 is_stmt 1 view .LVU111
 345 0180 084A     		ldr	r2, .L33
 346 0182 1368     		ldr	r3, [r2]
 347 0184 23F00F03 		bic	r3, r3, #15
 348 0188 43F00703 		orr	r3, r3, #7
 349 018c 1360     		str	r3, [r2]
 378:Drivers/STM32H7xx_HAL_Driver/Src/stm32h7xx_hal_rcc.c **** 
 379:Drivers/STM32H7xx_HAL_Driver/Src/stm32h7xx_hal_rcc.c ****     /* Check that the new number of wait states is taken into account to access the Flash
 380:Drivers/STM32H7xx_HAL_Driver/Src/stm32h7xx_hal_rcc.c ****     memory by reading the FLASH_ACR register */
 381:Drivers/STM32H7xx_HAL_Driver/Src/stm32h7xx_hal_rcc.c ****     if (__HAL_FLASH_GET_LATENCY() != FLASH_LATENCY_DEFAULT)
 350              		.loc 1 381 5 view .LVU112
 351              		.loc 1 381 9 is_stmt 0 view .LVU113
 352 018e 1368     		ldr	r3, [r2]
 353 0190 03F00F03 		and	r3, r3, #15
 354              		.loc 1 381 8 view .LVU114
 355 0194 072B     		cmp	r3, #7
 356 0196 02D0     		beq	.L3
 382:Drivers/STM32H7xx_HAL_Driver/Src/stm32h7xx_hal_rcc.c ****     {
 383:Drivers/STM32H7xx_HAL_Driver/Src/stm32h7xx_hal_rcc.c ****       return HAL_ERROR;
 357              		.loc 1 383 14 view .LVU115
 358 0198 0124     		movs	r4, #1
 359 019a 00E0     		b	.L3
ARM GAS  C:\Users\thewo\AppData\Local\Temp\ccxuDTrk.s 			page 14


 360              	.LVL27:
 361              	.L16:
 202:Drivers/STM32H7xx_HAL_Driver/Src/stm32h7xx_hal_rcc.c ****     }
 362              		.loc 1 202 14 view .LVU116
 363 019c 0124     		movs	r4, #1
 364              	.L3:
 384:Drivers/STM32H7xx_HAL_Driver/Src/stm32h7xx_hal_rcc.c ****     }
 385:Drivers/STM32H7xx_HAL_Driver/Src/stm32h7xx_hal_rcc.c **** 
 386:Drivers/STM32H7xx_HAL_Driver/Src/stm32h7xx_hal_rcc.c ****   }
 387:Drivers/STM32H7xx_HAL_Driver/Src/stm32h7xx_hal_rcc.c **** 
 388:Drivers/STM32H7xx_HAL_Driver/Src/stm32h7xx_hal_rcc.c ****   return HAL_OK;
 389:Drivers/STM32H7xx_HAL_Driver/Src/stm32h7xx_hal_rcc.c **** }
 365              		.loc 1 389 1 view .LVU117
 366 019e 2046     		mov	r0, r4
 367 01a0 38BD     		pop	{r3, r4, r5, pc}
 368              	.L34:
 369 01a2 00BF     		.align	2
 370              	.L33:
 371 01a4 00200052 		.word	1375739904
 372 01a8 00440258 		.word	1476543488
 373 01ac 0090D003 		.word	64000000
 374 01b0 00000000 		.word	SystemCoreClock
 375 01b4 00000000 		.word	SystemD2Clock
 376 01b8 00000000 		.word	uwTickPrio
 377 01bc 45EDF6FF 		.word	-594619
 378 01c0 00020202 		.word	33686016
 379 01c4 0000FF01 		.word	33488896
 380 01c8 80020101 		.word	16843392
 381              		.cfi_endproc
 382              	.LFE350:
 384              		.section	.rodata.HAL_RCC_OscConfig.str1.4,"aMS",%progbits,1
 385              		.align	2
 386              	.LC0:
 387 0000 44726976 		.ascii	"Drivers/STM32H7xx_HAL_Driver/Src/stm32h7xx_hal_rcc."
 387      6572732F 
 387      53544D33 
 387      32483778 
 387      785F4841 
 388 0033 6300     		.ascii	"c\000"
 389              		.section	.text.HAL_RCC_OscConfig,"ax",%progbits
 390              		.align	1
 391              		.weak	HAL_RCC_OscConfig
 392              		.syntax unified
 393              		.thumb
 394              		.thumb_func
 396              	HAL_RCC_OscConfig:
 397              	.LVL28:
 398              	.LFB351:
 390:Drivers/STM32H7xx_HAL_Driver/Src/stm32h7xx_hal_rcc.c **** 
 391:Drivers/STM32H7xx_HAL_Driver/Src/stm32h7xx_hal_rcc.c **** /**
 392:Drivers/STM32H7xx_HAL_Driver/Src/stm32h7xx_hal_rcc.c ****   * @brief  Initializes the RCC Oscillators according to the specified parameters in the
 393:Drivers/STM32H7xx_HAL_Driver/Src/stm32h7xx_hal_rcc.c ****   *         RCC_OscInitTypeDef.
 394:Drivers/STM32H7xx_HAL_Driver/Src/stm32h7xx_hal_rcc.c ****   * @param  RCC_OscInitStruct: pointer to an RCC_OscInitTypeDef structure that
 395:Drivers/STM32H7xx_HAL_Driver/Src/stm32h7xx_hal_rcc.c ****   *         contains the configuration information for the RCC Oscillators.
 396:Drivers/STM32H7xx_HAL_Driver/Src/stm32h7xx_hal_rcc.c ****   * @note   The PLL is not disabled when used as system clock.
 397:Drivers/STM32H7xx_HAL_Driver/Src/stm32h7xx_hal_rcc.c ****   * @note   Transitions LSE Bypass to LSE On and LSE On to LSE Bypass are not
 398:Drivers/STM32H7xx_HAL_Driver/Src/stm32h7xx_hal_rcc.c ****   *         supported by this function. User should request a transition to LSE Off
ARM GAS  C:\Users\thewo\AppData\Local\Temp\ccxuDTrk.s 			page 15


 399:Drivers/STM32H7xx_HAL_Driver/Src/stm32h7xx_hal_rcc.c ****   *         first and then LSE On or LSE Bypass.
 400:Drivers/STM32H7xx_HAL_Driver/Src/stm32h7xx_hal_rcc.c ****   * @note   Transition HSE Bypass to HSE On and HSE On to HSE Bypass are not
 401:Drivers/STM32H7xx_HAL_Driver/Src/stm32h7xx_hal_rcc.c ****   *         supported by this function. User should request a transition to HSE Off
 402:Drivers/STM32H7xx_HAL_Driver/Src/stm32h7xx_hal_rcc.c ****   *         first and then HSE On or HSE Bypass.
 403:Drivers/STM32H7xx_HAL_Driver/Src/stm32h7xx_hal_rcc.c ****   * @retval HAL status
 404:Drivers/STM32H7xx_HAL_Driver/Src/stm32h7xx_hal_rcc.c ****   */
 405:Drivers/STM32H7xx_HAL_Driver/Src/stm32h7xx_hal_rcc.c **** __weak HAL_StatusTypeDef HAL_RCC_OscConfig(RCC_OscInitTypeDef  *RCC_OscInitStruct)
 406:Drivers/STM32H7xx_HAL_Driver/Src/stm32h7xx_hal_rcc.c **** {
 399              		.loc 1 406 1 is_stmt 1 view -0
 400              		.cfi_startproc
 401              		@ args = 0, pretend = 0, frame = 0
 402              		@ frame_needed = 0, uses_anonymous_args = 0
 407:Drivers/STM32H7xx_HAL_Driver/Src/stm32h7xx_hal_rcc.c ****   uint32_t tickstart;
 403              		.loc 1 407 3 view .LVU119
 408:Drivers/STM32H7xx_HAL_Driver/Src/stm32h7xx_hal_rcc.c ****   uint32_t temp1_pllckcfg, temp2_pllckcfg;
 404              		.loc 1 408 3 view .LVU120
 409:Drivers/STM32H7xx_HAL_Driver/Src/stm32h7xx_hal_rcc.c **** 
 410:Drivers/STM32H7xx_HAL_Driver/Src/stm32h7xx_hal_rcc.c ****   /* Check Null pointer */
 411:Drivers/STM32H7xx_HAL_Driver/Src/stm32h7xx_hal_rcc.c ****   if (RCC_OscInitStruct == NULL)
 405              		.loc 1 411 3 view .LVU121
 406              		.loc 1 411 6 is_stmt 0 view .LVU122
 407 0000 0028     		cmp	r0, #0
 408 0002 00F0AF83 		beq	.L122
 406:Drivers/STM32H7xx_HAL_Driver/Src/stm32h7xx_hal_rcc.c ****   uint32_t tickstart;
 409              		.loc 1 406 1 view .LVU123
 410 0006 38B5     		push	{r3, r4, r5, lr}
 411              		.cfi_def_cfa_offset 16
 412              		.cfi_offset 3, -16
 413              		.cfi_offset 4, -12
 414              		.cfi_offset 5, -8
 415              		.cfi_offset 14, -4
 416 0008 0446     		mov	r4, r0
 412:Drivers/STM32H7xx_HAL_Driver/Src/stm32h7xx_hal_rcc.c ****   {
 413:Drivers/STM32H7xx_HAL_Driver/Src/stm32h7xx_hal_rcc.c ****     return HAL_ERROR;
 414:Drivers/STM32H7xx_HAL_Driver/Src/stm32h7xx_hal_rcc.c ****   }
 415:Drivers/STM32H7xx_HAL_Driver/Src/stm32h7xx_hal_rcc.c **** 
 416:Drivers/STM32H7xx_HAL_Driver/Src/stm32h7xx_hal_rcc.c ****   /* Check the parameters */
 417:Drivers/STM32H7xx_HAL_Driver/Src/stm32h7xx_hal_rcc.c ****   assert_param(IS_RCC_OSCILLATORTYPE(RCC_OscInitStruct->OscillatorType));
 417              		.loc 1 417 3 is_stmt 1 view .LVU124
 418 000a 0368     		ldr	r3, [r0]
 419 000c 13B1     		cbz	r3, .L37
 420              		.loc 1 417 3 is_stmt 0 discriminator 1 view .LVU125
 421 000e 13F03F0F 		tst	r3, #63
 422 0012 25D0     		beq	.L156
 423              	.LVL29:
 424              	.L37:
 418:Drivers/STM32H7xx_HAL_Driver/Src/stm32h7xx_hal_rcc.c ****   /*------------------------------- HSE Configuration ------------------------*/
 419:Drivers/STM32H7xx_HAL_Driver/Src/stm32h7xx_hal_rcc.c ****   if (((RCC_OscInitStruct->OscillatorType) & RCC_OSCILLATORTYPE_HSE) == RCC_OSCILLATORTYPE_HSE)
 425              		.loc 1 419 3 is_stmt 1 view .LVU126
 426              		.loc 1 419 26 is_stmt 0 view .LVU127
 427 0014 2368     		ldr	r3, [r4]
 428              		.loc 1 419 6 view .LVU128
 429 0016 13F0010F 		tst	r3, #1
 430 001a 3AD0     		beq	.L38
 431              	.LBB2:
 420:Drivers/STM32H7xx_HAL_Driver/Src/stm32h7xx_hal_rcc.c ****   {
 421:Drivers/STM32H7xx_HAL_Driver/Src/stm32h7xx_hal_rcc.c ****     /* Check the parameters */
ARM GAS  C:\Users\thewo\AppData\Local\Temp\ccxuDTrk.s 			page 16


 422:Drivers/STM32H7xx_HAL_Driver/Src/stm32h7xx_hal_rcc.c ****     assert_param(IS_RCC_HSE(RCC_OscInitStruct->HSEState));
 432              		.loc 1 422 5 is_stmt 1 view .LVU129
 433 001c 6368     		ldr	r3, [r4, #4]
 434 001e 002B     		cmp	r3, #0
 435 0020 18BF     		it	ne
 436 0022 B3F5803F 		cmpne	r3, #65536
 437 0026 02D0     		beq	.L39
 438              		.loc 1 422 5 is_stmt 0 discriminator 1 view .LVU130
 439 0028 B3F5A02F 		cmp	r3, #327680
 440 002c 1ED1     		bne	.L157
 441              	.L39:
 423:Drivers/STM32H7xx_HAL_Driver/Src/stm32h7xx_hal_rcc.c **** 
 424:Drivers/STM32H7xx_HAL_Driver/Src/stm32h7xx_hal_rcc.c ****     const uint32_t temp_sysclksrc = __HAL_RCC_GET_SYSCLK_SOURCE();
 442              		.loc 1 424 5 is_stmt 1 view .LVU131
 443              		.loc 1 424 37 is_stmt 0 view .LVU132
 444 002e 964A     		ldr	r2, .L191
 445 0030 1369     		ldr	r3, [r2, #16]
 446              		.loc 1 424 20 view .LVU133
 447 0032 03F03803 		and	r3, r3, #56
 448              	.LVL30:
 425:Drivers/STM32H7xx_HAL_Driver/Src/stm32h7xx_hal_rcc.c ****     const uint32_t temp_pllckselr = RCC->PLLCKSELR;
 449              		.loc 1 425 5 is_stmt 1 view .LVU134
 450              		.loc 1 425 20 is_stmt 0 view .LVU135
 451 0036 926A     		ldr	r2, [r2, #40]
 452              	.LVL31:
 426:Drivers/STM32H7xx_HAL_Driver/Src/stm32h7xx_hal_rcc.c ****     /* When the HSE is used as system clock or clock source for PLL in these cases HSE will not dis
 427:Drivers/STM32H7xx_HAL_Driver/Src/stm32h7xx_hal_rcc.c ****     if ((temp_sysclksrc == RCC_CFGR_SWS_HSE) || ((temp_sysclksrc == RCC_CFGR_SWS_PLL1) && ((temp_pl
 453              		.loc 1 427 5 is_stmt 1 view .LVU136
 454              		.loc 1 427 8 is_stmt 0 view .LVU137
 455 0038 102B     		cmp	r3, #16
 456 003a 21D0     		beq	.L40
 457              		.loc 1 427 46 discriminator 1 view .LVU138
 458 003c 182B     		cmp	r3, #24
 459 003e 1BD0     		beq	.L158
 460              	.LVL32:
 461              	.L41:
 428:Drivers/STM32H7xx_HAL_Driver/Src/stm32h7xx_hal_rcc.c ****     {
 429:Drivers/STM32H7xx_HAL_Driver/Src/stm32h7xx_hal_rcc.c ****       if ((__HAL_RCC_GET_FLAG(RCC_FLAG_HSERDY) != 0U) && (RCC_OscInitStruct->HSEState == RCC_HSE_OF
 430:Drivers/STM32H7xx_HAL_Driver/Src/stm32h7xx_hal_rcc.c ****       {
 431:Drivers/STM32H7xx_HAL_Driver/Src/stm32h7xx_hal_rcc.c ****         return HAL_ERROR;
 432:Drivers/STM32H7xx_HAL_Driver/Src/stm32h7xx_hal_rcc.c ****       }
 433:Drivers/STM32H7xx_HAL_Driver/Src/stm32h7xx_hal_rcc.c ****     }
 434:Drivers/STM32H7xx_HAL_Driver/Src/stm32h7xx_hal_rcc.c ****     else
 435:Drivers/STM32H7xx_HAL_Driver/Src/stm32h7xx_hal_rcc.c ****     {
 436:Drivers/STM32H7xx_HAL_Driver/Src/stm32h7xx_hal_rcc.c ****       /* Set the new HSE configuration ---------------------------------------*/
 437:Drivers/STM32H7xx_HAL_Driver/Src/stm32h7xx_hal_rcc.c ****       __HAL_RCC_HSE_CONFIG(RCC_OscInitStruct->HSEState);
 462              		.loc 1 437 7 is_stmt 1 view .LVU139
 463              		.loc 1 437 7 view .LVU140
 464 0040 6368     		ldr	r3, [r4, #4]
 465              	.LVL33:
 466              		.loc 1 437 7 is_stmt 0 view .LVU141
 467 0042 B3F5803F 		cmp	r3, #65536
 468 0046 57D0     		beq	.L159
 469              		.loc 1 437 7 is_stmt 1 discriminator 2 view .LVU142
 470 0048 002B     		cmp	r3, #0
 471 004a 6BD1     		bne	.L44
 472              		.loc 1 437 7 discriminator 4 view .LVU143
ARM GAS  C:\Users\thewo\AppData\Local\Temp\ccxuDTrk.s 			page 17


 473 004c 8E4B     		ldr	r3, .L191
 474 004e 1A68     		ldr	r2, [r3]
 475 0050 22F48032 		bic	r2, r2, #65536
 476 0054 1A60     		str	r2, [r3]
 477              		.loc 1 437 7 view .LVU144
 478              		.loc 1 437 7 is_stmt 0 discriminator 4 view .LVU145
 479 0056 1A68     		ldr	r2, [r3]
 480 0058 22F48022 		bic	r2, r2, #262144
 481 005c 1A60     		str	r2, [r3]
 482 005e 50E0     		b	.L43
 483              	.LVL34:
 484              	.L156:
 485              		.loc 1 437 7 discriminator 4 view .LVU146
 486              	.LBE2:
 417:Drivers/STM32H7xx_HAL_Driver/Src/stm32h7xx_hal_rcc.c ****   /*------------------------------- HSE Configuration ------------------------*/
 487              		.loc 1 417 3 discriminator 2 view .LVU147
 488 0060 40F2A111 		movw	r1, #417
 489 0064 8948     		ldr	r0, .L191+4
 490              	.LVL35:
 417:Drivers/STM32H7xx_HAL_Driver/Src/stm32h7xx_hal_rcc.c ****   /*------------------------------- HSE Configuration ------------------------*/
 491              		.loc 1 417 3 discriminator 2 view .LVU148
 492 0066 FFF7FEFF 		bl	assert_failed
 493              	.LVL36:
 494 006a D3E7     		b	.L37
 495              	.L157:
 496              	.LBB3:
 422:Drivers/STM32H7xx_HAL_Driver/Src/stm32h7xx_hal_rcc.c **** 
 497              		.loc 1 422 5 discriminator 2 view .LVU149
 498 006c 4FF4D371 		mov	r1, #422
 499 0070 8648     		ldr	r0, .L191+4
 500 0072 FFF7FEFF 		bl	assert_failed
 501              	.LVL37:
 502 0076 DAE7     		b	.L39
 503              	.LVL38:
 504              	.L158:
 427:Drivers/STM32H7xx_HAL_Driver/Src/stm32h7xx_hal_rcc.c ****     {
 505              		.loc 1 427 108 discriminator 2 view .LVU150
 506 0078 02F00302 		and	r2, r2, #3
 507              	.LVL39:
 427:Drivers/STM32H7xx_HAL_Driver/Src/stm32h7xx_hal_rcc.c ****     {
 508              		.loc 1 427 88 discriminator 2 view .LVU151
 509 007c 022A     		cmp	r2, #2
 510 007e DFD1     		bne	.L41
 511              	.L40:
 429:Drivers/STM32H7xx_HAL_Driver/Src/stm32h7xx_hal_rcc.c ****       {
 512              		.loc 1 429 7 is_stmt 1 view .LVU152
 429:Drivers/STM32H7xx_HAL_Driver/Src/stm32h7xx_hal_rcc.c ****       {
 513              		.loc 1 429 12 is_stmt 0 view .LVU153
 514 0080 814B     		ldr	r3, .L191
 515              	.LVL40:
 429:Drivers/STM32H7xx_HAL_Driver/Src/stm32h7xx_hal_rcc.c ****       {
 516              		.loc 1 429 12 view .LVU154
 517 0082 1B68     		ldr	r3, [r3]
 429:Drivers/STM32H7xx_HAL_Driver/Src/stm32h7xx_hal_rcc.c ****       {
 518              		.loc 1 429 10 view .LVU155
 519 0084 13F4003F 		tst	r3, #131072
 520 0088 03D0     		beq	.L38
ARM GAS  C:\Users\thewo\AppData\Local\Temp\ccxuDTrk.s 			page 18


 429:Drivers/STM32H7xx_HAL_Driver/Src/stm32h7xx_hal_rcc.c ****       {
 521              		.loc 1 429 76 discriminator 1 view .LVU156
 522 008a 6368     		ldr	r3, [r4, #4]
 429:Drivers/STM32H7xx_HAL_Driver/Src/stm32h7xx_hal_rcc.c ****       {
 523              		.loc 1 429 55 discriminator 1 view .LVU157
 524 008c 002B     		cmp	r3, #0
 525 008e 00F06B83 		beq	.L160
 526              	.LVL41:
 527              	.L38:
 429:Drivers/STM32H7xx_HAL_Driver/Src/stm32h7xx_hal_rcc.c ****       {
 528              		.loc 1 429 55 discriminator 1 view .LVU158
 529              	.LBE3:
 438:Drivers/STM32H7xx_HAL_Driver/Src/stm32h7xx_hal_rcc.c **** 
 439:Drivers/STM32H7xx_HAL_Driver/Src/stm32h7xx_hal_rcc.c ****       /* Check the HSE State */
 440:Drivers/STM32H7xx_HAL_Driver/Src/stm32h7xx_hal_rcc.c ****       if (RCC_OscInitStruct->HSEState != RCC_HSE_OFF)
 441:Drivers/STM32H7xx_HAL_Driver/Src/stm32h7xx_hal_rcc.c ****       {
 442:Drivers/STM32H7xx_HAL_Driver/Src/stm32h7xx_hal_rcc.c ****         /* Get Start Tick*/
 443:Drivers/STM32H7xx_HAL_Driver/Src/stm32h7xx_hal_rcc.c ****         tickstart = HAL_GetTick();
 444:Drivers/STM32H7xx_HAL_Driver/Src/stm32h7xx_hal_rcc.c **** 
 445:Drivers/STM32H7xx_HAL_Driver/Src/stm32h7xx_hal_rcc.c ****         /* Wait till HSE is ready */
 446:Drivers/STM32H7xx_HAL_Driver/Src/stm32h7xx_hal_rcc.c ****         while (__HAL_RCC_GET_FLAG(RCC_FLAG_HSERDY) == 0U)
 447:Drivers/STM32H7xx_HAL_Driver/Src/stm32h7xx_hal_rcc.c ****         {
 448:Drivers/STM32H7xx_HAL_Driver/Src/stm32h7xx_hal_rcc.c ****           if ((uint32_t)(HAL_GetTick() - tickstart) > HSE_TIMEOUT_VALUE)
 449:Drivers/STM32H7xx_HAL_Driver/Src/stm32h7xx_hal_rcc.c ****           {
 450:Drivers/STM32H7xx_HAL_Driver/Src/stm32h7xx_hal_rcc.c ****             return HAL_TIMEOUT;
 451:Drivers/STM32H7xx_HAL_Driver/Src/stm32h7xx_hal_rcc.c ****           }
 452:Drivers/STM32H7xx_HAL_Driver/Src/stm32h7xx_hal_rcc.c ****         }
 453:Drivers/STM32H7xx_HAL_Driver/Src/stm32h7xx_hal_rcc.c ****       }
 454:Drivers/STM32H7xx_HAL_Driver/Src/stm32h7xx_hal_rcc.c ****       else
 455:Drivers/STM32H7xx_HAL_Driver/Src/stm32h7xx_hal_rcc.c ****       {
 456:Drivers/STM32H7xx_HAL_Driver/Src/stm32h7xx_hal_rcc.c ****         /* Get Start Tick*/
 457:Drivers/STM32H7xx_HAL_Driver/Src/stm32h7xx_hal_rcc.c ****         tickstart = HAL_GetTick();
 458:Drivers/STM32H7xx_HAL_Driver/Src/stm32h7xx_hal_rcc.c **** 
 459:Drivers/STM32H7xx_HAL_Driver/Src/stm32h7xx_hal_rcc.c ****         /* Wait till HSE is disabled */
 460:Drivers/STM32H7xx_HAL_Driver/Src/stm32h7xx_hal_rcc.c ****         while (__HAL_RCC_GET_FLAG(RCC_FLAG_HSERDY) != 0U)
 461:Drivers/STM32H7xx_HAL_Driver/Src/stm32h7xx_hal_rcc.c ****         {
 462:Drivers/STM32H7xx_HAL_Driver/Src/stm32h7xx_hal_rcc.c ****           if ((uint32_t)(HAL_GetTick() - tickstart) > HSE_TIMEOUT_VALUE)
 463:Drivers/STM32H7xx_HAL_Driver/Src/stm32h7xx_hal_rcc.c ****           {
 464:Drivers/STM32H7xx_HAL_Driver/Src/stm32h7xx_hal_rcc.c ****             return HAL_TIMEOUT;
 465:Drivers/STM32H7xx_HAL_Driver/Src/stm32h7xx_hal_rcc.c ****           }
 466:Drivers/STM32H7xx_HAL_Driver/Src/stm32h7xx_hal_rcc.c ****         }
 467:Drivers/STM32H7xx_HAL_Driver/Src/stm32h7xx_hal_rcc.c ****       }
 468:Drivers/STM32H7xx_HAL_Driver/Src/stm32h7xx_hal_rcc.c ****     }
 469:Drivers/STM32H7xx_HAL_Driver/Src/stm32h7xx_hal_rcc.c ****   }
 470:Drivers/STM32H7xx_HAL_Driver/Src/stm32h7xx_hal_rcc.c ****   /*----------------------------- HSI Configuration --------------------------*/
 471:Drivers/STM32H7xx_HAL_Driver/Src/stm32h7xx_hal_rcc.c ****   if (((RCC_OscInitStruct->OscillatorType) & RCC_OSCILLATORTYPE_HSI) == RCC_OSCILLATORTYPE_HSI)
 530              		.loc 1 471 3 is_stmt 1 view .LVU159
 531              		.loc 1 471 26 is_stmt 0 view .LVU160
 532 0092 2368     		ldr	r3, [r4]
 533              		.loc 1 471 6 view .LVU161
 534 0094 13F0020F 		tst	r3, #2
 535 0098 00F0A080 		beq	.L51
 536              	.LBB4:
 472:Drivers/STM32H7xx_HAL_Driver/Src/stm32h7xx_hal_rcc.c ****   {
 473:Drivers/STM32H7xx_HAL_Driver/Src/stm32h7xx_hal_rcc.c ****     /* Check the parameters */
 474:Drivers/STM32H7xx_HAL_Driver/Src/stm32h7xx_hal_rcc.c ****     assert_param(IS_RCC_HSI(RCC_OscInitStruct->HSIState));
 537              		.loc 1 474 5 is_stmt 1 view .LVU162
ARM GAS  C:\Users\thewo\AppData\Local\Temp\ccxuDTrk.s 			page 19


 538 009c E368     		ldr	r3, [r4, #12]
 539 009e 092B     		cmp	r3, #9
 540 00a0 18BF     		it	ne
 541 00a2 012B     		cmpne	r3, #1
 542 00a4 03D9     		bls	.L52
 543              		.loc 1 474 5 is_stmt 0 discriminator 1 view .LVU163
 544 00a6 112B     		cmp	r3, #17
 545 00a8 01D0     		beq	.L52
 546              		.loc 1 474 5 discriminator 2 view .LVU164
 547 00aa 192B     		cmp	r3, #25
 548 00ac 60D1     		bne	.L161
 549              	.L52:
 475:Drivers/STM32H7xx_HAL_Driver/Src/stm32h7xx_hal_rcc.c ****     assert_param(IS_RCC_HSICALIBRATION_VALUE(RCC_OscInitStruct->HSICalibrationValue));
 550              		.loc 1 475 5 is_stmt 1 view .LVU165
 551 00ae 2369     		ldr	r3, [r4, #16]
 552 00b0 7F2B     		cmp	r3, #127
 553 00b2 63D8     		bhi	.L162
 554              	.L53:
 476:Drivers/STM32H7xx_HAL_Driver/Src/stm32h7xx_hal_rcc.c **** 
 477:Drivers/STM32H7xx_HAL_Driver/Src/stm32h7xx_hal_rcc.c ****     /* When the HSI is used as system clock it will not be disabled */
 478:Drivers/STM32H7xx_HAL_Driver/Src/stm32h7xx_hal_rcc.c ****     const uint32_t temp_sysclksrc = __HAL_RCC_GET_SYSCLK_SOURCE();
 555              		.loc 1 478 5 view .LVU166
 556              		.loc 1 478 37 is_stmt 0 view .LVU167
 557 00b4 744A     		ldr	r2, .L191
 558 00b6 1369     		ldr	r3, [r2, #16]
 559              	.LVL42:
 479:Drivers/STM32H7xx_HAL_Driver/Src/stm32h7xx_hal_rcc.c ****     const uint32_t temp_pllckselr = RCC->PLLCKSELR;
 560              		.loc 1 479 5 is_stmt 1 view .LVU168
 561              		.loc 1 479 20 is_stmt 0 view .LVU169
 562 00b8 926A     		ldr	r2, [r2, #40]
 563              	.LVL43:
 480:Drivers/STM32H7xx_HAL_Driver/Src/stm32h7xx_hal_rcc.c ****     if ((temp_sysclksrc == RCC_CFGR_SWS_HSI) || ((temp_sysclksrc == RCC_CFGR_SWS_PLL1) && ((temp_pl
 564              		.loc 1 480 5 is_stmt 1 view .LVU170
 565              		.loc 1 480 8 is_stmt 0 view .LVU171
 566 00ba 13F03803 		ands	r3, r3, #56
 567              	.LVL44:
 568              		.loc 1 480 8 view .LVU172
 569 00be 66D0     		beq	.L54
 570              		.loc 1 480 46 discriminator 1 view .LVU173
 571 00c0 182B     		cmp	r3, #24
 572 00c2 61D0     		beq	.L163
 573              	.L55:
 481:Drivers/STM32H7xx_HAL_Driver/Src/stm32h7xx_hal_rcc.c ****     {
 482:Drivers/STM32H7xx_HAL_Driver/Src/stm32h7xx_hal_rcc.c ****       /* When HSI is used as system clock it will not be disabled */
 483:Drivers/STM32H7xx_HAL_Driver/Src/stm32h7xx_hal_rcc.c ****       if ((__HAL_RCC_GET_FLAG(RCC_FLAG_HSIRDY) != 0U) && (RCC_OscInitStruct->HSIState == RCC_HSI_OF
 484:Drivers/STM32H7xx_HAL_Driver/Src/stm32h7xx_hal_rcc.c ****       {
 485:Drivers/STM32H7xx_HAL_Driver/Src/stm32h7xx_hal_rcc.c ****         return HAL_ERROR;
 486:Drivers/STM32H7xx_HAL_Driver/Src/stm32h7xx_hal_rcc.c ****       }
 487:Drivers/STM32H7xx_HAL_Driver/Src/stm32h7xx_hal_rcc.c ****       /* Otherwise, only HSI division and calibration are allowed */
 488:Drivers/STM32H7xx_HAL_Driver/Src/stm32h7xx_hal_rcc.c ****       else
 489:Drivers/STM32H7xx_HAL_Driver/Src/stm32h7xx_hal_rcc.c ****       {
 490:Drivers/STM32H7xx_HAL_Driver/Src/stm32h7xx_hal_rcc.c ****         /* Enable the Internal High Speed oscillator (HSI, HSIDIV2, HSIDIV4, or HSIDIV8) */
 491:Drivers/STM32H7xx_HAL_Driver/Src/stm32h7xx_hal_rcc.c ****         __HAL_RCC_HSI_CONFIG(RCC_OscInitStruct->HSIState);
 492:Drivers/STM32H7xx_HAL_Driver/Src/stm32h7xx_hal_rcc.c **** 
 493:Drivers/STM32H7xx_HAL_Driver/Src/stm32h7xx_hal_rcc.c ****         /* Get Start Tick*/
 494:Drivers/STM32H7xx_HAL_Driver/Src/stm32h7xx_hal_rcc.c ****         tickstart = HAL_GetTick();
 495:Drivers/STM32H7xx_HAL_Driver/Src/stm32h7xx_hal_rcc.c **** 
ARM GAS  C:\Users\thewo\AppData\Local\Temp\ccxuDTrk.s 			page 20


 496:Drivers/STM32H7xx_HAL_Driver/Src/stm32h7xx_hal_rcc.c ****         /* Wait till HSI is ready */
 497:Drivers/STM32H7xx_HAL_Driver/Src/stm32h7xx_hal_rcc.c ****         while (__HAL_RCC_GET_FLAG(RCC_FLAG_HSIRDY) == 0U)
 498:Drivers/STM32H7xx_HAL_Driver/Src/stm32h7xx_hal_rcc.c ****         {
 499:Drivers/STM32H7xx_HAL_Driver/Src/stm32h7xx_hal_rcc.c ****           if ((uint32_t)(HAL_GetTick() - tickstart) > HSI_TIMEOUT_VALUE)
 500:Drivers/STM32H7xx_HAL_Driver/Src/stm32h7xx_hal_rcc.c ****           {
 501:Drivers/STM32H7xx_HAL_Driver/Src/stm32h7xx_hal_rcc.c ****             return HAL_TIMEOUT;
 502:Drivers/STM32H7xx_HAL_Driver/Src/stm32h7xx_hal_rcc.c ****           }
 503:Drivers/STM32H7xx_HAL_Driver/Src/stm32h7xx_hal_rcc.c ****         }
 504:Drivers/STM32H7xx_HAL_Driver/Src/stm32h7xx_hal_rcc.c ****         /* Adjusts the Internal High Speed oscillator (HSI) calibration value.*/
 505:Drivers/STM32H7xx_HAL_Driver/Src/stm32h7xx_hal_rcc.c ****         __HAL_RCC_HSI_CALIBRATIONVALUE_ADJUST(RCC_OscInitStruct->HSICalibrationValue);
 506:Drivers/STM32H7xx_HAL_Driver/Src/stm32h7xx_hal_rcc.c ****       }
 507:Drivers/STM32H7xx_HAL_Driver/Src/stm32h7xx_hal_rcc.c ****     }
 508:Drivers/STM32H7xx_HAL_Driver/Src/stm32h7xx_hal_rcc.c **** 
 509:Drivers/STM32H7xx_HAL_Driver/Src/stm32h7xx_hal_rcc.c ****     else
 510:Drivers/STM32H7xx_HAL_Driver/Src/stm32h7xx_hal_rcc.c ****     {
 511:Drivers/STM32H7xx_HAL_Driver/Src/stm32h7xx_hal_rcc.c ****       /* Check the HSI State */
 512:Drivers/STM32H7xx_HAL_Driver/Src/stm32h7xx_hal_rcc.c ****       if ((RCC_OscInitStruct->HSIState) != RCC_HSI_OFF)
 574              		.loc 1 512 7 is_stmt 1 view .LVU174
 575              		.loc 1 512 29 is_stmt 0 view .LVU175
 576 00c4 E368     		ldr	r3, [r4, #12]
 577              	.LVL45:
 578              		.loc 1 512 10 view .LVU176
 579 00c6 002B     		cmp	r3, #0
 580 00c8 00F0BD80 		beq	.L59
 513:Drivers/STM32H7xx_HAL_Driver/Src/stm32h7xx_hal_rcc.c ****       {
 514:Drivers/STM32H7xx_HAL_Driver/Src/stm32h7xx_hal_rcc.c ****         /* Enable the Internal High Speed oscillator (HSI, HSIDIV2,HSIDIV4, or HSIDIV8) */
 515:Drivers/STM32H7xx_HAL_Driver/Src/stm32h7xx_hal_rcc.c ****         __HAL_RCC_HSI_CONFIG(RCC_OscInitStruct->HSIState);
 581              		.loc 1 515 9 is_stmt 1 view .LVU177
 582 00cc 6E49     		ldr	r1, .L191
 583 00ce 0A68     		ldr	r2, [r1]
 584              	.LVL46:
 585              		.loc 1 515 9 is_stmt 0 view .LVU178
 586 00d0 22F01902 		bic	r2, r2, #25
 587 00d4 1343     		orrs	r3, r3, r2
 588 00d6 0B60     		str	r3, [r1]
 516:Drivers/STM32H7xx_HAL_Driver/Src/stm32h7xx_hal_rcc.c **** 
 517:Drivers/STM32H7xx_HAL_Driver/Src/stm32h7xx_hal_rcc.c ****         /* Get Start Tick*/
 518:Drivers/STM32H7xx_HAL_Driver/Src/stm32h7xx_hal_rcc.c ****         tickstart = HAL_GetTick();
 589              		.loc 1 518 9 is_stmt 1 view .LVU179
 590              		.loc 1 518 21 is_stmt 0 view .LVU180
 591 00d8 FFF7FEFF 		bl	HAL_GetTick
 592              	.LVL47:
 593 00dc 0546     		mov	r5, r0
 594              	.LVL48:
 519:Drivers/STM32H7xx_HAL_Driver/Src/stm32h7xx_hal_rcc.c **** 
 520:Drivers/STM32H7xx_HAL_Driver/Src/stm32h7xx_hal_rcc.c ****         /* Wait till HSI is ready */
 521:Drivers/STM32H7xx_HAL_Driver/Src/stm32h7xx_hal_rcc.c ****         while (__HAL_RCC_GET_FLAG(RCC_FLAG_HSIRDY) == 0U)
 595              		.loc 1 521 9 is_stmt 1 view .LVU181
 596              	.L60:
 597              		.loc 1 521 52 view .LVU182
 598              		.loc 1 521 16 is_stmt 0 view .LVU183
 599 00de 6A4B     		ldr	r3, .L191
 600 00e0 1B68     		ldr	r3, [r3]
 601              		.loc 1 521 52 view .LVU184
 602 00e2 13F0040F 		tst	r3, #4
 603 00e6 40F0A580 		bne	.L164
 522:Drivers/STM32H7xx_HAL_Driver/Src/stm32h7xx_hal_rcc.c ****         {
ARM GAS  C:\Users\thewo\AppData\Local\Temp\ccxuDTrk.s 			page 21


 523:Drivers/STM32H7xx_HAL_Driver/Src/stm32h7xx_hal_rcc.c ****           if ((HAL_GetTick() - tickstart) > HSI_TIMEOUT_VALUE)
 604              		.loc 1 523 11 is_stmt 1 view .LVU185
 605              		.loc 1 523 16 is_stmt 0 view .LVU186
 606 00ea FFF7FEFF 		bl	HAL_GetTick
 607              	.LVL49:
 608              		.loc 1 523 30 discriminator 1 view .LVU187
 609 00ee 401B     		subs	r0, r0, r5
 610              		.loc 1 523 14 discriminator 1 view .LVU188
 611 00f0 0228     		cmp	r0, #2
 612 00f2 F4D9     		bls	.L60
 524:Drivers/STM32H7xx_HAL_Driver/Src/stm32h7xx_hal_rcc.c ****           {
 525:Drivers/STM32H7xx_HAL_Driver/Src/stm32h7xx_hal_rcc.c ****             return HAL_TIMEOUT;
 613              		.loc 1 525 20 view .LVU189
 614 00f4 0320     		movs	r0, #3
 615 00f6 68E0     		b	.L36
 616              	.LVL50:
 617              	.L159:
 618              		.loc 1 525 20 view .LVU190
 619              	.LBE4:
 620              	.LBB5:
 437:Drivers/STM32H7xx_HAL_Driver/Src/stm32h7xx_hal_rcc.c **** 
 621              		.loc 1 437 7 is_stmt 1 discriminator 1 view .LVU191
 622 00f8 634A     		ldr	r2, .L191
 623 00fa 1368     		ldr	r3, [r2]
 624 00fc 43F48033 		orr	r3, r3, #65536
 625 0100 1360     		str	r3, [r2]
 626              	.L43:
 437:Drivers/STM32H7xx_HAL_Driver/Src/stm32h7xx_hal_rcc.c **** 
 627              		.loc 1 437 7 discriminator 10 view .LVU192
 440:Drivers/STM32H7xx_HAL_Driver/Src/stm32h7xx_hal_rcc.c ****       {
 628              		.loc 1 440 7 view .LVU193
 440:Drivers/STM32H7xx_HAL_Driver/Src/stm32h7xx_hal_rcc.c ****       {
 629              		.loc 1 440 28 is_stmt 0 view .LVU194
 630 0102 6368     		ldr	r3, [r4, #4]
 440:Drivers/STM32H7xx_HAL_Driver/Src/stm32h7xx_hal_rcc.c ****       {
 631              		.loc 1 440 10 view .LVU195
 632 0104 2BB3     		cbz	r3, .L46
 443:Drivers/STM32H7xx_HAL_Driver/Src/stm32h7xx_hal_rcc.c **** 
 633              		.loc 1 443 9 is_stmt 1 view .LVU196
 443:Drivers/STM32H7xx_HAL_Driver/Src/stm32h7xx_hal_rcc.c **** 
 634              		.loc 1 443 21 is_stmt 0 view .LVU197
 635 0106 FFF7FEFF 		bl	HAL_GetTick
 636              	.LVL51:
 637 010a 0546     		mov	r5, r0
 638              	.LVL52:
 446:Drivers/STM32H7xx_HAL_Driver/Src/stm32h7xx_hal_rcc.c ****         {
 639              		.loc 1 446 9 is_stmt 1 view .LVU198
 640              	.L47:
 446:Drivers/STM32H7xx_HAL_Driver/Src/stm32h7xx_hal_rcc.c ****         {
 641              		.loc 1 446 52 view .LVU199
 446:Drivers/STM32H7xx_HAL_Driver/Src/stm32h7xx_hal_rcc.c ****         {
 642              		.loc 1 446 16 is_stmt 0 view .LVU200
 643 010c 5E4B     		ldr	r3, .L191
 644 010e 1B68     		ldr	r3, [r3]
 446:Drivers/STM32H7xx_HAL_Driver/Src/stm32h7xx_hal_rcc.c ****         {
 645              		.loc 1 446 52 view .LVU201
 646 0110 13F4003F 		tst	r3, #131072
ARM GAS  C:\Users\thewo\AppData\Local\Temp\ccxuDTrk.s 			page 22


 647 0114 BDD1     		bne	.L38
 448:Drivers/STM32H7xx_HAL_Driver/Src/stm32h7xx_hal_rcc.c ****           {
 648              		.loc 1 448 11 is_stmt 1 view .LVU202
 448:Drivers/STM32H7xx_HAL_Driver/Src/stm32h7xx_hal_rcc.c ****           {
 649              		.loc 1 448 26 is_stmt 0 view .LVU203
 650 0116 FFF7FEFF 		bl	HAL_GetTick
 651              	.LVL53:
 448:Drivers/STM32H7xx_HAL_Driver/Src/stm32h7xx_hal_rcc.c ****           {
 652              		.loc 1 448 40 discriminator 1 view .LVU204
 653 011a 401B     		subs	r0, r0, r5
 448:Drivers/STM32H7xx_HAL_Driver/Src/stm32h7xx_hal_rcc.c ****           {
 654              		.loc 1 448 14 discriminator 1 view .LVU205
 655 011c 6428     		cmp	r0, #100
 656 011e F5D9     		bls	.L47
 450:Drivers/STM32H7xx_HAL_Driver/Src/stm32h7xx_hal_rcc.c ****           }
 657              		.loc 1 450 20 view .LVU206
 658 0120 0320     		movs	r0, #3
 659 0122 52E0     		b	.L36
 660              	.LVL54:
 661              	.L44:
 437:Drivers/STM32H7xx_HAL_Driver/Src/stm32h7xx_hal_rcc.c **** 
 662              		.loc 1 437 7 is_stmt 1 discriminator 5 view .LVU207
 663 0124 B3F5A02F 		cmp	r3, #327680
 664 0128 09D0     		beq	.L165
 437:Drivers/STM32H7xx_HAL_Driver/Src/stm32h7xx_hal_rcc.c **** 
 665              		.loc 1 437 7 discriminator 8 view .LVU208
 666 012a 574B     		ldr	r3, .L191
 667 012c 1A68     		ldr	r2, [r3]
 668 012e 22F48032 		bic	r2, r2, #65536
 669 0132 1A60     		str	r2, [r3]
 437:Drivers/STM32H7xx_HAL_Driver/Src/stm32h7xx_hal_rcc.c **** 
 670              		.loc 1 437 7 view .LVU209
 437:Drivers/STM32H7xx_HAL_Driver/Src/stm32h7xx_hal_rcc.c **** 
 671              		.loc 1 437 7 is_stmt 0 discriminator 8 view .LVU210
 672 0134 1A68     		ldr	r2, [r3]
 673 0136 22F48022 		bic	r2, r2, #262144
 674 013a 1A60     		str	r2, [r3]
 675 013c E1E7     		b	.L43
 676              	.L165:
 437:Drivers/STM32H7xx_HAL_Driver/Src/stm32h7xx_hal_rcc.c **** 
 677              		.loc 1 437 7 is_stmt 1 discriminator 7 view .LVU211
 678 013e 524B     		ldr	r3, .L191
 679 0140 1A68     		ldr	r2, [r3]
 680 0142 42F48022 		orr	r2, r2, #262144
 681 0146 1A60     		str	r2, [r3]
 437:Drivers/STM32H7xx_HAL_Driver/Src/stm32h7xx_hal_rcc.c **** 
 682              		.loc 1 437 7 view .LVU212
 437:Drivers/STM32H7xx_HAL_Driver/Src/stm32h7xx_hal_rcc.c **** 
 683              		.loc 1 437 7 is_stmt 0 discriminator 7 view .LVU213
 684 0148 1A68     		ldr	r2, [r3]
 685 014a 42F48032 		orr	r2, r2, #65536
 686 014e 1A60     		str	r2, [r3]
 687 0150 D7E7     		b	.L43
 688              	.L46:
 457:Drivers/STM32H7xx_HAL_Driver/Src/stm32h7xx_hal_rcc.c **** 
 689              		.loc 1 457 9 is_stmt 1 view .LVU214
 457:Drivers/STM32H7xx_HAL_Driver/Src/stm32h7xx_hal_rcc.c **** 
ARM GAS  C:\Users\thewo\AppData\Local\Temp\ccxuDTrk.s 			page 23


 690              		.loc 1 457 21 is_stmt 0 view .LVU215
 691 0152 FFF7FEFF 		bl	HAL_GetTick
 692              	.LVL55:
 693 0156 0546     		mov	r5, r0
 694              	.LVL56:
 460:Drivers/STM32H7xx_HAL_Driver/Src/stm32h7xx_hal_rcc.c ****         {
 695              		.loc 1 460 9 is_stmt 1 view .LVU216
 696              	.L49:
 460:Drivers/STM32H7xx_HAL_Driver/Src/stm32h7xx_hal_rcc.c ****         {
 697              		.loc 1 460 52 view .LVU217
 460:Drivers/STM32H7xx_HAL_Driver/Src/stm32h7xx_hal_rcc.c ****         {
 698              		.loc 1 460 16 is_stmt 0 view .LVU218
 699 0158 4B4B     		ldr	r3, .L191
 700 015a 1B68     		ldr	r3, [r3]
 460:Drivers/STM32H7xx_HAL_Driver/Src/stm32h7xx_hal_rcc.c ****         {
 701              		.loc 1 460 52 view .LVU219
 702 015c 13F4003F 		tst	r3, #131072
 703 0160 97D0     		beq	.L38
 462:Drivers/STM32H7xx_HAL_Driver/Src/stm32h7xx_hal_rcc.c ****           {
 704              		.loc 1 462 11 is_stmt 1 view .LVU220
 462:Drivers/STM32H7xx_HAL_Driver/Src/stm32h7xx_hal_rcc.c ****           {
 705              		.loc 1 462 26 is_stmt 0 view .LVU221
 706 0162 FFF7FEFF 		bl	HAL_GetTick
 707              	.LVL57:
 462:Drivers/STM32H7xx_HAL_Driver/Src/stm32h7xx_hal_rcc.c ****           {
 708              		.loc 1 462 40 discriminator 1 view .LVU222
 709 0166 401B     		subs	r0, r0, r5
 462:Drivers/STM32H7xx_HAL_Driver/Src/stm32h7xx_hal_rcc.c ****           {
 710              		.loc 1 462 14 discriminator 1 view .LVU223
 711 0168 6428     		cmp	r0, #100
 712 016a F5D9     		bls	.L49
 464:Drivers/STM32H7xx_HAL_Driver/Src/stm32h7xx_hal_rcc.c ****           }
 713              		.loc 1 464 20 view .LVU224
 714 016c 0320     		movs	r0, #3
 715 016e 2CE0     		b	.L36
 716              	.LVL58:
 717              	.L161:
 464:Drivers/STM32H7xx_HAL_Driver/Src/stm32h7xx_hal_rcc.c ****           }
 718              		.loc 1 464 20 view .LVU225
 719              	.LBE5:
 720              	.LBB6:
 474:Drivers/STM32H7xx_HAL_Driver/Src/stm32h7xx_hal_rcc.c ****     assert_param(IS_RCC_HSICALIBRATION_VALUE(RCC_OscInitStruct->HSICalibrationValue));
 721              		.loc 1 474 5 discriminator 3 view .LVU226
 722 0170 4FF4ED71 		mov	r1, #474
 723 0174 4548     		ldr	r0, .L191+4
 724 0176 FFF7FEFF 		bl	assert_failed
 725              	.LVL59:
 726 017a 98E7     		b	.L52
 727              	.L162:
 475:Drivers/STM32H7xx_HAL_Driver/Src/stm32h7xx_hal_rcc.c **** 
 728              		.loc 1 475 5 discriminator 1 view .LVU227
 729 017c 40F2DB11 		movw	r1, #475
 730 0180 4248     		ldr	r0, .L191+4
 731 0182 FFF7FEFF 		bl	assert_failed
 732              	.LVL60:
 733 0186 95E7     		b	.L53
 734              	.LVL61:
ARM GAS  C:\Users\thewo\AppData\Local\Temp\ccxuDTrk.s 			page 24


 735              	.L163:
 480:Drivers/STM32H7xx_HAL_Driver/Src/stm32h7xx_hal_rcc.c ****     {
 736              		.loc 1 480 88 discriminator 2 view .LVU228
 737 0188 12F0030F 		tst	r2, #3
 738 018c 9AD1     		bne	.L55
 739              	.L54:
 483:Drivers/STM32H7xx_HAL_Driver/Src/stm32h7xx_hal_rcc.c ****       {
 740              		.loc 1 483 7 is_stmt 1 view .LVU229
 483:Drivers/STM32H7xx_HAL_Driver/Src/stm32h7xx_hal_rcc.c ****       {
 741              		.loc 1 483 12 is_stmt 0 view .LVU230
 742 018e 3E4B     		ldr	r3, .L191
 743              	.LVL62:
 483:Drivers/STM32H7xx_HAL_Driver/Src/stm32h7xx_hal_rcc.c ****       {
 744              		.loc 1 483 12 view .LVU231
 745 0190 1B68     		ldr	r3, [r3]
 483:Drivers/STM32H7xx_HAL_Driver/Src/stm32h7xx_hal_rcc.c ****       {
 746              		.loc 1 483 10 view .LVU232
 747 0192 13F0040F 		tst	r3, #4
 748 0196 03D0     		beq	.L56
 483:Drivers/STM32H7xx_HAL_Driver/Src/stm32h7xx_hal_rcc.c ****       {
 749              		.loc 1 483 76 discriminator 1 view .LVU233
 750 0198 E368     		ldr	r3, [r4, #12]
 483:Drivers/STM32H7xx_HAL_Driver/Src/stm32h7xx_hal_rcc.c ****       {
 751              		.loc 1 483 55 discriminator 1 view .LVU234
 752 019a 002B     		cmp	r3, #0
 753 019c 00F0E682 		beq	.L126
 754              	.L56:
 491:Drivers/STM32H7xx_HAL_Driver/Src/stm32h7xx_hal_rcc.c **** 
 755              		.loc 1 491 9 is_stmt 1 view .LVU235
 756 01a0 394A     		ldr	r2, .L191
 757              	.LVL63:
 491:Drivers/STM32H7xx_HAL_Driver/Src/stm32h7xx_hal_rcc.c **** 
 758              		.loc 1 491 9 is_stmt 0 view .LVU236
 759 01a2 1368     		ldr	r3, [r2]
 760 01a4 23F01903 		bic	r3, r3, #25
 761 01a8 E168     		ldr	r1, [r4, #12]
 762 01aa 0B43     		orrs	r3, r3, r1
 763 01ac 1360     		str	r3, [r2]
 494:Drivers/STM32H7xx_HAL_Driver/Src/stm32h7xx_hal_rcc.c **** 
 764              		.loc 1 494 9 is_stmt 1 view .LVU237
 494:Drivers/STM32H7xx_HAL_Driver/Src/stm32h7xx_hal_rcc.c **** 
 765              		.loc 1 494 21 is_stmt 0 view .LVU238
 766 01ae FFF7FEFF 		bl	HAL_GetTick
 767              	.LVL64:
 768 01b2 0546     		mov	r5, r0
 769              	.LVL65:
 497:Drivers/STM32H7xx_HAL_Driver/Src/stm32h7xx_hal_rcc.c ****         {
 770              		.loc 1 497 9 is_stmt 1 view .LVU239
 771              	.L57:
 497:Drivers/STM32H7xx_HAL_Driver/Src/stm32h7xx_hal_rcc.c ****         {
 772              		.loc 1 497 52 view .LVU240
 497:Drivers/STM32H7xx_HAL_Driver/Src/stm32h7xx_hal_rcc.c ****         {
 773              		.loc 1 497 16 is_stmt 0 view .LVU241
 774 01b4 344B     		ldr	r3, .L191
 775 01b6 1B68     		ldr	r3, [r3]
 497:Drivers/STM32H7xx_HAL_Driver/Src/stm32h7xx_hal_rcc.c ****         {
 776              		.loc 1 497 52 view .LVU242
ARM GAS  C:\Users\thewo\AppData\Local\Temp\ccxuDTrk.s 			page 25


 777 01b8 13F0040F 		tst	r3, #4
 778 01bc 06D1     		bne	.L166
 499:Drivers/STM32H7xx_HAL_Driver/Src/stm32h7xx_hal_rcc.c ****           {
 779              		.loc 1 499 11 is_stmt 1 view .LVU243
 499:Drivers/STM32H7xx_HAL_Driver/Src/stm32h7xx_hal_rcc.c ****           {
 780              		.loc 1 499 26 is_stmt 0 view .LVU244
 781 01be FFF7FEFF 		bl	HAL_GetTick
 782              	.LVL66:
 499:Drivers/STM32H7xx_HAL_Driver/Src/stm32h7xx_hal_rcc.c ****           {
 783              		.loc 1 499 40 discriminator 1 view .LVU245
 784 01c2 401B     		subs	r0, r0, r5
 499:Drivers/STM32H7xx_HAL_Driver/Src/stm32h7xx_hal_rcc.c ****           {
 785              		.loc 1 499 14 discriminator 1 view .LVU246
 786 01c4 0228     		cmp	r0, #2
 787 01c6 F5D9     		bls	.L57
 501:Drivers/STM32H7xx_HAL_Driver/Src/stm32h7xx_hal_rcc.c ****           }
 788              		.loc 1 501 20 view .LVU247
 789 01c8 0320     		movs	r0, #3
 790              	.LVL67:
 791              	.L36:
 501:Drivers/STM32H7xx_HAL_Driver/Src/stm32h7xx_hal_rcc.c ****           }
 792              		.loc 1 501 20 view .LVU248
 793              	.LBE6:
 526:Drivers/STM32H7xx_HAL_Driver/Src/stm32h7xx_hal_rcc.c ****           }
 527:Drivers/STM32H7xx_HAL_Driver/Src/stm32h7xx_hal_rcc.c ****         }
 528:Drivers/STM32H7xx_HAL_Driver/Src/stm32h7xx_hal_rcc.c **** 
 529:Drivers/STM32H7xx_HAL_Driver/Src/stm32h7xx_hal_rcc.c ****         /* Adjusts the Internal High Speed oscillator (HSI) calibration value.*/
 530:Drivers/STM32H7xx_HAL_Driver/Src/stm32h7xx_hal_rcc.c ****         __HAL_RCC_HSI_CALIBRATIONVALUE_ADJUST(RCC_OscInitStruct->HSICalibrationValue);
 531:Drivers/STM32H7xx_HAL_Driver/Src/stm32h7xx_hal_rcc.c ****       }
 532:Drivers/STM32H7xx_HAL_Driver/Src/stm32h7xx_hal_rcc.c ****       else
 533:Drivers/STM32H7xx_HAL_Driver/Src/stm32h7xx_hal_rcc.c ****       {
 534:Drivers/STM32H7xx_HAL_Driver/Src/stm32h7xx_hal_rcc.c ****         /* Disable the Internal High Speed oscillator (HSI). */
 535:Drivers/STM32H7xx_HAL_Driver/Src/stm32h7xx_hal_rcc.c ****         __HAL_RCC_HSI_DISABLE();
 536:Drivers/STM32H7xx_HAL_Driver/Src/stm32h7xx_hal_rcc.c **** 
 537:Drivers/STM32H7xx_HAL_Driver/Src/stm32h7xx_hal_rcc.c ****         /* Get Start Tick*/
 538:Drivers/STM32H7xx_HAL_Driver/Src/stm32h7xx_hal_rcc.c ****         tickstart = HAL_GetTick();
 539:Drivers/STM32H7xx_HAL_Driver/Src/stm32h7xx_hal_rcc.c **** 
 540:Drivers/STM32H7xx_HAL_Driver/Src/stm32h7xx_hal_rcc.c ****         /* Wait till HSI is disabled */
 541:Drivers/STM32H7xx_HAL_Driver/Src/stm32h7xx_hal_rcc.c ****         while (__HAL_RCC_GET_FLAG(RCC_FLAG_HSIRDY) != 0U)
 542:Drivers/STM32H7xx_HAL_Driver/Src/stm32h7xx_hal_rcc.c ****         {
 543:Drivers/STM32H7xx_HAL_Driver/Src/stm32h7xx_hal_rcc.c ****           if ((HAL_GetTick() - tickstart) > HSI_TIMEOUT_VALUE)
 544:Drivers/STM32H7xx_HAL_Driver/Src/stm32h7xx_hal_rcc.c ****           {
 545:Drivers/STM32H7xx_HAL_Driver/Src/stm32h7xx_hal_rcc.c ****             return HAL_TIMEOUT;
 546:Drivers/STM32H7xx_HAL_Driver/Src/stm32h7xx_hal_rcc.c ****           }
 547:Drivers/STM32H7xx_HAL_Driver/Src/stm32h7xx_hal_rcc.c ****         }
 548:Drivers/STM32H7xx_HAL_Driver/Src/stm32h7xx_hal_rcc.c ****       }
 549:Drivers/STM32H7xx_HAL_Driver/Src/stm32h7xx_hal_rcc.c ****     }
 550:Drivers/STM32H7xx_HAL_Driver/Src/stm32h7xx_hal_rcc.c ****   }
 551:Drivers/STM32H7xx_HAL_Driver/Src/stm32h7xx_hal_rcc.c ****   /*----------------------------- CSI Configuration --------------------------*/
 552:Drivers/STM32H7xx_HAL_Driver/Src/stm32h7xx_hal_rcc.c ****   if (((RCC_OscInitStruct->OscillatorType) & RCC_OSCILLATORTYPE_CSI) == RCC_OSCILLATORTYPE_CSI)
 553:Drivers/STM32H7xx_HAL_Driver/Src/stm32h7xx_hal_rcc.c ****   {
 554:Drivers/STM32H7xx_HAL_Driver/Src/stm32h7xx_hal_rcc.c ****     /* Check the parameters */
 555:Drivers/STM32H7xx_HAL_Driver/Src/stm32h7xx_hal_rcc.c ****     assert_param(IS_RCC_CSI(RCC_OscInitStruct->CSIState));
 556:Drivers/STM32H7xx_HAL_Driver/Src/stm32h7xx_hal_rcc.c ****     assert_param(IS_RCC_CSICALIBRATION_VALUE(RCC_OscInitStruct->CSICalibrationValue));
 557:Drivers/STM32H7xx_HAL_Driver/Src/stm32h7xx_hal_rcc.c **** 
 558:Drivers/STM32H7xx_HAL_Driver/Src/stm32h7xx_hal_rcc.c ****     /* When the CSI is used as system clock it will not disabled */
 559:Drivers/STM32H7xx_HAL_Driver/Src/stm32h7xx_hal_rcc.c ****     const uint32_t temp_sysclksrc = __HAL_RCC_GET_SYSCLK_SOURCE();
ARM GAS  C:\Users\thewo\AppData\Local\Temp\ccxuDTrk.s 			page 26


 560:Drivers/STM32H7xx_HAL_Driver/Src/stm32h7xx_hal_rcc.c ****     const uint32_t temp_pllckselr = RCC->PLLCKSELR;
 561:Drivers/STM32H7xx_HAL_Driver/Src/stm32h7xx_hal_rcc.c ****     if ((temp_sysclksrc == RCC_CFGR_SWS_CSI) || ((temp_sysclksrc == RCC_CFGR_SWS_PLL1) && ((temp_pl
 562:Drivers/STM32H7xx_HAL_Driver/Src/stm32h7xx_hal_rcc.c ****     {
 563:Drivers/STM32H7xx_HAL_Driver/Src/stm32h7xx_hal_rcc.c ****       /* When CSI is used as system clock it will not disabled */
 564:Drivers/STM32H7xx_HAL_Driver/Src/stm32h7xx_hal_rcc.c ****       if ((__HAL_RCC_GET_FLAG(RCC_FLAG_CSIRDY) != 0U) && (RCC_OscInitStruct->CSIState != RCC_CSI_ON
 565:Drivers/STM32H7xx_HAL_Driver/Src/stm32h7xx_hal_rcc.c ****       {
 566:Drivers/STM32H7xx_HAL_Driver/Src/stm32h7xx_hal_rcc.c ****         return HAL_ERROR;
 567:Drivers/STM32H7xx_HAL_Driver/Src/stm32h7xx_hal_rcc.c ****       }
 568:Drivers/STM32H7xx_HAL_Driver/Src/stm32h7xx_hal_rcc.c ****       /* Otherwise, just the calibration is allowed */
 569:Drivers/STM32H7xx_HAL_Driver/Src/stm32h7xx_hal_rcc.c ****       else
 570:Drivers/STM32H7xx_HAL_Driver/Src/stm32h7xx_hal_rcc.c ****       {
 571:Drivers/STM32H7xx_HAL_Driver/Src/stm32h7xx_hal_rcc.c ****         /* Adjusts the Internal High Speed oscillator (CSI) calibration value.*/
 572:Drivers/STM32H7xx_HAL_Driver/Src/stm32h7xx_hal_rcc.c ****         __HAL_RCC_CSI_CALIBRATIONVALUE_ADJUST(RCC_OscInitStruct->CSICalibrationValue);
 573:Drivers/STM32H7xx_HAL_Driver/Src/stm32h7xx_hal_rcc.c ****       }
 574:Drivers/STM32H7xx_HAL_Driver/Src/stm32h7xx_hal_rcc.c ****     }
 575:Drivers/STM32H7xx_HAL_Driver/Src/stm32h7xx_hal_rcc.c ****     else
 576:Drivers/STM32H7xx_HAL_Driver/Src/stm32h7xx_hal_rcc.c ****     {
 577:Drivers/STM32H7xx_HAL_Driver/Src/stm32h7xx_hal_rcc.c ****       /* Check the CSI State */
 578:Drivers/STM32H7xx_HAL_Driver/Src/stm32h7xx_hal_rcc.c ****       if ((RCC_OscInitStruct->CSIState) != RCC_CSI_OFF)
 579:Drivers/STM32H7xx_HAL_Driver/Src/stm32h7xx_hal_rcc.c ****       {
 580:Drivers/STM32H7xx_HAL_Driver/Src/stm32h7xx_hal_rcc.c ****         /* Enable the Internal High Speed oscillator (CSI). */
 581:Drivers/STM32H7xx_HAL_Driver/Src/stm32h7xx_hal_rcc.c ****         __HAL_RCC_CSI_ENABLE();
 582:Drivers/STM32H7xx_HAL_Driver/Src/stm32h7xx_hal_rcc.c **** 
 583:Drivers/STM32H7xx_HAL_Driver/Src/stm32h7xx_hal_rcc.c ****         /* Get Start Tick*/
 584:Drivers/STM32H7xx_HAL_Driver/Src/stm32h7xx_hal_rcc.c ****         tickstart = HAL_GetTick();
 585:Drivers/STM32H7xx_HAL_Driver/Src/stm32h7xx_hal_rcc.c **** 
 586:Drivers/STM32H7xx_HAL_Driver/Src/stm32h7xx_hal_rcc.c ****         /* Wait till CSI is ready */
 587:Drivers/STM32H7xx_HAL_Driver/Src/stm32h7xx_hal_rcc.c ****         while (__HAL_RCC_GET_FLAG(RCC_FLAG_CSIRDY) == 0U)
 588:Drivers/STM32H7xx_HAL_Driver/Src/stm32h7xx_hal_rcc.c ****         {
 589:Drivers/STM32H7xx_HAL_Driver/Src/stm32h7xx_hal_rcc.c ****           if ((HAL_GetTick() - tickstart) > CSI_TIMEOUT_VALUE)
 590:Drivers/STM32H7xx_HAL_Driver/Src/stm32h7xx_hal_rcc.c ****           {
 591:Drivers/STM32H7xx_HAL_Driver/Src/stm32h7xx_hal_rcc.c ****             return HAL_TIMEOUT;
 592:Drivers/STM32H7xx_HAL_Driver/Src/stm32h7xx_hal_rcc.c ****           }
 593:Drivers/STM32H7xx_HAL_Driver/Src/stm32h7xx_hal_rcc.c ****         }
 594:Drivers/STM32H7xx_HAL_Driver/Src/stm32h7xx_hal_rcc.c **** 
 595:Drivers/STM32H7xx_HAL_Driver/Src/stm32h7xx_hal_rcc.c ****         /* Adjusts the Internal High Speed oscillator (CSI) calibration value.*/
 596:Drivers/STM32H7xx_HAL_Driver/Src/stm32h7xx_hal_rcc.c ****         __HAL_RCC_CSI_CALIBRATIONVALUE_ADJUST(RCC_OscInitStruct->CSICalibrationValue);
 597:Drivers/STM32H7xx_HAL_Driver/Src/stm32h7xx_hal_rcc.c ****       }
 598:Drivers/STM32H7xx_HAL_Driver/Src/stm32h7xx_hal_rcc.c ****       else
 599:Drivers/STM32H7xx_HAL_Driver/Src/stm32h7xx_hal_rcc.c ****       {
 600:Drivers/STM32H7xx_HAL_Driver/Src/stm32h7xx_hal_rcc.c ****         /* Disable the Internal High Speed oscillator (CSI). */
 601:Drivers/STM32H7xx_HAL_Driver/Src/stm32h7xx_hal_rcc.c ****         __HAL_RCC_CSI_DISABLE();
 602:Drivers/STM32H7xx_HAL_Driver/Src/stm32h7xx_hal_rcc.c **** 
 603:Drivers/STM32H7xx_HAL_Driver/Src/stm32h7xx_hal_rcc.c ****         /* Get Start Tick*/
 604:Drivers/STM32H7xx_HAL_Driver/Src/stm32h7xx_hal_rcc.c ****         tickstart = HAL_GetTick();
 605:Drivers/STM32H7xx_HAL_Driver/Src/stm32h7xx_hal_rcc.c **** 
 606:Drivers/STM32H7xx_HAL_Driver/Src/stm32h7xx_hal_rcc.c ****         /* Wait till CSI is disabled */
 607:Drivers/STM32H7xx_HAL_Driver/Src/stm32h7xx_hal_rcc.c ****         while (__HAL_RCC_GET_FLAG(RCC_FLAG_CSIRDY) != 0U)
 608:Drivers/STM32H7xx_HAL_Driver/Src/stm32h7xx_hal_rcc.c ****         {
 609:Drivers/STM32H7xx_HAL_Driver/Src/stm32h7xx_hal_rcc.c ****           if ((HAL_GetTick() - tickstart) > CSI_TIMEOUT_VALUE)
 610:Drivers/STM32H7xx_HAL_Driver/Src/stm32h7xx_hal_rcc.c ****           {
 611:Drivers/STM32H7xx_HAL_Driver/Src/stm32h7xx_hal_rcc.c ****             return HAL_TIMEOUT;
 612:Drivers/STM32H7xx_HAL_Driver/Src/stm32h7xx_hal_rcc.c ****           }
 613:Drivers/STM32H7xx_HAL_Driver/Src/stm32h7xx_hal_rcc.c ****         }
 614:Drivers/STM32H7xx_HAL_Driver/Src/stm32h7xx_hal_rcc.c ****       }
 615:Drivers/STM32H7xx_HAL_Driver/Src/stm32h7xx_hal_rcc.c ****     }
 616:Drivers/STM32H7xx_HAL_Driver/Src/stm32h7xx_hal_rcc.c ****   }
ARM GAS  C:\Users\thewo\AppData\Local\Temp\ccxuDTrk.s 			page 27


 617:Drivers/STM32H7xx_HAL_Driver/Src/stm32h7xx_hal_rcc.c ****   /*------------------------------ LSI Configuration -------------------------*/
 618:Drivers/STM32H7xx_HAL_Driver/Src/stm32h7xx_hal_rcc.c ****   if (((RCC_OscInitStruct->OscillatorType) & RCC_OSCILLATORTYPE_LSI) == RCC_OSCILLATORTYPE_LSI)
 619:Drivers/STM32H7xx_HAL_Driver/Src/stm32h7xx_hal_rcc.c ****   {
 620:Drivers/STM32H7xx_HAL_Driver/Src/stm32h7xx_hal_rcc.c ****     /* Check the parameters */
 621:Drivers/STM32H7xx_HAL_Driver/Src/stm32h7xx_hal_rcc.c ****     assert_param(IS_RCC_LSI(RCC_OscInitStruct->LSIState));
 622:Drivers/STM32H7xx_HAL_Driver/Src/stm32h7xx_hal_rcc.c **** 
 623:Drivers/STM32H7xx_HAL_Driver/Src/stm32h7xx_hal_rcc.c ****     /* Check the LSI State */
 624:Drivers/STM32H7xx_HAL_Driver/Src/stm32h7xx_hal_rcc.c ****     if ((RCC_OscInitStruct->LSIState) != RCC_LSI_OFF)
 625:Drivers/STM32H7xx_HAL_Driver/Src/stm32h7xx_hal_rcc.c ****     {
 626:Drivers/STM32H7xx_HAL_Driver/Src/stm32h7xx_hal_rcc.c ****       /* Enable the Internal Low Speed oscillator (LSI). */
 627:Drivers/STM32H7xx_HAL_Driver/Src/stm32h7xx_hal_rcc.c ****       __HAL_RCC_LSI_ENABLE();
 628:Drivers/STM32H7xx_HAL_Driver/Src/stm32h7xx_hal_rcc.c **** 
 629:Drivers/STM32H7xx_HAL_Driver/Src/stm32h7xx_hal_rcc.c ****       /* Get Start Tick*/
 630:Drivers/STM32H7xx_HAL_Driver/Src/stm32h7xx_hal_rcc.c ****       tickstart = HAL_GetTick();
 631:Drivers/STM32H7xx_HAL_Driver/Src/stm32h7xx_hal_rcc.c **** 
 632:Drivers/STM32H7xx_HAL_Driver/Src/stm32h7xx_hal_rcc.c ****       /* Wait till LSI is ready */
 633:Drivers/STM32H7xx_HAL_Driver/Src/stm32h7xx_hal_rcc.c ****       while (__HAL_RCC_GET_FLAG(RCC_FLAG_LSIRDY) == 0U)
 634:Drivers/STM32H7xx_HAL_Driver/Src/stm32h7xx_hal_rcc.c ****       {
 635:Drivers/STM32H7xx_HAL_Driver/Src/stm32h7xx_hal_rcc.c ****         if ((HAL_GetTick() - tickstart) > LSI_TIMEOUT_VALUE)
 636:Drivers/STM32H7xx_HAL_Driver/Src/stm32h7xx_hal_rcc.c ****         {
 637:Drivers/STM32H7xx_HAL_Driver/Src/stm32h7xx_hal_rcc.c ****           return HAL_TIMEOUT;
 638:Drivers/STM32H7xx_HAL_Driver/Src/stm32h7xx_hal_rcc.c ****         }
 639:Drivers/STM32H7xx_HAL_Driver/Src/stm32h7xx_hal_rcc.c ****       }
 640:Drivers/STM32H7xx_HAL_Driver/Src/stm32h7xx_hal_rcc.c ****     }
 641:Drivers/STM32H7xx_HAL_Driver/Src/stm32h7xx_hal_rcc.c ****     else
 642:Drivers/STM32H7xx_HAL_Driver/Src/stm32h7xx_hal_rcc.c ****     {
 643:Drivers/STM32H7xx_HAL_Driver/Src/stm32h7xx_hal_rcc.c ****       /* Disable the Internal Low Speed oscillator (LSI). */
 644:Drivers/STM32H7xx_HAL_Driver/Src/stm32h7xx_hal_rcc.c ****       __HAL_RCC_LSI_DISABLE();
 645:Drivers/STM32H7xx_HAL_Driver/Src/stm32h7xx_hal_rcc.c **** 
 646:Drivers/STM32H7xx_HAL_Driver/Src/stm32h7xx_hal_rcc.c ****       /* Get Start Tick*/
 647:Drivers/STM32H7xx_HAL_Driver/Src/stm32h7xx_hal_rcc.c ****       tickstart = HAL_GetTick();
 648:Drivers/STM32H7xx_HAL_Driver/Src/stm32h7xx_hal_rcc.c **** 
 649:Drivers/STM32H7xx_HAL_Driver/Src/stm32h7xx_hal_rcc.c ****       /* Wait till LSI is ready */
 650:Drivers/STM32H7xx_HAL_Driver/Src/stm32h7xx_hal_rcc.c ****       while (__HAL_RCC_GET_FLAG(RCC_FLAG_LSIRDY) != 0U)
 651:Drivers/STM32H7xx_HAL_Driver/Src/stm32h7xx_hal_rcc.c ****       {
 652:Drivers/STM32H7xx_HAL_Driver/Src/stm32h7xx_hal_rcc.c ****         if ((HAL_GetTick() - tickstart) > LSI_TIMEOUT_VALUE)
 653:Drivers/STM32H7xx_HAL_Driver/Src/stm32h7xx_hal_rcc.c ****         {
 654:Drivers/STM32H7xx_HAL_Driver/Src/stm32h7xx_hal_rcc.c ****           return HAL_TIMEOUT;
 655:Drivers/STM32H7xx_HAL_Driver/Src/stm32h7xx_hal_rcc.c ****         }
 656:Drivers/STM32H7xx_HAL_Driver/Src/stm32h7xx_hal_rcc.c ****       }
 657:Drivers/STM32H7xx_HAL_Driver/Src/stm32h7xx_hal_rcc.c ****     }
 658:Drivers/STM32H7xx_HAL_Driver/Src/stm32h7xx_hal_rcc.c ****   }
 659:Drivers/STM32H7xx_HAL_Driver/Src/stm32h7xx_hal_rcc.c **** 
 660:Drivers/STM32H7xx_HAL_Driver/Src/stm32h7xx_hal_rcc.c ****   /*------------------------------ HSI48 Configuration -------------------------*/
 661:Drivers/STM32H7xx_HAL_Driver/Src/stm32h7xx_hal_rcc.c ****   if (((RCC_OscInitStruct->OscillatorType) & RCC_OSCILLATORTYPE_HSI48) == RCC_OSCILLATORTYPE_HSI48)
 662:Drivers/STM32H7xx_HAL_Driver/Src/stm32h7xx_hal_rcc.c ****   {
 663:Drivers/STM32H7xx_HAL_Driver/Src/stm32h7xx_hal_rcc.c ****     /* Check the parameters */
 664:Drivers/STM32H7xx_HAL_Driver/Src/stm32h7xx_hal_rcc.c ****     assert_param(IS_RCC_HSI48(RCC_OscInitStruct->HSI48State));
 665:Drivers/STM32H7xx_HAL_Driver/Src/stm32h7xx_hal_rcc.c **** 
 666:Drivers/STM32H7xx_HAL_Driver/Src/stm32h7xx_hal_rcc.c ****     /* Check the HSI48 State */
 667:Drivers/STM32H7xx_HAL_Driver/Src/stm32h7xx_hal_rcc.c ****     if ((RCC_OscInitStruct->HSI48State) != RCC_HSI48_OFF)
 668:Drivers/STM32H7xx_HAL_Driver/Src/stm32h7xx_hal_rcc.c ****     {
 669:Drivers/STM32H7xx_HAL_Driver/Src/stm32h7xx_hal_rcc.c ****       /* Enable the Internal Low Speed oscillator (HSI48). */
 670:Drivers/STM32H7xx_HAL_Driver/Src/stm32h7xx_hal_rcc.c ****       __HAL_RCC_HSI48_ENABLE();
 671:Drivers/STM32H7xx_HAL_Driver/Src/stm32h7xx_hal_rcc.c **** 
 672:Drivers/STM32H7xx_HAL_Driver/Src/stm32h7xx_hal_rcc.c ****       /* Get time-out */
 673:Drivers/STM32H7xx_HAL_Driver/Src/stm32h7xx_hal_rcc.c ****       tickstart = HAL_GetTick();
ARM GAS  C:\Users\thewo\AppData\Local\Temp\ccxuDTrk.s 			page 28


 674:Drivers/STM32H7xx_HAL_Driver/Src/stm32h7xx_hal_rcc.c **** 
 675:Drivers/STM32H7xx_HAL_Driver/Src/stm32h7xx_hal_rcc.c ****       /* Wait till HSI48 is ready */
 676:Drivers/STM32H7xx_HAL_Driver/Src/stm32h7xx_hal_rcc.c ****       while (__HAL_RCC_GET_FLAG(RCC_FLAG_HSI48RDY) == 0U)
 677:Drivers/STM32H7xx_HAL_Driver/Src/stm32h7xx_hal_rcc.c ****       {
 678:Drivers/STM32H7xx_HAL_Driver/Src/stm32h7xx_hal_rcc.c ****         if ((HAL_GetTick() - tickstart) > HSI48_TIMEOUT_VALUE)
 679:Drivers/STM32H7xx_HAL_Driver/Src/stm32h7xx_hal_rcc.c ****         {
 680:Drivers/STM32H7xx_HAL_Driver/Src/stm32h7xx_hal_rcc.c ****           return HAL_TIMEOUT;
 681:Drivers/STM32H7xx_HAL_Driver/Src/stm32h7xx_hal_rcc.c ****         }
 682:Drivers/STM32H7xx_HAL_Driver/Src/stm32h7xx_hal_rcc.c ****       }
 683:Drivers/STM32H7xx_HAL_Driver/Src/stm32h7xx_hal_rcc.c ****     }
 684:Drivers/STM32H7xx_HAL_Driver/Src/stm32h7xx_hal_rcc.c ****     else
 685:Drivers/STM32H7xx_HAL_Driver/Src/stm32h7xx_hal_rcc.c ****     {
 686:Drivers/STM32H7xx_HAL_Driver/Src/stm32h7xx_hal_rcc.c ****       /* Disable the Internal Low Speed oscillator (HSI48). */
 687:Drivers/STM32H7xx_HAL_Driver/Src/stm32h7xx_hal_rcc.c ****       __HAL_RCC_HSI48_DISABLE();
 688:Drivers/STM32H7xx_HAL_Driver/Src/stm32h7xx_hal_rcc.c **** 
 689:Drivers/STM32H7xx_HAL_Driver/Src/stm32h7xx_hal_rcc.c ****       /* Get time-out */
 690:Drivers/STM32H7xx_HAL_Driver/Src/stm32h7xx_hal_rcc.c ****       tickstart = HAL_GetTick();
 691:Drivers/STM32H7xx_HAL_Driver/Src/stm32h7xx_hal_rcc.c **** 
 692:Drivers/STM32H7xx_HAL_Driver/Src/stm32h7xx_hal_rcc.c ****       /* Wait till HSI48 is ready */
 693:Drivers/STM32H7xx_HAL_Driver/Src/stm32h7xx_hal_rcc.c ****       while (__HAL_RCC_GET_FLAG(RCC_FLAG_HSI48RDY) != 0U)
 694:Drivers/STM32H7xx_HAL_Driver/Src/stm32h7xx_hal_rcc.c ****       {
 695:Drivers/STM32H7xx_HAL_Driver/Src/stm32h7xx_hal_rcc.c ****         if ((HAL_GetTick() - tickstart) > HSI48_TIMEOUT_VALUE)
 696:Drivers/STM32H7xx_HAL_Driver/Src/stm32h7xx_hal_rcc.c ****         {
 697:Drivers/STM32H7xx_HAL_Driver/Src/stm32h7xx_hal_rcc.c ****           return HAL_TIMEOUT;
 698:Drivers/STM32H7xx_HAL_Driver/Src/stm32h7xx_hal_rcc.c ****         }
 699:Drivers/STM32H7xx_HAL_Driver/Src/stm32h7xx_hal_rcc.c ****       }
 700:Drivers/STM32H7xx_HAL_Driver/Src/stm32h7xx_hal_rcc.c ****     }
 701:Drivers/STM32H7xx_HAL_Driver/Src/stm32h7xx_hal_rcc.c ****   }
 702:Drivers/STM32H7xx_HAL_Driver/Src/stm32h7xx_hal_rcc.c ****   /*------------------------------ LSE Configuration -------------------------*/
 703:Drivers/STM32H7xx_HAL_Driver/Src/stm32h7xx_hal_rcc.c ****   if (((RCC_OscInitStruct->OscillatorType) & RCC_OSCILLATORTYPE_LSE) == RCC_OSCILLATORTYPE_LSE)
 704:Drivers/STM32H7xx_HAL_Driver/Src/stm32h7xx_hal_rcc.c ****   {
 705:Drivers/STM32H7xx_HAL_Driver/Src/stm32h7xx_hal_rcc.c ****     /* Check the parameters */
 706:Drivers/STM32H7xx_HAL_Driver/Src/stm32h7xx_hal_rcc.c ****     assert_param(IS_RCC_LSE(RCC_OscInitStruct->LSEState));
 707:Drivers/STM32H7xx_HAL_Driver/Src/stm32h7xx_hal_rcc.c **** 
 708:Drivers/STM32H7xx_HAL_Driver/Src/stm32h7xx_hal_rcc.c ****     /* Enable write access to Backup domain */
 709:Drivers/STM32H7xx_HAL_Driver/Src/stm32h7xx_hal_rcc.c ****     PWR->CR1 |= PWR_CR1_DBP;
 710:Drivers/STM32H7xx_HAL_Driver/Src/stm32h7xx_hal_rcc.c **** 
 711:Drivers/STM32H7xx_HAL_Driver/Src/stm32h7xx_hal_rcc.c ****     /* Wait for Backup domain Write protection disable */
 712:Drivers/STM32H7xx_HAL_Driver/Src/stm32h7xx_hal_rcc.c ****     tickstart = HAL_GetTick();
 713:Drivers/STM32H7xx_HAL_Driver/Src/stm32h7xx_hal_rcc.c **** 
 714:Drivers/STM32H7xx_HAL_Driver/Src/stm32h7xx_hal_rcc.c ****     while ((PWR->CR1 & PWR_CR1_DBP) == 0U)
 715:Drivers/STM32H7xx_HAL_Driver/Src/stm32h7xx_hal_rcc.c ****     {
 716:Drivers/STM32H7xx_HAL_Driver/Src/stm32h7xx_hal_rcc.c ****       if ((HAL_GetTick() - tickstart) > RCC_DBP_TIMEOUT_VALUE)
 717:Drivers/STM32H7xx_HAL_Driver/Src/stm32h7xx_hal_rcc.c ****       {
 718:Drivers/STM32H7xx_HAL_Driver/Src/stm32h7xx_hal_rcc.c ****         return HAL_TIMEOUT;
 719:Drivers/STM32H7xx_HAL_Driver/Src/stm32h7xx_hal_rcc.c ****       }
 720:Drivers/STM32H7xx_HAL_Driver/Src/stm32h7xx_hal_rcc.c ****     }
 721:Drivers/STM32H7xx_HAL_Driver/Src/stm32h7xx_hal_rcc.c **** 
 722:Drivers/STM32H7xx_HAL_Driver/Src/stm32h7xx_hal_rcc.c ****     /* Set the new LSE configuration -----------------------------------------*/
 723:Drivers/STM32H7xx_HAL_Driver/Src/stm32h7xx_hal_rcc.c ****     __HAL_RCC_LSE_CONFIG(RCC_OscInitStruct->LSEState);
 724:Drivers/STM32H7xx_HAL_Driver/Src/stm32h7xx_hal_rcc.c ****     /* Check the LSE State */
 725:Drivers/STM32H7xx_HAL_Driver/Src/stm32h7xx_hal_rcc.c ****     if ((RCC_OscInitStruct->LSEState) != RCC_LSE_OFF)
 726:Drivers/STM32H7xx_HAL_Driver/Src/stm32h7xx_hal_rcc.c ****     {
 727:Drivers/STM32H7xx_HAL_Driver/Src/stm32h7xx_hal_rcc.c ****       /* Get Start Tick*/
 728:Drivers/STM32H7xx_HAL_Driver/Src/stm32h7xx_hal_rcc.c ****       tickstart = HAL_GetTick();
 729:Drivers/STM32H7xx_HAL_Driver/Src/stm32h7xx_hal_rcc.c **** 
 730:Drivers/STM32H7xx_HAL_Driver/Src/stm32h7xx_hal_rcc.c ****       /* Wait till LSE is ready */
ARM GAS  C:\Users\thewo\AppData\Local\Temp\ccxuDTrk.s 			page 29


 731:Drivers/STM32H7xx_HAL_Driver/Src/stm32h7xx_hal_rcc.c ****       while (__HAL_RCC_GET_FLAG(RCC_FLAG_LSERDY) == 0U)
 732:Drivers/STM32H7xx_HAL_Driver/Src/stm32h7xx_hal_rcc.c ****       {
 733:Drivers/STM32H7xx_HAL_Driver/Src/stm32h7xx_hal_rcc.c ****         if ((HAL_GetTick() - tickstart) > RCC_LSE_TIMEOUT_VALUE)
 734:Drivers/STM32H7xx_HAL_Driver/Src/stm32h7xx_hal_rcc.c ****         {
 735:Drivers/STM32H7xx_HAL_Driver/Src/stm32h7xx_hal_rcc.c ****           return HAL_TIMEOUT;
 736:Drivers/STM32H7xx_HAL_Driver/Src/stm32h7xx_hal_rcc.c ****         }
 737:Drivers/STM32H7xx_HAL_Driver/Src/stm32h7xx_hal_rcc.c ****       }
 738:Drivers/STM32H7xx_HAL_Driver/Src/stm32h7xx_hal_rcc.c ****     }
 739:Drivers/STM32H7xx_HAL_Driver/Src/stm32h7xx_hal_rcc.c ****     else
 740:Drivers/STM32H7xx_HAL_Driver/Src/stm32h7xx_hal_rcc.c ****     {
 741:Drivers/STM32H7xx_HAL_Driver/Src/stm32h7xx_hal_rcc.c ****       /* Get Start Tick*/
 742:Drivers/STM32H7xx_HAL_Driver/Src/stm32h7xx_hal_rcc.c ****       tickstart = HAL_GetTick();
 743:Drivers/STM32H7xx_HAL_Driver/Src/stm32h7xx_hal_rcc.c **** 
 744:Drivers/STM32H7xx_HAL_Driver/Src/stm32h7xx_hal_rcc.c ****       /* Wait till LSE is disabled */
 745:Drivers/STM32H7xx_HAL_Driver/Src/stm32h7xx_hal_rcc.c ****       while (__HAL_RCC_GET_FLAG(RCC_FLAG_LSERDY) != 0U)
 746:Drivers/STM32H7xx_HAL_Driver/Src/stm32h7xx_hal_rcc.c ****       {
 747:Drivers/STM32H7xx_HAL_Driver/Src/stm32h7xx_hal_rcc.c ****         if ((HAL_GetTick() - tickstart) > RCC_LSE_TIMEOUT_VALUE)
 748:Drivers/STM32H7xx_HAL_Driver/Src/stm32h7xx_hal_rcc.c ****         {
 749:Drivers/STM32H7xx_HAL_Driver/Src/stm32h7xx_hal_rcc.c ****           return HAL_TIMEOUT;
 750:Drivers/STM32H7xx_HAL_Driver/Src/stm32h7xx_hal_rcc.c ****         }
 751:Drivers/STM32H7xx_HAL_Driver/Src/stm32h7xx_hal_rcc.c ****       }
 752:Drivers/STM32H7xx_HAL_Driver/Src/stm32h7xx_hal_rcc.c ****     }
 753:Drivers/STM32H7xx_HAL_Driver/Src/stm32h7xx_hal_rcc.c ****   }
 754:Drivers/STM32H7xx_HAL_Driver/Src/stm32h7xx_hal_rcc.c ****   /*-------------------------------- PLL Configuration -----------------------*/
 755:Drivers/STM32H7xx_HAL_Driver/Src/stm32h7xx_hal_rcc.c ****   /* Check the parameters */
 756:Drivers/STM32H7xx_HAL_Driver/Src/stm32h7xx_hal_rcc.c ****   assert_param(IS_RCC_PLL(RCC_OscInitStruct->PLL.PLLState));
 757:Drivers/STM32H7xx_HAL_Driver/Src/stm32h7xx_hal_rcc.c ****   if ((RCC_OscInitStruct->PLL.PLLState) != RCC_PLL_NONE)
 758:Drivers/STM32H7xx_HAL_Driver/Src/stm32h7xx_hal_rcc.c ****   {
 759:Drivers/STM32H7xx_HAL_Driver/Src/stm32h7xx_hal_rcc.c ****     /* Check if the PLL is used as system clock or not */
 760:Drivers/STM32H7xx_HAL_Driver/Src/stm32h7xx_hal_rcc.c ****     if (__HAL_RCC_GET_SYSCLK_SOURCE() != RCC_CFGR_SWS_PLL1)
 761:Drivers/STM32H7xx_HAL_Driver/Src/stm32h7xx_hal_rcc.c ****     {
 762:Drivers/STM32H7xx_HAL_Driver/Src/stm32h7xx_hal_rcc.c ****       if ((RCC_OscInitStruct->PLL.PLLState) == RCC_PLL_ON)
 763:Drivers/STM32H7xx_HAL_Driver/Src/stm32h7xx_hal_rcc.c ****       {
 764:Drivers/STM32H7xx_HAL_Driver/Src/stm32h7xx_hal_rcc.c ****         /* Check the parameters */
 765:Drivers/STM32H7xx_HAL_Driver/Src/stm32h7xx_hal_rcc.c ****         assert_param(IS_RCC_PLLSOURCE(RCC_OscInitStruct->PLL.PLLSource));
 766:Drivers/STM32H7xx_HAL_Driver/Src/stm32h7xx_hal_rcc.c ****         assert_param(IS_RCC_PLLRGE_VALUE(RCC_OscInitStruct->PLL.PLLRGE));
 767:Drivers/STM32H7xx_HAL_Driver/Src/stm32h7xx_hal_rcc.c ****         assert_param(IS_RCC_PLLVCO_VALUE(RCC_OscInitStruct->PLL.PLLVCOSEL));
 768:Drivers/STM32H7xx_HAL_Driver/Src/stm32h7xx_hal_rcc.c ****         assert_param(IS_RCC_PLLM_VALUE(RCC_OscInitStruct->PLL.PLLM));
 769:Drivers/STM32H7xx_HAL_Driver/Src/stm32h7xx_hal_rcc.c ****         assert_param(IS_RCC_PLLN_VALUE(RCC_OscInitStruct->PLL.PLLN));
 770:Drivers/STM32H7xx_HAL_Driver/Src/stm32h7xx_hal_rcc.c ****         assert_param(IS_RCC_PLLP_VALUE(RCC_OscInitStruct->PLL.PLLP));
 771:Drivers/STM32H7xx_HAL_Driver/Src/stm32h7xx_hal_rcc.c ****         assert_param(IS_RCC_PLLQ_VALUE(RCC_OscInitStruct->PLL.PLLQ));
 772:Drivers/STM32H7xx_HAL_Driver/Src/stm32h7xx_hal_rcc.c ****         assert_param(IS_RCC_PLLR_VALUE(RCC_OscInitStruct->PLL.PLLR));
 773:Drivers/STM32H7xx_HAL_Driver/Src/stm32h7xx_hal_rcc.c ****         assert_param(IS_RCC_PLLFRACN_VALUE(RCC_OscInitStruct->PLL.PLLFRACN));
 774:Drivers/STM32H7xx_HAL_Driver/Src/stm32h7xx_hal_rcc.c **** 
 775:Drivers/STM32H7xx_HAL_Driver/Src/stm32h7xx_hal_rcc.c ****         /* Disable the main PLL. */
 776:Drivers/STM32H7xx_HAL_Driver/Src/stm32h7xx_hal_rcc.c ****         __HAL_RCC_PLL_DISABLE();
 777:Drivers/STM32H7xx_HAL_Driver/Src/stm32h7xx_hal_rcc.c **** 
 778:Drivers/STM32H7xx_HAL_Driver/Src/stm32h7xx_hal_rcc.c ****         /* Get Start Tick*/
 779:Drivers/STM32H7xx_HAL_Driver/Src/stm32h7xx_hal_rcc.c ****         tickstart = HAL_GetTick();
 780:Drivers/STM32H7xx_HAL_Driver/Src/stm32h7xx_hal_rcc.c **** 
 781:Drivers/STM32H7xx_HAL_Driver/Src/stm32h7xx_hal_rcc.c ****         /* Wait till PLL is disabled */
 782:Drivers/STM32H7xx_HAL_Driver/Src/stm32h7xx_hal_rcc.c ****         while (__HAL_RCC_GET_FLAG(RCC_FLAG_PLLRDY) != 0U)
 783:Drivers/STM32H7xx_HAL_Driver/Src/stm32h7xx_hal_rcc.c ****         {
 784:Drivers/STM32H7xx_HAL_Driver/Src/stm32h7xx_hal_rcc.c ****           if ((HAL_GetTick() - tickstart) > PLL_TIMEOUT_VALUE)
 785:Drivers/STM32H7xx_HAL_Driver/Src/stm32h7xx_hal_rcc.c ****           {
 786:Drivers/STM32H7xx_HAL_Driver/Src/stm32h7xx_hal_rcc.c ****             return HAL_TIMEOUT;
 787:Drivers/STM32H7xx_HAL_Driver/Src/stm32h7xx_hal_rcc.c ****           }
ARM GAS  C:\Users\thewo\AppData\Local\Temp\ccxuDTrk.s 			page 30


 788:Drivers/STM32H7xx_HAL_Driver/Src/stm32h7xx_hal_rcc.c ****         }
 789:Drivers/STM32H7xx_HAL_Driver/Src/stm32h7xx_hal_rcc.c **** 
 790:Drivers/STM32H7xx_HAL_Driver/Src/stm32h7xx_hal_rcc.c ****         /* Configure the main PLL clock source, multiplication and division factors. */
 791:Drivers/STM32H7xx_HAL_Driver/Src/stm32h7xx_hal_rcc.c ****         __HAL_RCC_PLL_CONFIG(RCC_OscInitStruct->PLL.PLLSource,
 792:Drivers/STM32H7xx_HAL_Driver/Src/stm32h7xx_hal_rcc.c ****                              RCC_OscInitStruct->PLL.PLLM,
 793:Drivers/STM32H7xx_HAL_Driver/Src/stm32h7xx_hal_rcc.c ****                              RCC_OscInitStruct->PLL.PLLN,
 794:Drivers/STM32H7xx_HAL_Driver/Src/stm32h7xx_hal_rcc.c ****                              RCC_OscInitStruct->PLL.PLLP,
 795:Drivers/STM32H7xx_HAL_Driver/Src/stm32h7xx_hal_rcc.c ****                              RCC_OscInitStruct->PLL.PLLQ,
 796:Drivers/STM32H7xx_HAL_Driver/Src/stm32h7xx_hal_rcc.c ****                              RCC_OscInitStruct->PLL.PLLR);
 797:Drivers/STM32H7xx_HAL_Driver/Src/stm32h7xx_hal_rcc.c **** 
 798:Drivers/STM32H7xx_HAL_Driver/Src/stm32h7xx_hal_rcc.c ****         /* Disable PLLFRACN . */
 799:Drivers/STM32H7xx_HAL_Driver/Src/stm32h7xx_hal_rcc.c ****         __HAL_RCC_PLLFRACN_DISABLE();
 800:Drivers/STM32H7xx_HAL_Driver/Src/stm32h7xx_hal_rcc.c **** 
 801:Drivers/STM32H7xx_HAL_Driver/Src/stm32h7xx_hal_rcc.c ****         /* Configure PLL PLL1FRACN */
 802:Drivers/STM32H7xx_HAL_Driver/Src/stm32h7xx_hal_rcc.c ****         __HAL_RCC_PLLFRACN_CONFIG(RCC_OscInitStruct->PLL.PLLFRACN);
 803:Drivers/STM32H7xx_HAL_Driver/Src/stm32h7xx_hal_rcc.c **** 
 804:Drivers/STM32H7xx_HAL_Driver/Src/stm32h7xx_hal_rcc.c ****         /* Select PLL1 input reference frequency range: VCI */
 805:Drivers/STM32H7xx_HAL_Driver/Src/stm32h7xx_hal_rcc.c ****         __HAL_RCC_PLL_VCIRANGE(RCC_OscInitStruct->PLL.PLLRGE) ;
 806:Drivers/STM32H7xx_HAL_Driver/Src/stm32h7xx_hal_rcc.c **** 
 807:Drivers/STM32H7xx_HAL_Driver/Src/stm32h7xx_hal_rcc.c ****         /* Select PLL1 output frequency range : VCO */
 808:Drivers/STM32H7xx_HAL_Driver/Src/stm32h7xx_hal_rcc.c ****         __HAL_RCC_PLL_VCORANGE(RCC_OscInitStruct->PLL.PLLVCOSEL) ;
 809:Drivers/STM32H7xx_HAL_Driver/Src/stm32h7xx_hal_rcc.c **** 
 810:Drivers/STM32H7xx_HAL_Driver/Src/stm32h7xx_hal_rcc.c ****         /* Enable PLL System Clock output. */
 811:Drivers/STM32H7xx_HAL_Driver/Src/stm32h7xx_hal_rcc.c ****         __HAL_RCC_PLLCLKOUT_ENABLE(RCC_PLL1_DIVP);
 812:Drivers/STM32H7xx_HAL_Driver/Src/stm32h7xx_hal_rcc.c **** 
 813:Drivers/STM32H7xx_HAL_Driver/Src/stm32h7xx_hal_rcc.c ****         /* Enable PLL1Q Clock output. */
 814:Drivers/STM32H7xx_HAL_Driver/Src/stm32h7xx_hal_rcc.c ****         __HAL_RCC_PLLCLKOUT_ENABLE(RCC_PLL1_DIVQ);
 815:Drivers/STM32H7xx_HAL_Driver/Src/stm32h7xx_hal_rcc.c **** 
 816:Drivers/STM32H7xx_HAL_Driver/Src/stm32h7xx_hal_rcc.c ****         /* Enable PLL1R  Clock output. */
 817:Drivers/STM32H7xx_HAL_Driver/Src/stm32h7xx_hal_rcc.c ****         __HAL_RCC_PLLCLKOUT_ENABLE(RCC_PLL1_DIVR);
 818:Drivers/STM32H7xx_HAL_Driver/Src/stm32h7xx_hal_rcc.c **** 
 819:Drivers/STM32H7xx_HAL_Driver/Src/stm32h7xx_hal_rcc.c ****         /* Enable PLL1FRACN . */
 820:Drivers/STM32H7xx_HAL_Driver/Src/stm32h7xx_hal_rcc.c ****         __HAL_RCC_PLLFRACN_ENABLE();
 821:Drivers/STM32H7xx_HAL_Driver/Src/stm32h7xx_hal_rcc.c **** 
 822:Drivers/STM32H7xx_HAL_Driver/Src/stm32h7xx_hal_rcc.c ****         /* Enable the main PLL. */
 823:Drivers/STM32H7xx_HAL_Driver/Src/stm32h7xx_hal_rcc.c ****         __HAL_RCC_PLL_ENABLE();
 824:Drivers/STM32H7xx_HAL_Driver/Src/stm32h7xx_hal_rcc.c **** 
 825:Drivers/STM32H7xx_HAL_Driver/Src/stm32h7xx_hal_rcc.c ****         /* Get Start Tick*/
 826:Drivers/STM32H7xx_HAL_Driver/Src/stm32h7xx_hal_rcc.c ****         tickstart = HAL_GetTick();
 827:Drivers/STM32H7xx_HAL_Driver/Src/stm32h7xx_hal_rcc.c **** 
 828:Drivers/STM32H7xx_HAL_Driver/Src/stm32h7xx_hal_rcc.c ****         /* Wait till PLL is ready */
 829:Drivers/STM32H7xx_HAL_Driver/Src/stm32h7xx_hal_rcc.c ****         while (__HAL_RCC_GET_FLAG(RCC_FLAG_PLLRDY) == 0U)
 830:Drivers/STM32H7xx_HAL_Driver/Src/stm32h7xx_hal_rcc.c ****         {
 831:Drivers/STM32H7xx_HAL_Driver/Src/stm32h7xx_hal_rcc.c ****           if ((HAL_GetTick() - tickstart) > PLL_TIMEOUT_VALUE)
 832:Drivers/STM32H7xx_HAL_Driver/Src/stm32h7xx_hal_rcc.c ****           {
 833:Drivers/STM32H7xx_HAL_Driver/Src/stm32h7xx_hal_rcc.c ****             return HAL_TIMEOUT;
 834:Drivers/STM32H7xx_HAL_Driver/Src/stm32h7xx_hal_rcc.c ****           }
 835:Drivers/STM32H7xx_HAL_Driver/Src/stm32h7xx_hal_rcc.c ****         }
 836:Drivers/STM32H7xx_HAL_Driver/Src/stm32h7xx_hal_rcc.c ****       }
 837:Drivers/STM32H7xx_HAL_Driver/Src/stm32h7xx_hal_rcc.c ****       else
 838:Drivers/STM32H7xx_HAL_Driver/Src/stm32h7xx_hal_rcc.c ****       {
 839:Drivers/STM32H7xx_HAL_Driver/Src/stm32h7xx_hal_rcc.c ****         /* Disable the main PLL. */
 840:Drivers/STM32H7xx_HAL_Driver/Src/stm32h7xx_hal_rcc.c ****         __HAL_RCC_PLL_DISABLE();
 841:Drivers/STM32H7xx_HAL_Driver/Src/stm32h7xx_hal_rcc.c **** 
 842:Drivers/STM32H7xx_HAL_Driver/Src/stm32h7xx_hal_rcc.c ****         /* Get Start Tick*/
 843:Drivers/STM32H7xx_HAL_Driver/Src/stm32h7xx_hal_rcc.c ****         tickstart = HAL_GetTick();
 844:Drivers/STM32H7xx_HAL_Driver/Src/stm32h7xx_hal_rcc.c **** 
ARM GAS  C:\Users\thewo\AppData\Local\Temp\ccxuDTrk.s 			page 31


 845:Drivers/STM32H7xx_HAL_Driver/Src/stm32h7xx_hal_rcc.c ****         /* Wait till PLL is disabled */
 846:Drivers/STM32H7xx_HAL_Driver/Src/stm32h7xx_hal_rcc.c ****         while (__HAL_RCC_GET_FLAG(RCC_FLAG_PLLRDY) != 0U)
 847:Drivers/STM32H7xx_HAL_Driver/Src/stm32h7xx_hal_rcc.c ****         {
 848:Drivers/STM32H7xx_HAL_Driver/Src/stm32h7xx_hal_rcc.c ****           if ((HAL_GetTick() - tickstart) > PLL_TIMEOUT_VALUE)
 849:Drivers/STM32H7xx_HAL_Driver/Src/stm32h7xx_hal_rcc.c ****           {
 850:Drivers/STM32H7xx_HAL_Driver/Src/stm32h7xx_hal_rcc.c ****             return HAL_TIMEOUT;
 851:Drivers/STM32H7xx_HAL_Driver/Src/stm32h7xx_hal_rcc.c ****           }
 852:Drivers/STM32H7xx_HAL_Driver/Src/stm32h7xx_hal_rcc.c ****         }
 853:Drivers/STM32H7xx_HAL_Driver/Src/stm32h7xx_hal_rcc.c ****       }
 854:Drivers/STM32H7xx_HAL_Driver/Src/stm32h7xx_hal_rcc.c ****     }
 855:Drivers/STM32H7xx_HAL_Driver/Src/stm32h7xx_hal_rcc.c ****     else
 856:Drivers/STM32H7xx_HAL_Driver/Src/stm32h7xx_hal_rcc.c ****     {
 857:Drivers/STM32H7xx_HAL_Driver/Src/stm32h7xx_hal_rcc.c ****       /* Do not return HAL_ERROR if request repeats the current configuration */
 858:Drivers/STM32H7xx_HAL_Driver/Src/stm32h7xx_hal_rcc.c ****       temp1_pllckcfg = RCC->PLLCKSELR;
 859:Drivers/STM32H7xx_HAL_Driver/Src/stm32h7xx_hal_rcc.c ****       temp2_pllckcfg = RCC->PLL1DIVR;
 860:Drivers/STM32H7xx_HAL_Driver/Src/stm32h7xx_hal_rcc.c ****       if (((RCC_OscInitStruct->PLL.PLLState) == RCC_PLL_OFF) ||
 861:Drivers/STM32H7xx_HAL_Driver/Src/stm32h7xx_hal_rcc.c ****           (READ_BIT(temp1_pllckcfg, RCC_PLLCKSELR_PLLSRC) != RCC_OscInitStruct->PLL.PLLSource) ||
 862:Drivers/STM32H7xx_HAL_Driver/Src/stm32h7xx_hal_rcc.c ****           ((READ_BIT(temp1_pllckcfg, RCC_PLLCKSELR_DIVM1) >> RCC_PLLCKSELR_DIVM1_Pos) != RCC_OscIni
 863:Drivers/STM32H7xx_HAL_Driver/Src/stm32h7xx_hal_rcc.c ****           (READ_BIT(temp2_pllckcfg, RCC_PLL1DIVR_N1) != (RCC_OscInitStruct->PLL.PLLN - 1U)) ||
 864:Drivers/STM32H7xx_HAL_Driver/Src/stm32h7xx_hal_rcc.c ****           ((READ_BIT(temp2_pllckcfg, RCC_PLL1DIVR_P1) >> RCC_PLL1DIVR_P1_Pos) != (RCC_OscInitStruct
 865:Drivers/STM32H7xx_HAL_Driver/Src/stm32h7xx_hal_rcc.c ****           ((READ_BIT(temp2_pllckcfg, RCC_PLL1DIVR_Q1) >> RCC_PLL1DIVR_Q1_Pos) != (RCC_OscInitStruct
 866:Drivers/STM32H7xx_HAL_Driver/Src/stm32h7xx_hal_rcc.c ****           ((READ_BIT(temp2_pllckcfg, RCC_PLL1DIVR_R1) >> RCC_PLL1DIVR_R1_Pos) != (RCC_OscInitStruct
 867:Drivers/STM32H7xx_HAL_Driver/Src/stm32h7xx_hal_rcc.c ****       {
 868:Drivers/STM32H7xx_HAL_Driver/Src/stm32h7xx_hal_rcc.c ****         return HAL_ERROR;
 869:Drivers/STM32H7xx_HAL_Driver/Src/stm32h7xx_hal_rcc.c ****       }
 870:Drivers/STM32H7xx_HAL_Driver/Src/stm32h7xx_hal_rcc.c ****       else
 871:Drivers/STM32H7xx_HAL_Driver/Src/stm32h7xx_hal_rcc.c ****       {
 872:Drivers/STM32H7xx_HAL_Driver/Src/stm32h7xx_hal_rcc.c ****         /* Check if only fractional part needs to be updated  */
 873:Drivers/STM32H7xx_HAL_Driver/Src/stm32h7xx_hal_rcc.c ****         temp1_pllckcfg = ((RCC->PLL1FRACR & RCC_PLL1FRACR_FRACN1) >> RCC_PLL1FRACR_FRACN1_Pos);
 874:Drivers/STM32H7xx_HAL_Driver/Src/stm32h7xx_hal_rcc.c ****         if (RCC_OscInitStruct->PLL.PLLFRACN != temp1_pllckcfg)
 875:Drivers/STM32H7xx_HAL_Driver/Src/stm32h7xx_hal_rcc.c ****         {
 876:Drivers/STM32H7xx_HAL_Driver/Src/stm32h7xx_hal_rcc.c ****           assert_param(IS_RCC_PLLFRACN_VALUE(RCC_OscInitStruct->PLL.PLLFRACN));
 877:Drivers/STM32H7xx_HAL_Driver/Src/stm32h7xx_hal_rcc.c ****           /* Disable PLL1FRACEN */
 878:Drivers/STM32H7xx_HAL_Driver/Src/stm32h7xx_hal_rcc.c ****           __HAL_RCC_PLLFRACN_DISABLE();
 879:Drivers/STM32H7xx_HAL_Driver/Src/stm32h7xx_hal_rcc.c ****           /* Get Start Tick*/
 880:Drivers/STM32H7xx_HAL_Driver/Src/stm32h7xx_hal_rcc.c ****           tickstart = HAL_GetTick();
 881:Drivers/STM32H7xx_HAL_Driver/Src/stm32h7xx_hal_rcc.c ****           /* Wait at least 2 CK_REF (PLL input source divided by M) period to make sure next latche
 882:Drivers/STM32H7xx_HAL_Driver/Src/stm32h7xx_hal_rcc.c ****           while ((HAL_GetTick() - tickstart) < PLL_FRAC_TIMEOUT_VALUE)
 883:Drivers/STM32H7xx_HAL_Driver/Src/stm32h7xx_hal_rcc.c ****           {
 884:Drivers/STM32H7xx_HAL_Driver/Src/stm32h7xx_hal_rcc.c ****           }
 885:Drivers/STM32H7xx_HAL_Driver/Src/stm32h7xx_hal_rcc.c ****           /* Configure PLL1 PLL1FRACN */
 886:Drivers/STM32H7xx_HAL_Driver/Src/stm32h7xx_hal_rcc.c ****           __HAL_RCC_PLLFRACN_CONFIG(RCC_OscInitStruct->PLL.PLLFRACN);
 887:Drivers/STM32H7xx_HAL_Driver/Src/stm32h7xx_hal_rcc.c ****           /* Enable PLL1FRACEN to latch new value. */
 888:Drivers/STM32H7xx_HAL_Driver/Src/stm32h7xx_hal_rcc.c ****           __HAL_RCC_PLLFRACN_ENABLE();
 889:Drivers/STM32H7xx_HAL_Driver/Src/stm32h7xx_hal_rcc.c ****         }
 890:Drivers/STM32H7xx_HAL_Driver/Src/stm32h7xx_hal_rcc.c ****       }
 891:Drivers/STM32H7xx_HAL_Driver/Src/stm32h7xx_hal_rcc.c ****     }
 892:Drivers/STM32H7xx_HAL_Driver/Src/stm32h7xx_hal_rcc.c ****   }
 893:Drivers/STM32H7xx_HAL_Driver/Src/stm32h7xx_hal_rcc.c ****   return HAL_OK;
 894:Drivers/STM32H7xx_HAL_Driver/Src/stm32h7xx_hal_rcc.c **** }
 794              		.loc 1 894 1 view .LVU249
 795 01ca 38BD     		pop	{r3, r4, r5, pc}
 796              	.LVL68:
 797              	.L166:
 798              	.LBB7:
 505:Drivers/STM32H7xx_HAL_Driver/Src/stm32h7xx_hal_rcc.c ****       }
 799              		.loc 1 505 9 is_stmt 1 view .LVU250
ARM GAS  C:\Users\thewo\AppData\Local\Temp\ccxuDTrk.s 			page 32


 800 01cc 2E4A     		ldr	r2, .L191
 801 01ce 5368     		ldr	r3, [r2, #4]
 802 01d0 23F0FE43 		bic	r3, r3, #2130706432
 803 01d4 2169     		ldr	r1, [r4, #16]
 804 01d6 43EA0163 		orr	r3, r3, r1, lsl #24
 805 01da 5360     		str	r3, [r2, #4]
 505:Drivers/STM32H7xx_HAL_Driver/Src/stm32h7xx_hal_rcc.c ****       }
 806              		.loc 1 505 86 view .LVU251
 807              	.LVL69:
 808              	.L51:
 505:Drivers/STM32H7xx_HAL_Driver/Src/stm32h7xx_hal_rcc.c ****       }
 809              		.loc 1 505 86 is_stmt 0 view .LVU252
 810              	.LBE7:
 552:Drivers/STM32H7xx_HAL_Driver/Src/stm32h7xx_hal_rcc.c ****   {
 811              		.loc 1 552 3 is_stmt 1 view .LVU253
 552:Drivers/STM32H7xx_HAL_Driver/Src/stm32h7xx_hal_rcc.c ****   {
 812              		.loc 1 552 26 is_stmt 0 view .LVU254
 813 01dc 2368     		ldr	r3, [r4]
 552:Drivers/STM32H7xx_HAL_Driver/Src/stm32h7xx_hal_rcc.c ****   {
 814              		.loc 1 552 6 view .LVU255
 815 01de 13F0100F 		tst	r3, #16
 816 01e2 6AD0     		beq	.L64
 817              	.LBB8:
 555:Drivers/STM32H7xx_HAL_Driver/Src/stm32h7xx_hal_rcc.c ****     assert_param(IS_RCC_CSICALIBRATION_VALUE(RCC_OscInitStruct->CSICalibrationValue));
 818              		.loc 1 555 5 is_stmt 1 view .LVU256
 819 01e4 E369     		ldr	r3, [r4, #28]
 820 01e6 002B     		cmp	r3, #0
 821 01e8 18BF     		it	ne
 822 01ea 802B     		cmpne	r3, #128
 823 01ec 3FD1     		bne	.L167
 824              	.L65:
 556:Drivers/STM32H7xx_HAL_Driver/Src/stm32h7xx_hal_rcc.c **** 
 825              		.loc 1 556 5 view .LVU257
 826 01ee 236A     		ldr	r3, [r4, #32]
 827 01f0 3F2B     		cmp	r3, #63
 828 01f2 42D8     		bhi	.L168
 829              	.L66:
 559:Drivers/STM32H7xx_HAL_Driver/Src/stm32h7xx_hal_rcc.c ****     const uint32_t temp_pllckselr = RCC->PLLCKSELR;
 830              		.loc 1 559 5 view .LVU258
 559:Drivers/STM32H7xx_HAL_Driver/Src/stm32h7xx_hal_rcc.c ****     const uint32_t temp_pllckselr = RCC->PLLCKSELR;
 831              		.loc 1 559 37 is_stmt 0 view .LVU259
 832 01f4 244A     		ldr	r2, .L191
 833 01f6 1369     		ldr	r3, [r2, #16]
 559:Drivers/STM32H7xx_HAL_Driver/Src/stm32h7xx_hal_rcc.c ****     const uint32_t temp_pllckselr = RCC->PLLCKSELR;
 834              		.loc 1 559 20 view .LVU260
 835 01f8 03F03803 		and	r3, r3, #56
 836              	.LVL70:
 560:Drivers/STM32H7xx_HAL_Driver/Src/stm32h7xx_hal_rcc.c ****     if ((temp_sysclksrc == RCC_CFGR_SWS_CSI) || ((temp_sysclksrc == RCC_CFGR_SWS_PLL1) && ((temp_pl
 837              		.loc 1 560 5 is_stmt 1 view .LVU261
 560:Drivers/STM32H7xx_HAL_Driver/Src/stm32h7xx_hal_rcc.c ****     if ((temp_sysclksrc == RCC_CFGR_SWS_CSI) || ((temp_sysclksrc == RCC_CFGR_SWS_PLL1) && ((temp_pl
 838              		.loc 1 560 20 is_stmt 0 view .LVU262
 839 01fc 926A     		ldr	r2, [r2, #40]
 840              	.LVL71:
 561:Drivers/STM32H7xx_HAL_Driver/Src/stm32h7xx_hal_rcc.c ****     {
 841              		.loc 1 561 5 is_stmt 1 view .LVU263
 561:Drivers/STM32H7xx_HAL_Driver/Src/stm32h7xx_hal_rcc.c ****     {
 842              		.loc 1 561 8 is_stmt 0 view .LVU264
ARM GAS  C:\Users\thewo\AppData\Local\Temp\ccxuDTrk.s 			page 33


 843 01fe 082B     		cmp	r3, #8
 844 0200 4AD0     		beq	.L67
 561:Drivers/STM32H7xx_HAL_Driver/Src/stm32h7xx_hal_rcc.c ****     {
 845              		.loc 1 561 46 discriminator 1 view .LVU265
 846 0202 182B     		cmp	r3, #24
 847 0204 44D0     		beq	.L169
 848              	.LVL72:
 849              	.L68:
 578:Drivers/STM32H7xx_HAL_Driver/Src/stm32h7xx_hal_rcc.c ****       {
 850              		.loc 1 578 7 is_stmt 1 view .LVU266
 578:Drivers/STM32H7xx_HAL_Driver/Src/stm32h7xx_hal_rcc.c ****       {
 851              		.loc 1 578 29 is_stmt 0 view .LVU267
 852 0206 E369     		ldr	r3, [r4, #28]
 853              	.LVL73:
 578:Drivers/STM32H7xx_HAL_Driver/Src/stm32h7xx_hal_rcc.c ****       {
 854              		.loc 1 578 10 view .LVU268
 855 0208 002B     		cmp	r3, #0
 856 020a 7DD0     		beq	.L70
 581:Drivers/STM32H7xx_HAL_Driver/Src/stm32h7xx_hal_rcc.c **** 
 857              		.loc 1 581 9 is_stmt 1 view .LVU269
 858 020c 1E4A     		ldr	r2, .L191
 859 020e 1368     		ldr	r3, [r2]
 860 0210 43F08003 		orr	r3, r3, #128
 861 0214 1360     		str	r3, [r2]
 584:Drivers/STM32H7xx_HAL_Driver/Src/stm32h7xx_hal_rcc.c **** 
 862              		.loc 1 584 9 view .LVU270
 584:Drivers/STM32H7xx_HAL_Driver/Src/stm32h7xx_hal_rcc.c **** 
 863              		.loc 1 584 21 is_stmt 0 view .LVU271
 864 0216 FFF7FEFF 		bl	HAL_GetTick
 865              	.LVL74:
 866 021a 0546     		mov	r5, r0
 867              	.LVL75:
 587:Drivers/STM32H7xx_HAL_Driver/Src/stm32h7xx_hal_rcc.c ****         {
 868              		.loc 1 587 9 is_stmt 1 view .LVU272
 869              	.L71:
 587:Drivers/STM32H7xx_HAL_Driver/Src/stm32h7xx_hal_rcc.c ****         {
 870              		.loc 1 587 52 view .LVU273
 587:Drivers/STM32H7xx_HAL_Driver/Src/stm32h7xx_hal_rcc.c ****         {
 871              		.loc 1 587 16 is_stmt 0 view .LVU274
 872 021c 1A4B     		ldr	r3, .L191
 873 021e 1B68     		ldr	r3, [r3]
 587:Drivers/STM32H7xx_HAL_Driver/Src/stm32h7xx_hal_rcc.c ****         {
 874              		.loc 1 587 52 view .LVU275
 875 0220 13F4807F 		tst	r3, #256
 876 0224 67D1     		bne	.L170
 589:Drivers/STM32H7xx_HAL_Driver/Src/stm32h7xx_hal_rcc.c ****           {
 877              		.loc 1 589 11 is_stmt 1 view .LVU276
 589:Drivers/STM32H7xx_HAL_Driver/Src/stm32h7xx_hal_rcc.c ****           {
 878              		.loc 1 589 16 is_stmt 0 view .LVU277
 879 0226 FFF7FEFF 		bl	HAL_GetTick
 880              	.LVL76:
 589:Drivers/STM32H7xx_HAL_Driver/Src/stm32h7xx_hal_rcc.c ****           {
 881              		.loc 1 589 30 discriminator 1 view .LVU278
 882 022a 401B     		subs	r0, r0, r5
 589:Drivers/STM32H7xx_HAL_Driver/Src/stm32h7xx_hal_rcc.c ****           {
 883              		.loc 1 589 14 discriminator 1 view .LVU279
 884 022c 0228     		cmp	r0, #2
ARM GAS  C:\Users\thewo\AppData\Local\Temp\ccxuDTrk.s 			page 34


 885 022e F5D9     		bls	.L71
 591:Drivers/STM32H7xx_HAL_Driver/Src/stm32h7xx_hal_rcc.c ****           }
 886              		.loc 1 591 20 view .LVU280
 887 0230 0320     		movs	r0, #3
 888 0232 CAE7     		b	.L36
 889              	.LVL77:
 890              	.L164:
 591:Drivers/STM32H7xx_HAL_Driver/Src/stm32h7xx_hal_rcc.c ****           }
 891              		.loc 1 591 20 view .LVU281
 892              	.LBE8:
 893              	.LBB9:
 530:Drivers/STM32H7xx_HAL_Driver/Src/stm32h7xx_hal_rcc.c ****       }
 894              		.loc 1 530 9 is_stmt 1 view .LVU282
 895 0234 144A     		ldr	r2, .L191
 896 0236 5368     		ldr	r3, [r2, #4]
 897 0238 23F0FE43 		bic	r3, r3, #2130706432
 898 023c 2169     		ldr	r1, [r4, #16]
 899 023e 43EA0163 		orr	r3, r3, r1, lsl #24
 900 0242 5360     		str	r3, [r2, #4]
 530:Drivers/STM32H7xx_HAL_Driver/Src/stm32h7xx_hal_rcc.c ****       }
 901              		.loc 1 530 86 view .LVU283
 902 0244 CAE7     		b	.L51
 903              	.LVL78:
 904              	.L59:
 535:Drivers/STM32H7xx_HAL_Driver/Src/stm32h7xx_hal_rcc.c **** 
 905              		.loc 1 535 9 view .LVU284
 906 0246 104A     		ldr	r2, .L191
 907              	.LVL79:
 535:Drivers/STM32H7xx_HAL_Driver/Src/stm32h7xx_hal_rcc.c **** 
 908              		.loc 1 535 9 is_stmt 0 view .LVU285
 909 0248 1368     		ldr	r3, [r2]
 910 024a 23F00103 		bic	r3, r3, #1
 911 024e 1360     		str	r3, [r2]
 538:Drivers/STM32H7xx_HAL_Driver/Src/stm32h7xx_hal_rcc.c **** 
 912              		.loc 1 538 9 is_stmt 1 view .LVU286
 538:Drivers/STM32H7xx_HAL_Driver/Src/stm32h7xx_hal_rcc.c **** 
 913              		.loc 1 538 21 is_stmt 0 view .LVU287
 914 0250 FFF7FEFF 		bl	HAL_GetTick
 915              	.LVL80:
 916 0254 0546     		mov	r5, r0
 917              	.LVL81:
 541:Drivers/STM32H7xx_HAL_Driver/Src/stm32h7xx_hal_rcc.c ****         {
 918              		.loc 1 541 9 is_stmt 1 view .LVU288
 919              	.L62:
 541:Drivers/STM32H7xx_HAL_Driver/Src/stm32h7xx_hal_rcc.c ****         {
 920              		.loc 1 541 52 view .LVU289
 541:Drivers/STM32H7xx_HAL_Driver/Src/stm32h7xx_hal_rcc.c ****         {
 921              		.loc 1 541 16 is_stmt 0 view .LVU290
 922 0256 0C4B     		ldr	r3, .L191
 923 0258 1B68     		ldr	r3, [r3]
 541:Drivers/STM32H7xx_HAL_Driver/Src/stm32h7xx_hal_rcc.c ****         {
 924              		.loc 1 541 52 view .LVU291
 925 025a 13F0040F 		tst	r3, #4
 926 025e BDD0     		beq	.L51
 543:Drivers/STM32H7xx_HAL_Driver/Src/stm32h7xx_hal_rcc.c ****           {
 927              		.loc 1 543 11 is_stmt 1 view .LVU292
 543:Drivers/STM32H7xx_HAL_Driver/Src/stm32h7xx_hal_rcc.c ****           {
ARM GAS  C:\Users\thewo\AppData\Local\Temp\ccxuDTrk.s 			page 35


 928              		.loc 1 543 16 is_stmt 0 view .LVU293
 929 0260 FFF7FEFF 		bl	HAL_GetTick
 930              	.LVL82:
 543:Drivers/STM32H7xx_HAL_Driver/Src/stm32h7xx_hal_rcc.c ****           {
 931              		.loc 1 543 30 discriminator 1 view .LVU294
 932 0264 401B     		subs	r0, r0, r5
 543:Drivers/STM32H7xx_HAL_Driver/Src/stm32h7xx_hal_rcc.c ****           {
 933              		.loc 1 543 14 discriminator 1 view .LVU295
 934 0266 0228     		cmp	r0, #2
 935 0268 F5D9     		bls	.L62
 545:Drivers/STM32H7xx_HAL_Driver/Src/stm32h7xx_hal_rcc.c ****           }
 936              		.loc 1 545 20 view .LVU296
 937 026a 0320     		movs	r0, #3
 938 026c ADE7     		b	.L36
 939              	.LVL83:
 940              	.L167:
 545:Drivers/STM32H7xx_HAL_Driver/Src/stm32h7xx_hal_rcc.c ****           }
 941              		.loc 1 545 20 view .LVU297
 942              	.LBE9:
 943              	.LBB10:
 555:Drivers/STM32H7xx_HAL_Driver/Src/stm32h7xx_hal_rcc.c ****     assert_param(IS_RCC_CSICALIBRATION_VALUE(RCC_OscInitStruct->CSICalibrationValue));
 944              		.loc 1 555 5 discriminator 1 view .LVU298
 945 026e 40F22B21 		movw	r1, #555
 946 0272 0648     		ldr	r0, .L191+4
 947 0274 FFF7FEFF 		bl	assert_failed
 948              	.LVL84:
 949 0278 B9E7     		b	.L65
 950              	.L168:
 556:Drivers/STM32H7xx_HAL_Driver/Src/stm32h7xx_hal_rcc.c **** 
 951              		.loc 1 556 5 discriminator 1 view .LVU299
 952 027a 4FF40B71 		mov	r1, #556
 953 027e 0348     		ldr	r0, .L191+4
 954 0280 FFF7FEFF 		bl	assert_failed
 955              	.LVL85:
 956 0284 B6E7     		b	.L66
 957              	.L192:
 958 0286 00BF     		.align	2
 959              	.L191:
 960 0288 00440258 		.word	1476543488
 961 028c 00000000 		.word	.LC0
 962              	.LVL86:
 963              	.L169:
 561:Drivers/STM32H7xx_HAL_Driver/Src/stm32h7xx_hal_rcc.c ****     {
 964              		.loc 1 561 108 discriminator 2 view .LVU300
 965 0290 02F00302 		and	r2, r2, #3
 966              	.LVL87:
 561:Drivers/STM32H7xx_HAL_Driver/Src/stm32h7xx_hal_rcc.c ****     {
 967              		.loc 1 561 88 discriminator 2 view .LVU301
 968 0294 012A     		cmp	r2, #1
 969 0296 B6D1     		bne	.L68
 970              	.L67:
 564:Drivers/STM32H7xx_HAL_Driver/Src/stm32h7xx_hal_rcc.c ****       {
 971              		.loc 1 564 7 is_stmt 1 view .LVU302
 564:Drivers/STM32H7xx_HAL_Driver/Src/stm32h7xx_hal_rcc.c ****       {
 972              		.loc 1 564 12 is_stmt 0 view .LVU303
 973 0298 864B     		ldr	r3, .L193
 974              	.LVL88:
ARM GAS  C:\Users\thewo\AppData\Local\Temp\ccxuDTrk.s 			page 36


 564:Drivers/STM32H7xx_HAL_Driver/Src/stm32h7xx_hal_rcc.c ****       {
 975              		.loc 1 564 12 view .LVU304
 976 029a 1B68     		ldr	r3, [r3]
 564:Drivers/STM32H7xx_HAL_Driver/Src/stm32h7xx_hal_rcc.c ****       {
 977              		.loc 1 564 10 view .LVU305
 978 029c 13F4807F 		tst	r3, #256
 979 02a0 03D0     		beq	.L69
 564:Drivers/STM32H7xx_HAL_Driver/Src/stm32h7xx_hal_rcc.c ****       {
 980              		.loc 1 564 76 discriminator 1 view .LVU306
 981 02a2 E369     		ldr	r3, [r4, #28]
 564:Drivers/STM32H7xx_HAL_Driver/Src/stm32h7xx_hal_rcc.c ****       {
 982              		.loc 1 564 55 discriminator 1 view .LVU307
 983 02a4 802B     		cmp	r3, #128
 984 02a6 40F06382 		bne	.L130
 985              	.L69:
 572:Drivers/STM32H7xx_HAL_Driver/Src/stm32h7xx_hal_rcc.c ****       }
 986              		.loc 1 572 9 is_stmt 1 view .LVU308
 572:Drivers/STM32H7xx_HAL_Driver/Src/stm32h7xx_hal_rcc.c ****       }
 987              		.loc 1 572 9 view .LVU309
 988 02aa 824A     		ldr	r2, .L193
 989 02ac D368     		ldr	r3, [r2, #12]
 990 02ae 23F07C53 		bic	r3, r3, #1056964608
 991 02b2 216A     		ldr	r1, [r4, #32]
 992 02b4 43EA0163 		orr	r3, r3, r1, lsl #24
 993 02b8 D360     		str	r3, [r2, #12]
 572:Drivers/STM32H7xx_HAL_Driver/Src/stm32h7xx_hal_rcc.c ****       }
 994              		.loc 1 572 9 view .LVU310
 995              	.LVL89:
 996              	.L64:
 572:Drivers/STM32H7xx_HAL_Driver/Src/stm32h7xx_hal_rcc.c ****       }
 997              		.loc 1 572 9 is_stmt 0 view .LVU311
 998              	.LBE10:
 618:Drivers/STM32H7xx_HAL_Driver/Src/stm32h7xx_hal_rcc.c ****   {
 999              		.loc 1 618 3 is_stmt 1 view .LVU312
 618:Drivers/STM32H7xx_HAL_Driver/Src/stm32h7xx_hal_rcc.c ****   {
 1000              		.loc 1 618 26 is_stmt 0 view .LVU313
 1001 02ba 2368     		ldr	r3, [r4]
 618:Drivers/STM32H7xx_HAL_Driver/Src/stm32h7xx_hal_rcc.c ****   {
 1002              		.loc 1 618 6 view .LVU314
 1003 02bc 13F0080F 		tst	r3, #8
 1004 02c0 50D0     		beq	.L75
 621:Drivers/STM32H7xx_HAL_Driver/Src/stm32h7xx_hal_rcc.c **** 
 1005              		.loc 1 621 5 is_stmt 1 view .LVU315
 1006 02c2 6369     		ldr	r3, [r4, #20]
 1007 02c4 012B     		cmp	r3, #1
 1008 02c6 33D8     		bhi	.L171
 1009              	.L76:
 624:Drivers/STM32H7xx_HAL_Driver/Src/stm32h7xx_hal_rcc.c ****     {
 1010              		.loc 1 624 5 view .LVU316
 624:Drivers/STM32H7xx_HAL_Driver/Src/stm32h7xx_hal_rcc.c ****     {
 1011              		.loc 1 624 27 is_stmt 0 view .LVU317
 1012 02c8 6369     		ldr	r3, [r4, #20]
 624:Drivers/STM32H7xx_HAL_Driver/Src/stm32h7xx_hal_rcc.c ****     {
 1013              		.loc 1 624 8 view .LVU318
 1014 02ca 002B     		cmp	r3, #0
 1015 02cc 36D0     		beq	.L77
 627:Drivers/STM32H7xx_HAL_Driver/Src/stm32h7xx_hal_rcc.c **** 
ARM GAS  C:\Users\thewo\AppData\Local\Temp\ccxuDTrk.s 			page 37


 1016              		.loc 1 627 7 is_stmt 1 view .LVU319
 1017 02ce 794A     		ldr	r2, .L193
 1018 02d0 536F     		ldr	r3, [r2, #116]
 1019 02d2 43F00103 		orr	r3, r3, #1
 1020 02d6 5367     		str	r3, [r2, #116]
 630:Drivers/STM32H7xx_HAL_Driver/Src/stm32h7xx_hal_rcc.c **** 
 1021              		.loc 1 630 7 view .LVU320
 630:Drivers/STM32H7xx_HAL_Driver/Src/stm32h7xx_hal_rcc.c **** 
 1022              		.loc 1 630 19 is_stmt 0 view .LVU321
 1023 02d8 FFF7FEFF 		bl	HAL_GetTick
 1024              	.LVL90:
 1025 02dc 0546     		mov	r5, r0
 1026              	.LVL91:
 633:Drivers/STM32H7xx_HAL_Driver/Src/stm32h7xx_hal_rcc.c ****       {
 1027              		.loc 1 633 7 is_stmt 1 view .LVU322
 1028              	.L78:
 633:Drivers/STM32H7xx_HAL_Driver/Src/stm32h7xx_hal_rcc.c ****       {
 1029              		.loc 1 633 50 view .LVU323
 633:Drivers/STM32H7xx_HAL_Driver/Src/stm32h7xx_hal_rcc.c ****       {
 1030              		.loc 1 633 14 is_stmt 0 view .LVU324
 1031 02de 754B     		ldr	r3, .L193
 1032 02e0 5B6F     		ldr	r3, [r3, #116]
 633:Drivers/STM32H7xx_HAL_Driver/Src/stm32h7xx_hal_rcc.c ****       {
 1033              		.loc 1 633 50 view .LVU325
 1034 02e2 13F0020F 		tst	r3, #2
 1035 02e6 3DD1     		bne	.L75
 635:Drivers/STM32H7xx_HAL_Driver/Src/stm32h7xx_hal_rcc.c ****         {
 1036              		.loc 1 635 9 is_stmt 1 view .LVU326
 635:Drivers/STM32H7xx_HAL_Driver/Src/stm32h7xx_hal_rcc.c ****         {
 1037              		.loc 1 635 14 is_stmt 0 view .LVU327
 1038 02e8 FFF7FEFF 		bl	HAL_GetTick
 1039              	.LVL92:
 635:Drivers/STM32H7xx_HAL_Driver/Src/stm32h7xx_hal_rcc.c ****         {
 1040              		.loc 1 635 28 discriminator 1 view .LVU328
 1041 02ec 401B     		subs	r0, r0, r5
 635:Drivers/STM32H7xx_HAL_Driver/Src/stm32h7xx_hal_rcc.c ****         {
 1042              		.loc 1 635 12 discriminator 1 view .LVU329
 1043 02ee 0228     		cmp	r0, #2
 1044 02f0 F5D9     		bls	.L78
 637:Drivers/STM32H7xx_HAL_Driver/Src/stm32h7xx_hal_rcc.c ****         }
 1045              		.loc 1 637 18 view .LVU330
 1046 02f2 0320     		movs	r0, #3
 1047 02f4 69E7     		b	.L36
 1048              	.LVL93:
 1049              	.L170:
 1050              	.LBB11:
 596:Drivers/STM32H7xx_HAL_Driver/Src/stm32h7xx_hal_rcc.c ****       }
 1051              		.loc 1 596 9 is_stmt 1 view .LVU331
 596:Drivers/STM32H7xx_HAL_Driver/Src/stm32h7xx_hal_rcc.c ****       }
 1052              		.loc 1 596 9 view .LVU332
 1053 02f6 6F4A     		ldr	r2, .L193
 1054 02f8 D368     		ldr	r3, [r2, #12]
 1055 02fa 23F07C53 		bic	r3, r3, #1056964608
 1056 02fe 216A     		ldr	r1, [r4, #32]
 1057 0300 43EA0163 		orr	r3, r3, r1, lsl #24
 1058 0304 D360     		str	r3, [r2, #12]
 596:Drivers/STM32H7xx_HAL_Driver/Src/stm32h7xx_hal_rcc.c ****       }
ARM GAS  C:\Users\thewo\AppData\Local\Temp\ccxuDTrk.s 			page 38


 1059              		.loc 1 596 9 view .LVU333
 1060 0306 D8E7     		b	.L64
 1061              	.LVL94:
 1062              	.L70:
 601:Drivers/STM32H7xx_HAL_Driver/Src/stm32h7xx_hal_rcc.c **** 
 1063              		.loc 1 601 9 view .LVU334
 1064 0308 6A4A     		ldr	r2, .L193
 1065 030a 1368     		ldr	r3, [r2]
 1066 030c 23F08003 		bic	r3, r3, #128
 1067 0310 1360     		str	r3, [r2]
 604:Drivers/STM32H7xx_HAL_Driver/Src/stm32h7xx_hal_rcc.c **** 
 1068              		.loc 1 604 9 view .LVU335
 604:Drivers/STM32H7xx_HAL_Driver/Src/stm32h7xx_hal_rcc.c **** 
 1069              		.loc 1 604 21 is_stmt 0 view .LVU336
 1070 0312 FFF7FEFF 		bl	HAL_GetTick
 1071              	.LVL95:
 1072 0316 0546     		mov	r5, r0
 1073              	.LVL96:
 607:Drivers/STM32H7xx_HAL_Driver/Src/stm32h7xx_hal_rcc.c ****         {
 1074              		.loc 1 607 9 is_stmt 1 view .LVU337
 1075              	.L73:
 607:Drivers/STM32H7xx_HAL_Driver/Src/stm32h7xx_hal_rcc.c ****         {
 1076              		.loc 1 607 52 view .LVU338
 607:Drivers/STM32H7xx_HAL_Driver/Src/stm32h7xx_hal_rcc.c ****         {
 1077              		.loc 1 607 16 is_stmt 0 view .LVU339
 1078 0318 664B     		ldr	r3, .L193
 1079 031a 1B68     		ldr	r3, [r3]
 607:Drivers/STM32H7xx_HAL_Driver/Src/stm32h7xx_hal_rcc.c ****         {
 1080              		.loc 1 607 52 view .LVU340
 1081 031c 13F4807F 		tst	r3, #256
 1082 0320 CBD0     		beq	.L64
 609:Drivers/STM32H7xx_HAL_Driver/Src/stm32h7xx_hal_rcc.c ****           {
 1083              		.loc 1 609 11 is_stmt 1 view .LVU341
 609:Drivers/STM32H7xx_HAL_Driver/Src/stm32h7xx_hal_rcc.c ****           {
 1084              		.loc 1 609 16 is_stmt 0 view .LVU342
 1085 0322 FFF7FEFF 		bl	HAL_GetTick
 1086              	.LVL97:
 609:Drivers/STM32H7xx_HAL_Driver/Src/stm32h7xx_hal_rcc.c ****           {
 1087              		.loc 1 609 30 discriminator 1 view .LVU343
 1088 0326 401B     		subs	r0, r0, r5
 609:Drivers/STM32H7xx_HAL_Driver/Src/stm32h7xx_hal_rcc.c ****           {
 1089              		.loc 1 609 14 discriminator 1 view .LVU344
 1090 0328 0228     		cmp	r0, #2
 1091 032a F5D9     		bls	.L73
 611:Drivers/STM32H7xx_HAL_Driver/Src/stm32h7xx_hal_rcc.c ****           }
 1092              		.loc 1 611 20 view .LVU345
 1093 032c 0320     		movs	r0, #3
 1094 032e 4CE7     		b	.L36
 1095              	.LVL98:
 1096              	.L171:
 611:Drivers/STM32H7xx_HAL_Driver/Src/stm32h7xx_hal_rcc.c ****           }
 1097              		.loc 1 611 20 view .LVU346
 1098              	.LBE11:
 621:Drivers/STM32H7xx_HAL_Driver/Src/stm32h7xx_hal_rcc.c **** 
 1099              		.loc 1 621 5 discriminator 1 view .LVU347
 1100 0330 40F26D21 		movw	r1, #621
 1101 0334 6048     		ldr	r0, .L193+4
ARM GAS  C:\Users\thewo\AppData\Local\Temp\ccxuDTrk.s 			page 39


 1102 0336 FFF7FEFF 		bl	assert_failed
 1103              	.LVL99:
 1104 033a C5E7     		b	.L76
 1105              	.L77:
 644:Drivers/STM32H7xx_HAL_Driver/Src/stm32h7xx_hal_rcc.c **** 
 1106              		.loc 1 644 7 is_stmt 1 view .LVU348
 1107 033c 5D4A     		ldr	r2, .L193
 1108 033e 536F     		ldr	r3, [r2, #116]
 1109 0340 23F00103 		bic	r3, r3, #1
 1110 0344 5367     		str	r3, [r2, #116]
 647:Drivers/STM32H7xx_HAL_Driver/Src/stm32h7xx_hal_rcc.c **** 
 1111              		.loc 1 647 7 view .LVU349
 647:Drivers/STM32H7xx_HAL_Driver/Src/stm32h7xx_hal_rcc.c **** 
 1112              		.loc 1 647 19 is_stmt 0 view .LVU350
 1113 0346 FFF7FEFF 		bl	HAL_GetTick
 1114              	.LVL100:
 1115 034a 0546     		mov	r5, r0
 1116              	.LVL101:
 650:Drivers/STM32H7xx_HAL_Driver/Src/stm32h7xx_hal_rcc.c ****       {
 1117              		.loc 1 650 7 is_stmt 1 view .LVU351
 1118              	.L80:
 650:Drivers/STM32H7xx_HAL_Driver/Src/stm32h7xx_hal_rcc.c ****       {
 1119              		.loc 1 650 50 view .LVU352
 650:Drivers/STM32H7xx_HAL_Driver/Src/stm32h7xx_hal_rcc.c ****       {
 1120              		.loc 1 650 14 is_stmt 0 view .LVU353
 1121 034c 594B     		ldr	r3, .L193
 1122 034e 5B6F     		ldr	r3, [r3, #116]
 650:Drivers/STM32H7xx_HAL_Driver/Src/stm32h7xx_hal_rcc.c ****       {
 1123              		.loc 1 650 50 view .LVU354
 1124 0350 13F0020F 		tst	r3, #2
 1125 0354 06D0     		beq	.L75
 652:Drivers/STM32H7xx_HAL_Driver/Src/stm32h7xx_hal_rcc.c ****         {
 1126              		.loc 1 652 9 is_stmt 1 view .LVU355
 652:Drivers/STM32H7xx_HAL_Driver/Src/stm32h7xx_hal_rcc.c ****         {
 1127              		.loc 1 652 14 is_stmt 0 view .LVU356
 1128 0356 FFF7FEFF 		bl	HAL_GetTick
 1129              	.LVL102:
 652:Drivers/STM32H7xx_HAL_Driver/Src/stm32h7xx_hal_rcc.c ****         {
 1130              		.loc 1 652 28 discriminator 1 view .LVU357
 1131 035a 401B     		subs	r0, r0, r5
 652:Drivers/STM32H7xx_HAL_Driver/Src/stm32h7xx_hal_rcc.c ****         {
 1132              		.loc 1 652 12 discriminator 1 view .LVU358
 1133 035c 0228     		cmp	r0, #2
 1134 035e F5D9     		bls	.L80
 654:Drivers/STM32H7xx_HAL_Driver/Src/stm32h7xx_hal_rcc.c ****         }
 1135              		.loc 1 654 18 view .LVU359
 1136 0360 0320     		movs	r0, #3
 1137 0362 32E7     		b	.L36
 1138              	.LVL103:
 1139              	.L75:
 661:Drivers/STM32H7xx_HAL_Driver/Src/stm32h7xx_hal_rcc.c ****   {
 1140              		.loc 1 661 3 is_stmt 1 view .LVU360
 661:Drivers/STM32H7xx_HAL_Driver/Src/stm32h7xx_hal_rcc.c ****   {
 1141              		.loc 1 661 26 is_stmt 0 view .LVU361
 1142 0364 2368     		ldr	r3, [r4]
 661:Drivers/STM32H7xx_HAL_Driver/Src/stm32h7xx_hal_rcc.c ****   {
 1143              		.loc 1 661 6 view .LVU362
ARM GAS  C:\Users\thewo\AppData\Local\Temp\ccxuDTrk.s 			page 40


 1144 0366 13F0200F 		tst	r3, #32
 1145 036a 32D0     		beq	.L82
 664:Drivers/STM32H7xx_HAL_Driver/Src/stm32h7xx_hal_rcc.c **** 
 1146              		.loc 1 664 5 is_stmt 1 view .LVU363
 1147 036c A369     		ldr	r3, [r4, #24]
 1148 036e 012B     		cmp	r3, #1
 1149 0370 15D8     		bhi	.L172
 1150              	.L83:
 667:Drivers/STM32H7xx_HAL_Driver/Src/stm32h7xx_hal_rcc.c ****     {
 1151              		.loc 1 667 5 view .LVU364
 667:Drivers/STM32H7xx_HAL_Driver/Src/stm32h7xx_hal_rcc.c ****     {
 1152              		.loc 1 667 27 is_stmt 0 view .LVU365
 1153 0372 A369     		ldr	r3, [r4, #24]
 667:Drivers/STM32H7xx_HAL_Driver/Src/stm32h7xx_hal_rcc.c ****     {
 1154              		.loc 1 667 8 view .LVU366
 1155 0374 CBB1     		cbz	r3, .L84
 670:Drivers/STM32H7xx_HAL_Driver/Src/stm32h7xx_hal_rcc.c **** 
 1156              		.loc 1 670 7 is_stmt 1 view .LVU367
 1157 0376 4F4A     		ldr	r2, .L193
 1158 0378 1368     		ldr	r3, [r2]
 1159 037a 43F48053 		orr	r3, r3, #4096
 1160 037e 1360     		str	r3, [r2]
 670:Drivers/STM32H7xx_HAL_Driver/Src/stm32h7xx_hal_rcc.c **** 
 1161              		.loc 1 670 31 view .LVU368
 673:Drivers/STM32H7xx_HAL_Driver/Src/stm32h7xx_hal_rcc.c **** 
 1162              		.loc 1 673 7 view .LVU369
 673:Drivers/STM32H7xx_HAL_Driver/Src/stm32h7xx_hal_rcc.c **** 
 1163              		.loc 1 673 19 is_stmt 0 view .LVU370
 1164 0380 FFF7FEFF 		bl	HAL_GetTick
 1165              	.LVL104:
 1166 0384 0546     		mov	r5, r0
 1167              	.LVL105:
 676:Drivers/STM32H7xx_HAL_Driver/Src/stm32h7xx_hal_rcc.c ****       {
 1168              		.loc 1 676 7 is_stmt 1 view .LVU371
 1169              	.L85:
 676:Drivers/STM32H7xx_HAL_Driver/Src/stm32h7xx_hal_rcc.c ****       {
 1170              		.loc 1 676 52 view .LVU372
 676:Drivers/STM32H7xx_HAL_Driver/Src/stm32h7xx_hal_rcc.c ****       {
 1171              		.loc 1 676 14 is_stmt 0 view .LVU373
 1172 0386 4B4B     		ldr	r3, .L193
 1173 0388 1B68     		ldr	r3, [r3]
 676:Drivers/STM32H7xx_HAL_Driver/Src/stm32h7xx_hal_rcc.c ****       {
 1174              		.loc 1 676 52 view .LVU374
 1175 038a 13F4005F 		tst	r3, #8192
 1176 038e 20D1     		bne	.L82
 678:Drivers/STM32H7xx_HAL_Driver/Src/stm32h7xx_hal_rcc.c ****         {
 1177              		.loc 1 678 9 is_stmt 1 view .LVU375
 678:Drivers/STM32H7xx_HAL_Driver/Src/stm32h7xx_hal_rcc.c ****         {
 1178              		.loc 1 678 14 is_stmt 0 view .LVU376
 1179 0390 FFF7FEFF 		bl	HAL_GetTick
 1180              	.LVL106:
 678:Drivers/STM32H7xx_HAL_Driver/Src/stm32h7xx_hal_rcc.c ****         {
 1181              		.loc 1 678 28 discriminator 1 view .LVU377
 1182 0394 401B     		subs	r0, r0, r5
 678:Drivers/STM32H7xx_HAL_Driver/Src/stm32h7xx_hal_rcc.c ****         {
 1183              		.loc 1 678 12 discriminator 1 view .LVU378
 1184 0396 0228     		cmp	r0, #2
ARM GAS  C:\Users\thewo\AppData\Local\Temp\ccxuDTrk.s 			page 41


 1185 0398 F5D9     		bls	.L85
 680:Drivers/STM32H7xx_HAL_Driver/Src/stm32h7xx_hal_rcc.c ****         }
 1186              		.loc 1 680 18 view .LVU379
 1187 039a 0320     		movs	r0, #3
 1188 039c 15E7     		b	.L36
 1189              	.LVL107:
 1190              	.L172:
 664:Drivers/STM32H7xx_HAL_Driver/Src/stm32h7xx_hal_rcc.c **** 
 1191              		.loc 1 664 5 discriminator 1 view .LVU380
 1192 039e 4FF42671 		mov	r1, #664
 1193 03a2 4548     		ldr	r0, .L193+4
 1194 03a4 FFF7FEFF 		bl	assert_failed
 1195              	.LVL108:
 1196 03a8 E3E7     		b	.L83
 1197              	.L84:
 687:Drivers/STM32H7xx_HAL_Driver/Src/stm32h7xx_hal_rcc.c **** 
 1198              		.loc 1 687 7 is_stmt 1 view .LVU381
 1199 03aa 424A     		ldr	r2, .L193
 1200 03ac 1368     		ldr	r3, [r2]
 1201 03ae 23F48053 		bic	r3, r3, #4096
 1202 03b2 1360     		str	r3, [r2]
 687:Drivers/STM32H7xx_HAL_Driver/Src/stm32h7xx_hal_rcc.c **** 
 1203              		.loc 1 687 32 view .LVU382
 690:Drivers/STM32H7xx_HAL_Driver/Src/stm32h7xx_hal_rcc.c **** 
 1204              		.loc 1 690 7 view .LVU383
 690:Drivers/STM32H7xx_HAL_Driver/Src/stm32h7xx_hal_rcc.c **** 
 1205              		.loc 1 690 19 is_stmt 0 view .LVU384
 1206 03b4 FFF7FEFF 		bl	HAL_GetTick
 1207              	.LVL109:
 1208 03b8 0546     		mov	r5, r0
 1209              	.LVL110:
 693:Drivers/STM32H7xx_HAL_Driver/Src/stm32h7xx_hal_rcc.c ****       {
 1210              		.loc 1 693 7 is_stmt 1 view .LVU385
 1211              	.L87:
 693:Drivers/STM32H7xx_HAL_Driver/Src/stm32h7xx_hal_rcc.c ****       {
 1212              		.loc 1 693 52 view .LVU386
 693:Drivers/STM32H7xx_HAL_Driver/Src/stm32h7xx_hal_rcc.c ****       {
 1213              		.loc 1 693 14 is_stmt 0 view .LVU387
 1214 03ba 3E4B     		ldr	r3, .L193
 1215 03bc 1B68     		ldr	r3, [r3]
 693:Drivers/STM32H7xx_HAL_Driver/Src/stm32h7xx_hal_rcc.c ****       {
 1216              		.loc 1 693 52 view .LVU388
 1217 03be 13F4005F 		tst	r3, #8192
 1218 03c2 06D0     		beq	.L82
 695:Drivers/STM32H7xx_HAL_Driver/Src/stm32h7xx_hal_rcc.c ****         {
 1219              		.loc 1 695 9 is_stmt 1 view .LVU389
 695:Drivers/STM32H7xx_HAL_Driver/Src/stm32h7xx_hal_rcc.c ****         {
 1220              		.loc 1 695 14 is_stmt 0 view .LVU390
 1221 03c4 FFF7FEFF 		bl	HAL_GetTick
 1222              	.LVL111:
 695:Drivers/STM32H7xx_HAL_Driver/Src/stm32h7xx_hal_rcc.c ****         {
 1223              		.loc 1 695 28 discriminator 1 view .LVU391
 1224 03c8 401B     		subs	r0, r0, r5
 695:Drivers/STM32H7xx_HAL_Driver/Src/stm32h7xx_hal_rcc.c ****         {
 1225              		.loc 1 695 12 discriminator 1 view .LVU392
 1226 03ca 0228     		cmp	r0, #2
 1227 03cc F5D9     		bls	.L87
ARM GAS  C:\Users\thewo\AppData\Local\Temp\ccxuDTrk.s 			page 42


 697:Drivers/STM32H7xx_HAL_Driver/Src/stm32h7xx_hal_rcc.c ****         }
 1228              		.loc 1 697 18 view .LVU393
 1229 03ce 0320     		movs	r0, #3
 1230 03d0 FBE6     		b	.L36
 1231              	.LVL112:
 1232              	.L82:
 703:Drivers/STM32H7xx_HAL_Driver/Src/stm32h7xx_hal_rcc.c ****   {
 1233              		.loc 1 703 3 is_stmt 1 view .LVU394
 703:Drivers/STM32H7xx_HAL_Driver/Src/stm32h7xx_hal_rcc.c ****   {
 1234              		.loc 1 703 26 is_stmt 0 view .LVU395
 1235 03d2 2368     		ldr	r3, [r4]
 703:Drivers/STM32H7xx_HAL_Driver/Src/stm32h7xx_hal_rcc.c ****   {
 1236              		.loc 1 703 6 view .LVU396
 1237 03d4 13F0040F 		tst	r3, #4
 1238 03d8 72D0     		beq	.L89
 706:Drivers/STM32H7xx_HAL_Driver/Src/stm32h7xx_hal_rcc.c **** 
 1239              		.loc 1 706 5 is_stmt 1 view .LVU397
 1240 03da A368     		ldr	r3, [r4, #8]
 1241 03dc 052B     		cmp	r3, #5
 1242 03de 18BF     		it	ne
 1243 03e0 012B     		cmpne	r3, #1
 1244 03e2 13D8     		bhi	.L173
 1245              	.L90:
 709:Drivers/STM32H7xx_HAL_Driver/Src/stm32h7xx_hal_rcc.c **** 
 1246              		.loc 1 709 5 view .LVU398
 709:Drivers/STM32H7xx_HAL_Driver/Src/stm32h7xx_hal_rcc.c **** 
 1247              		.loc 1 709 8 is_stmt 0 view .LVU399
 1248 03e4 354A     		ldr	r2, .L193+8
 1249 03e6 1368     		ldr	r3, [r2]
 709:Drivers/STM32H7xx_HAL_Driver/Src/stm32h7xx_hal_rcc.c **** 
 1250              		.loc 1 709 14 view .LVU400
 1251 03e8 43F48073 		orr	r3, r3, #256
 1252 03ec 1360     		str	r3, [r2]
 712:Drivers/STM32H7xx_HAL_Driver/Src/stm32h7xx_hal_rcc.c **** 
 1253              		.loc 1 712 5 is_stmt 1 view .LVU401
 712:Drivers/STM32H7xx_HAL_Driver/Src/stm32h7xx_hal_rcc.c **** 
 1254              		.loc 1 712 17 is_stmt 0 view .LVU402
 1255 03ee FFF7FEFF 		bl	HAL_GetTick
 1256              	.LVL113:
 1257 03f2 0546     		mov	r5, r0
 1258              	.LVL114:
 714:Drivers/STM32H7xx_HAL_Driver/Src/stm32h7xx_hal_rcc.c ****     {
 1259              		.loc 1 714 5 is_stmt 1 view .LVU403
 1260              	.L91:
 714:Drivers/STM32H7xx_HAL_Driver/Src/stm32h7xx_hal_rcc.c ****     {
 1261              		.loc 1 714 37 view .LVU404
 714:Drivers/STM32H7xx_HAL_Driver/Src/stm32h7xx_hal_rcc.c ****     {
 1262              		.loc 1 714 16 is_stmt 0 view .LVU405
 1263 03f4 314B     		ldr	r3, .L193+8
 1264 03f6 1B68     		ldr	r3, [r3]
 714:Drivers/STM32H7xx_HAL_Driver/Src/stm32h7xx_hal_rcc.c ****     {
 1265              		.loc 1 714 37 view .LVU406
 1266 03f8 13F4807F 		tst	r3, #256
 1267 03fc 0CD1     		bne	.L174
 716:Drivers/STM32H7xx_HAL_Driver/Src/stm32h7xx_hal_rcc.c ****       {
 1268              		.loc 1 716 7 is_stmt 1 view .LVU407
 716:Drivers/STM32H7xx_HAL_Driver/Src/stm32h7xx_hal_rcc.c ****       {
ARM GAS  C:\Users\thewo\AppData\Local\Temp\ccxuDTrk.s 			page 43


 1269              		.loc 1 716 12 is_stmt 0 view .LVU408
 1270 03fe FFF7FEFF 		bl	HAL_GetTick
 1271              	.LVL115:
 716:Drivers/STM32H7xx_HAL_Driver/Src/stm32h7xx_hal_rcc.c ****       {
 1272              		.loc 1 716 26 discriminator 1 view .LVU409
 1273 0402 401B     		subs	r0, r0, r5
 716:Drivers/STM32H7xx_HAL_Driver/Src/stm32h7xx_hal_rcc.c ****       {
 1274              		.loc 1 716 10 discriminator 1 view .LVU410
 1275 0404 6428     		cmp	r0, #100
 1276 0406 F5D9     		bls	.L91
 718:Drivers/STM32H7xx_HAL_Driver/Src/stm32h7xx_hal_rcc.c ****       }
 1277              		.loc 1 718 16 view .LVU411
 1278 0408 0320     		movs	r0, #3
 1279 040a DEE6     		b	.L36
 1280              	.LVL116:
 1281              	.L173:
 706:Drivers/STM32H7xx_HAL_Driver/Src/stm32h7xx_hal_rcc.c **** 
 1282              		.loc 1 706 5 discriminator 1 view .LVU412
 1283 040c 40F2C221 		movw	r1, #706
 1284 0410 2948     		ldr	r0, .L193+4
 1285 0412 FFF7FEFF 		bl	assert_failed
 1286              	.LVL117:
 1287 0416 E5E7     		b	.L90
 1288              	.LVL118:
 1289              	.L174:
 723:Drivers/STM32H7xx_HAL_Driver/Src/stm32h7xx_hal_rcc.c ****     /* Check the LSE State */
 1290              		.loc 1 723 5 is_stmt 1 view .LVU413
 723:Drivers/STM32H7xx_HAL_Driver/Src/stm32h7xx_hal_rcc.c ****     /* Check the LSE State */
 1291              		.loc 1 723 5 view .LVU414
 1292 0418 A368     		ldr	r3, [r4, #8]
 1293 041a 012B     		cmp	r3, #1
 1294 041c 0AD0     		beq	.L175
 723:Drivers/STM32H7xx_HAL_Driver/Src/stm32h7xx_hal_rcc.c ****     /* Check the LSE State */
 1295              		.loc 1 723 5 discriminator 2 view .LVU415
 1296 041e 0BBB     		cbnz	r3, .L95
 723:Drivers/STM32H7xx_HAL_Driver/Src/stm32h7xx_hal_rcc.c ****     /* Check the LSE State */
 1297              		.loc 1 723 5 discriminator 4 view .LVU416
 1298 0420 244B     		ldr	r3, .L193
 1299 0422 1A6F     		ldr	r2, [r3, #112]
 1300 0424 22F00102 		bic	r2, r2, #1
 1301 0428 1A67     		str	r2, [r3, #112]
 723:Drivers/STM32H7xx_HAL_Driver/Src/stm32h7xx_hal_rcc.c ****     /* Check the LSE State */
 1302              		.loc 1 723 5 view .LVU417
 723:Drivers/STM32H7xx_HAL_Driver/Src/stm32h7xx_hal_rcc.c ****     /* Check the LSE State */
 1303              		.loc 1 723 5 is_stmt 0 discriminator 4 view .LVU418
 1304 042a 1A6F     		ldr	r2, [r3, #112]
 1305 042c 22F00402 		bic	r2, r2, #4
 1306 0430 1A67     		str	r2, [r3, #112]
 1307 0432 04E0     		b	.L94
 1308              	.L175:
 723:Drivers/STM32H7xx_HAL_Driver/Src/stm32h7xx_hal_rcc.c ****     /* Check the LSE State */
 1309              		.loc 1 723 5 is_stmt 1 discriminator 1 view .LVU419
 1310 0434 1F4A     		ldr	r2, .L193
 1311 0436 136F     		ldr	r3, [r2, #112]
 1312 0438 43F00103 		orr	r3, r3, #1
 1313 043c 1367     		str	r3, [r2, #112]
 1314              	.L94:
ARM GAS  C:\Users\thewo\AppData\Local\Temp\ccxuDTrk.s 			page 44


 723:Drivers/STM32H7xx_HAL_Driver/Src/stm32h7xx_hal_rcc.c ****     /* Check the LSE State */
 1315              		.loc 1 723 5 discriminator 10 view .LVU420
 725:Drivers/STM32H7xx_HAL_Driver/Src/stm32h7xx_hal_rcc.c ****     {
 1316              		.loc 1 725 5 view .LVU421
 725:Drivers/STM32H7xx_HAL_Driver/Src/stm32h7xx_hal_rcc.c ****     {
 1317              		.loc 1 725 27 is_stmt 0 view .LVU422
 1318 043e A368     		ldr	r3, [r4, #8]
 725:Drivers/STM32H7xx_HAL_Driver/Src/stm32h7xx_hal_rcc.c ****     {
 1319              		.loc 1 725 8 view .LVU423
 1320 0440 33B3     		cbz	r3, .L97
 728:Drivers/STM32H7xx_HAL_Driver/Src/stm32h7xx_hal_rcc.c **** 
 1321              		.loc 1 728 7 is_stmt 1 view .LVU424
 728:Drivers/STM32H7xx_HAL_Driver/Src/stm32h7xx_hal_rcc.c **** 
 1322              		.loc 1 728 19 is_stmt 0 view .LVU425
 1323 0442 FFF7FEFF 		bl	HAL_GetTick
 1324              	.LVL119:
 1325 0446 0546     		mov	r5, r0
 1326              	.LVL120:
 731:Drivers/STM32H7xx_HAL_Driver/Src/stm32h7xx_hal_rcc.c ****       {
 1327              		.loc 1 731 7 is_stmt 1 view .LVU426
 1328              	.L98:
 731:Drivers/STM32H7xx_HAL_Driver/Src/stm32h7xx_hal_rcc.c ****       {
 1329              		.loc 1 731 50 view .LVU427
 731:Drivers/STM32H7xx_HAL_Driver/Src/stm32h7xx_hal_rcc.c ****       {
 1330              		.loc 1 731 14 is_stmt 0 view .LVU428
 1331 0448 1A4B     		ldr	r3, .L193
 1332 044a 1B6F     		ldr	r3, [r3, #112]
 731:Drivers/STM32H7xx_HAL_Driver/Src/stm32h7xx_hal_rcc.c ****       {
 1333              		.loc 1 731 50 view .LVU429
 1334 044c 13F0020F 		tst	r3, #2
 1335 0450 36D1     		bne	.L89
 733:Drivers/STM32H7xx_HAL_Driver/Src/stm32h7xx_hal_rcc.c ****         {
 1336              		.loc 1 733 9 is_stmt 1 view .LVU430
 733:Drivers/STM32H7xx_HAL_Driver/Src/stm32h7xx_hal_rcc.c ****         {
 1337              		.loc 1 733 14 is_stmt 0 view .LVU431
 1338 0452 FFF7FEFF 		bl	HAL_GetTick
 1339              	.LVL121:
 733:Drivers/STM32H7xx_HAL_Driver/Src/stm32h7xx_hal_rcc.c ****         {
 1340              		.loc 1 733 28 discriminator 1 view .LVU432
 1341 0456 401B     		subs	r0, r0, r5
 733:Drivers/STM32H7xx_HAL_Driver/Src/stm32h7xx_hal_rcc.c ****         {
 1342              		.loc 1 733 12 discriminator 1 view .LVU433
 1343 0458 41F28833 		movw	r3, #5000
 1344 045c 9842     		cmp	r0, r3
 1345 045e F3D9     		bls	.L98
 735:Drivers/STM32H7xx_HAL_Driver/Src/stm32h7xx_hal_rcc.c ****         }
 1346              		.loc 1 735 18 view .LVU434
 1347 0460 0320     		movs	r0, #3
 1348 0462 B2E6     		b	.L36
 1349              	.L95:
 723:Drivers/STM32H7xx_HAL_Driver/Src/stm32h7xx_hal_rcc.c ****     /* Check the LSE State */
 1350              		.loc 1 723 5 is_stmt 1 discriminator 5 view .LVU435
 1351 0464 052B     		cmp	r3, #5
 1352 0466 09D0     		beq	.L176
 723:Drivers/STM32H7xx_HAL_Driver/Src/stm32h7xx_hal_rcc.c ****     /* Check the LSE State */
 1353              		.loc 1 723 5 discriminator 8 view .LVU436
 1354 0468 124B     		ldr	r3, .L193
ARM GAS  C:\Users\thewo\AppData\Local\Temp\ccxuDTrk.s 			page 45


 1355 046a 1A6F     		ldr	r2, [r3, #112]
 1356 046c 22F00102 		bic	r2, r2, #1
 1357 0470 1A67     		str	r2, [r3, #112]
 723:Drivers/STM32H7xx_HAL_Driver/Src/stm32h7xx_hal_rcc.c ****     /* Check the LSE State */
 1358              		.loc 1 723 5 view .LVU437
 723:Drivers/STM32H7xx_HAL_Driver/Src/stm32h7xx_hal_rcc.c ****     /* Check the LSE State */
 1359              		.loc 1 723 5 is_stmt 0 discriminator 8 view .LVU438
 1360 0472 1A6F     		ldr	r2, [r3, #112]
 1361 0474 22F00402 		bic	r2, r2, #4
 1362 0478 1A67     		str	r2, [r3, #112]
 1363 047a E0E7     		b	.L94
 1364              	.L176:
 723:Drivers/STM32H7xx_HAL_Driver/Src/stm32h7xx_hal_rcc.c ****     /* Check the LSE State */
 1365              		.loc 1 723 5 is_stmt 1 discriminator 7 view .LVU439
 1366 047c 0D4B     		ldr	r3, .L193
 1367 047e 1A6F     		ldr	r2, [r3, #112]
 1368 0480 42F00402 		orr	r2, r2, #4
 1369 0484 1A67     		str	r2, [r3, #112]
 723:Drivers/STM32H7xx_HAL_Driver/Src/stm32h7xx_hal_rcc.c ****     /* Check the LSE State */
 1370              		.loc 1 723 5 view .LVU440
 723:Drivers/STM32H7xx_HAL_Driver/Src/stm32h7xx_hal_rcc.c ****     /* Check the LSE State */
 1371              		.loc 1 723 5 is_stmt 0 discriminator 7 view .LVU441
 1372 0486 1A6F     		ldr	r2, [r3, #112]
 1373 0488 42F00102 		orr	r2, r2, #1
 1374 048c 1A67     		str	r2, [r3, #112]
 1375 048e D6E7     		b	.L94
 1376              	.L97:
 742:Drivers/STM32H7xx_HAL_Driver/Src/stm32h7xx_hal_rcc.c **** 
 1377              		.loc 1 742 7 is_stmt 1 view .LVU442
 742:Drivers/STM32H7xx_HAL_Driver/Src/stm32h7xx_hal_rcc.c **** 
 1378              		.loc 1 742 19 is_stmt 0 view .LVU443
 1379 0490 FFF7FEFF 		bl	HAL_GetTick
 1380              	.LVL122:
 1381 0494 0546     		mov	r5, r0
 1382              	.LVL123:
 745:Drivers/STM32H7xx_HAL_Driver/Src/stm32h7xx_hal_rcc.c ****       {
 1383              		.loc 1 745 7 is_stmt 1 view .LVU444
 1384              	.L100:
 745:Drivers/STM32H7xx_HAL_Driver/Src/stm32h7xx_hal_rcc.c ****       {
 1385              		.loc 1 745 50 view .LVU445
 745:Drivers/STM32H7xx_HAL_Driver/Src/stm32h7xx_hal_rcc.c ****       {
 1386              		.loc 1 745 14 is_stmt 0 view .LVU446
 1387 0496 074B     		ldr	r3, .L193
 1388 0498 1B6F     		ldr	r3, [r3, #112]
 745:Drivers/STM32H7xx_HAL_Driver/Src/stm32h7xx_hal_rcc.c ****       {
 1389              		.loc 1 745 50 view .LVU447
 1390 049a 13F0020F 		tst	r3, #2
 1391 049e 0FD0     		beq	.L89
 747:Drivers/STM32H7xx_HAL_Driver/Src/stm32h7xx_hal_rcc.c ****         {
 1392              		.loc 1 747 9 is_stmt 1 view .LVU448
 747:Drivers/STM32H7xx_HAL_Driver/Src/stm32h7xx_hal_rcc.c ****         {
 1393              		.loc 1 747 14 is_stmt 0 view .LVU449
 1394 04a0 FFF7FEFF 		bl	HAL_GetTick
 1395              	.LVL124:
 747:Drivers/STM32H7xx_HAL_Driver/Src/stm32h7xx_hal_rcc.c ****         {
 1396              		.loc 1 747 28 discriminator 1 view .LVU450
 1397 04a4 401B     		subs	r0, r0, r5
ARM GAS  C:\Users\thewo\AppData\Local\Temp\ccxuDTrk.s 			page 46


 747:Drivers/STM32H7xx_HAL_Driver/Src/stm32h7xx_hal_rcc.c ****         {
 1398              		.loc 1 747 12 discriminator 1 view .LVU451
 1399 04a6 41F28833 		movw	r3, #5000
 1400 04aa 9842     		cmp	r0, r3
 1401 04ac F3D9     		bls	.L100
 749:Drivers/STM32H7xx_HAL_Driver/Src/stm32h7xx_hal_rcc.c ****         }
 1402              		.loc 1 749 18 view .LVU452
 1403 04ae 0320     		movs	r0, #3
 1404 04b0 8BE6     		b	.L36
 1405              	.L194:
 1406 04b2 00BF     		.align	2
 1407              	.L193:
 1408 04b4 00440258 		.word	1476543488
 1409 04b8 00000000 		.word	.LC0
 1410 04bc 00480258 		.word	1476544512
 1411              	.LVL125:
 1412              	.L89:
 756:Drivers/STM32H7xx_HAL_Driver/Src/stm32h7xx_hal_rcc.c ****   if ((RCC_OscInitStruct->PLL.PLLState) != RCC_PLL_NONE)
 1413              		.loc 1 756 3 is_stmt 1 view .LVU453
 1414 04c0 636A     		ldr	r3, [r4, #36]
 1415 04c2 022B     		cmp	r3, #2
 1416 04c4 4FD8     		bhi	.L177
 1417              	.L102:
 757:Drivers/STM32H7xx_HAL_Driver/Src/stm32h7xx_hal_rcc.c ****   {
 1418              		.loc 1 757 3 view .LVU454
 757:Drivers/STM32H7xx_HAL_Driver/Src/stm32h7xx_hal_rcc.c ****   {
 1419              		.loc 1 757 30 is_stmt 0 view .LVU455
 1420 04c6 636A     		ldr	r3, [r4, #36]
 757:Drivers/STM32H7xx_HAL_Driver/Src/stm32h7xx_hal_rcc.c ****   {
 1421              		.loc 1 757 6 view .LVU456
 1422 04c8 002B     		cmp	r3, #0
 1423 04ca 00F05981 		beq	.L140
 760:Drivers/STM32H7xx_HAL_Driver/Src/stm32h7xx_hal_rcc.c ****     {
 1424              		.loc 1 760 5 is_stmt 1 view .LVU457
 760:Drivers/STM32H7xx_HAL_Driver/Src/stm32h7xx_hal_rcc.c ****     {
 1425              		.loc 1 760 9 is_stmt 0 view .LVU458
 1426 04ce A94A     		ldr	r2, .L195
 1427 04d0 1269     		ldr	r2, [r2, #16]
 1428 04d2 02F03802 		and	r2, r2, #56
 760:Drivers/STM32H7xx_HAL_Driver/Src/stm32h7xx_hal_rcc.c ****     {
 1429              		.loc 1 760 8 view .LVU459
 1430 04d6 182A     		cmp	r2, #24
 1431 04d8 00F0F380 		beq	.L103
 762:Drivers/STM32H7xx_HAL_Driver/Src/stm32h7xx_hal_rcc.c ****       {
 1432              		.loc 1 762 7 is_stmt 1 view .LVU460
 762:Drivers/STM32H7xx_HAL_Driver/Src/stm32h7xx_hal_rcc.c ****       {
 1433              		.loc 1 762 10 is_stmt 0 view .LVU461
 1434 04dc 022B     		cmp	r3, #2
 1435 04de 40F0DA80 		bne	.L104
 765:Drivers/STM32H7xx_HAL_Driver/Src/stm32h7xx_hal_rcc.c ****         assert_param(IS_RCC_PLLRGE_VALUE(RCC_OscInitStruct->PLL.PLLRGE));
 1436              		.loc 1 765 9 is_stmt 1 view .LVU462
 1437 04e2 A36A     		ldr	r3, [r4, #40]
 1438 04e4 032B     		cmp	r3, #3
 1439 04e6 18BF     		it	ne
 1440 04e8 012B     		cmpne	r3, #1
 1441 04ea 01D9     		bls	.L105
 765:Drivers/STM32H7xx_HAL_Driver/Src/stm32h7xx_hal_rcc.c ****         assert_param(IS_RCC_PLLRGE_VALUE(RCC_OscInitStruct->PLL.PLLRGE));
ARM GAS  C:\Users\thewo\AppData\Local\Temp\ccxuDTrk.s 			page 47


 1442              		.loc 1 765 9 is_stmt 0 discriminator 1 view .LVU463
 1443 04ec 022B     		cmp	r3, #2
 1444 04ee 40D1     		bne	.L178
 1445              	.L105:
 766:Drivers/STM32H7xx_HAL_Driver/Src/stm32h7xx_hal_rcc.c ****         assert_param(IS_RCC_PLLVCO_VALUE(RCC_OscInitStruct->PLL.PLLVCOSEL));
 1446              		.loc 1 766 9 is_stmt 1 view .LVU464
 1447 04f0 236C     		ldr	r3, [r4, #64]
 1448 04f2 002B     		cmp	r3, #0
 1449 04f4 18BF     		it	ne
 1450 04f6 042B     		cmpne	r3, #4
 1451 04f8 03D0     		beq	.L106
 766:Drivers/STM32H7xx_HAL_Driver/Src/stm32h7xx_hal_rcc.c ****         assert_param(IS_RCC_PLLVCO_VALUE(RCC_OscInitStruct->PLL.PLLVCOSEL));
 1452              		.loc 1 766 9 is_stmt 0 discriminator 1 view .LVU465
 1453 04fa 082B     		cmp	r3, #8
 1454 04fc 01D0     		beq	.L106
 766:Drivers/STM32H7xx_HAL_Driver/Src/stm32h7xx_hal_rcc.c ****         assert_param(IS_RCC_PLLVCO_VALUE(RCC_OscInitStruct->PLL.PLLVCOSEL));
 1455              		.loc 1 766 9 discriminator 2 view .LVU466
 1456 04fe 0C2B     		cmp	r3, #12
 1457 0500 3DD1     		bne	.L179
 1458              	.L106:
 767:Drivers/STM32H7xx_HAL_Driver/Src/stm32h7xx_hal_rcc.c ****         assert_param(IS_RCC_PLLM_VALUE(RCC_OscInitStruct->PLL.PLLM));
 1459              		.loc 1 767 9 is_stmt 1 view .LVU467
 1460 0502 636C     		ldr	r3, [r4, #68]
 1461 0504 002B     		cmp	r3, #0
 1462 0506 18BF     		it	ne
 1463 0508 022B     		cmpne	r3, #2
 1464 050a 3ED1     		bne	.L180
 1465              	.L107:
 768:Drivers/STM32H7xx_HAL_Driver/Src/stm32h7xx_hal_rcc.c ****         assert_param(IS_RCC_PLLN_VALUE(RCC_OscInitStruct->PLL.PLLN));
 1466              		.loc 1 768 9 view .LVU468
 1467 050c E36A     		ldr	r3, [r4, #44]
 1468 050e 013B     		subs	r3, r3, #1
 1469 0510 3E2B     		cmp	r3, #62
 1470 0512 40D8     		bhi	.L181
 1471              	.L108:
 769:Drivers/STM32H7xx_HAL_Driver/Src/stm32h7xx_hal_rcc.c ****         assert_param(IS_RCC_PLLP_VALUE(RCC_OscInitStruct->PLL.PLLP));
 1472              		.loc 1 769 9 view .LVU469
 1473 0514 236B     		ldr	r3, [r4, #48]
 1474 0516 043B     		subs	r3, r3, #4
 1475 0518 B3F5FE7F 		cmp	r3, #508
 1476 051c 41D8     		bhi	.L182
 1477              	.L109:
 770:Drivers/STM32H7xx_HAL_Driver/Src/stm32h7xx_hal_rcc.c ****         assert_param(IS_RCC_PLLQ_VALUE(RCC_OscInitStruct->PLL.PLLQ));
 1478              		.loc 1 770 9 view .LVU470
 1479 051e 636B     		ldr	r3, [r4, #52]
 1480 0520 013B     		subs	r3, r3, #1
 1481 0522 7F2B     		cmp	r3, #127
 1482 0524 43D8     		bhi	.L183
 1483              	.L110:
 771:Drivers/STM32H7xx_HAL_Driver/Src/stm32h7xx_hal_rcc.c ****         assert_param(IS_RCC_PLLR_VALUE(RCC_OscInitStruct->PLL.PLLR));
 1484              		.loc 1 771 9 view .LVU471
 1485 0526 A36B     		ldr	r3, [r4, #56]
 1486 0528 013B     		subs	r3, r3, #1
 1487 052a 7F2B     		cmp	r3, #127
 1488 052c 45D8     		bhi	.L184
 1489              	.L111:
 772:Drivers/STM32H7xx_HAL_Driver/Src/stm32h7xx_hal_rcc.c ****         assert_param(IS_RCC_PLLFRACN_VALUE(RCC_OscInitStruct->PLL.PLLFRACN));
ARM GAS  C:\Users\thewo\AppData\Local\Temp\ccxuDTrk.s 			page 48


 1490              		.loc 1 772 9 view .LVU472
 1491 052e E36B     		ldr	r3, [r4, #60]
 1492 0530 013B     		subs	r3, r3, #1
 1493 0532 7F2B     		cmp	r3, #127
 1494 0534 47D8     		bhi	.L185
 1495              	.L112:
 773:Drivers/STM32H7xx_HAL_Driver/Src/stm32h7xx_hal_rcc.c **** 
 1496              		.loc 1 773 9 view .LVU473
 1497 0536 A36C     		ldr	r3, [r4, #72]
 1498 0538 B3F5005F 		cmp	r3, #8192
 1499 053c 49D2     		bcs	.L186
 1500              	.L113:
 776:Drivers/STM32H7xx_HAL_Driver/Src/stm32h7xx_hal_rcc.c **** 
 1501              		.loc 1 776 9 view .LVU474
 1502 053e 8D4A     		ldr	r2, .L195
 1503 0540 1368     		ldr	r3, [r2]
 1504 0542 23F08073 		bic	r3, r3, #16777216
 1505 0546 1360     		str	r3, [r2]
 779:Drivers/STM32H7xx_HAL_Driver/Src/stm32h7xx_hal_rcc.c **** 
 1506              		.loc 1 779 9 view .LVU475
 779:Drivers/STM32H7xx_HAL_Driver/Src/stm32h7xx_hal_rcc.c **** 
 1507              		.loc 1 779 21 is_stmt 0 view .LVU476
 1508 0548 FFF7FEFF 		bl	HAL_GetTick
 1509              	.LVL126:
 1510 054c 0546     		mov	r5, r0
 1511              	.LVL127:
 782:Drivers/STM32H7xx_HAL_Driver/Src/stm32h7xx_hal_rcc.c ****         {
 1512              		.loc 1 782 9 is_stmt 1 view .LVU477
 1513              	.L114:
 782:Drivers/STM32H7xx_HAL_Driver/Src/stm32h7xx_hal_rcc.c ****         {
 1514              		.loc 1 782 52 view .LVU478
 782:Drivers/STM32H7xx_HAL_Driver/Src/stm32h7xx_hal_rcc.c ****         {
 1515              		.loc 1 782 16 is_stmt 0 view .LVU479
 1516 054e 894B     		ldr	r3, .L195
 1517 0550 1B68     		ldr	r3, [r3]
 782:Drivers/STM32H7xx_HAL_Driver/Src/stm32h7xx_hal_rcc.c ****         {
 1518              		.loc 1 782 52 view .LVU480
 1519 0552 13F0007F 		tst	r3, #33554432
 1520 0556 42D0     		beq	.L187
 784:Drivers/STM32H7xx_HAL_Driver/Src/stm32h7xx_hal_rcc.c ****           {
 1521              		.loc 1 784 11 is_stmt 1 view .LVU481
 784:Drivers/STM32H7xx_HAL_Driver/Src/stm32h7xx_hal_rcc.c ****           {
 1522              		.loc 1 784 16 is_stmt 0 view .LVU482
 1523 0558 FFF7FEFF 		bl	HAL_GetTick
 1524              	.LVL128:
 784:Drivers/STM32H7xx_HAL_Driver/Src/stm32h7xx_hal_rcc.c ****           {
 1525              		.loc 1 784 30 discriminator 1 view .LVU483
 1526 055c 401B     		subs	r0, r0, r5
 784:Drivers/STM32H7xx_HAL_Driver/Src/stm32h7xx_hal_rcc.c ****           {
 1527              		.loc 1 784 14 discriminator 1 view .LVU484
 1528 055e 0228     		cmp	r0, #2
 1529 0560 F5D9     		bls	.L114
 786:Drivers/STM32H7xx_HAL_Driver/Src/stm32h7xx_hal_rcc.c ****           }
 1530              		.loc 1 786 20 view .LVU485
 1531 0562 0320     		movs	r0, #3
 1532 0564 31E6     		b	.L36
 1533              	.LVL129:
ARM GAS  C:\Users\thewo\AppData\Local\Temp\ccxuDTrk.s 			page 49


 1534              	.L177:
 756:Drivers/STM32H7xx_HAL_Driver/Src/stm32h7xx_hal_rcc.c ****   if ((RCC_OscInitStruct->PLL.PLLState) != RCC_PLL_NONE)
 1535              		.loc 1 756 3 discriminator 1 view .LVU486
 1536 0566 4FF43D71 		mov	r1, #756
 1537 056a 8348     		ldr	r0, .L195+4
 1538 056c FFF7FEFF 		bl	assert_failed
 1539              	.LVL130:
 1540 0570 A9E7     		b	.L102
 1541              	.L178:
 765:Drivers/STM32H7xx_HAL_Driver/Src/stm32h7xx_hal_rcc.c ****         assert_param(IS_RCC_PLLRGE_VALUE(RCC_OscInitStruct->PLL.PLLRGE));
 1542              		.loc 1 765 9 discriminator 2 view .LVU487
 1543 0572 40F2FD21 		movw	r1, #765
 1544 0576 8048     		ldr	r0, .L195+4
 1545 0578 FFF7FEFF 		bl	assert_failed
 1546              	.LVL131:
 1547 057c B8E7     		b	.L105
 1548              	.L179:
 766:Drivers/STM32H7xx_HAL_Driver/Src/stm32h7xx_hal_rcc.c ****         assert_param(IS_RCC_PLLVCO_VALUE(RCC_OscInitStruct->PLL.PLLVCOSEL));
 1549              		.loc 1 766 9 discriminator 3 view .LVU488
 1550 057e 40F2FE21 		movw	r1, #766
 1551 0582 7D48     		ldr	r0, .L195+4
 1552 0584 FFF7FEFF 		bl	assert_failed
 1553              	.LVL132:
 1554 0588 BBE7     		b	.L106
 1555              	.L180:
 767:Drivers/STM32H7xx_HAL_Driver/Src/stm32h7xx_hal_rcc.c ****         assert_param(IS_RCC_PLLM_VALUE(RCC_OscInitStruct->PLL.PLLM));
 1556              		.loc 1 767 9 discriminator 1 view .LVU489
 1557 058a 40F2FF21 		movw	r1, #767
 1558 058e 7A48     		ldr	r0, .L195+4
 1559 0590 FFF7FEFF 		bl	assert_failed
 1560              	.LVL133:
 1561 0594 BAE7     		b	.L107
 1562              	.L181:
 768:Drivers/STM32H7xx_HAL_Driver/Src/stm32h7xx_hal_rcc.c ****         assert_param(IS_RCC_PLLN_VALUE(RCC_OscInitStruct->PLL.PLLN));
 1563              		.loc 1 768 9 discriminator 1 view .LVU490
 1564 0596 4FF44071 		mov	r1, #768
 1565 059a 7748     		ldr	r0, .L195+4
 1566 059c FFF7FEFF 		bl	assert_failed
 1567              	.LVL134:
 1568 05a0 B8E7     		b	.L108
 1569              	.L182:
 769:Drivers/STM32H7xx_HAL_Driver/Src/stm32h7xx_hal_rcc.c ****         assert_param(IS_RCC_PLLP_VALUE(RCC_OscInitStruct->PLL.PLLP));
 1570              		.loc 1 769 9 discriminator 1 view .LVU491
 1571 05a2 40F20131 		movw	r1, #769
 1572 05a6 7448     		ldr	r0, .L195+4
 1573 05a8 FFF7FEFF 		bl	assert_failed
 1574              	.LVL135:
 1575 05ac B7E7     		b	.L109
 1576              	.L183:
 770:Drivers/STM32H7xx_HAL_Driver/Src/stm32h7xx_hal_rcc.c ****         assert_param(IS_RCC_PLLQ_VALUE(RCC_OscInitStruct->PLL.PLLQ));
 1577              		.loc 1 770 9 discriminator 1 view .LVU492
 1578 05ae 40F20231 		movw	r1, #770
 1579 05b2 7148     		ldr	r0, .L195+4
 1580 05b4 FFF7FEFF 		bl	assert_failed
 1581              	.LVL136:
 1582 05b8 B5E7     		b	.L110
 1583              	.L184:
ARM GAS  C:\Users\thewo\AppData\Local\Temp\ccxuDTrk.s 			page 50


 771:Drivers/STM32H7xx_HAL_Driver/Src/stm32h7xx_hal_rcc.c ****         assert_param(IS_RCC_PLLR_VALUE(RCC_OscInitStruct->PLL.PLLR));
 1584              		.loc 1 771 9 discriminator 1 view .LVU493
 1585 05ba 40F20331 		movw	r1, #771
 1586 05be 6E48     		ldr	r0, .L195+4
 1587 05c0 FFF7FEFF 		bl	assert_failed
 1588              	.LVL137:
 1589 05c4 B3E7     		b	.L111
 1590              	.L185:
 772:Drivers/STM32H7xx_HAL_Driver/Src/stm32h7xx_hal_rcc.c ****         assert_param(IS_RCC_PLLFRACN_VALUE(RCC_OscInitStruct->PLL.PLLFRACN));
 1591              		.loc 1 772 9 discriminator 1 view .LVU494
 1592 05c6 4FF44171 		mov	r1, #772
 1593 05ca 6B48     		ldr	r0, .L195+4
 1594 05cc FFF7FEFF 		bl	assert_failed
 1595              	.LVL138:
 1596 05d0 B1E7     		b	.L112
 1597              	.L186:
 773:Drivers/STM32H7xx_HAL_Driver/Src/stm32h7xx_hal_rcc.c **** 
 1598              		.loc 1 773 9 discriminator 1 view .LVU495
 1599 05d2 40F20531 		movw	r1, #773
 1600 05d6 6848     		ldr	r0, .L195+4
 1601 05d8 FFF7FEFF 		bl	assert_failed
 1602              	.LVL139:
 1603 05dc AFE7     		b	.L113
 1604              	.LVL140:
 1605              	.L187:
 791:Drivers/STM32H7xx_HAL_Driver/Src/stm32h7xx_hal_rcc.c ****                              RCC_OscInitStruct->PLL.PLLM,
 1606              		.loc 1 791 9 is_stmt 1 view .LVU496
 791:Drivers/STM32H7xx_HAL_Driver/Src/stm32h7xx_hal_rcc.c ****                              RCC_OscInitStruct->PLL.PLLM,
 1607              		.loc 1 791 9 view .LVU497
 1608 05de 654B     		ldr	r3, .L195
 1609 05e0 996A     		ldr	r1, [r3, #40]
 1610 05e2 664A     		ldr	r2, .L195+8
 1611 05e4 0A40     		ands	r2, r2, r1
 1612 05e6 A16A     		ldr	r1, [r4, #40]
 1613 05e8 E06A     		ldr	r0, [r4, #44]
 1614 05ea 41EA0011 		orr	r1, r1, r0, lsl #4
 1615 05ee 0A43     		orrs	r2, r2, r1
 1616 05f0 9A62     		str	r2, [r3, #40]
 791:Drivers/STM32H7xx_HAL_Driver/Src/stm32h7xx_hal_rcc.c ****                              RCC_OscInitStruct->PLL.PLLM,
 1617              		.loc 1 791 9 view .LVU498
 1618 05f2 226B     		ldr	r2, [r4, #48]
 1619 05f4 013A     		subs	r2, r2, #1
 1620 05f6 C2F30802 		ubfx	r2, r2, #0, #9
 1621 05fa 616B     		ldr	r1, [r4, #52]
 1622 05fc 0139     		subs	r1, r1, #1
 1623 05fe 4902     		lsls	r1, r1, #9
 1624 0600 89B2     		uxth	r1, r1
 1625 0602 0A43     		orrs	r2, r2, r1
 1626 0604 A16B     		ldr	r1, [r4, #56]
 1627 0606 0139     		subs	r1, r1, #1
 1628 0608 0904     		lsls	r1, r1, #16
 1629 060a 01F4FE01 		and	r1, r1, #8323072
 1630 060e 0A43     		orrs	r2, r2, r1
 1631 0610 E16B     		ldr	r1, [r4, #60]
 1632 0612 0139     		subs	r1, r1, #1
 1633 0614 0906     		lsls	r1, r1, #24
 1634 0616 01F0FE41 		and	r1, r1, #2130706432
ARM GAS  C:\Users\thewo\AppData\Local\Temp\ccxuDTrk.s 			page 51


 1635 061a 0A43     		orrs	r2, r2, r1
 1636 061c 1A63     		str	r2, [r3, #48]
 791:Drivers/STM32H7xx_HAL_Driver/Src/stm32h7xx_hal_rcc.c ****                              RCC_OscInitStruct->PLL.PLLM,
 1637              		.loc 1 791 9 view .LVU499
 799:Drivers/STM32H7xx_HAL_Driver/Src/stm32h7xx_hal_rcc.c **** 
 1638              		.loc 1 799 9 view .LVU500
 1639 061e DA6A     		ldr	r2, [r3, #44]
 1640 0620 22F00102 		bic	r2, r2, #1
 1641 0624 DA62     		str	r2, [r3, #44]
 802:Drivers/STM32H7xx_HAL_Driver/Src/stm32h7xx_hal_rcc.c **** 
 1642              		.loc 1 802 9 view .LVU501
 1643 0626 5A6B     		ldr	r2, [r3, #52]
 1644 0628 6FF3CF02 		bfc	r2, #3, #13
 1645 062c A16C     		ldr	r1, [r4, #72]
 1646 062e 42EAC102 		orr	r2, r2, r1, lsl #3
 1647 0632 5A63     		str	r2, [r3, #52]
 805:Drivers/STM32H7xx_HAL_Driver/Src/stm32h7xx_hal_rcc.c **** 
 1648              		.loc 1 805 9 view .LVU502
 1649 0634 DA6A     		ldr	r2, [r3, #44]
 1650 0636 22F00C02 		bic	r2, r2, #12
 1651 063a 216C     		ldr	r1, [r4, #64]
 1652 063c 0A43     		orrs	r2, r2, r1
 1653 063e DA62     		str	r2, [r3, #44]
 808:Drivers/STM32H7xx_HAL_Driver/Src/stm32h7xx_hal_rcc.c **** 
 1654              		.loc 1 808 9 view .LVU503
 1655 0640 DA6A     		ldr	r2, [r3, #44]
 1656 0642 22F00202 		bic	r2, r2, #2
 1657 0646 616C     		ldr	r1, [r4, #68]
 1658 0648 0A43     		orrs	r2, r2, r1
 1659 064a DA62     		str	r2, [r3, #44]
 811:Drivers/STM32H7xx_HAL_Driver/Src/stm32h7xx_hal_rcc.c **** 
 1660              		.loc 1 811 9 view .LVU504
 1661 064c DA6A     		ldr	r2, [r3, #44]
 1662 064e 42F48032 		orr	r2, r2, #65536
 1663 0652 DA62     		str	r2, [r3, #44]
 814:Drivers/STM32H7xx_HAL_Driver/Src/stm32h7xx_hal_rcc.c **** 
 1664              		.loc 1 814 9 view .LVU505
 1665 0654 DA6A     		ldr	r2, [r3, #44]
 1666 0656 42F40032 		orr	r2, r2, #131072
 1667 065a DA62     		str	r2, [r3, #44]
 817:Drivers/STM32H7xx_HAL_Driver/Src/stm32h7xx_hal_rcc.c **** 
 1668              		.loc 1 817 9 view .LVU506
 1669 065c DA6A     		ldr	r2, [r3, #44]
 1670 065e 42F48022 		orr	r2, r2, #262144
 1671 0662 DA62     		str	r2, [r3, #44]
 820:Drivers/STM32H7xx_HAL_Driver/Src/stm32h7xx_hal_rcc.c **** 
 1672              		.loc 1 820 9 view .LVU507
 1673 0664 DA6A     		ldr	r2, [r3, #44]
 1674 0666 42F00102 		orr	r2, r2, #1
 1675 066a DA62     		str	r2, [r3, #44]
 823:Drivers/STM32H7xx_HAL_Driver/Src/stm32h7xx_hal_rcc.c **** 
 1676              		.loc 1 823 9 view .LVU508
 1677 066c 1A68     		ldr	r2, [r3]
 1678 066e 42F08072 		orr	r2, r2, #16777216
 1679 0672 1A60     		str	r2, [r3]
 826:Drivers/STM32H7xx_HAL_Driver/Src/stm32h7xx_hal_rcc.c **** 
 1680              		.loc 1 826 9 view .LVU509
ARM GAS  C:\Users\thewo\AppData\Local\Temp\ccxuDTrk.s 			page 52


 826:Drivers/STM32H7xx_HAL_Driver/Src/stm32h7xx_hal_rcc.c **** 
 1681              		.loc 1 826 21 is_stmt 0 view .LVU510
 1682 0674 FFF7FEFF 		bl	HAL_GetTick
 1683              	.LVL141:
 1684 0678 0446     		mov	r4, r0
 1685              	.LVL142:
 829:Drivers/STM32H7xx_HAL_Driver/Src/stm32h7xx_hal_rcc.c ****         {
 1686              		.loc 1 829 9 is_stmt 1 view .LVU511
 1687              	.L116:
 829:Drivers/STM32H7xx_HAL_Driver/Src/stm32h7xx_hal_rcc.c ****         {
 1688              		.loc 1 829 52 view .LVU512
 829:Drivers/STM32H7xx_HAL_Driver/Src/stm32h7xx_hal_rcc.c ****         {
 1689              		.loc 1 829 16 is_stmt 0 view .LVU513
 1690 067a 3E4B     		ldr	r3, .L195
 1691 067c 1B68     		ldr	r3, [r3]
 829:Drivers/STM32H7xx_HAL_Driver/Src/stm32h7xx_hal_rcc.c ****         {
 1692              		.loc 1 829 52 view .LVU514
 1693 067e 13F0007F 		tst	r3, #33554432
 1694 0682 06D1     		bne	.L188
 831:Drivers/STM32H7xx_HAL_Driver/Src/stm32h7xx_hal_rcc.c ****           {
 1695              		.loc 1 831 11 is_stmt 1 view .LVU515
 831:Drivers/STM32H7xx_HAL_Driver/Src/stm32h7xx_hal_rcc.c ****           {
 1696              		.loc 1 831 16 is_stmt 0 view .LVU516
 1697 0684 FFF7FEFF 		bl	HAL_GetTick
 1698              	.LVL143:
 831:Drivers/STM32H7xx_HAL_Driver/Src/stm32h7xx_hal_rcc.c ****           {
 1699              		.loc 1 831 30 discriminator 1 view .LVU517
 1700 0688 001B     		subs	r0, r0, r4
 831:Drivers/STM32H7xx_HAL_Driver/Src/stm32h7xx_hal_rcc.c ****           {
 1701              		.loc 1 831 14 discriminator 1 view .LVU518
 1702 068a 0228     		cmp	r0, #2
 1703 068c F5D9     		bls	.L116
 833:Drivers/STM32H7xx_HAL_Driver/Src/stm32h7xx_hal_rcc.c ****           }
 1704              		.loc 1 833 20 view .LVU519
 1705 068e 0320     		movs	r0, #3
 1706 0690 9BE5     		b	.L36
 1707              	.L188:
 893:Drivers/STM32H7xx_HAL_Driver/Src/stm32h7xx_hal_rcc.c **** }
 1708              		.loc 1 893 10 view .LVU520
 1709 0692 0020     		movs	r0, #0
 1710 0694 99E5     		b	.L36
 1711              	.LVL144:
 1712              	.L104:
 840:Drivers/STM32H7xx_HAL_Driver/Src/stm32h7xx_hal_rcc.c **** 
 1713              		.loc 1 840 9 is_stmt 1 view .LVU521
 1714 0696 374A     		ldr	r2, .L195
 1715 0698 1368     		ldr	r3, [r2]
 1716 069a 23F08073 		bic	r3, r3, #16777216
 1717 069e 1360     		str	r3, [r2]
 843:Drivers/STM32H7xx_HAL_Driver/Src/stm32h7xx_hal_rcc.c **** 
 1718              		.loc 1 843 9 view .LVU522
 843:Drivers/STM32H7xx_HAL_Driver/Src/stm32h7xx_hal_rcc.c **** 
 1719              		.loc 1 843 21 is_stmt 0 view .LVU523
 1720 06a0 FFF7FEFF 		bl	HAL_GetTick
 1721              	.LVL145:
 1722 06a4 0446     		mov	r4, r0
 1723              	.LVL146:
ARM GAS  C:\Users\thewo\AppData\Local\Temp\ccxuDTrk.s 			page 53


 846:Drivers/STM32H7xx_HAL_Driver/Src/stm32h7xx_hal_rcc.c ****         {
 1724              		.loc 1 846 9 is_stmt 1 view .LVU524
 1725              	.L118:
 846:Drivers/STM32H7xx_HAL_Driver/Src/stm32h7xx_hal_rcc.c ****         {
 1726              		.loc 1 846 52 view .LVU525
 846:Drivers/STM32H7xx_HAL_Driver/Src/stm32h7xx_hal_rcc.c ****         {
 1727              		.loc 1 846 16 is_stmt 0 view .LVU526
 1728 06a6 334B     		ldr	r3, .L195
 1729 06a8 1B68     		ldr	r3, [r3]
 846:Drivers/STM32H7xx_HAL_Driver/Src/stm32h7xx_hal_rcc.c ****         {
 1730              		.loc 1 846 52 view .LVU527
 1731 06aa 13F0007F 		tst	r3, #33554432
 1732 06ae 06D0     		beq	.L189
 848:Drivers/STM32H7xx_HAL_Driver/Src/stm32h7xx_hal_rcc.c ****           {
 1733              		.loc 1 848 11 is_stmt 1 view .LVU528
 848:Drivers/STM32H7xx_HAL_Driver/Src/stm32h7xx_hal_rcc.c ****           {
 1734              		.loc 1 848 16 is_stmt 0 view .LVU529
 1735 06b0 FFF7FEFF 		bl	HAL_GetTick
 1736              	.LVL147:
 848:Drivers/STM32H7xx_HAL_Driver/Src/stm32h7xx_hal_rcc.c ****           {
 1737              		.loc 1 848 30 discriminator 1 view .LVU530
 1738 06b4 001B     		subs	r0, r0, r4
 848:Drivers/STM32H7xx_HAL_Driver/Src/stm32h7xx_hal_rcc.c ****           {
 1739              		.loc 1 848 14 discriminator 1 view .LVU531
 1740 06b6 0228     		cmp	r0, #2
 1741 06b8 F5D9     		bls	.L118
 850:Drivers/STM32H7xx_HAL_Driver/Src/stm32h7xx_hal_rcc.c ****           }
 1742              		.loc 1 850 20 view .LVU532
 1743 06ba 0320     		movs	r0, #3
 1744 06bc 85E5     		b	.L36
 1745              	.L189:
 893:Drivers/STM32H7xx_HAL_Driver/Src/stm32h7xx_hal_rcc.c **** }
 1746              		.loc 1 893 10 view .LVU533
 1747 06be 0020     		movs	r0, #0
 1748 06c0 83E5     		b	.L36
 1749              	.LVL148:
 1750              	.L103:
 858:Drivers/STM32H7xx_HAL_Driver/Src/stm32h7xx_hal_rcc.c ****       temp2_pllckcfg = RCC->PLL1DIVR;
 1751              		.loc 1 858 7 is_stmt 1 view .LVU534
 858:Drivers/STM32H7xx_HAL_Driver/Src/stm32h7xx_hal_rcc.c ****       temp2_pllckcfg = RCC->PLL1DIVR;
 1752              		.loc 1 858 22 is_stmt 0 view .LVU535
 1753 06c2 2C4A     		ldr	r2, .L195
 1754 06c4 916A     		ldr	r1, [r2, #40]
 1755              	.LVL149:
 859:Drivers/STM32H7xx_HAL_Driver/Src/stm32h7xx_hal_rcc.c ****       if (((RCC_OscInitStruct->PLL.PLLState) == RCC_PLL_OFF) ||
 1756              		.loc 1 859 7 is_stmt 1 view .LVU536
 859:Drivers/STM32H7xx_HAL_Driver/Src/stm32h7xx_hal_rcc.c ****       if (((RCC_OscInitStruct->PLL.PLLState) == RCC_PLL_OFF) ||
 1757              		.loc 1 859 22 is_stmt 0 view .LVU537
 1758 06c6 106B     		ldr	r0, [r2, #48]
 1759              	.LVL150:
 860:Drivers/STM32H7xx_HAL_Driver/Src/stm32h7xx_hal_rcc.c ****           (READ_BIT(temp1_pllckcfg, RCC_PLLCKSELR_PLLSRC) != RCC_OscInitStruct->PLL.PLLSource) ||
 1760              		.loc 1 860 7 is_stmt 1 view .LVU538
 860:Drivers/STM32H7xx_HAL_Driver/Src/stm32h7xx_hal_rcc.c ****           (READ_BIT(temp1_pllckcfg, RCC_PLLCKSELR_PLLSRC) != RCC_OscInitStruct->PLL.PLLSource) ||
 1761              		.loc 1 860 10 is_stmt 0 view .LVU539
 1762 06c8 012B     		cmp	r3, #1
 1763 06ca 5BD0     		beq	.L144
 861:Drivers/STM32H7xx_HAL_Driver/Src/stm32h7xx_hal_rcc.c ****           ((READ_BIT(temp1_pllckcfg, RCC_PLLCKSELR_DIVM1) >> RCC_PLLCKSELR_DIVM1_Pos) != RCC_OscIni
ARM GAS  C:\Users\thewo\AppData\Local\Temp\ccxuDTrk.s 			page 54


 1764              		.loc 1 861 12 view .LVU540
 1765 06cc 01F00303 		and	r3, r1, #3
 861:Drivers/STM32H7xx_HAL_Driver/Src/stm32h7xx_hal_rcc.c ****           ((READ_BIT(temp1_pllckcfg, RCC_PLLCKSELR_DIVM1) >> RCC_PLLCKSELR_DIVM1_Pos) != RCC_OscIni
 1766              		.loc 1 861 84 view .LVU541
 1767 06d0 A26A     		ldr	r2, [r4, #40]
 860:Drivers/STM32H7xx_HAL_Driver/Src/stm32h7xx_hal_rcc.c ****           (READ_BIT(temp1_pllckcfg, RCC_PLLCKSELR_PLLSRC) != RCC_OscInitStruct->PLL.PLLSource) ||
 1768              		.loc 1 860 62 discriminator 1 view .LVU542
 1769 06d2 9342     		cmp	r3, r2
 1770 06d4 58D1     		bne	.L145
 862:Drivers/STM32H7xx_HAL_Driver/Src/stm32h7xx_hal_rcc.c ****           (READ_BIT(temp2_pllckcfg, RCC_PLL1DIVR_N1) != (RCC_OscInitStruct->PLL.PLLN - 1U)) ||
 1771              		.loc 1 862 59 view .LVU543
 1772 06d6 C1F30511 		ubfx	r1, r1, #4, #6
 1773              	.LVL151:
 862:Drivers/STM32H7xx_HAL_Driver/Src/stm32h7xx_hal_rcc.c ****           (READ_BIT(temp2_pllckcfg, RCC_PLL1DIVR_N1) != (RCC_OscInitStruct->PLL.PLLN - 1U)) ||
 1774              		.loc 1 862 112 view .LVU544
 1775 06da E36A     		ldr	r3, [r4, #44]
 861:Drivers/STM32H7xx_HAL_Driver/Src/stm32h7xx_hal_rcc.c ****           ((READ_BIT(temp1_pllckcfg, RCC_PLLCKSELR_DIVM1) >> RCC_PLLCKSELR_DIVM1_Pos) != RCC_OscIni
 1776              		.loc 1 861 96 view .LVU545
 1777 06dc 9942     		cmp	r1, r3
 1778 06de 55D1     		bne	.L146
 863:Drivers/STM32H7xx_HAL_Driver/Src/stm32h7xx_hal_rcc.c ****           ((READ_BIT(temp2_pllckcfg, RCC_PLL1DIVR_P1) >> RCC_PLL1DIVR_P1_Pos) != (RCC_OscInitStruct
 1779              		.loc 1 863 12 view .LVU546
 1780 06e0 C0F30802 		ubfx	r2, r0, #0, #9
 863:Drivers/STM32H7xx_HAL_Driver/Src/stm32h7xx_hal_rcc.c ****           ((READ_BIT(temp2_pllckcfg, RCC_PLL1DIVR_P1) >> RCC_PLL1DIVR_P1_Pos) != (RCC_OscInitStruct
 1781              		.loc 1 863 80 view .LVU547
 1782 06e4 236B     		ldr	r3, [r4, #48]
 863:Drivers/STM32H7xx_HAL_Driver/Src/stm32h7xx_hal_rcc.c ****           ((READ_BIT(temp2_pllckcfg, RCC_PLL1DIVR_P1) >> RCC_PLL1DIVR_P1_Pos) != (RCC_OscInitStruct
 1783              		.loc 1 863 86 view .LVU548
 1784 06e6 013B     		subs	r3, r3, #1
 862:Drivers/STM32H7xx_HAL_Driver/Src/stm32h7xx_hal_rcc.c ****           (READ_BIT(temp2_pllckcfg, RCC_PLL1DIVR_N1) != (RCC_OscInitStruct->PLL.PLLN - 1U)) ||
 1785              		.loc 1 862 119 view .LVU549
 1786 06e8 9A42     		cmp	r2, r3
 1787 06ea 51D1     		bne	.L147
 864:Drivers/STM32H7xx_HAL_Driver/Src/stm32h7xx_hal_rcc.c ****           ((READ_BIT(temp2_pllckcfg, RCC_PLL1DIVR_Q1) >> RCC_PLL1DIVR_Q1_Pos) != (RCC_OscInitStruct
 1788              		.loc 1 864 55 view .LVU550
 1789 06ec C0F34622 		ubfx	r2, r0, #9, #7
 864:Drivers/STM32H7xx_HAL_Driver/Src/stm32h7xx_hal_rcc.c ****           ((READ_BIT(temp2_pllckcfg, RCC_PLL1DIVR_Q1) >> RCC_PLL1DIVR_Q1_Pos) != (RCC_OscInitStruct
 1790              		.loc 1 864 105 view .LVU551
 1791 06f0 636B     		ldr	r3, [r4, #52]
 864:Drivers/STM32H7xx_HAL_Driver/Src/stm32h7xx_hal_rcc.c ****           ((READ_BIT(temp2_pllckcfg, RCC_PLL1DIVR_Q1) >> RCC_PLL1DIVR_Q1_Pos) != (RCC_OscInitStruct
 1792              		.loc 1 864 111 view .LVU552
 1793 06f2 013B     		subs	r3, r3, #1
 863:Drivers/STM32H7xx_HAL_Driver/Src/stm32h7xx_hal_rcc.c ****           ((READ_BIT(temp2_pllckcfg, RCC_PLL1DIVR_P1) >> RCC_PLL1DIVR_P1_Pos) != (RCC_OscInitStruct
 1794              		.loc 1 863 93 view .LVU553
 1795 06f4 9A42     		cmp	r2, r3
 1796 06f6 4DD1     		bne	.L148
 865:Drivers/STM32H7xx_HAL_Driver/Src/stm32h7xx_hal_rcc.c ****           ((READ_BIT(temp2_pllckcfg, RCC_PLL1DIVR_R1) >> RCC_PLL1DIVR_R1_Pos) != (RCC_OscInitStruct
 1797              		.loc 1 865 55 view .LVU554
 1798 06f8 C0F30642 		ubfx	r2, r0, #16, #7
 865:Drivers/STM32H7xx_HAL_Driver/Src/stm32h7xx_hal_rcc.c ****           ((READ_BIT(temp2_pllckcfg, RCC_PLL1DIVR_R1) >> RCC_PLL1DIVR_R1_Pos) != (RCC_OscInitStruct
 1799              		.loc 1 865 105 view .LVU555
 1800 06fc A36B     		ldr	r3, [r4, #56]
 865:Drivers/STM32H7xx_HAL_Driver/Src/stm32h7xx_hal_rcc.c ****           ((READ_BIT(temp2_pllckcfg, RCC_PLL1DIVR_R1) >> RCC_PLL1DIVR_R1_Pos) != (RCC_OscInitStruct
 1801              		.loc 1 865 111 view .LVU556
 1802 06fe 013B     		subs	r3, r3, #1
 864:Drivers/STM32H7xx_HAL_Driver/Src/stm32h7xx_hal_rcc.c ****           ((READ_BIT(temp2_pllckcfg, RCC_PLL1DIVR_Q1) >> RCC_PLL1DIVR_Q1_Pos) != (RCC_OscInitStruct
 1803              		.loc 1 864 118 view .LVU557
ARM GAS  C:\Users\thewo\AppData\Local\Temp\ccxuDTrk.s 			page 55


 1804 0700 9A42     		cmp	r2, r3
 1805 0702 49D1     		bne	.L149
 866:Drivers/STM32H7xx_HAL_Driver/Src/stm32h7xx_hal_rcc.c ****       {
 1806              		.loc 1 866 55 view .LVU558
 1807 0704 C0F30660 		ubfx	r0, r0, #24, #7
 1808              	.LVL152:
 866:Drivers/STM32H7xx_HAL_Driver/Src/stm32h7xx_hal_rcc.c ****       {
 1809              		.loc 1 866 105 view .LVU559
 1810 0708 E36B     		ldr	r3, [r4, #60]
 866:Drivers/STM32H7xx_HAL_Driver/Src/stm32h7xx_hal_rcc.c ****       {
 1811              		.loc 1 866 111 view .LVU560
 1812 070a 013B     		subs	r3, r3, #1
 865:Drivers/STM32H7xx_HAL_Driver/Src/stm32h7xx_hal_rcc.c ****           ((READ_BIT(temp2_pllckcfg, RCC_PLL1DIVR_R1) >> RCC_PLL1DIVR_R1_Pos) != (RCC_OscInitStruct
 1813              		.loc 1 865 118 view .LVU561
 1814 070c 9842     		cmp	r0, r3
 1815 070e 45D1     		bne	.L150
 873:Drivers/STM32H7xx_HAL_Driver/Src/stm32h7xx_hal_rcc.c ****         if (RCC_OscInitStruct->PLL.PLLFRACN != temp1_pllckcfg)
 1816              		.loc 1 873 9 is_stmt 1 view .LVU562
 873:Drivers/STM32H7xx_HAL_Driver/Src/stm32h7xx_hal_rcc.c ****         if (RCC_OscInitStruct->PLL.PLLFRACN != temp1_pllckcfg)
 1817              		.loc 1 873 31 is_stmt 0 view .LVU563
 1818 0710 184B     		ldr	r3, .L195
 1819 0712 5B6B     		ldr	r3, [r3, #52]
 873:Drivers/STM32H7xx_HAL_Driver/Src/stm32h7xx_hal_rcc.c ****         if (RCC_OscInitStruct->PLL.PLLFRACN != temp1_pllckcfg)
 1820              		.loc 1 873 24 view .LVU564
 1821 0714 C3F3CC03 		ubfx	r3, r3, #3, #13
 1822              	.LVL153:
 874:Drivers/STM32H7xx_HAL_Driver/Src/stm32h7xx_hal_rcc.c ****         {
 1823              		.loc 1 874 9 is_stmt 1 view .LVU565
 874:Drivers/STM32H7xx_HAL_Driver/Src/stm32h7xx_hal_rcc.c ****         {
 1824              		.loc 1 874 35 is_stmt 0 view .LVU566
 1825 0718 A26C     		ldr	r2, [r4, #72]
 874:Drivers/STM32H7xx_HAL_Driver/Src/stm32h7xx_hal_rcc.c ****         {
 1826              		.loc 1 874 12 view .LVU567
 1827 071a 9A42     		cmp	r2, r3
 1828 071c 40D0     		beq	.L151
 876:Drivers/STM32H7xx_HAL_Driver/Src/stm32h7xx_hal_rcc.c ****           /* Disable PLL1FRACEN */
 1829              		.loc 1 876 11 is_stmt 1 view .LVU568
 1830 071e B2F5005F 		cmp	r2, #8192
 1831 0722 19D2     		bcs	.L190
 1832              	.LVL154:
 1833              	.L120:
 878:Drivers/STM32H7xx_HAL_Driver/Src/stm32h7xx_hal_rcc.c ****           /* Get Start Tick*/
 1834              		.loc 1 878 11 view .LVU569
 1835 0724 134A     		ldr	r2, .L195
 1836 0726 D36A     		ldr	r3, [r2, #44]
 1837 0728 23F00103 		bic	r3, r3, #1
 1838 072c D362     		str	r3, [r2, #44]
 880:Drivers/STM32H7xx_HAL_Driver/Src/stm32h7xx_hal_rcc.c ****           /* Wait at least 2 CK_REF (PLL input source divided by M) period to make sure next latche
 1839              		.loc 1 880 11 view .LVU570
 880:Drivers/STM32H7xx_HAL_Driver/Src/stm32h7xx_hal_rcc.c ****           /* Wait at least 2 CK_REF (PLL input source divided by M) period to make sure next latche
 1840              		.loc 1 880 23 is_stmt 0 view .LVU571
 1841 072e FFF7FEFF 		bl	HAL_GetTick
 1842              	.LVL155:
 1843 0732 0546     		mov	r5, r0
 1844              	.LVL156:
 882:Drivers/STM32H7xx_HAL_Driver/Src/stm32h7xx_hal_rcc.c ****           {
 1845              		.loc 1 882 11 is_stmt 1 view .LVU572
ARM GAS  C:\Users\thewo\AppData\Local\Temp\ccxuDTrk.s 			page 56


 1846              	.L121:
 884:Drivers/STM32H7xx_HAL_Driver/Src/stm32h7xx_hal_rcc.c ****           /* Configure PLL1 PLL1FRACN */
 1847              		.loc 1 884 11 view .LVU573
 882:Drivers/STM32H7xx_HAL_Driver/Src/stm32h7xx_hal_rcc.c ****           {
 1848              		.loc 1 882 46 discriminator 1 view .LVU574
 882:Drivers/STM32H7xx_HAL_Driver/Src/stm32h7xx_hal_rcc.c ****           {
 1849              		.loc 1 882 19 is_stmt 0 discriminator 1 view .LVU575
 1850 0734 FFF7FEFF 		bl	HAL_GetTick
 1851              	.LVL157:
 882:Drivers/STM32H7xx_HAL_Driver/Src/stm32h7xx_hal_rcc.c ****           {
 1852              		.loc 1 882 46 discriminator 1 view .LVU576
 1853 0738 A842     		cmp	r0, r5
 1854 073a FBD0     		beq	.L121
 886:Drivers/STM32H7xx_HAL_Driver/Src/stm32h7xx_hal_rcc.c ****           /* Enable PLL1FRACEN to latch new value. */
 1855              		.loc 1 886 11 is_stmt 1 view .LVU577
 1856 073c 0D4A     		ldr	r2, .L195
 1857 073e 536B     		ldr	r3, [r2, #52]
 1858 0740 6FF3CF03 		bfc	r3, #3, #13
 1859 0744 A16C     		ldr	r1, [r4, #72]
 1860 0746 43EAC103 		orr	r3, r3, r1, lsl #3
 1861 074a 5363     		str	r3, [r2, #52]
 888:Drivers/STM32H7xx_HAL_Driver/Src/stm32h7xx_hal_rcc.c ****         }
 1862              		.loc 1 888 11 view .LVU578
 1863 074c D36A     		ldr	r3, [r2, #44]
 1864 074e 43F00103 		orr	r3, r3, #1
 1865 0752 D362     		str	r3, [r2, #44]
 893:Drivers/STM32H7xx_HAL_Driver/Src/stm32h7xx_hal_rcc.c **** }
 1866              		.loc 1 893 10 is_stmt 0 view .LVU579
 1867 0754 0020     		movs	r0, #0
 1868 0756 38E5     		b	.L36
 1869              	.LVL158:
 1870              	.L190:
 876:Drivers/STM32H7xx_HAL_Driver/Src/stm32h7xx_hal_rcc.c ****           /* Disable PLL1FRACEN */
 1871              		.loc 1 876 11 discriminator 1 view .LVU580
 1872 0758 4FF45B71 		mov	r1, #876
 1873 075c 0648     		ldr	r0, .L195+4
 1874 075e FFF7FEFF 		bl	assert_failed
 1875              	.LVL159:
 876:Drivers/STM32H7xx_HAL_Driver/Src/stm32h7xx_hal_rcc.c ****           /* Disable PLL1FRACEN */
 1876              		.loc 1 876 11 discriminator 1 view .LVU581
 1877 0762 DFE7     		b	.L120
 1878              	.LVL160:
 1879              	.L122:
 1880              		.cfi_def_cfa_offset 0
 1881              		.cfi_restore 3
 1882              		.cfi_restore 4
 1883              		.cfi_restore 5
 1884              		.cfi_restore 14
 413:Drivers/STM32H7xx_HAL_Driver/Src/stm32h7xx_hal_rcc.c ****   }
 1885              		.loc 1 413 12 view .LVU582
 1886 0764 0120     		movs	r0, #1
 1887              	.LVL161:
 1888              		.loc 1 894 1 view .LVU583
 1889 0766 7047     		bx	lr
 1890              	.LVL162:
 1891              	.L160:
 1892              		.cfi_def_cfa_offset 16
ARM GAS  C:\Users\thewo\AppData\Local\Temp\ccxuDTrk.s 			page 57


 1893              		.cfi_offset 3, -16
 1894              		.cfi_offset 4, -12
 1895              		.cfi_offset 5, -8
 1896              		.cfi_offset 14, -4
 1897              	.LBB12:
 431:Drivers/STM32H7xx_HAL_Driver/Src/stm32h7xx_hal_rcc.c ****       }
 1898              		.loc 1 431 16 view .LVU584
 1899 0768 0120     		movs	r0, #1
 1900 076a 2EE5     		b	.L36
 1901              	.LVL163:
 1902              	.L126:
 431:Drivers/STM32H7xx_HAL_Driver/Src/stm32h7xx_hal_rcc.c ****       }
 1903              		.loc 1 431 16 view .LVU585
 1904              	.LBE12:
 1905              	.LBB13:
 485:Drivers/STM32H7xx_HAL_Driver/Src/stm32h7xx_hal_rcc.c ****       }
 1906              		.loc 1 485 16 view .LVU586
 1907 076c 0120     		movs	r0, #1
 1908 076e 2CE5     		b	.L36
 1909              	.LVL164:
 1910              	.L130:
 485:Drivers/STM32H7xx_HAL_Driver/Src/stm32h7xx_hal_rcc.c ****       }
 1911              		.loc 1 485 16 view .LVU587
 1912              	.LBE13:
 1913              	.LBB14:
 566:Drivers/STM32H7xx_HAL_Driver/Src/stm32h7xx_hal_rcc.c ****       }
 1914              		.loc 1 566 16 view .LVU588
 1915 0770 0120     		movs	r0, #1
 1916 0772 2AE5     		b	.L36
 1917              	.L196:
 1918              		.align	2
 1919              	.L195:
 1920 0774 00440258 		.word	1476543488
 1921 0778 00000000 		.word	.LC0
 1922 077c 0CFCFFFF 		.word	-1012
 1923              	.LVL165:
 1924              	.L140:
 566:Drivers/STM32H7xx_HAL_Driver/Src/stm32h7xx_hal_rcc.c ****       }
 1925              		.loc 1 566 16 view .LVU589
 1926              	.LBE14:
 893:Drivers/STM32H7xx_HAL_Driver/Src/stm32h7xx_hal_rcc.c **** }
 1927              		.loc 1 893 10 view .LVU590
 1928 0780 0020     		movs	r0, #0
 1929 0782 22E5     		b	.L36
 1930              	.LVL166:
 1931              	.L144:
 868:Drivers/STM32H7xx_HAL_Driver/Src/stm32h7xx_hal_rcc.c ****       }
 1932              		.loc 1 868 16 view .LVU591
 1933 0784 0120     		movs	r0, #1
 1934              	.LVL167:
 868:Drivers/STM32H7xx_HAL_Driver/Src/stm32h7xx_hal_rcc.c ****       }
 1935              		.loc 1 868 16 view .LVU592
 1936 0786 20E5     		b	.L36
 1937              	.LVL168:
 1938              	.L145:
 868:Drivers/STM32H7xx_HAL_Driver/Src/stm32h7xx_hal_rcc.c ****       }
 1939              		.loc 1 868 16 view .LVU593
ARM GAS  C:\Users\thewo\AppData\Local\Temp\ccxuDTrk.s 			page 58


 1940 0788 0120     		movs	r0, #1
 1941              	.LVL169:
 868:Drivers/STM32H7xx_HAL_Driver/Src/stm32h7xx_hal_rcc.c ****       }
 1942              		.loc 1 868 16 view .LVU594
 1943 078a 1EE5     		b	.L36
 1944              	.LVL170:
 1945              	.L146:
 868:Drivers/STM32H7xx_HAL_Driver/Src/stm32h7xx_hal_rcc.c ****       }
 1946              		.loc 1 868 16 view .LVU595
 1947 078c 0120     		movs	r0, #1
 1948              	.LVL171:
 868:Drivers/STM32H7xx_HAL_Driver/Src/stm32h7xx_hal_rcc.c ****       }
 1949              		.loc 1 868 16 view .LVU596
 1950 078e 1CE5     		b	.L36
 1951              	.LVL172:
 1952              	.L147:
 868:Drivers/STM32H7xx_HAL_Driver/Src/stm32h7xx_hal_rcc.c ****       }
 1953              		.loc 1 868 16 view .LVU597
 1954 0790 0120     		movs	r0, #1
 1955              	.LVL173:
 868:Drivers/STM32H7xx_HAL_Driver/Src/stm32h7xx_hal_rcc.c ****       }
 1956              		.loc 1 868 16 view .LVU598
 1957 0792 1AE5     		b	.L36
 1958              	.LVL174:
 1959              	.L148:
 868:Drivers/STM32H7xx_HAL_Driver/Src/stm32h7xx_hal_rcc.c ****       }
 1960              		.loc 1 868 16 view .LVU599
 1961 0794 0120     		movs	r0, #1
 1962              	.LVL175:
 868:Drivers/STM32H7xx_HAL_Driver/Src/stm32h7xx_hal_rcc.c ****       }
 1963              		.loc 1 868 16 view .LVU600
 1964 0796 18E5     		b	.L36
 1965              	.LVL176:
 1966              	.L149:
 868:Drivers/STM32H7xx_HAL_Driver/Src/stm32h7xx_hal_rcc.c ****       }
 1967              		.loc 1 868 16 view .LVU601
 1968 0798 0120     		movs	r0, #1
 1969              	.LVL177:
 868:Drivers/STM32H7xx_HAL_Driver/Src/stm32h7xx_hal_rcc.c ****       }
 1970              		.loc 1 868 16 view .LVU602
 1971 079a 16E5     		b	.L36
 1972              	.L150:
 1973 079c 0120     		movs	r0, #1
 1974 079e 14E5     		b	.L36
 1975              	.LVL178:
 1976              	.L151:
 893:Drivers/STM32H7xx_HAL_Driver/Src/stm32h7xx_hal_rcc.c **** }
 1977              		.loc 1 893 10 view .LVU603
 1978 07a0 0020     		movs	r0, #0
 1979 07a2 12E5     		b	.L36
 1980              		.cfi_endproc
 1981              	.LFE351:
 1983              		.section	.text.HAL_RCC_MCOConfig,"ax",%progbits
 1984              		.align	1
 1985              		.global	HAL_RCC_MCOConfig
 1986              		.syntax unified
 1987              		.thumb
ARM GAS  C:\Users\thewo\AppData\Local\Temp\ccxuDTrk.s 			page 59


 1988              		.thumb_func
 1990              	HAL_RCC_MCOConfig:
 1991              	.LVL179:
 1992              	.LFB353:
 895:Drivers/STM32H7xx_HAL_Driver/Src/stm32h7xx_hal_rcc.c **** 
 896:Drivers/STM32H7xx_HAL_Driver/Src/stm32h7xx_hal_rcc.c **** /**
 897:Drivers/STM32H7xx_HAL_Driver/Src/stm32h7xx_hal_rcc.c ****   * @brief  Initializes the CPU, AHB and APB buses clocks according to the specified
 898:Drivers/STM32H7xx_HAL_Driver/Src/stm32h7xx_hal_rcc.c ****   *         parameters in the RCC_ClkInitStruct.
 899:Drivers/STM32H7xx_HAL_Driver/Src/stm32h7xx_hal_rcc.c ****   * @param  RCC_ClkInitStruct: pointer to an RCC_OscInitTypeDef structure that
 900:Drivers/STM32H7xx_HAL_Driver/Src/stm32h7xx_hal_rcc.c ****   *         contains the configuration information for the RCC peripheral.
 901:Drivers/STM32H7xx_HAL_Driver/Src/stm32h7xx_hal_rcc.c ****   * @param  FLatency: FLASH Latency, this parameter depend on device selected
 902:Drivers/STM32H7xx_HAL_Driver/Src/stm32h7xx_hal_rcc.c ****   *
 903:Drivers/STM32H7xx_HAL_Driver/Src/stm32h7xx_hal_rcc.c ****   * @note   The SystemCoreClock CMSIS variable is used to store System Core Clock Frequency
 904:Drivers/STM32H7xx_HAL_Driver/Src/stm32h7xx_hal_rcc.c ****   *         and updated by HAL_InitTick() function called within this function
 905:Drivers/STM32H7xx_HAL_Driver/Src/stm32h7xx_hal_rcc.c ****   *
 906:Drivers/STM32H7xx_HAL_Driver/Src/stm32h7xx_hal_rcc.c ****   * @note   The HSI is used (enabled by hardware) as system clock source after
 907:Drivers/STM32H7xx_HAL_Driver/Src/stm32h7xx_hal_rcc.c ****   *         start-up from Reset, wake-up from STOP and STANDBY mode, or in case
 908:Drivers/STM32H7xx_HAL_Driver/Src/stm32h7xx_hal_rcc.c ****   *         of failure of the HSE used directly or indirectly as system clock
 909:Drivers/STM32H7xx_HAL_Driver/Src/stm32h7xx_hal_rcc.c ****   *         (if the Clock Security System CSS is enabled).
 910:Drivers/STM32H7xx_HAL_Driver/Src/stm32h7xx_hal_rcc.c ****   *
 911:Drivers/STM32H7xx_HAL_Driver/Src/stm32h7xx_hal_rcc.c ****   * @note   A switch from one clock source to another occurs only if the target
 912:Drivers/STM32H7xx_HAL_Driver/Src/stm32h7xx_hal_rcc.c ****   *         clock source is ready (clock stable after start-up delay or PLL locked).
 913:Drivers/STM32H7xx_HAL_Driver/Src/stm32h7xx_hal_rcc.c ****   *         If a clock source which is not yet ready is selected, the switch will
 914:Drivers/STM32H7xx_HAL_Driver/Src/stm32h7xx_hal_rcc.c ****   *         occur when the clock source will be ready.
 915:Drivers/STM32H7xx_HAL_Driver/Src/stm32h7xx_hal_rcc.c ****   *         You can use HAL_RCC_GetClockConfig() function to know which clock is
 916:Drivers/STM32H7xx_HAL_Driver/Src/stm32h7xx_hal_rcc.c ****   *         currently used as system clock source.
 917:Drivers/STM32H7xx_HAL_Driver/Src/stm32h7xx_hal_rcc.c ****   * @note   Depending on the device voltage range, the software has to set correctly
 918:Drivers/STM32H7xx_HAL_Driver/Src/stm32h7xx_hal_rcc.c ****   *         D1CPRE[3:0] bits to ensure that  Domain1 core clock not exceed the maximum allowed freq
 919:Drivers/STM32H7xx_HAL_Driver/Src/stm32h7xx_hal_rcc.c ****   *         (for more details refer to section above "Initialization/de-initialization functions")
 920:Drivers/STM32H7xx_HAL_Driver/Src/stm32h7xx_hal_rcc.c ****   * @retval None
 921:Drivers/STM32H7xx_HAL_Driver/Src/stm32h7xx_hal_rcc.c ****   */
 922:Drivers/STM32H7xx_HAL_Driver/Src/stm32h7xx_hal_rcc.c **** HAL_StatusTypeDef HAL_RCC_ClockConfig(const RCC_ClkInitTypeDef  *RCC_ClkInitStruct, uint32_t FLaten
 923:Drivers/STM32H7xx_HAL_Driver/Src/stm32h7xx_hal_rcc.c **** {
 924:Drivers/STM32H7xx_HAL_Driver/Src/stm32h7xx_hal_rcc.c ****   HAL_StatusTypeDef halstatus;
 925:Drivers/STM32H7xx_HAL_Driver/Src/stm32h7xx_hal_rcc.c ****   uint32_t tickstart;
 926:Drivers/STM32H7xx_HAL_Driver/Src/stm32h7xx_hal_rcc.c ****   uint32_t common_system_clock;
 927:Drivers/STM32H7xx_HAL_Driver/Src/stm32h7xx_hal_rcc.c **** 
 928:Drivers/STM32H7xx_HAL_Driver/Src/stm32h7xx_hal_rcc.c ****   /* Check Null pointer */
 929:Drivers/STM32H7xx_HAL_Driver/Src/stm32h7xx_hal_rcc.c ****   if (RCC_ClkInitStruct == NULL)
 930:Drivers/STM32H7xx_HAL_Driver/Src/stm32h7xx_hal_rcc.c ****   {
 931:Drivers/STM32H7xx_HAL_Driver/Src/stm32h7xx_hal_rcc.c ****     return HAL_ERROR;
 932:Drivers/STM32H7xx_HAL_Driver/Src/stm32h7xx_hal_rcc.c ****   }
 933:Drivers/STM32H7xx_HAL_Driver/Src/stm32h7xx_hal_rcc.c **** 
 934:Drivers/STM32H7xx_HAL_Driver/Src/stm32h7xx_hal_rcc.c ****   /* Check the parameters */
 935:Drivers/STM32H7xx_HAL_Driver/Src/stm32h7xx_hal_rcc.c ****   assert_param(IS_RCC_CLOCKTYPE(RCC_ClkInitStruct->ClockType));
 936:Drivers/STM32H7xx_HAL_Driver/Src/stm32h7xx_hal_rcc.c ****   assert_param(IS_FLASH_LATENCY(FLatency));
 937:Drivers/STM32H7xx_HAL_Driver/Src/stm32h7xx_hal_rcc.c **** 
 938:Drivers/STM32H7xx_HAL_Driver/Src/stm32h7xx_hal_rcc.c ****   /* To correctly read data from FLASH memory, the number of wait states (LATENCY)
 939:Drivers/STM32H7xx_HAL_Driver/Src/stm32h7xx_hal_rcc.c ****     must be correctly programmed according to the frequency of the CPU clock
 940:Drivers/STM32H7xx_HAL_Driver/Src/stm32h7xx_hal_rcc.c ****     (HCLK) and the supply voltage of the device. */
 941:Drivers/STM32H7xx_HAL_Driver/Src/stm32h7xx_hal_rcc.c **** 
 942:Drivers/STM32H7xx_HAL_Driver/Src/stm32h7xx_hal_rcc.c ****   /* Increasing the CPU frequency */
 943:Drivers/STM32H7xx_HAL_Driver/Src/stm32h7xx_hal_rcc.c ****   if (FLatency > __HAL_FLASH_GET_LATENCY())
 944:Drivers/STM32H7xx_HAL_Driver/Src/stm32h7xx_hal_rcc.c ****   {
 945:Drivers/STM32H7xx_HAL_Driver/Src/stm32h7xx_hal_rcc.c ****     /* Program the new number of wait states to the LATENCY bits in the FLASH_ACR register */
 946:Drivers/STM32H7xx_HAL_Driver/Src/stm32h7xx_hal_rcc.c ****     __HAL_FLASH_SET_LATENCY(FLatency);
 947:Drivers/STM32H7xx_HAL_Driver/Src/stm32h7xx_hal_rcc.c **** 
ARM GAS  C:\Users\thewo\AppData\Local\Temp\ccxuDTrk.s 			page 60


 948:Drivers/STM32H7xx_HAL_Driver/Src/stm32h7xx_hal_rcc.c ****     /* Check that the new number of wait states is taken into account to access the Flash
 949:Drivers/STM32H7xx_HAL_Driver/Src/stm32h7xx_hal_rcc.c ****     memory by reading the FLASH_ACR register */
 950:Drivers/STM32H7xx_HAL_Driver/Src/stm32h7xx_hal_rcc.c ****     if (__HAL_FLASH_GET_LATENCY() != FLatency)
 951:Drivers/STM32H7xx_HAL_Driver/Src/stm32h7xx_hal_rcc.c ****     {
 952:Drivers/STM32H7xx_HAL_Driver/Src/stm32h7xx_hal_rcc.c ****       return HAL_ERROR;
 953:Drivers/STM32H7xx_HAL_Driver/Src/stm32h7xx_hal_rcc.c ****     }
 954:Drivers/STM32H7xx_HAL_Driver/Src/stm32h7xx_hal_rcc.c **** 
 955:Drivers/STM32H7xx_HAL_Driver/Src/stm32h7xx_hal_rcc.c ****   }
 956:Drivers/STM32H7xx_HAL_Driver/Src/stm32h7xx_hal_rcc.c **** 
 957:Drivers/STM32H7xx_HAL_Driver/Src/stm32h7xx_hal_rcc.c ****   /* Increasing the BUS frequency divider */
 958:Drivers/STM32H7xx_HAL_Driver/Src/stm32h7xx_hal_rcc.c ****   /*-------------------------- D1PCLK1/CDPCLK1 Configuration ---------------------------*/
 959:Drivers/STM32H7xx_HAL_Driver/Src/stm32h7xx_hal_rcc.c ****   if (((RCC_ClkInitStruct->ClockType) & RCC_CLOCKTYPE_D1PCLK1) == RCC_CLOCKTYPE_D1PCLK1)
 960:Drivers/STM32H7xx_HAL_Driver/Src/stm32h7xx_hal_rcc.c ****   {
 961:Drivers/STM32H7xx_HAL_Driver/Src/stm32h7xx_hal_rcc.c **** #if defined (RCC_D1CFGR_D1PPRE)
 962:Drivers/STM32H7xx_HAL_Driver/Src/stm32h7xx_hal_rcc.c ****     if ((RCC_ClkInitStruct->APB3CLKDivider) > (RCC->D1CFGR & RCC_D1CFGR_D1PPRE))
 963:Drivers/STM32H7xx_HAL_Driver/Src/stm32h7xx_hal_rcc.c ****     {
 964:Drivers/STM32H7xx_HAL_Driver/Src/stm32h7xx_hal_rcc.c ****       assert_param(IS_RCC_D1PCLK1(RCC_ClkInitStruct->APB3CLKDivider));
 965:Drivers/STM32H7xx_HAL_Driver/Src/stm32h7xx_hal_rcc.c ****       MODIFY_REG(RCC->D1CFGR, RCC_D1CFGR_D1PPRE, RCC_ClkInitStruct->APB3CLKDivider);
 966:Drivers/STM32H7xx_HAL_Driver/Src/stm32h7xx_hal_rcc.c ****     }
 967:Drivers/STM32H7xx_HAL_Driver/Src/stm32h7xx_hal_rcc.c **** #else
 968:Drivers/STM32H7xx_HAL_Driver/Src/stm32h7xx_hal_rcc.c ****     if ((RCC_ClkInitStruct->APB3CLKDivider) > (RCC->CDCFGR1 & RCC_CDCFGR1_CDPPRE))
 969:Drivers/STM32H7xx_HAL_Driver/Src/stm32h7xx_hal_rcc.c ****     {
 970:Drivers/STM32H7xx_HAL_Driver/Src/stm32h7xx_hal_rcc.c ****       assert_param(IS_RCC_CDPCLK1(RCC_ClkInitStruct->APB3CLKDivider));
 971:Drivers/STM32H7xx_HAL_Driver/Src/stm32h7xx_hal_rcc.c ****       MODIFY_REG(RCC->CDCFGR1, RCC_CDCFGR1_CDPPRE, RCC_ClkInitStruct->APB3CLKDivider);
 972:Drivers/STM32H7xx_HAL_Driver/Src/stm32h7xx_hal_rcc.c ****     }
 973:Drivers/STM32H7xx_HAL_Driver/Src/stm32h7xx_hal_rcc.c **** #endif
 974:Drivers/STM32H7xx_HAL_Driver/Src/stm32h7xx_hal_rcc.c ****   }
 975:Drivers/STM32H7xx_HAL_Driver/Src/stm32h7xx_hal_rcc.c **** 
 976:Drivers/STM32H7xx_HAL_Driver/Src/stm32h7xx_hal_rcc.c ****   /*-------------------------- PCLK1 Configuration ---------------------------*/
 977:Drivers/STM32H7xx_HAL_Driver/Src/stm32h7xx_hal_rcc.c ****   if (((RCC_ClkInitStruct->ClockType) & RCC_CLOCKTYPE_PCLK1) == RCC_CLOCKTYPE_PCLK1)
 978:Drivers/STM32H7xx_HAL_Driver/Src/stm32h7xx_hal_rcc.c ****   {
 979:Drivers/STM32H7xx_HAL_Driver/Src/stm32h7xx_hal_rcc.c **** #if defined (RCC_D2CFGR_D2PPRE1)
 980:Drivers/STM32H7xx_HAL_Driver/Src/stm32h7xx_hal_rcc.c ****     if ((RCC_ClkInitStruct->APB1CLKDivider) > (RCC->D2CFGR & RCC_D2CFGR_D2PPRE1))
 981:Drivers/STM32H7xx_HAL_Driver/Src/stm32h7xx_hal_rcc.c ****     {
 982:Drivers/STM32H7xx_HAL_Driver/Src/stm32h7xx_hal_rcc.c ****       assert_param(IS_RCC_PCLK1(RCC_ClkInitStruct->APB1CLKDivider));
 983:Drivers/STM32H7xx_HAL_Driver/Src/stm32h7xx_hal_rcc.c ****       MODIFY_REG(RCC->D2CFGR, RCC_D2CFGR_D2PPRE1, (RCC_ClkInitStruct->APB1CLKDivider));
 984:Drivers/STM32H7xx_HAL_Driver/Src/stm32h7xx_hal_rcc.c ****     }
 985:Drivers/STM32H7xx_HAL_Driver/Src/stm32h7xx_hal_rcc.c **** #else
 986:Drivers/STM32H7xx_HAL_Driver/Src/stm32h7xx_hal_rcc.c ****     if ((RCC_ClkInitStruct->APB1CLKDivider) > (RCC->CDCFGR2 & RCC_CDCFGR2_CDPPRE1))
 987:Drivers/STM32H7xx_HAL_Driver/Src/stm32h7xx_hal_rcc.c ****     {
 988:Drivers/STM32H7xx_HAL_Driver/Src/stm32h7xx_hal_rcc.c ****       assert_param(IS_RCC_PCLK1(RCC_ClkInitStruct->APB1CLKDivider));
 989:Drivers/STM32H7xx_HAL_Driver/Src/stm32h7xx_hal_rcc.c ****       MODIFY_REG(RCC->CDCFGR2, RCC_CDCFGR2_CDPPRE1, (RCC_ClkInitStruct->APB1CLKDivider));
 990:Drivers/STM32H7xx_HAL_Driver/Src/stm32h7xx_hal_rcc.c ****     }
 991:Drivers/STM32H7xx_HAL_Driver/Src/stm32h7xx_hal_rcc.c **** #endif
 992:Drivers/STM32H7xx_HAL_Driver/Src/stm32h7xx_hal_rcc.c ****   }
 993:Drivers/STM32H7xx_HAL_Driver/Src/stm32h7xx_hal_rcc.c ****   /*-------------------------- PCLK2 Configuration ---------------------------*/
 994:Drivers/STM32H7xx_HAL_Driver/Src/stm32h7xx_hal_rcc.c ****   if (((RCC_ClkInitStruct->ClockType) & RCC_CLOCKTYPE_PCLK2) == RCC_CLOCKTYPE_PCLK2)
 995:Drivers/STM32H7xx_HAL_Driver/Src/stm32h7xx_hal_rcc.c ****   {
 996:Drivers/STM32H7xx_HAL_Driver/Src/stm32h7xx_hal_rcc.c **** #if defined(RCC_D2CFGR_D2PPRE2)
 997:Drivers/STM32H7xx_HAL_Driver/Src/stm32h7xx_hal_rcc.c ****     if ((RCC_ClkInitStruct->APB2CLKDivider) > (RCC->D2CFGR & RCC_D2CFGR_D2PPRE2))
 998:Drivers/STM32H7xx_HAL_Driver/Src/stm32h7xx_hal_rcc.c ****     {
 999:Drivers/STM32H7xx_HAL_Driver/Src/stm32h7xx_hal_rcc.c ****       assert_param(IS_RCC_PCLK2(RCC_ClkInitStruct->APB2CLKDivider));
1000:Drivers/STM32H7xx_HAL_Driver/Src/stm32h7xx_hal_rcc.c ****       MODIFY_REG(RCC->D2CFGR, RCC_D2CFGR_D2PPRE2, (RCC_ClkInitStruct->APB2CLKDivider));
1001:Drivers/STM32H7xx_HAL_Driver/Src/stm32h7xx_hal_rcc.c ****     }
1002:Drivers/STM32H7xx_HAL_Driver/Src/stm32h7xx_hal_rcc.c **** #else
1003:Drivers/STM32H7xx_HAL_Driver/Src/stm32h7xx_hal_rcc.c ****     if ((RCC_ClkInitStruct->APB2CLKDivider) > (RCC->CDCFGR2 & RCC_CDCFGR2_CDPPRE2))
1004:Drivers/STM32H7xx_HAL_Driver/Src/stm32h7xx_hal_rcc.c ****     {
ARM GAS  C:\Users\thewo\AppData\Local\Temp\ccxuDTrk.s 			page 61


1005:Drivers/STM32H7xx_HAL_Driver/Src/stm32h7xx_hal_rcc.c ****       assert_param(IS_RCC_PCLK2(RCC_ClkInitStruct->APB2CLKDivider));
1006:Drivers/STM32H7xx_HAL_Driver/Src/stm32h7xx_hal_rcc.c ****       MODIFY_REG(RCC->CDCFGR2, RCC_CDCFGR2_CDPPRE2, (RCC_ClkInitStruct->APB2CLKDivider));
1007:Drivers/STM32H7xx_HAL_Driver/Src/stm32h7xx_hal_rcc.c ****     }
1008:Drivers/STM32H7xx_HAL_Driver/Src/stm32h7xx_hal_rcc.c **** #endif
1009:Drivers/STM32H7xx_HAL_Driver/Src/stm32h7xx_hal_rcc.c ****   }
1010:Drivers/STM32H7xx_HAL_Driver/Src/stm32h7xx_hal_rcc.c **** 
1011:Drivers/STM32H7xx_HAL_Driver/Src/stm32h7xx_hal_rcc.c ****   /*-------------------------- D3PCLK1 Configuration ---------------------------*/
1012:Drivers/STM32H7xx_HAL_Driver/Src/stm32h7xx_hal_rcc.c ****   if (((RCC_ClkInitStruct->ClockType) & RCC_CLOCKTYPE_D3PCLK1) == RCC_CLOCKTYPE_D3PCLK1)
1013:Drivers/STM32H7xx_HAL_Driver/Src/stm32h7xx_hal_rcc.c ****   {
1014:Drivers/STM32H7xx_HAL_Driver/Src/stm32h7xx_hal_rcc.c **** #if defined(RCC_D3CFGR_D3PPRE)
1015:Drivers/STM32H7xx_HAL_Driver/Src/stm32h7xx_hal_rcc.c ****     if ((RCC_ClkInitStruct->APB4CLKDivider) > (RCC->D3CFGR & RCC_D3CFGR_D3PPRE))
1016:Drivers/STM32H7xx_HAL_Driver/Src/stm32h7xx_hal_rcc.c ****     {
1017:Drivers/STM32H7xx_HAL_Driver/Src/stm32h7xx_hal_rcc.c ****       assert_param(IS_RCC_D3PCLK1(RCC_ClkInitStruct->APB4CLKDivider));
1018:Drivers/STM32H7xx_HAL_Driver/Src/stm32h7xx_hal_rcc.c ****       MODIFY_REG(RCC->D3CFGR, RCC_D3CFGR_D3PPRE, (RCC_ClkInitStruct->APB4CLKDivider));
1019:Drivers/STM32H7xx_HAL_Driver/Src/stm32h7xx_hal_rcc.c ****     }
1020:Drivers/STM32H7xx_HAL_Driver/Src/stm32h7xx_hal_rcc.c **** #else
1021:Drivers/STM32H7xx_HAL_Driver/Src/stm32h7xx_hal_rcc.c ****     if ((RCC_ClkInitStruct->APB4CLKDivider) > (RCC->SRDCFGR & RCC_SRDCFGR_SRDPPRE))
1022:Drivers/STM32H7xx_HAL_Driver/Src/stm32h7xx_hal_rcc.c ****     {
1023:Drivers/STM32H7xx_HAL_Driver/Src/stm32h7xx_hal_rcc.c ****       assert_param(IS_RCC_D3PCLK1(RCC_ClkInitStruct->APB4CLKDivider));
1024:Drivers/STM32H7xx_HAL_Driver/Src/stm32h7xx_hal_rcc.c ****       MODIFY_REG(RCC->SRDCFGR, RCC_SRDCFGR_SRDPPRE, (RCC_ClkInitStruct->APB4CLKDivider));
1025:Drivers/STM32H7xx_HAL_Driver/Src/stm32h7xx_hal_rcc.c ****     }
1026:Drivers/STM32H7xx_HAL_Driver/Src/stm32h7xx_hal_rcc.c **** #endif
1027:Drivers/STM32H7xx_HAL_Driver/Src/stm32h7xx_hal_rcc.c ****   }
1028:Drivers/STM32H7xx_HAL_Driver/Src/stm32h7xx_hal_rcc.c **** 
1029:Drivers/STM32H7xx_HAL_Driver/Src/stm32h7xx_hal_rcc.c ****   /*-------------------------- HCLK Configuration --------------------------*/
1030:Drivers/STM32H7xx_HAL_Driver/Src/stm32h7xx_hal_rcc.c ****   if (((RCC_ClkInitStruct->ClockType) & RCC_CLOCKTYPE_HCLK) == RCC_CLOCKTYPE_HCLK)
1031:Drivers/STM32H7xx_HAL_Driver/Src/stm32h7xx_hal_rcc.c ****   {
1032:Drivers/STM32H7xx_HAL_Driver/Src/stm32h7xx_hal_rcc.c **** #if defined (RCC_D1CFGR_HPRE)
1033:Drivers/STM32H7xx_HAL_Driver/Src/stm32h7xx_hal_rcc.c ****     if ((RCC_ClkInitStruct->AHBCLKDivider) > (RCC->D1CFGR & RCC_D1CFGR_HPRE))
1034:Drivers/STM32H7xx_HAL_Driver/Src/stm32h7xx_hal_rcc.c ****     {
1035:Drivers/STM32H7xx_HAL_Driver/Src/stm32h7xx_hal_rcc.c ****       /* Set the new HCLK clock divider */
1036:Drivers/STM32H7xx_HAL_Driver/Src/stm32h7xx_hal_rcc.c ****       assert_param(IS_RCC_HCLK(RCC_ClkInitStruct->AHBCLKDivider));
1037:Drivers/STM32H7xx_HAL_Driver/Src/stm32h7xx_hal_rcc.c ****       MODIFY_REG(RCC->D1CFGR, RCC_D1CFGR_HPRE, RCC_ClkInitStruct->AHBCLKDivider);
1038:Drivers/STM32H7xx_HAL_Driver/Src/stm32h7xx_hal_rcc.c ****     }
1039:Drivers/STM32H7xx_HAL_Driver/Src/stm32h7xx_hal_rcc.c **** #else
1040:Drivers/STM32H7xx_HAL_Driver/Src/stm32h7xx_hal_rcc.c ****     if ((RCC_ClkInitStruct->AHBCLKDivider) > (RCC->CDCFGR1 & RCC_CDCFGR1_HPRE))
1041:Drivers/STM32H7xx_HAL_Driver/Src/stm32h7xx_hal_rcc.c ****     {
1042:Drivers/STM32H7xx_HAL_Driver/Src/stm32h7xx_hal_rcc.c ****       /* Set the new HCLK clock divider */
1043:Drivers/STM32H7xx_HAL_Driver/Src/stm32h7xx_hal_rcc.c ****       assert_param(IS_RCC_HCLK(RCC_ClkInitStruct->AHBCLKDivider));
1044:Drivers/STM32H7xx_HAL_Driver/Src/stm32h7xx_hal_rcc.c ****       MODIFY_REG(RCC->CDCFGR1, RCC_CDCFGR1_HPRE, RCC_ClkInitStruct->AHBCLKDivider);
1045:Drivers/STM32H7xx_HAL_Driver/Src/stm32h7xx_hal_rcc.c ****     }
1046:Drivers/STM32H7xx_HAL_Driver/Src/stm32h7xx_hal_rcc.c **** #endif
1047:Drivers/STM32H7xx_HAL_Driver/Src/stm32h7xx_hal_rcc.c ****   }
1048:Drivers/STM32H7xx_HAL_Driver/Src/stm32h7xx_hal_rcc.c **** 
1049:Drivers/STM32H7xx_HAL_Driver/Src/stm32h7xx_hal_rcc.c ****   /*------------------------- SYSCLK Configuration -------------------------*/
1050:Drivers/STM32H7xx_HAL_Driver/Src/stm32h7xx_hal_rcc.c ****   if (((RCC_ClkInitStruct->ClockType) & RCC_CLOCKTYPE_SYSCLK) == RCC_CLOCKTYPE_SYSCLK)
1051:Drivers/STM32H7xx_HAL_Driver/Src/stm32h7xx_hal_rcc.c ****   {
1052:Drivers/STM32H7xx_HAL_Driver/Src/stm32h7xx_hal_rcc.c ****     assert_param(IS_RCC_SYSCLK(RCC_ClkInitStruct->SYSCLKDivider));
1053:Drivers/STM32H7xx_HAL_Driver/Src/stm32h7xx_hal_rcc.c ****     assert_param(IS_RCC_SYSCLKSOURCE(RCC_ClkInitStruct->SYSCLKSource));
1054:Drivers/STM32H7xx_HAL_Driver/Src/stm32h7xx_hal_rcc.c **** #if defined(RCC_D1CFGR_D1CPRE)
1055:Drivers/STM32H7xx_HAL_Driver/Src/stm32h7xx_hal_rcc.c ****     MODIFY_REG(RCC->D1CFGR, RCC_D1CFGR_D1CPRE, RCC_ClkInitStruct->SYSCLKDivider);
1056:Drivers/STM32H7xx_HAL_Driver/Src/stm32h7xx_hal_rcc.c **** #else
1057:Drivers/STM32H7xx_HAL_Driver/Src/stm32h7xx_hal_rcc.c ****     MODIFY_REG(RCC->CDCFGR1, RCC_CDCFGR1_CDCPRE, RCC_ClkInitStruct->SYSCLKDivider);
1058:Drivers/STM32H7xx_HAL_Driver/Src/stm32h7xx_hal_rcc.c **** #endif
1059:Drivers/STM32H7xx_HAL_Driver/Src/stm32h7xx_hal_rcc.c ****     /* HSE is selected as System Clock Source */
1060:Drivers/STM32H7xx_HAL_Driver/Src/stm32h7xx_hal_rcc.c ****     if (RCC_ClkInitStruct->SYSCLKSource == RCC_SYSCLKSOURCE_HSE)
1061:Drivers/STM32H7xx_HAL_Driver/Src/stm32h7xx_hal_rcc.c ****     {
ARM GAS  C:\Users\thewo\AppData\Local\Temp\ccxuDTrk.s 			page 62


1062:Drivers/STM32H7xx_HAL_Driver/Src/stm32h7xx_hal_rcc.c ****       /* Check the HSE ready flag */
1063:Drivers/STM32H7xx_HAL_Driver/Src/stm32h7xx_hal_rcc.c ****       if (__HAL_RCC_GET_FLAG(RCC_FLAG_HSERDY) == 0U)
1064:Drivers/STM32H7xx_HAL_Driver/Src/stm32h7xx_hal_rcc.c ****       {
1065:Drivers/STM32H7xx_HAL_Driver/Src/stm32h7xx_hal_rcc.c ****         return HAL_ERROR;
1066:Drivers/STM32H7xx_HAL_Driver/Src/stm32h7xx_hal_rcc.c ****       }
1067:Drivers/STM32H7xx_HAL_Driver/Src/stm32h7xx_hal_rcc.c ****     }
1068:Drivers/STM32H7xx_HAL_Driver/Src/stm32h7xx_hal_rcc.c ****     /* PLL is selected as System Clock Source */
1069:Drivers/STM32H7xx_HAL_Driver/Src/stm32h7xx_hal_rcc.c ****     else if (RCC_ClkInitStruct->SYSCLKSource == RCC_SYSCLKSOURCE_PLLCLK)
1070:Drivers/STM32H7xx_HAL_Driver/Src/stm32h7xx_hal_rcc.c ****     {
1071:Drivers/STM32H7xx_HAL_Driver/Src/stm32h7xx_hal_rcc.c ****       /* Check the PLL ready flag */
1072:Drivers/STM32H7xx_HAL_Driver/Src/stm32h7xx_hal_rcc.c ****       if (__HAL_RCC_GET_FLAG(RCC_FLAG_PLLRDY) == 0U)
1073:Drivers/STM32H7xx_HAL_Driver/Src/stm32h7xx_hal_rcc.c ****       {
1074:Drivers/STM32H7xx_HAL_Driver/Src/stm32h7xx_hal_rcc.c ****         return HAL_ERROR;
1075:Drivers/STM32H7xx_HAL_Driver/Src/stm32h7xx_hal_rcc.c ****       }
1076:Drivers/STM32H7xx_HAL_Driver/Src/stm32h7xx_hal_rcc.c ****     }
1077:Drivers/STM32H7xx_HAL_Driver/Src/stm32h7xx_hal_rcc.c ****     /* CSI is selected as System Clock Source */
1078:Drivers/STM32H7xx_HAL_Driver/Src/stm32h7xx_hal_rcc.c ****     else if (RCC_ClkInitStruct->SYSCLKSource == RCC_SYSCLKSOURCE_CSI)
1079:Drivers/STM32H7xx_HAL_Driver/Src/stm32h7xx_hal_rcc.c ****     {
1080:Drivers/STM32H7xx_HAL_Driver/Src/stm32h7xx_hal_rcc.c ****       /* Check the PLL ready flag */
1081:Drivers/STM32H7xx_HAL_Driver/Src/stm32h7xx_hal_rcc.c ****       if (__HAL_RCC_GET_FLAG(RCC_FLAG_CSIRDY) == 0U)
1082:Drivers/STM32H7xx_HAL_Driver/Src/stm32h7xx_hal_rcc.c ****       {
1083:Drivers/STM32H7xx_HAL_Driver/Src/stm32h7xx_hal_rcc.c ****         return HAL_ERROR;
1084:Drivers/STM32H7xx_HAL_Driver/Src/stm32h7xx_hal_rcc.c ****       }
1085:Drivers/STM32H7xx_HAL_Driver/Src/stm32h7xx_hal_rcc.c ****     }
1086:Drivers/STM32H7xx_HAL_Driver/Src/stm32h7xx_hal_rcc.c ****     /* HSI is selected as System Clock Source */
1087:Drivers/STM32H7xx_HAL_Driver/Src/stm32h7xx_hal_rcc.c ****     else
1088:Drivers/STM32H7xx_HAL_Driver/Src/stm32h7xx_hal_rcc.c ****     {
1089:Drivers/STM32H7xx_HAL_Driver/Src/stm32h7xx_hal_rcc.c ****       /* Check the HSI ready flag */
1090:Drivers/STM32H7xx_HAL_Driver/Src/stm32h7xx_hal_rcc.c ****       if (__HAL_RCC_GET_FLAG(RCC_FLAG_HSIRDY) == 0U)
1091:Drivers/STM32H7xx_HAL_Driver/Src/stm32h7xx_hal_rcc.c ****       {
1092:Drivers/STM32H7xx_HAL_Driver/Src/stm32h7xx_hal_rcc.c ****         return HAL_ERROR;
1093:Drivers/STM32H7xx_HAL_Driver/Src/stm32h7xx_hal_rcc.c ****       }
1094:Drivers/STM32H7xx_HAL_Driver/Src/stm32h7xx_hal_rcc.c ****     }
1095:Drivers/STM32H7xx_HAL_Driver/Src/stm32h7xx_hal_rcc.c ****     MODIFY_REG(RCC->CFGR, RCC_CFGR_SW, RCC_ClkInitStruct->SYSCLKSource);
1096:Drivers/STM32H7xx_HAL_Driver/Src/stm32h7xx_hal_rcc.c **** 
1097:Drivers/STM32H7xx_HAL_Driver/Src/stm32h7xx_hal_rcc.c ****     /* Get Start Tick*/
1098:Drivers/STM32H7xx_HAL_Driver/Src/stm32h7xx_hal_rcc.c ****     tickstart = HAL_GetTick();
1099:Drivers/STM32H7xx_HAL_Driver/Src/stm32h7xx_hal_rcc.c **** 
1100:Drivers/STM32H7xx_HAL_Driver/Src/stm32h7xx_hal_rcc.c ****     while (__HAL_RCC_GET_SYSCLK_SOURCE() != (RCC_ClkInitStruct->SYSCLKSource << RCC_CFGR_SWS_Pos))
1101:Drivers/STM32H7xx_HAL_Driver/Src/stm32h7xx_hal_rcc.c ****     {
1102:Drivers/STM32H7xx_HAL_Driver/Src/stm32h7xx_hal_rcc.c ****       if ((HAL_GetTick() - tickstart) > CLOCKSWITCH_TIMEOUT_VALUE)
1103:Drivers/STM32H7xx_HAL_Driver/Src/stm32h7xx_hal_rcc.c ****       {
1104:Drivers/STM32H7xx_HAL_Driver/Src/stm32h7xx_hal_rcc.c ****         return HAL_TIMEOUT;
1105:Drivers/STM32H7xx_HAL_Driver/Src/stm32h7xx_hal_rcc.c ****       }
1106:Drivers/STM32H7xx_HAL_Driver/Src/stm32h7xx_hal_rcc.c ****     }
1107:Drivers/STM32H7xx_HAL_Driver/Src/stm32h7xx_hal_rcc.c **** 
1108:Drivers/STM32H7xx_HAL_Driver/Src/stm32h7xx_hal_rcc.c ****   }
1109:Drivers/STM32H7xx_HAL_Driver/Src/stm32h7xx_hal_rcc.c **** 
1110:Drivers/STM32H7xx_HAL_Driver/Src/stm32h7xx_hal_rcc.c ****   /* Decreasing the BUS frequency divider */
1111:Drivers/STM32H7xx_HAL_Driver/Src/stm32h7xx_hal_rcc.c ****   /*-------------------------- HCLK Configuration --------------------------*/
1112:Drivers/STM32H7xx_HAL_Driver/Src/stm32h7xx_hal_rcc.c ****   if (((RCC_ClkInitStruct->ClockType) & RCC_CLOCKTYPE_HCLK) == RCC_CLOCKTYPE_HCLK)
1113:Drivers/STM32H7xx_HAL_Driver/Src/stm32h7xx_hal_rcc.c ****   {
1114:Drivers/STM32H7xx_HAL_Driver/Src/stm32h7xx_hal_rcc.c **** #if defined(RCC_D1CFGR_HPRE)
1115:Drivers/STM32H7xx_HAL_Driver/Src/stm32h7xx_hal_rcc.c ****     if ((RCC_ClkInitStruct->AHBCLKDivider) < (RCC->D1CFGR & RCC_D1CFGR_HPRE))
1116:Drivers/STM32H7xx_HAL_Driver/Src/stm32h7xx_hal_rcc.c ****     {
1117:Drivers/STM32H7xx_HAL_Driver/Src/stm32h7xx_hal_rcc.c ****       /* Set the new HCLK clock divider */
1118:Drivers/STM32H7xx_HAL_Driver/Src/stm32h7xx_hal_rcc.c ****       assert_param(IS_RCC_HCLK(RCC_ClkInitStruct->AHBCLKDivider));
ARM GAS  C:\Users\thewo\AppData\Local\Temp\ccxuDTrk.s 			page 63


1119:Drivers/STM32H7xx_HAL_Driver/Src/stm32h7xx_hal_rcc.c ****       MODIFY_REG(RCC->D1CFGR, RCC_D1CFGR_HPRE, RCC_ClkInitStruct->AHBCLKDivider);
1120:Drivers/STM32H7xx_HAL_Driver/Src/stm32h7xx_hal_rcc.c ****     }
1121:Drivers/STM32H7xx_HAL_Driver/Src/stm32h7xx_hal_rcc.c **** #else
1122:Drivers/STM32H7xx_HAL_Driver/Src/stm32h7xx_hal_rcc.c ****     if ((RCC_ClkInitStruct->AHBCLKDivider) < (RCC->CDCFGR1 & RCC_CDCFGR1_HPRE))
1123:Drivers/STM32H7xx_HAL_Driver/Src/stm32h7xx_hal_rcc.c ****     {
1124:Drivers/STM32H7xx_HAL_Driver/Src/stm32h7xx_hal_rcc.c ****       /* Set the new HCLK clock divider */
1125:Drivers/STM32H7xx_HAL_Driver/Src/stm32h7xx_hal_rcc.c ****       assert_param(IS_RCC_HCLK(RCC_ClkInitStruct->AHBCLKDivider));
1126:Drivers/STM32H7xx_HAL_Driver/Src/stm32h7xx_hal_rcc.c ****       MODIFY_REG(RCC->CDCFGR1, RCC_CDCFGR1_HPRE, RCC_ClkInitStruct->AHBCLKDivider);
1127:Drivers/STM32H7xx_HAL_Driver/Src/stm32h7xx_hal_rcc.c ****     }
1128:Drivers/STM32H7xx_HAL_Driver/Src/stm32h7xx_hal_rcc.c **** #endif
1129:Drivers/STM32H7xx_HAL_Driver/Src/stm32h7xx_hal_rcc.c ****   }
1130:Drivers/STM32H7xx_HAL_Driver/Src/stm32h7xx_hal_rcc.c **** 
1131:Drivers/STM32H7xx_HAL_Driver/Src/stm32h7xx_hal_rcc.c ****   /* Decreasing the number of wait states because of lower CPU frequency */
1132:Drivers/STM32H7xx_HAL_Driver/Src/stm32h7xx_hal_rcc.c ****   if (FLatency < __HAL_FLASH_GET_LATENCY())
1133:Drivers/STM32H7xx_HAL_Driver/Src/stm32h7xx_hal_rcc.c ****   {
1134:Drivers/STM32H7xx_HAL_Driver/Src/stm32h7xx_hal_rcc.c ****     /* Program the new number of wait states to the LATENCY bits in the FLASH_ACR register */
1135:Drivers/STM32H7xx_HAL_Driver/Src/stm32h7xx_hal_rcc.c ****     __HAL_FLASH_SET_LATENCY(FLatency);
1136:Drivers/STM32H7xx_HAL_Driver/Src/stm32h7xx_hal_rcc.c **** 
1137:Drivers/STM32H7xx_HAL_Driver/Src/stm32h7xx_hal_rcc.c ****     /* Check that the new number of wait states is taken into account to access the Flash
1138:Drivers/STM32H7xx_HAL_Driver/Src/stm32h7xx_hal_rcc.c ****     memory by reading the FLASH_ACR register */
1139:Drivers/STM32H7xx_HAL_Driver/Src/stm32h7xx_hal_rcc.c ****     if (__HAL_FLASH_GET_LATENCY() != FLatency)
1140:Drivers/STM32H7xx_HAL_Driver/Src/stm32h7xx_hal_rcc.c ****     {
1141:Drivers/STM32H7xx_HAL_Driver/Src/stm32h7xx_hal_rcc.c ****       return HAL_ERROR;
1142:Drivers/STM32H7xx_HAL_Driver/Src/stm32h7xx_hal_rcc.c ****     }
1143:Drivers/STM32H7xx_HAL_Driver/Src/stm32h7xx_hal_rcc.c ****   }
1144:Drivers/STM32H7xx_HAL_Driver/Src/stm32h7xx_hal_rcc.c **** 
1145:Drivers/STM32H7xx_HAL_Driver/Src/stm32h7xx_hal_rcc.c ****   /*-------------------------- D1PCLK1/CDPCLK Configuration ---------------------------*/
1146:Drivers/STM32H7xx_HAL_Driver/Src/stm32h7xx_hal_rcc.c ****   if (((RCC_ClkInitStruct->ClockType) & RCC_CLOCKTYPE_D1PCLK1) == RCC_CLOCKTYPE_D1PCLK1)
1147:Drivers/STM32H7xx_HAL_Driver/Src/stm32h7xx_hal_rcc.c ****   {
1148:Drivers/STM32H7xx_HAL_Driver/Src/stm32h7xx_hal_rcc.c **** #if defined(RCC_D1CFGR_D1PPRE)
1149:Drivers/STM32H7xx_HAL_Driver/Src/stm32h7xx_hal_rcc.c ****     if ((RCC_ClkInitStruct->APB3CLKDivider) < (RCC->D1CFGR & RCC_D1CFGR_D1PPRE))
1150:Drivers/STM32H7xx_HAL_Driver/Src/stm32h7xx_hal_rcc.c ****     {
1151:Drivers/STM32H7xx_HAL_Driver/Src/stm32h7xx_hal_rcc.c ****       assert_param(IS_RCC_D1PCLK1(RCC_ClkInitStruct->APB3CLKDivider));
1152:Drivers/STM32H7xx_HAL_Driver/Src/stm32h7xx_hal_rcc.c ****       MODIFY_REG(RCC->D1CFGR, RCC_D1CFGR_D1PPRE, RCC_ClkInitStruct->APB3CLKDivider);
1153:Drivers/STM32H7xx_HAL_Driver/Src/stm32h7xx_hal_rcc.c ****     }
1154:Drivers/STM32H7xx_HAL_Driver/Src/stm32h7xx_hal_rcc.c **** #else
1155:Drivers/STM32H7xx_HAL_Driver/Src/stm32h7xx_hal_rcc.c ****     if ((RCC_ClkInitStruct->APB3CLKDivider) < (RCC->CDCFGR1 & RCC_CDCFGR1_CDPPRE))
1156:Drivers/STM32H7xx_HAL_Driver/Src/stm32h7xx_hal_rcc.c ****     {
1157:Drivers/STM32H7xx_HAL_Driver/Src/stm32h7xx_hal_rcc.c ****       assert_param(IS_RCC_CDPCLK1(RCC_ClkInitStruct->APB3CLKDivider));
1158:Drivers/STM32H7xx_HAL_Driver/Src/stm32h7xx_hal_rcc.c ****       MODIFY_REG(RCC->CDCFGR1, RCC_CDCFGR1_CDPPRE, RCC_ClkInitStruct->APB3CLKDivider);
1159:Drivers/STM32H7xx_HAL_Driver/Src/stm32h7xx_hal_rcc.c ****     }
1160:Drivers/STM32H7xx_HAL_Driver/Src/stm32h7xx_hal_rcc.c **** #endif
1161:Drivers/STM32H7xx_HAL_Driver/Src/stm32h7xx_hal_rcc.c ****   }
1162:Drivers/STM32H7xx_HAL_Driver/Src/stm32h7xx_hal_rcc.c **** 
1163:Drivers/STM32H7xx_HAL_Driver/Src/stm32h7xx_hal_rcc.c ****   /*-------------------------- PCLK1 Configuration ---------------------------*/
1164:Drivers/STM32H7xx_HAL_Driver/Src/stm32h7xx_hal_rcc.c ****   if (((RCC_ClkInitStruct->ClockType) & RCC_CLOCKTYPE_PCLK1) == RCC_CLOCKTYPE_PCLK1)
1165:Drivers/STM32H7xx_HAL_Driver/Src/stm32h7xx_hal_rcc.c ****   {
1166:Drivers/STM32H7xx_HAL_Driver/Src/stm32h7xx_hal_rcc.c **** #if defined(RCC_D2CFGR_D2PPRE1)
1167:Drivers/STM32H7xx_HAL_Driver/Src/stm32h7xx_hal_rcc.c ****     if ((RCC_ClkInitStruct->APB1CLKDivider) < (RCC->D2CFGR & RCC_D2CFGR_D2PPRE1))
1168:Drivers/STM32H7xx_HAL_Driver/Src/stm32h7xx_hal_rcc.c ****     {
1169:Drivers/STM32H7xx_HAL_Driver/Src/stm32h7xx_hal_rcc.c ****       assert_param(IS_RCC_PCLK1(RCC_ClkInitStruct->APB1CLKDivider));
1170:Drivers/STM32H7xx_HAL_Driver/Src/stm32h7xx_hal_rcc.c ****       MODIFY_REG(RCC->D2CFGR, RCC_D2CFGR_D2PPRE1, (RCC_ClkInitStruct->APB1CLKDivider));
1171:Drivers/STM32H7xx_HAL_Driver/Src/stm32h7xx_hal_rcc.c ****     }
1172:Drivers/STM32H7xx_HAL_Driver/Src/stm32h7xx_hal_rcc.c **** #else
1173:Drivers/STM32H7xx_HAL_Driver/Src/stm32h7xx_hal_rcc.c ****     if ((RCC_ClkInitStruct->APB1CLKDivider) < (RCC->CDCFGR2 & RCC_CDCFGR2_CDPPRE1))
1174:Drivers/STM32H7xx_HAL_Driver/Src/stm32h7xx_hal_rcc.c ****     {
1175:Drivers/STM32H7xx_HAL_Driver/Src/stm32h7xx_hal_rcc.c ****       assert_param(IS_RCC_PCLK1(RCC_ClkInitStruct->APB1CLKDivider));
ARM GAS  C:\Users\thewo\AppData\Local\Temp\ccxuDTrk.s 			page 64


1176:Drivers/STM32H7xx_HAL_Driver/Src/stm32h7xx_hal_rcc.c ****       MODIFY_REG(RCC->CDCFGR2, RCC_CDCFGR2_CDPPRE1, (RCC_ClkInitStruct->APB1CLKDivider));
1177:Drivers/STM32H7xx_HAL_Driver/Src/stm32h7xx_hal_rcc.c ****     }
1178:Drivers/STM32H7xx_HAL_Driver/Src/stm32h7xx_hal_rcc.c **** #endif
1179:Drivers/STM32H7xx_HAL_Driver/Src/stm32h7xx_hal_rcc.c ****   }
1180:Drivers/STM32H7xx_HAL_Driver/Src/stm32h7xx_hal_rcc.c **** 
1181:Drivers/STM32H7xx_HAL_Driver/Src/stm32h7xx_hal_rcc.c ****   /*-------------------------- PCLK2 Configuration ---------------------------*/
1182:Drivers/STM32H7xx_HAL_Driver/Src/stm32h7xx_hal_rcc.c ****   if (((RCC_ClkInitStruct->ClockType) & RCC_CLOCKTYPE_PCLK2) == RCC_CLOCKTYPE_PCLK2)
1183:Drivers/STM32H7xx_HAL_Driver/Src/stm32h7xx_hal_rcc.c ****   {
1184:Drivers/STM32H7xx_HAL_Driver/Src/stm32h7xx_hal_rcc.c **** #if defined (RCC_D2CFGR_D2PPRE2)
1185:Drivers/STM32H7xx_HAL_Driver/Src/stm32h7xx_hal_rcc.c ****     if ((RCC_ClkInitStruct->APB2CLKDivider) < (RCC->D2CFGR & RCC_D2CFGR_D2PPRE2))
1186:Drivers/STM32H7xx_HAL_Driver/Src/stm32h7xx_hal_rcc.c ****     {
1187:Drivers/STM32H7xx_HAL_Driver/Src/stm32h7xx_hal_rcc.c ****       assert_param(IS_RCC_PCLK2(RCC_ClkInitStruct->APB2CLKDivider));
1188:Drivers/STM32H7xx_HAL_Driver/Src/stm32h7xx_hal_rcc.c ****       MODIFY_REG(RCC->D2CFGR, RCC_D2CFGR_D2PPRE2, (RCC_ClkInitStruct->APB2CLKDivider));
1189:Drivers/STM32H7xx_HAL_Driver/Src/stm32h7xx_hal_rcc.c ****     }
1190:Drivers/STM32H7xx_HAL_Driver/Src/stm32h7xx_hal_rcc.c **** #else
1191:Drivers/STM32H7xx_HAL_Driver/Src/stm32h7xx_hal_rcc.c ****     if ((RCC_ClkInitStruct->APB2CLKDivider) < (RCC->CDCFGR2 & RCC_CDCFGR2_CDPPRE2))
1192:Drivers/STM32H7xx_HAL_Driver/Src/stm32h7xx_hal_rcc.c ****     {
1193:Drivers/STM32H7xx_HAL_Driver/Src/stm32h7xx_hal_rcc.c ****       assert_param(IS_RCC_PCLK2(RCC_ClkInitStruct->APB2CLKDivider));
1194:Drivers/STM32H7xx_HAL_Driver/Src/stm32h7xx_hal_rcc.c ****       MODIFY_REG(RCC->CDCFGR2, RCC_CDCFGR2_CDPPRE2, (RCC_ClkInitStruct->APB2CLKDivider));
1195:Drivers/STM32H7xx_HAL_Driver/Src/stm32h7xx_hal_rcc.c ****     }
1196:Drivers/STM32H7xx_HAL_Driver/Src/stm32h7xx_hal_rcc.c **** #endif
1197:Drivers/STM32H7xx_HAL_Driver/Src/stm32h7xx_hal_rcc.c ****   }
1198:Drivers/STM32H7xx_HAL_Driver/Src/stm32h7xx_hal_rcc.c **** 
1199:Drivers/STM32H7xx_HAL_Driver/Src/stm32h7xx_hal_rcc.c ****   /*-------------------------- D3PCLK1/SRDPCLK1 Configuration ---------------------------*/
1200:Drivers/STM32H7xx_HAL_Driver/Src/stm32h7xx_hal_rcc.c ****   if (((RCC_ClkInitStruct->ClockType) & RCC_CLOCKTYPE_D3PCLK1) == RCC_CLOCKTYPE_D3PCLK1)
1201:Drivers/STM32H7xx_HAL_Driver/Src/stm32h7xx_hal_rcc.c ****   {
1202:Drivers/STM32H7xx_HAL_Driver/Src/stm32h7xx_hal_rcc.c **** #if defined(RCC_D3CFGR_D3PPRE)
1203:Drivers/STM32H7xx_HAL_Driver/Src/stm32h7xx_hal_rcc.c ****     if ((RCC_ClkInitStruct->APB4CLKDivider) < (RCC->D3CFGR & RCC_D3CFGR_D3PPRE))
1204:Drivers/STM32H7xx_HAL_Driver/Src/stm32h7xx_hal_rcc.c ****     {
1205:Drivers/STM32H7xx_HAL_Driver/Src/stm32h7xx_hal_rcc.c ****       assert_param(IS_RCC_D3PCLK1(RCC_ClkInitStruct->APB4CLKDivider));
1206:Drivers/STM32H7xx_HAL_Driver/Src/stm32h7xx_hal_rcc.c ****       MODIFY_REG(RCC->D3CFGR, RCC_D3CFGR_D3PPRE, (RCC_ClkInitStruct->APB4CLKDivider));
1207:Drivers/STM32H7xx_HAL_Driver/Src/stm32h7xx_hal_rcc.c ****     }
1208:Drivers/STM32H7xx_HAL_Driver/Src/stm32h7xx_hal_rcc.c **** #else
1209:Drivers/STM32H7xx_HAL_Driver/Src/stm32h7xx_hal_rcc.c ****     if ((RCC_ClkInitStruct->APB4CLKDivider) < (RCC->SRDCFGR & RCC_SRDCFGR_SRDPPRE))
1210:Drivers/STM32H7xx_HAL_Driver/Src/stm32h7xx_hal_rcc.c ****     {
1211:Drivers/STM32H7xx_HAL_Driver/Src/stm32h7xx_hal_rcc.c ****       assert_param(IS_RCC_SRDPCLK1(RCC_ClkInitStruct->APB4CLKDivider));
1212:Drivers/STM32H7xx_HAL_Driver/Src/stm32h7xx_hal_rcc.c ****       MODIFY_REG(RCC->SRDCFGR, RCC_SRDCFGR_SRDPPRE, (RCC_ClkInitStruct->APB4CLKDivider));
1213:Drivers/STM32H7xx_HAL_Driver/Src/stm32h7xx_hal_rcc.c ****     }
1214:Drivers/STM32H7xx_HAL_Driver/Src/stm32h7xx_hal_rcc.c **** #endif
1215:Drivers/STM32H7xx_HAL_Driver/Src/stm32h7xx_hal_rcc.c ****   }
1216:Drivers/STM32H7xx_HAL_Driver/Src/stm32h7xx_hal_rcc.c **** 
1217:Drivers/STM32H7xx_HAL_Driver/Src/stm32h7xx_hal_rcc.c ****   /* Update the SystemCoreClock global variable */
1218:Drivers/STM32H7xx_HAL_Driver/Src/stm32h7xx_hal_rcc.c **** #if defined(RCC_D1CFGR_D1CPRE)
1219:Drivers/STM32H7xx_HAL_Driver/Src/stm32h7xx_hal_rcc.c ****   common_system_clock = HAL_RCC_GetSysClockFreq() >> ((D1CorePrescTable[(RCC->D1CFGR & RCC_D1CFGR_D
1220:Drivers/STM32H7xx_HAL_Driver/Src/stm32h7xx_hal_rcc.c **** #else
1221:Drivers/STM32H7xx_HAL_Driver/Src/stm32h7xx_hal_rcc.c ****   common_system_clock = HAL_RCC_GetSysClockFreq() >> ((D1CorePrescTable[(RCC->CDCFGR1 & RCC_CDCFGR1
1222:Drivers/STM32H7xx_HAL_Driver/Src/stm32h7xx_hal_rcc.c **** #endif
1223:Drivers/STM32H7xx_HAL_Driver/Src/stm32h7xx_hal_rcc.c **** 
1224:Drivers/STM32H7xx_HAL_Driver/Src/stm32h7xx_hal_rcc.c **** #if defined(RCC_D1CFGR_HPRE)
1225:Drivers/STM32H7xx_HAL_Driver/Src/stm32h7xx_hal_rcc.c ****   SystemD2Clock = (common_system_clock >> ((D1CorePrescTable[(RCC->D1CFGR & RCC_D1CFGR_HPRE) >> RCC
1226:Drivers/STM32H7xx_HAL_Driver/Src/stm32h7xx_hal_rcc.c **** #else
1227:Drivers/STM32H7xx_HAL_Driver/Src/stm32h7xx_hal_rcc.c ****   SystemD2Clock = (common_system_clock >> ((D1CorePrescTable[(RCC->CDCFGR1 & RCC_CDCFGR1_HPRE) >> R
1228:Drivers/STM32H7xx_HAL_Driver/Src/stm32h7xx_hal_rcc.c **** #endif
1229:Drivers/STM32H7xx_HAL_Driver/Src/stm32h7xx_hal_rcc.c **** 
1230:Drivers/STM32H7xx_HAL_Driver/Src/stm32h7xx_hal_rcc.c **** #if defined(DUAL_CORE) && defined(CORE_CM4)
1231:Drivers/STM32H7xx_HAL_Driver/Src/stm32h7xx_hal_rcc.c ****   SystemCoreClock = SystemD2Clock;
1232:Drivers/STM32H7xx_HAL_Driver/Src/stm32h7xx_hal_rcc.c **** #else
ARM GAS  C:\Users\thewo\AppData\Local\Temp\ccxuDTrk.s 			page 65


1233:Drivers/STM32H7xx_HAL_Driver/Src/stm32h7xx_hal_rcc.c ****   SystemCoreClock = common_system_clock;
1234:Drivers/STM32H7xx_HAL_Driver/Src/stm32h7xx_hal_rcc.c **** #endif /* DUAL_CORE && CORE_CM4 */
1235:Drivers/STM32H7xx_HAL_Driver/Src/stm32h7xx_hal_rcc.c **** 
1236:Drivers/STM32H7xx_HAL_Driver/Src/stm32h7xx_hal_rcc.c ****   /* Configure the source of time base considering new system clocks settings*/
1237:Drivers/STM32H7xx_HAL_Driver/Src/stm32h7xx_hal_rcc.c ****   halstatus = HAL_InitTick(uwTickPrio);
1238:Drivers/STM32H7xx_HAL_Driver/Src/stm32h7xx_hal_rcc.c **** 
1239:Drivers/STM32H7xx_HAL_Driver/Src/stm32h7xx_hal_rcc.c ****   return halstatus;
1240:Drivers/STM32H7xx_HAL_Driver/Src/stm32h7xx_hal_rcc.c **** }
1241:Drivers/STM32H7xx_HAL_Driver/Src/stm32h7xx_hal_rcc.c **** 
1242:Drivers/STM32H7xx_HAL_Driver/Src/stm32h7xx_hal_rcc.c **** /**
1243:Drivers/STM32H7xx_HAL_Driver/Src/stm32h7xx_hal_rcc.c ****   * @}
1244:Drivers/STM32H7xx_HAL_Driver/Src/stm32h7xx_hal_rcc.c ****   */
1245:Drivers/STM32H7xx_HAL_Driver/Src/stm32h7xx_hal_rcc.c **** 
1246:Drivers/STM32H7xx_HAL_Driver/Src/stm32h7xx_hal_rcc.c **** /** @defgroup RCC_Exported_Functions_Group2 Peripheral Control functions
1247:Drivers/STM32H7xx_HAL_Driver/Src/stm32h7xx_hal_rcc.c ****  *  @brief   RCC clocks control functions
1248:Drivers/STM32H7xx_HAL_Driver/Src/stm32h7xx_hal_rcc.c ****  *
1249:Drivers/STM32H7xx_HAL_Driver/Src/stm32h7xx_hal_rcc.c **** @verbatim
1250:Drivers/STM32H7xx_HAL_Driver/Src/stm32h7xx_hal_rcc.c ****  ===============================================================================
1251:Drivers/STM32H7xx_HAL_Driver/Src/stm32h7xx_hal_rcc.c ****                       ##### Peripheral Control functions #####
1252:Drivers/STM32H7xx_HAL_Driver/Src/stm32h7xx_hal_rcc.c ****  ===============================================================================
1253:Drivers/STM32H7xx_HAL_Driver/Src/stm32h7xx_hal_rcc.c ****     [..]
1254:Drivers/STM32H7xx_HAL_Driver/Src/stm32h7xx_hal_rcc.c ****     This subsection provides a set of functions allowing to control the RCC Clocks
1255:Drivers/STM32H7xx_HAL_Driver/Src/stm32h7xx_hal_rcc.c ****     frequencies.
1256:Drivers/STM32H7xx_HAL_Driver/Src/stm32h7xx_hal_rcc.c **** 
1257:Drivers/STM32H7xx_HAL_Driver/Src/stm32h7xx_hal_rcc.c **** @endverbatim
1258:Drivers/STM32H7xx_HAL_Driver/Src/stm32h7xx_hal_rcc.c ****   * @{
1259:Drivers/STM32H7xx_HAL_Driver/Src/stm32h7xx_hal_rcc.c ****   */
1260:Drivers/STM32H7xx_HAL_Driver/Src/stm32h7xx_hal_rcc.c **** 
1261:Drivers/STM32H7xx_HAL_Driver/Src/stm32h7xx_hal_rcc.c **** /**
1262:Drivers/STM32H7xx_HAL_Driver/Src/stm32h7xx_hal_rcc.c ****   * @brief  Selects the clock source to output on MCO1 pin(PA8) or on MCO2 pin(PC9).
1263:Drivers/STM32H7xx_HAL_Driver/Src/stm32h7xx_hal_rcc.c ****   * @note   PA8/PC9 should be configured in alternate function mode.
1264:Drivers/STM32H7xx_HAL_Driver/Src/stm32h7xx_hal_rcc.c ****   * @param  RCC_MCOx: specifies the output direction for the clock source.
1265:Drivers/STM32H7xx_HAL_Driver/Src/stm32h7xx_hal_rcc.c ****   *          This parameter can be one of the following values:
1266:Drivers/STM32H7xx_HAL_Driver/Src/stm32h7xx_hal_rcc.c ****   *            @arg RCC_MCO1: Clock source to output on MCO1 pin(PA8).
1267:Drivers/STM32H7xx_HAL_Driver/Src/stm32h7xx_hal_rcc.c ****   *            @arg RCC_MCO2: Clock source to output on MCO2 pin(PC9).
1268:Drivers/STM32H7xx_HAL_Driver/Src/stm32h7xx_hal_rcc.c ****   * @param  RCC_MCOSource: specifies the clock source to output.
1269:Drivers/STM32H7xx_HAL_Driver/Src/stm32h7xx_hal_rcc.c ****   *          This parameter can be one of the following values:
1270:Drivers/STM32H7xx_HAL_Driver/Src/stm32h7xx_hal_rcc.c ****   *            @arg RCC_MCO1SOURCE_HSI: HSI clock selected as MCO1 source
1271:Drivers/STM32H7xx_HAL_Driver/Src/stm32h7xx_hal_rcc.c ****   *            @arg RCC_MCO1SOURCE_LSE: LSE clock selected as MCO1 source
1272:Drivers/STM32H7xx_HAL_Driver/Src/stm32h7xx_hal_rcc.c ****   *            @arg RCC_MCO1SOURCE_HSE: HSE clock selected as MCO1 source
1273:Drivers/STM32H7xx_HAL_Driver/Src/stm32h7xx_hal_rcc.c ****   *            @arg RCC_MCO1SOURCE_PLL1QCLK:  PLL1Q clock selected as MCO1 source
1274:Drivers/STM32H7xx_HAL_Driver/Src/stm32h7xx_hal_rcc.c ****   *            @arg RCC_MCO1SOURCE_HSI48: HSI48 (48MHZ) selected as MCO1 source
1275:Drivers/STM32H7xx_HAL_Driver/Src/stm32h7xx_hal_rcc.c ****   *            @arg RCC_MCO2SOURCE_SYSCLK: System clock (SYSCLK) selected as MCO2 source
1276:Drivers/STM32H7xx_HAL_Driver/Src/stm32h7xx_hal_rcc.c ****   *            @arg RCC_MCO2SOURCE_PLL2PCLK: PLL2P clock selected as MCO2 source
1277:Drivers/STM32H7xx_HAL_Driver/Src/stm32h7xx_hal_rcc.c ****   *            @arg RCC_MCO2SOURCE_HSE: HSE clock selected as MCO2 source
1278:Drivers/STM32H7xx_HAL_Driver/Src/stm32h7xx_hal_rcc.c ****   *            @arg RCC_MCO2SOURCE_PLLCLK:  PLL1P clock selected as MCO2 source
1279:Drivers/STM32H7xx_HAL_Driver/Src/stm32h7xx_hal_rcc.c ****   *            @arg RCC_MCO2SOURCE_CSICLK:  CSI clock selected as MCO2 source
1280:Drivers/STM32H7xx_HAL_Driver/Src/stm32h7xx_hal_rcc.c ****   *            @arg RCC_MCO2SOURCE_LSICLK:  LSI clock selected as MCO2 source
1281:Drivers/STM32H7xx_HAL_Driver/Src/stm32h7xx_hal_rcc.c ****   * @param  RCC_MCODiv: specifies the MCOx pre-scaler.
1282:Drivers/STM32H7xx_HAL_Driver/Src/stm32h7xx_hal_rcc.c ****   *          This parameter can be one of the following values:
1283:Drivers/STM32H7xx_HAL_Driver/Src/stm32h7xx_hal_rcc.c ****   *            @arg RCC_MCODIV_1 up to RCC_MCODIV_15  : divider applied to MCOx clock
1284:Drivers/STM32H7xx_HAL_Driver/Src/stm32h7xx_hal_rcc.c ****   * @retval None
1285:Drivers/STM32H7xx_HAL_Driver/Src/stm32h7xx_hal_rcc.c ****   */
1286:Drivers/STM32H7xx_HAL_Driver/Src/stm32h7xx_hal_rcc.c **** void HAL_RCC_MCOConfig(uint32_t RCC_MCOx, uint32_t RCC_MCOSource, uint32_t RCC_MCODiv)
1287:Drivers/STM32H7xx_HAL_Driver/Src/stm32h7xx_hal_rcc.c **** {
 1993              		.loc 1 1287 1 is_stmt 1 view -0
 1994              		.cfi_startproc
ARM GAS  C:\Users\thewo\AppData\Local\Temp\ccxuDTrk.s 			page 66


 1995              		@ args = 0, pretend = 0, frame = 32
 1996              		@ frame_needed = 0, uses_anonymous_args = 0
 1997              		.loc 1 1287 1 is_stmt 0 view .LVU605
 1998 0000 70B5     		push	{r4, r5, r6, lr}
 1999              		.cfi_def_cfa_offset 16
 2000              		.cfi_offset 4, -16
 2001              		.cfi_offset 5, -12
 2002              		.cfi_offset 6, -8
 2003              		.cfi_offset 14, -4
 2004 0002 88B0     		sub	sp, sp, #32
 2005              		.cfi_def_cfa_offset 48
 2006 0004 0646     		mov	r6, r0
 2007 0006 0D46     		mov	r5, r1
 2008 0008 1446     		mov	r4, r2
1288:Drivers/STM32H7xx_HAL_Driver/Src/stm32h7xx_hal_rcc.c ****   GPIO_InitTypeDef GPIO_InitStruct;
 2009              		.loc 1 1288 3 is_stmt 1 view .LVU606
1289:Drivers/STM32H7xx_HAL_Driver/Src/stm32h7xx_hal_rcc.c ****   /* Check the parameters */
1290:Drivers/STM32H7xx_HAL_Driver/Src/stm32h7xx_hal_rcc.c ****   assert_param(IS_RCC_MCO(RCC_MCOx));
 2010              		.loc 1 1290 3 view .LVU607
 2011 000a 0128     		cmp	r0, #1
 2012 000c 6DD8     		bhi	.L205
 2013              	.LVL180:
 2014              	.L198:
1291:Drivers/STM32H7xx_HAL_Driver/Src/stm32h7xx_hal_rcc.c ****   assert_param(IS_RCC_MCODIV(RCC_MCODiv));
 2015              		.loc 1 1291 3 view .LVU608
 2016 000e B4F5802F 		cmp	r4, #262144
 2017 0012 18BF     		it	ne
 2018 0014 B4F5002F 		cmpne	r4, #524288
 2019 0018 32D0     		beq	.L199
 2020              		.loc 1 1291 3 is_stmt 0 discriminator 1 view .LVU609
 2021 001a B4F58013 		subs	r3, r4, #1048576
 2022 001e 18BF     		it	ne
 2023 0020 0123     		movne	r3, #1
 2024 0022 B4F5402F 		cmp	r4, #786432
 2025 0026 2BD0     		beq	.L199
 2026 0028 53B3     		cbz	r3, .L199
 2027              		.loc 1 1291 3 discriminator 2 view .LVU610
 2028 002a B4F5C013 		subs	r3, r4, #1572864
 2029 002e 18BF     		it	ne
 2030 0030 0123     		movne	r3, #1
 2031 0032 B4F5A01F 		cmp	r4, #1310720
 2032 0036 23D0     		beq	.L199
 2033 0038 13B3     		cbz	r3, .L199
 2034              		.loc 1 1291 3 discriminator 3 view .LVU611
 2035 003a B4F50013 		subs	r3, r4, #2097152
 2036 003e 18BF     		it	ne
 2037 0040 0123     		movne	r3, #1
 2038 0042 B4F5E01F 		cmp	r4, #1835008
 2039 0046 1BD0     		beq	.L199
 2040 0048 D3B1     		cbz	r3, .L199
 2041              		.loc 1 1291 3 discriminator 4 view .LVU612
 2042 004a B4F52013 		subs	r3, r4, #2621440
 2043 004e 18BF     		it	ne
 2044 0050 0123     		movne	r3, #1
 2045 0052 B4F5101F 		cmp	r4, #2359296
 2046 0056 13D0     		beq	.L199
 2047 0058 93B1     		cbz	r3, .L199
ARM GAS  C:\Users\thewo\AppData\Local\Temp\ccxuDTrk.s 			page 67


 2048              		.loc 1 1291 3 discriminator 5 view .LVU613
 2049 005a B4F54013 		subs	r3, r4, #3145728
 2050 005e 18BF     		it	ne
 2051 0060 0123     		movne	r3, #1
 2052 0062 B4F5301F 		cmp	r4, #2883584
 2053 0066 0BD0     		beq	.L199
 2054 0068 53B1     		cbz	r3, .L199
 2055              		.loc 1 1291 3 discriminator 6 view .LVU614
 2056 006a B4F56013 		subs	r3, r4, #3670016
 2057 006e 18BF     		it	ne
 2058 0070 0123     		movne	r3, #1
 2059 0072 B4F5501F 		cmp	r4, #3407872
 2060 0076 03D0     		beq	.L199
 2061 0078 13B1     		cbz	r3, .L199
 2062              		.loc 1 1291 3 discriminator 7 view .LVU615
 2063 007a B4F5701F 		cmp	r4, #3932160
 2064 007e 3AD1     		bne	.L206
 2065              	.L199:
1292:Drivers/STM32H7xx_HAL_Driver/Src/stm32h7xx_hal_rcc.c ****   /* RCC_MCO1 */
1293:Drivers/STM32H7xx_HAL_Driver/Src/stm32h7xx_hal_rcc.c ****   if (RCC_MCOx == RCC_MCO1)
 2066              		.loc 1 1293 3 is_stmt 1 view .LVU616
 2067              		.loc 1 1293 6 is_stmt 0 view .LVU617
 2068 0080 002E     		cmp	r6, #0
 2069 0082 44D1     		bne	.L200
1294:Drivers/STM32H7xx_HAL_Driver/Src/stm32h7xx_hal_rcc.c ****   {
1295:Drivers/STM32H7xx_HAL_Driver/Src/stm32h7xx_hal_rcc.c ****     assert_param(IS_RCC_MCO1SOURCE(RCC_MCOSource));
 2070              		.loc 1 1295 5 is_stmt 1 view .LVU618
 2071 0084 002D     		cmp	r5, #0
 2072 0086 18BF     		it	ne
 2073 0088 B5F5800F 		cmpne	r5, #4194304
 2074 008c 0AD0     		beq	.L201
 2075              		.loc 1 1295 5 is_stmt 0 discriminator 1 view .LVU619
 2076 008e B5F54003 		subs	r3, r5, #12582912
 2077 0092 18BF     		it	ne
