ARM GAS  C:\Users\thewo\AppData\Local\Temp\cci8avqb.s 			page 1


   1              		.cpu cortex-m7
   2              		.arch armv7e-m
   3              		.fpu fpv5-d16
   4              		.eabi_attribute 28, 1
   5              		.eabi_attribute 20, 1
   6              		.eabi_attribute 21, 1
   7              		.eabi_attribute 23, 3
   8              		.eabi_attribute 24, 1
   9              		.eabi_attribute 25, 1
  10              		.eabi_attribute 26, 1
  11              		.eabi_attribute 30, 1
  12              		.eabi_attribute 34, 1
  13              		.eabi_attribute 18, 4
  14              		.file	"usbd_conf.c"
  15              		.text
  16              	.Ltext0:
  17              		.cfi_sections	.debug_frame
  18              		.file 1 "USB_DEVICE/Target/usbd_conf.c"
  19              		.section	.text.HAL_PCD_MspInit,"ax",%progbits
  20              		.align	1
  21              		.global	HAL_PCD_MspInit
  22              		.syntax unified
  23              		.thumb
  24              		.thumb_func
  26              	HAL_PCD_MspInit:
  27              	.LVL0:
  28              	.LFB354:
   1:USB_DEVICE/Target/usbd_conf.c **** /* USER CODE BEGIN Header */
   2:USB_DEVICE/Target/usbd_conf.c **** /**
   3:USB_DEVICE/Target/usbd_conf.c ****   ******************************************************************************
   4:USB_DEVICE/Target/usbd_conf.c ****   * @file           : Target/usbd_conf.c
   5:USB_DEVICE/Target/usbd_conf.c ****   * @version        : v1.0_Cube
   6:USB_DEVICE/Target/usbd_conf.c ****   * @brief          : This file implements the board support package for the USB device library
   7:USB_DEVICE/Target/usbd_conf.c ****   ******************************************************************************
   8:USB_DEVICE/Target/usbd_conf.c ****   * @attention
   9:USB_DEVICE/Target/usbd_conf.c ****   *
  10:USB_DEVICE/Target/usbd_conf.c ****   * Copyright (c) 2025 STMicroelectronics.
  11:USB_DEVICE/Target/usbd_conf.c ****   * All rights reserved.
  12:USB_DEVICE/Target/usbd_conf.c ****   *
  13:USB_DEVICE/Target/usbd_conf.c ****   * This software is licensed under terms that can be found in the LICENSE file
  14:USB_DEVICE/Target/usbd_conf.c ****   * in the root directory of this software component.
  15:USB_DEVICE/Target/usbd_conf.c ****   * If no LICENSE file comes with this software, it is provided AS-IS.
  16:USB_DEVICE/Target/usbd_conf.c ****   *
  17:USB_DEVICE/Target/usbd_conf.c ****   ******************************************************************************
  18:USB_DEVICE/Target/usbd_conf.c ****   */
  19:USB_DEVICE/Target/usbd_conf.c **** /* USER CODE END Header */
  20:USB_DEVICE/Target/usbd_conf.c **** 
  21:USB_DEVICE/Target/usbd_conf.c **** /* Includes ------------------------------------------------------------------*/
  22:USB_DEVICE/Target/usbd_conf.c **** #include "stm32h7xx.h"
  23:USB_DEVICE/Target/usbd_conf.c **** #include "stm32h7xx_hal.h"
  24:USB_DEVICE/Target/usbd_conf.c **** #include "usbd_def.h"
  25:USB_DEVICE/Target/usbd_conf.c **** #include "usbd_core.h"
  26:USB_DEVICE/Target/usbd_conf.c **** #include "usbd_cdc.h"
  27:USB_DEVICE/Target/usbd_conf.c **** 
  28:USB_DEVICE/Target/usbd_conf.c **** /* USER CODE BEGIN Includes */
  29:USB_DEVICE/Target/usbd_conf.c **** 
  30:USB_DEVICE/Target/usbd_conf.c **** /* USER CODE END Includes */
ARM GAS  C:\Users\thewo\AppData\Local\Temp\cci8avqb.s 			page 2


  31:USB_DEVICE/Target/usbd_conf.c **** 
  32:USB_DEVICE/Target/usbd_conf.c **** /* Private typedef -----------------------------------------------------------*/
  33:USB_DEVICE/Target/usbd_conf.c **** /* Private define ------------------------------------------------------------*/
  34:USB_DEVICE/Target/usbd_conf.c **** /* Private macro -------------------------------------------------------------*/
  35:USB_DEVICE/Target/usbd_conf.c **** 
  36:USB_DEVICE/Target/usbd_conf.c **** /* USER CODE BEGIN PV */
  37:USB_DEVICE/Target/usbd_conf.c **** /* Private variables ---------------------------------------------------------*/
  38:USB_DEVICE/Target/usbd_conf.c **** 
  39:USB_DEVICE/Target/usbd_conf.c **** /* USER CODE END PV */
  40:USB_DEVICE/Target/usbd_conf.c **** 
  41:USB_DEVICE/Target/usbd_conf.c **** PCD_HandleTypeDef hpcd_USB_OTG_HS;
  42:USB_DEVICE/Target/usbd_conf.c **** void Error_Handler(void);
  43:USB_DEVICE/Target/usbd_conf.c **** 
  44:USB_DEVICE/Target/usbd_conf.c **** /* External functions --------------------------------------------------------*/
  45:USB_DEVICE/Target/usbd_conf.c **** 
  46:USB_DEVICE/Target/usbd_conf.c **** /* USER CODE BEGIN 0 */
  47:USB_DEVICE/Target/usbd_conf.c **** 
  48:USB_DEVICE/Target/usbd_conf.c **** /* USER CODE END 0 */
  49:USB_DEVICE/Target/usbd_conf.c **** 
  50:USB_DEVICE/Target/usbd_conf.c **** /* USER CODE BEGIN PFP */
  51:USB_DEVICE/Target/usbd_conf.c **** /* Private function prototypes -----------------------------------------------*/
  52:USB_DEVICE/Target/usbd_conf.c **** USBD_StatusTypeDef USBD_Get_USB_Status(HAL_StatusTypeDef hal_status);
  53:USB_DEVICE/Target/usbd_conf.c **** 
  54:USB_DEVICE/Target/usbd_conf.c **** /* USER CODE END PFP */
  55:USB_DEVICE/Target/usbd_conf.c **** 
  56:USB_DEVICE/Target/usbd_conf.c **** /* Private functions ---------------------------------------------------------*/
  57:USB_DEVICE/Target/usbd_conf.c **** 
  58:USB_DEVICE/Target/usbd_conf.c **** /* USER CODE BEGIN 1 */
  59:USB_DEVICE/Target/usbd_conf.c **** /* USER CODE END 1 */
  60:USB_DEVICE/Target/usbd_conf.c **** 
  61:USB_DEVICE/Target/usbd_conf.c **** /*******************************************************************************
  62:USB_DEVICE/Target/usbd_conf.c ****                        LL Driver Callbacks (PCD -> USB Device Library)
  63:USB_DEVICE/Target/usbd_conf.c **** *******************************************************************************/
  64:USB_DEVICE/Target/usbd_conf.c **** /* MSP Init */
  65:USB_DEVICE/Target/usbd_conf.c **** 
  66:USB_DEVICE/Target/usbd_conf.c **** void HAL_PCD_MspInit(PCD_HandleTypeDef* pcdHandle)
  67:USB_DEVICE/Target/usbd_conf.c **** {
  29              		.loc 1 67 1 view -0
  30              		.cfi_startproc
  31              		@ args = 0, pretend = 0, frame = 192
  32              		@ frame_needed = 0, uses_anonymous_args = 0
  33              		.loc 1 67 1 is_stmt 0 view .LVU1
  34 0000 10B5     		push	{r4, lr}
  35              		.cfi_def_cfa_offset 8
  36              		.cfi_offset 4, -8
  37              		.cfi_offset 14, -4
  38 0002 B0B0     		sub	sp, sp, #192
  39              		.cfi_def_cfa_offset 200
  40 0004 0446     		mov	r4, r0
  68:USB_DEVICE/Target/usbd_conf.c ****   RCC_PeriphCLKInitTypeDef PeriphClkInitStruct = {0};
  41              		.loc 1 68 3 is_stmt 1 view .LVU2
  42              		.loc 1 68 28 is_stmt 0 view .LVU3
  43 0006 B822     		movs	r2, #184
  44 0008 0021     		movs	r1, #0
  45 000a 02A8     		add	r0, sp, #8
  46              	.LVL1:
  47              		.loc 1 68 28 view .LVU4
ARM GAS  C:\Users\thewo\AppData\Local\Temp\cci8avqb.s 			page 3


  48 000c FFF7FEFF 		bl	memset
  49              	.LVL2:
  69:USB_DEVICE/Target/usbd_conf.c ****   if(pcdHandle->Instance==USB_OTG_HS)
  50              		.loc 1 69 3 is_stmt 1 view .LVU5
  51              		.loc 1 69 15 is_stmt 0 view .LVU6
  52 0010 2268     		ldr	r2, [r4]
  53              		.loc 1 69 5 view .LVU7
  54 0012 1E4B     		ldr	r3, .L7
  55 0014 9A42     		cmp	r2, r3
  56 0016 01D0     		beq	.L5
  57              	.L1:
  70:USB_DEVICE/Target/usbd_conf.c ****   {
  71:USB_DEVICE/Target/usbd_conf.c ****   /* USER CODE BEGIN USB_OTG_HS_MspInit 0 */
  72:USB_DEVICE/Target/usbd_conf.c **** 
  73:USB_DEVICE/Target/usbd_conf.c ****   /* USER CODE END USB_OTG_HS_MspInit 0 */
  74:USB_DEVICE/Target/usbd_conf.c **** 
  75:USB_DEVICE/Target/usbd_conf.c ****   /** Initializes the peripherals clock
  76:USB_DEVICE/Target/usbd_conf.c ****   */
  77:USB_DEVICE/Target/usbd_conf.c ****     PeriphClkInitStruct.PeriphClockSelection = RCC_PERIPHCLK_USB;
  78:USB_DEVICE/Target/usbd_conf.c ****     PeriphClkInitStruct.UsbClockSelection = RCC_USBCLKSOURCE_HSI48;
  79:USB_DEVICE/Target/usbd_conf.c ****     if (HAL_RCCEx_PeriphCLKConfig(&PeriphClkInitStruct) != HAL_OK)
  80:USB_DEVICE/Target/usbd_conf.c ****     {
  81:USB_DEVICE/Target/usbd_conf.c ****       Error_Handler();
  82:USB_DEVICE/Target/usbd_conf.c ****     }
  83:USB_DEVICE/Target/usbd_conf.c **** 
  84:USB_DEVICE/Target/usbd_conf.c ****   /** Enable USB Voltage detector
  85:USB_DEVICE/Target/usbd_conf.c ****   */
  86:USB_DEVICE/Target/usbd_conf.c ****     HAL_PWREx_EnableUSBVoltageDetector();
  87:USB_DEVICE/Target/usbd_conf.c **** 
  88:USB_DEVICE/Target/usbd_conf.c ****     /* Peripheral clock enable */
  89:USB_DEVICE/Target/usbd_conf.c ****     __HAL_RCC_USB_OTG_HS_CLK_ENABLE();
  90:USB_DEVICE/Target/usbd_conf.c **** 
  91:USB_DEVICE/Target/usbd_conf.c ****     /* Peripheral interrupt init */
  92:USB_DEVICE/Target/usbd_conf.c ****     HAL_NVIC_SetPriority(OTG_HS_EP1_OUT_IRQn, 0, 0);
  93:USB_DEVICE/Target/usbd_conf.c ****     HAL_NVIC_EnableIRQ(OTG_HS_EP1_OUT_IRQn);
  94:USB_DEVICE/Target/usbd_conf.c ****     HAL_NVIC_SetPriority(OTG_HS_EP1_IN_IRQn, 0, 0);
  95:USB_DEVICE/Target/usbd_conf.c ****     HAL_NVIC_EnableIRQ(OTG_HS_EP1_IN_IRQn);
  96:USB_DEVICE/Target/usbd_conf.c ****     HAL_NVIC_SetPriority(OTG_HS_IRQn, 0, 0);
  97:USB_DEVICE/Target/usbd_conf.c ****     HAL_NVIC_EnableIRQ(OTG_HS_IRQn);
  98:USB_DEVICE/Target/usbd_conf.c ****   /* USER CODE BEGIN USB_OTG_HS_MspInit 1 */
  99:USB_DEVICE/Target/usbd_conf.c **** 
 100:USB_DEVICE/Target/usbd_conf.c ****   /* USER CODE END USB_OTG_HS_MspInit 1 */
 101:USB_DEVICE/Target/usbd_conf.c ****   }
 102:USB_DEVICE/Target/usbd_conf.c **** }
  58              		.loc 1 102 1 view .LVU8
  59 0018 30B0     		add	sp, sp, #192
  60              		.cfi_remember_state
  61              		.cfi_def_cfa_offset 8
  62              		@ sp needed
  63 001a 10BD     		pop	{r4, pc}
  64              	.LVL3:
  65              	.L5:
  66              		.cfi_restore_state
  77:USB_DEVICE/Target/usbd_conf.c ****     PeriphClkInitStruct.UsbClockSelection = RCC_USBCLKSOURCE_HSI48;
  67              		.loc 1 77 5 is_stmt 1 view .LVU9
  77:USB_DEVICE/Target/usbd_conf.c ****     PeriphClkInitStruct.UsbClockSelection = RCC_USBCLKSOURCE_HSI48;
  68              		.loc 1 77 46 is_stmt 0 view .LVU10
ARM GAS  C:\Users\thewo\AppData\Local\Temp\cci8avqb.s 			page 4


  69 001c 4FF48022 		mov	r2, #262144
  70 0020 0023     		movs	r3, #0
  71 0022 CDE90223 		strd	r2, [sp, #8]
  78:USB_DEVICE/Target/usbd_conf.c ****     if (HAL_RCCEx_PeriphCLKConfig(&PeriphClkInitStruct) != HAL_OK)
  72              		.loc 1 78 5 is_stmt 1 view .LVU11
  78:USB_DEVICE/Target/usbd_conf.c ****     if (HAL_RCCEx_PeriphCLKConfig(&PeriphClkInitStruct) != HAL_OK)
  73              		.loc 1 78 43 is_stmt 0 view .LVU12
  74 0026 4FF44013 		mov	r3, #3145728
  75 002a 2393     		str	r3, [sp, #140]
  79:USB_DEVICE/Target/usbd_conf.c ****     {
  76              		.loc 1 79 5 is_stmt 1 view .LVU13
  79:USB_DEVICE/Target/usbd_conf.c ****     {
  77              		.loc 1 79 9 is_stmt 0 view .LVU14
  78 002c 02A8     		add	r0, sp, #8
  79 002e FFF7FEFF 		bl	HAL_RCCEx_PeriphCLKConfig
  80              	.LVL4:
  79:USB_DEVICE/Target/usbd_conf.c ****     {
  81              		.loc 1 79 8 discriminator 1 view .LVU15
  82 0032 38BB     		cbnz	r0, .L6
  83              	.L3:
  86:USB_DEVICE/Target/usbd_conf.c **** 
  84              		.loc 1 86 5 is_stmt 1 view .LVU16
  85 0034 FFF7FEFF 		bl	HAL_PWREx_EnableUSBVoltageDetector
  86              	.LVL5:
  89:USB_DEVICE/Target/usbd_conf.c **** 
  87              		.loc 1 89 5 view .LVU17
  88              	.LBB2:
  89:USB_DEVICE/Target/usbd_conf.c **** 
  89              		.loc 1 89 5 view .LVU18
  89:USB_DEVICE/Target/usbd_conf.c **** 
  90              		.loc 1 89 5 view .LVU19
  91 0038 154B     		ldr	r3, .L7+4
  92 003a D3F8D820 		ldr	r2, [r3, #216]
  93 003e 42F00072 		orr	r2, r2, #33554432
  94 0042 C3F8D820 		str	r2, [r3, #216]
  89:USB_DEVICE/Target/usbd_conf.c **** 
  95              		.loc 1 89 5 view .LVU20
  96 0046 D3F8D830 		ldr	r3, [r3, #216]
  97 004a 03F00073 		and	r3, r3, #33554432
  98 004e 0193     		str	r3, [sp, #4]
  89:USB_DEVICE/Target/usbd_conf.c **** 
  99              		.loc 1 89 5 view .LVU21
 100 0050 019B     		ldr	r3, [sp, #4]
 101              	.LBE2:
  89:USB_DEVICE/Target/usbd_conf.c **** 
 102              		.loc 1 89 5 view .LVU22
  92:USB_DEVICE/Target/usbd_conf.c ****     HAL_NVIC_EnableIRQ(OTG_HS_EP1_OUT_IRQn);
 103              		.loc 1 92 5 view .LVU23
 104 0052 0022     		movs	r2, #0
 105 0054 1146     		mov	r1, r2
 106 0056 4A20     		movs	r0, #74
 107 0058 FFF7FEFF 		bl	HAL_NVIC_SetPriority
 108              	.LVL6:
  93:USB_DEVICE/Target/usbd_conf.c ****     HAL_NVIC_SetPriority(OTG_HS_EP1_IN_IRQn, 0, 0);
 109              		.loc 1 93 5 view .LVU24
 110 005c 4A20     		movs	r0, #74
 111 005e FFF7FEFF 		bl	HAL_NVIC_EnableIRQ
ARM GAS  C:\Users\thewo\AppData\Local\Temp\cci8avqb.s 			page 5


 112              	.LVL7:
  94:USB_DEVICE/Target/usbd_conf.c ****     HAL_NVIC_EnableIRQ(OTG_HS_EP1_IN_IRQn);
 113              		.loc 1 94 5 view .LVU25
 114 0062 0022     		movs	r2, #0
 115 0064 1146     		mov	r1, r2
 116 0066 4B20     		movs	r0, #75
 117 0068 FFF7FEFF 		bl	HAL_NVIC_SetPriority
 118              	.LVL8:
  95:USB_DEVICE/Target/usbd_conf.c ****     HAL_NVIC_SetPriority(OTG_HS_IRQn, 0, 0);
 119              		.loc 1 95 5 view .LVU26
 120 006c 4B20     		movs	r0, #75
 121 006e FFF7FEFF 		bl	HAL_NVIC_EnableIRQ
 122              	.LVL9:
  96:USB_DEVICE/Target/usbd_conf.c ****     HAL_NVIC_EnableIRQ(OTG_HS_IRQn);
 123              		.loc 1 96 5 view .LVU27
 124 0072 0022     		movs	r2, #0
 125 0074 1146     		mov	r1, r2
 126 0076 4D20     		movs	r0, #77
 127 0078 FFF7FEFF 		bl	HAL_NVIC_SetPriority
 128              	.LVL10:
  97:USB_DEVICE/Target/usbd_conf.c ****   /* USER CODE BEGIN USB_OTG_HS_MspInit 1 */
 129              		.loc 1 97 5 view .LVU28
 130 007c 4D20     		movs	r0, #77
 131 007e FFF7FEFF 		bl	HAL_NVIC_EnableIRQ
 132              	.LVL11:
 133              		.loc 1 102 1 is_stmt 0 view .LVU29
 134 0082 C9E7     		b	.L1
 135              	.L6:
  81:USB_DEVICE/Target/usbd_conf.c ****     }
 136              		.loc 1 81 7 is_stmt 1 view .LVU30
 137 0084 FFF7FEFF 		bl	Error_Handler
 138              	.LVL12:
 139 0088 D4E7     		b	.L3
 140              	.L8:
 141 008a 00BF     		.align	2
 142              	.L7:
 143 008c 00000440 		.word	1074003968
 144 0090 00440258 		.word	1476543488
 145              		.cfi_endproc
 146              	.LFE354:
 148              		.section	.text.HAL_PCD_MspDeInit,"ax",%progbits
 149              		.align	1
 150              		.global	HAL_PCD_MspDeInit
 151              		.syntax unified
 152              		.thumb
 153              		.thumb_func
 155              	HAL_PCD_MspDeInit:
 156              	.LVL13:
 157              	.LFB355:
 103:USB_DEVICE/Target/usbd_conf.c **** 
 104:USB_DEVICE/Target/usbd_conf.c **** void HAL_PCD_MspDeInit(PCD_HandleTypeDef* pcdHandle)
 105:USB_DEVICE/Target/usbd_conf.c **** {
 158              		.loc 1 105 1 view -0
 159              		.cfi_startproc
 160              		@ args = 0, pretend = 0, frame = 0
 161              		@ frame_needed = 0, uses_anonymous_args = 0
 162              		.loc 1 105 1 is_stmt 0 view .LVU32
ARM GAS  C:\Users\thewo\AppData\Local\Temp\cci8avqb.s 			page 6


 163 0000 08B5     		push	{r3, lr}
 164              		.cfi_def_cfa_offset 8
 165              		.cfi_offset 3, -8
 166              		.cfi_offset 14, -4
 106:USB_DEVICE/Target/usbd_conf.c ****   if(pcdHandle->Instance==USB_OTG_HS)
 167              		.loc 1 106 3 is_stmt 1 view .LVU33
 168              		.loc 1 106 15 is_stmt 0 view .LVU34
 169 0002 0268     		ldr	r2, [r0]
 170              		.loc 1 106 5 view .LVU35
 171 0004 0A4B     		ldr	r3, .L13
 172 0006 9A42     		cmp	r2, r3
 173 0008 00D0     		beq	.L12
 174              	.LVL14:
 175              	.L9:
 107:USB_DEVICE/Target/usbd_conf.c ****   {
 108:USB_DEVICE/Target/usbd_conf.c ****   /* USER CODE BEGIN USB_OTG_HS_MspDeInit 0 */
 109:USB_DEVICE/Target/usbd_conf.c **** 
 110:USB_DEVICE/Target/usbd_conf.c ****   /* USER CODE END USB_OTG_HS_MspDeInit 0 */
 111:USB_DEVICE/Target/usbd_conf.c ****     /* Peripheral clock disable */
 112:USB_DEVICE/Target/usbd_conf.c ****     __HAL_RCC_USB_OTG_HS_CLK_DISABLE();
 113:USB_DEVICE/Target/usbd_conf.c **** 
 114:USB_DEVICE/Target/usbd_conf.c ****     /* Peripheral interrupt Deinit*/
 115:USB_DEVICE/Target/usbd_conf.c ****     HAL_NVIC_DisableIRQ(OTG_HS_EP1_OUT_IRQn);
 116:USB_DEVICE/Target/usbd_conf.c **** 
 117:USB_DEVICE/Target/usbd_conf.c ****     HAL_NVIC_DisableIRQ(OTG_HS_EP1_IN_IRQn);
 118:USB_DEVICE/Target/usbd_conf.c **** 
 119:USB_DEVICE/Target/usbd_conf.c ****     HAL_NVIC_DisableIRQ(OTG_HS_IRQn);
 120:USB_DEVICE/Target/usbd_conf.c **** 
 121:USB_DEVICE/Target/usbd_conf.c ****   /* USER CODE BEGIN USB_OTG_HS_MspDeInit 1 */
 122:USB_DEVICE/Target/usbd_conf.c **** 
 123:USB_DEVICE/Target/usbd_conf.c ****   /* USER CODE END USB_OTG_HS_MspDeInit 1 */
 124:USB_DEVICE/Target/usbd_conf.c ****   }
 125:USB_DEVICE/Target/usbd_conf.c **** }
 176              		.loc 1 125 1 view .LVU36
 177 000a 08BD     		pop	{r3, pc}
 178              	.LVL15:
 179              	.L12:
 112:USB_DEVICE/Target/usbd_conf.c **** 
 180              		.loc 1 112 5 is_stmt 1 view .LVU37
 181 000c 094A     		ldr	r2, .L13+4
 182 000e D2F8D830 		ldr	r3, [r2, #216]
 183 0012 23F00073 		bic	r3, r3, #33554432
 184 0016 C2F8D830 		str	r3, [r2, #216]
 115:USB_DEVICE/Target/usbd_conf.c **** 
 185              		.loc 1 115 5 view .LVU38
 186 001a 4A20     		movs	r0, #74
 187              	.LVL16:
 115:USB_DEVICE/Target/usbd_conf.c **** 
 188              		.loc 1 115 5 is_stmt 0 view .LVU39
 189 001c FFF7FEFF 		bl	HAL_NVIC_DisableIRQ
 190              	.LVL17:
 117:USB_DEVICE/Target/usbd_conf.c **** 
 191              		.loc 1 117 5 is_stmt 1 view .LVU40
 192 0020 4B20     		movs	r0, #75
 193 0022 FFF7FEFF 		bl	HAL_NVIC_DisableIRQ
 194              	.LVL18:
 119:USB_DEVICE/Target/usbd_conf.c **** 
ARM GAS  C:\Users\thewo\AppData\Local\Temp\cci8avqb.s 			page 7


 195              		.loc 1 119 5 view .LVU41
 196 0026 4D20     		movs	r0, #77
 197 0028 FFF7FEFF 		bl	HAL_NVIC_DisableIRQ
 198              	.LVL19:
 199              		.loc 1 125 1 is_stmt 0 view .LVU42
 200 002c EDE7     		b	.L9
 201              	.L14:
 202 002e 00BF     		.align	2
 203              	.L13:
 204 0030 00000440 		.word	1074003968
 205 0034 00440258 		.word	1476543488
 206              		.cfi_endproc
 207              	.LFE355:
 209              		.section	.text.HAL_PCD_SetupStageCallback,"ax",%progbits
 210              		.align	1
 211              		.global	HAL_PCD_SetupStageCallback
 212              		.syntax unified
 213              		.thumb
 214              		.thumb_func
 216              	HAL_PCD_SetupStageCallback:
 217              	.LVL20:
 218              	.LFB356:
 126:USB_DEVICE/Target/usbd_conf.c **** 
 127:USB_DEVICE/Target/usbd_conf.c **** /**
 128:USB_DEVICE/Target/usbd_conf.c ****   * @brief  Setup stage callback
 129:USB_DEVICE/Target/usbd_conf.c ****   * @param  hpcd: PCD handle
 130:USB_DEVICE/Target/usbd_conf.c ****   * @retval None
 131:USB_DEVICE/Target/usbd_conf.c ****   */
 132:USB_DEVICE/Target/usbd_conf.c **** #if (USE_HAL_PCD_REGISTER_CALLBACKS == 1U)
 133:USB_DEVICE/Target/usbd_conf.c **** static void PCD_SetupStageCallback(PCD_HandleTypeDef *hpcd)
 134:USB_DEVICE/Target/usbd_conf.c **** #else
 135:USB_DEVICE/Target/usbd_conf.c **** void HAL_PCD_SetupStageCallback(PCD_HandleTypeDef *hpcd)
 136:USB_DEVICE/Target/usbd_conf.c **** #endif /* USE_HAL_PCD_REGISTER_CALLBACKS */
 137:USB_DEVICE/Target/usbd_conf.c **** {
 219              		.loc 1 137 1 is_stmt 1 view -0
 220              		.cfi_startproc
 221              		@ args = 0, pretend = 0, frame = 0
 222              		@ frame_needed = 0, uses_anonymous_args = 0
 223              		.loc 1 137 1 is_stmt 0 view .LVU44
 224 0000 08B5     		push	{r3, lr}
 225              		.cfi_def_cfa_offset 8
 226              		.cfi_offset 3, -8
 227              		.cfi_offset 14, -4
 138:USB_DEVICE/Target/usbd_conf.c ****   USBD_LL_SetupStage((USBD_HandleTypeDef*)hpcd->pData, (uint8_t *)hpcd->Setup);
 228              		.loc 1 138 3 is_stmt 1 view .LVU45
 229 0002 00F29C41 		addw	r1, r0, #1180
 230 0006 D0F8E004 		ldr	r0, [r0, #1248]
 231              	.LVL21:
 232              		.loc 1 138 3 is_stmt 0 view .LVU46
 233 000a FFF7FEFF 		bl	USBD_LL_SetupStage
 234              	.LVL22:
 139:USB_DEVICE/Target/usbd_conf.c **** }
 235              		.loc 1 139 1 view .LVU47
 236 000e 08BD     		pop	{r3, pc}
 237              		.cfi_endproc
 238              	.LFE356:
 240              		.section	.text.HAL_PCD_DataOutStageCallback,"ax",%progbits
ARM GAS  C:\Users\thewo\AppData\Local\Temp\cci8avqb.s 			page 8


 241              		.align	1
 242              		.global	HAL_PCD_DataOutStageCallback
 243              		.syntax unified
 244              		.thumb
 245              		.thumb_func
 247              	HAL_PCD_DataOutStageCallback:
 248              	.LVL23:
 249              	.LFB357:
 140:USB_DEVICE/Target/usbd_conf.c **** 
 141:USB_DEVICE/Target/usbd_conf.c **** /**
 142:USB_DEVICE/Target/usbd_conf.c ****   * @brief  Data Out stage callback.
 143:USB_DEVICE/Target/usbd_conf.c ****   * @param  hpcd: PCD handle
 144:USB_DEVICE/Target/usbd_conf.c ****   * @param  epnum: Endpoint number
 145:USB_DEVICE/Target/usbd_conf.c ****   * @retval None
 146:USB_DEVICE/Target/usbd_conf.c ****   */
 147:USB_DEVICE/Target/usbd_conf.c **** #if (USE_HAL_PCD_REGISTER_CALLBACKS == 1U)
 148:USB_DEVICE/Target/usbd_conf.c **** static void PCD_DataOutStageCallback(PCD_HandleTypeDef *hpcd, uint8_t epnum)
 149:USB_DEVICE/Target/usbd_conf.c **** #else
 150:USB_DEVICE/Target/usbd_conf.c **** void HAL_PCD_DataOutStageCallback(PCD_HandleTypeDef *hpcd, uint8_t epnum)
 151:USB_DEVICE/Target/usbd_conf.c **** #endif /* USE_HAL_PCD_REGISTER_CALLBACKS */
 152:USB_DEVICE/Target/usbd_conf.c **** {
 250              		.loc 1 152 1 is_stmt 1 view -0
 251              		.cfi_startproc
 252              		@ args = 0, pretend = 0, frame = 0
 253              		@ frame_needed = 0, uses_anonymous_args = 0
 254              		.loc 1 152 1 is_stmt 0 view .LVU49
 255 0000 08B5     		push	{r3, lr}
 256              		.cfi_def_cfa_offset 8
 257              		.cfi_offset 3, -8
 258              		.cfi_offset 14, -4
 153:USB_DEVICE/Target/usbd_conf.c ****   USBD_LL_DataOutStage((USBD_HandleTypeDef*)hpcd->pData, epnum, hpcd->OUT_ep[epnum].xfer_buff);
 259              		.loc 1 153 3 is_stmt 1 view .LVU50
 260 0002 01EBC103 		add	r3, r1, r1, lsl #3
 261 0006 00EB8303 		add	r3, r0, r3, lsl #2
 262 000a D3F86022 		ldr	r2, [r3, #608]
 263 000e D0F8E004 		ldr	r0, [r0, #1248]
 264              	.LVL24:
 265              		.loc 1 153 3 is_stmt 0 view .LVU51
 266 0012 FFF7FEFF 		bl	USBD_LL_DataOutStage
 267              	.LVL25:
 154:USB_DEVICE/Target/usbd_conf.c **** }
 268              		.loc 1 154 1 view .LVU52
 269 0016 08BD     		pop	{r3, pc}
 270              		.cfi_endproc
 271              	.LFE357:
 273              		.section	.text.HAL_PCD_DataInStageCallback,"ax",%progbits
 274              		.align	1
 275              		.global	HAL_PCD_DataInStageCallback
 276              		.syntax unified
 277              		.thumb
 278              		.thumb_func
 280              	HAL_PCD_DataInStageCallback:
 281              	.LVL26:
 282              	.LFB358:
 155:USB_DEVICE/Target/usbd_conf.c **** 
 156:USB_DEVICE/Target/usbd_conf.c **** /**
 157:USB_DEVICE/Target/usbd_conf.c ****   * @brief  Data In stage callback.
ARM GAS  C:\Users\thewo\AppData\Local\Temp\cci8avqb.s 			page 9


 158:USB_DEVICE/Target/usbd_conf.c ****   * @param  hpcd: PCD handle
 159:USB_DEVICE/Target/usbd_conf.c ****   * @param  epnum: Endpoint number
 160:USB_DEVICE/Target/usbd_conf.c ****   * @retval None
 161:USB_DEVICE/Target/usbd_conf.c ****   */
 162:USB_DEVICE/Target/usbd_conf.c **** #if (USE_HAL_PCD_REGISTER_CALLBACKS == 1U)
 163:USB_DEVICE/Target/usbd_conf.c **** static void PCD_DataInStageCallback(PCD_HandleTypeDef *hpcd, uint8_t epnum)
 164:USB_DEVICE/Target/usbd_conf.c **** #else
 165:USB_DEVICE/Target/usbd_conf.c **** void HAL_PCD_DataInStageCallback(PCD_HandleTypeDef *hpcd, uint8_t epnum)
 166:USB_DEVICE/Target/usbd_conf.c **** #endif /* USE_HAL_PCD_REGISTER_CALLBACKS */
 167:USB_DEVICE/Target/usbd_conf.c **** {
 283              		.loc 1 167 1 is_stmt 1 view -0
 284              		.cfi_startproc
 285              		@ args = 0, pretend = 0, frame = 0
 286              		@ frame_needed = 0, uses_anonymous_args = 0
 287              		.loc 1 167 1 is_stmt 0 view .LVU54
 288 0000 08B5     		push	{r3, lr}
 289              		.cfi_def_cfa_offset 8
 290              		.cfi_offset 3, -8
 291              		.cfi_offset 14, -4
 168:USB_DEVICE/Target/usbd_conf.c ****   USBD_LL_DataInStage((USBD_HandleTypeDef*)hpcd->pData, epnum, hpcd->IN_ep[epnum].xfer_buff);
 292              		.loc 1 168 3 is_stmt 1 view .LVU55
 293 0002 01EBC103 		add	r3, r1, r1, lsl #3
 294 0006 00EB8303 		add	r3, r0, r3, lsl #2
 295 000a 1A6A     		ldr	r2, [r3, #32]
 296 000c D0F8E004 		ldr	r0, [r0, #1248]
 297              	.LVL27:
 298              		.loc 1 168 3 is_stmt 0 view .LVU56
 299 0010 FFF7FEFF 		bl	USBD_LL_DataInStage
 300              	.LVL28:
 169:USB_DEVICE/Target/usbd_conf.c **** }
 301              		.loc 1 169 1 view .LVU57
 302 0014 08BD     		pop	{r3, pc}
 303              		.cfi_endproc
 304              	.LFE358:
 306              		.section	.text.HAL_PCD_SOFCallback,"ax",%progbits
 307              		.align	1
 308              		.global	HAL_PCD_SOFCallback
 309              		.syntax unified
 310              		.thumb
 311              		.thumb_func
 313              	HAL_PCD_SOFCallback:
 314              	.LVL29:
 315              	.LFB359:
 170:USB_DEVICE/Target/usbd_conf.c **** 
 171:USB_DEVICE/Target/usbd_conf.c **** /**
 172:USB_DEVICE/Target/usbd_conf.c ****   * @brief  SOF callback.
 173:USB_DEVICE/Target/usbd_conf.c ****   * @param  hpcd: PCD handle
 174:USB_DEVICE/Target/usbd_conf.c ****   * @retval None
 175:USB_DEVICE/Target/usbd_conf.c ****   */
 176:USB_DEVICE/Target/usbd_conf.c **** #if (USE_HAL_PCD_REGISTER_CALLBACKS == 1U)
 177:USB_DEVICE/Target/usbd_conf.c **** static void PCD_SOFCallback(PCD_HandleTypeDef *hpcd)
 178:USB_DEVICE/Target/usbd_conf.c **** #else
 179:USB_DEVICE/Target/usbd_conf.c **** void HAL_PCD_SOFCallback(PCD_HandleTypeDef *hpcd)
 180:USB_DEVICE/Target/usbd_conf.c **** #endif /* USE_HAL_PCD_REGISTER_CALLBACKS */
 181:USB_DEVICE/Target/usbd_conf.c **** {
 316              		.loc 1 181 1 is_stmt 1 view -0
 317              		.cfi_startproc
ARM GAS  C:\Users\thewo\AppData\Local\Temp\cci8avqb.s 			page 10


 318              		@ args = 0, pretend = 0, frame = 0
 319              		@ frame_needed = 0, uses_anonymous_args = 0
 320              		.loc 1 181 1 is_stmt 0 view .LVU59
 321 0000 08B5     		push	{r3, lr}
 322              		.cfi_def_cfa_offset 8
 323              		.cfi_offset 3, -8
 324              		.cfi_offset 14, -4
 182:USB_DEVICE/Target/usbd_conf.c ****   USBD_LL_SOF((USBD_HandleTypeDef*)hpcd->pData);
 325              		.loc 1 182 3 is_stmt 1 view .LVU60
 326 0002 D0F8E004 		ldr	r0, [r0, #1248]
 327              	.LVL30:
 328              		.loc 1 182 3 is_stmt 0 view .LVU61
 329 0006 FFF7FEFF 		bl	USBD_LL_SOF
 330              	.LVL31:
 183:USB_DEVICE/Target/usbd_conf.c **** }
 331              		.loc 1 183 1 view .LVU62
 332 000a 08BD     		pop	{r3, pc}
 333              		.cfi_endproc
 334              	.LFE359:
 336              		.section	.text.HAL_PCD_ResetCallback,"ax",%progbits
 337              		.align	1
 338              		.global	HAL_PCD_ResetCallback
 339              		.syntax unified
 340              		.thumb
 341              		.thumb_func
 343              	HAL_PCD_ResetCallback:
 344              	.LVL32:
 345              	.LFB360:
 184:USB_DEVICE/Target/usbd_conf.c **** 
 185:USB_DEVICE/Target/usbd_conf.c **** /**
 186:USB_DEVICE/Target/usbd_conf.c ****   * @brief  Reset callback.
 187:USB_DEVICE/Target/usbd_conf.c ****   * @param  hpcd: PCD handle
 188:USB_DEVICE/Target/usbd_conf.c ****   * @retval None
 189:USB_DEVICE/Target/usbd_conf.c ****   */
 190:USB_DEVICE/Target/usbd_conf.c **** #if (USE_HAL_PCD_REGISTER_CALLBACKS == 1U)
 191:USB_DEVICE/Target/usbd_conf.c **** static void PCD_ResetCallback(PCD_HandleTypeDef *hpcd)
 192:USB_DEVICE/Target/usbd_conf.c **** #else
 193:USB_DEVICE/Target/usbd_conf.c **** void HAL_PCD_ResetCallback(PCD_HandleTypeDef *hpcd)
 194:USB_DEVICE/Target/usbd_conf.c **** #endif /* USE_HAL_PCD_REGISTER_CALLBACKS */
 195:USB_DEVICE/Target/usbd_conf.c **** {
 346              		.loc 1 195 1 is_stmt 1 view -0
 347              		.cfi_startproc
 348              		@ args = 0, pretend = 0, frame = 0
 349              		@ frame_needed = 0, uses_anonymous_args = 0
 350              		.loc 1 195 1 is_stmt 0 view .LVU64
 351 0000 10B5     		push	{r4, lr}
 352              		.cfi_def_cfa_offset 8
 353              		.cfi_offset 4, -8
 354              		.cfi_offset 14, -4
 355 0002 0446     		mov	r4, r0
 196:USB_DEVICE/Target/usbd_conf.c ****   USBD_SpeedTypeDef speed = USBD_SPEED_FULL;
 356              		.loc 1 196 3 is_stmt 1 view .LVU65
 357              	.LVL33:
 197:USB_DEVICE/Target/usbd_conf.c **** 
 198:USB_DEVICE/Target/usbd_conf.c ****   if ( hpcd->Init.speed == PCD_SPEED_HIGH)
 358              		.loc 1 198 3 view .LVU66
 359              		.loc 1 198 18 is_stmt 0 view .LVU67
ARM GAS  C:\Users\thewo\AppData\Local\Temp\cci8avqb.s 			page 11


 360 0004 C179     		ldrb	r1, [r0, #7]	@ zero_extendqisi2
 361              		.loc 1 198 6 view .LVU68
 362 0006 11B1     		cbz	r1, .L24
 199:USB_DEVICE/Target/usbd_conf.c ****   {
 200:USB_DEVICE/Target/usbd_conf.c ****     speed = USBD_SPEED_HIGH;
 201:USB_DEVICE/Target/usbd_conf.c ****   }
 202:USB_DEVICE/Target/usbd_conf.c ****   else if ( hpcd->Init.speed == PCD_SPEED_FULL)
 363              		.loc 1 202 8 is_stmt 1 view .LVU69
 364              		.loc 1 202 11 is_stmt 0 view .LVU70
 365 0008 0229     		cmp	r1, #2
 366 000a 09D1     		bne	.L27
 203:USB_DEVICE/Target/usbd_conf.c ****   {
 204:USB_DEVICE/Target/usbd_conf.c ****     speed = USBD_SPEED_FULL;
 367              		.loc 1 204 11 view .LVU71
 368 000c 0121     		movs	r1, #1
 369              	.LVL34:
 370              	.L24:
 205:USB_DEVICE/Target/usbd_conf.c ****   }
 206:USB_DEVICE/Target/usbd_conf.c ****   else
 207:USB_DEVICE/Target/usbd_conf.c ****   {
 208:USB_DEVICE/Target/usbd_conf.c ****     Error_Handler();
 209:USB_DEVICE/Target/usbd_conf.c ****   }
 210:USB_DEVICE/Target/usbd_conf.c ****     /* Set Speed. */
 211:USB_DEVICE/Target/usbd_conf.c ****   USBD_LL_SetSpeed((USBD_HandleTypeDef*)hpcd->pData, speed);
 371              		.loc 1 211 3 is_stmt 1 view .LVU72
 372 000e D4F8E004 		ldr	r0, [r4, #1248]
 373 0012 FFF7FEFF 		bl	USBD_LL_SetSpeed
 374              	.LVL35:
 212:USB_DEVICE/Target/usbd_conf.c **** 
 213:USB_DEVICE/Target/usbd_conf.c ****   /* Reset Device. */
 214:USB_DEVICE/Target/usbd_conf.c ****   USBD_LL_Reset((USBD_HandleTypeDef*)hpcd->pData);
 375              		.loc 1 214 3 view .LVU73
 376 0016 D4F8E004 		ldr	r0, [r4, #1248]
 377 001a FFF7FEFF 		bl	USBD_LL_Reset
 378              	.LVL36:
 215:USB_DEVICE/Target/usbd_conf.c **** }
 379              		.loc 1 215 1 is_stmt 0 view .LVU74
 380 001e 10BD     		pop	{r4, pc}
 381              	.LVL37:
 382              	.L27:
 208:USB_DEVICE/Target/usbd_conf.c ****   }
 383              		.loc 1 208 5 is_stmt 1 view .LVU75
 384 0020 FFF7FEFF 		bl	Error_Handler
 385              	.LVL38:
 196:USB_DEVICE/Target/usbd_conf.c **** 
 386              		.loc 1 196 21 is_stmt 0 view .LVU76
 387 0024 0121     		movs	r1, #1
 388 0026 F2E7     		b	.L24
 389              		.cfi_endproc
 390              	.LFE360:
 392              		.section	.text.HAL_PCD_SuspendCallback,"ax",%progbits
 393              		.align	1
 394              		.global	HAL_PCD_SuspendCallback
 395              		.syntax unified
 396              		.thumb
 397              		.thumb_func
 399              	HAL_PCD_SuspendCallback:
ARM GAS  C:\Users\thewo\AppData\Local\Temp\cci8avqb.s 			page 12


 400              	.LVL39:
 401              	.LFB361:
 216:USB_DEVICE/Target/usbd_conf.c **** 
 217:USB_DEVICE/Target/usbd_conf.c **** /**
 218:USB_DEVICE/Target/usbd_conf.c ****   * @brief  Suspend callback.
 219:USB_DEVICE/Target/usbd_conf.c ****   * When Low power mode is enabled the debug cannot be used (IAR, Keil doesn't support it)
 220:USB_DEVICE/Target/usbd_conf.c ****   * @param  hpcd: PCD handle
 221:USB_DEVICE/Target/usbd_conf.c ****   * @retval None
 222:USB_DEVICE/Target/usbd_conf.c ****   */
 223:USB_DEVICE/Target/usbd_conf.c **** #if (USE_HAL_PCD_REGISTER_CALLBACKS == 1U)
 224:USB_DEVICE/Target/usbd_conf.c **** static void PCD_SuspendCallback(PCD_HandleTypeDef *hpcd)
 225:USB_DEVICE/Target/usbd_conf.c **** #else
 226:USB_DEVICE/Target/usbd_conf.c **** void HAL_PCD_SuspendCallback(PCD_HandleTypeDef *hpcd)
 227:USB_DEVICE/Target/usbd_conf.c **** #endif /* USE_HAL_PCD_REGISTER_CALLBACKS */
 228:USB_DEVICE/Target/usbd_conf.c **** {
 402              		.loc 1 228 1 is_stmt 1 view -0
 403              		.cfi_startproc
 404              		@ args = 0, pretend = 0, frame = 0
 405              		@ frame_needed = 0, uses_anonymous_args = 0
 406              		.loc 1 228 1 is_stmt 0 view .LVU78
 407 0000 10B5     		push	{r4, lr}
 408              		.cfi_def_cfa_offset 8
 409              		.cfi_offset 4, -8
 410              		.cfi_offset 14, -4
 411 0002 0446     		mov	r4, r0
 229:USB_DEVICE/Target/usbd_conf.c ****   /* Inform USB library that core enters in suspend Mode. */
 230:USB_DEVICE/Target/usbd_conf.c ****   USBD_LL_Suspend((USBD_HandleTypeDef*)hpcd->pData);
 412              		.loc 1 230 3 is_stmt 1 view .LVU79
 413 0004 D0F8E004 		ldr	r0, [r0, #1248]
 414              	.LVL40:
 415              		.loc 1 230 3 is_stmt 0 view .LVU80
 416 0008 FFF7FEFF 		bl	USBD_LL_Suspend
 417              	.LVL41:
 231:USB_DEVICE/Target/usbd_conf.c ****   __HAL_PCD_GATE_PHYCLOCK(hpcd);
 418              		.loc 1 231 3 is_stmt 1 view .LVU81
 419 000c 2268     		ldr	r2, [r4]
 420 000e D2F8003E 		ldr	r3, [r2, #3584]
 421 0012 43F00103 		orr	r3, r3, #1
 422 0016 C2F8003E 		str	r3, [r2, #3584]
 232:USB_DEVICE/Target/usbd_conf.c ****   /* Enter in STOP mode. */
 233:USB_DEVICE/Target/usbd_conf.c ****   /* USER CODE BEGIN 2 */
 234:USB_DEVICE/Target/usbd_conf.c ****   if (hpcd->Init.low_power_enable)
 423              		.loc 1 234 3 view .LVU82
 424              		.loc 1 234 17 is_stmt 0 view .LVU83
 425 001a E37A     		ldrb	r3, [r4, #11]	@ zero_extendqisi2
 426              		.loc 1 234 6 view .LVU84
 427 001c 23B1     		cbz	r3, .L28
 235:USB_DEVICE/Target/usbd_conf.c ****   {
 236:USB_DEVICE/Target/usbd_conf.c ****     /* Set SLEEPDEEP bit and SleepOnExit of Cortex System Control Register. */
 237:USB_DEVICE/Target/usbd_conf.c ****     SCB->SCR |= (uint32_t)((uint32_t)(SCB_SCR_SLEEPDEEP_Msk | SCB_SCR_SLEEPONEXIT_Msk));
 428              		.loc 1 237 5 is_stmt 1 view .LVU85
 429              		.loc 1 237 8 is_stmt 0 view .LVU86
 430 001e 034A     		ldr	r2, .L31
 431 0020 1369     		ldr	r3, [r2, #16]
 432              		.loc 1 237 14 view .LVU87
 433 0022 43F00603 		orr	r3, r3, #6
 434 0026 1361     		str	r3, [r2, #16]
ARM GAS  C:\Users\thewo\AppData\Local\Temp\cci8avqb.s 			page 13


 435              	.L28:
 238:USB_DEVICE/Target/usbd_conf.c ****   }
 239:USB_DEVICE/Target/usbd_conf.c ****   /* USER CODE END 2 */
 240:USB_DEVICE/Target/usbd_conf.c **** }
 436              		.loc 1 240 1 view .LVU88
 437 0028 10BD     		pop	{r4, pc}
 438              	.LVL42:
 439              	.L32:
 440              		.loc 1 240 1 view .LVU89
 441 002a 00BF     		.align	2
 442              	.L31:
 443 002c 00ED00E0 		.word	-536810240
 444              		.cfi_endproc
 445              	.LFE361:
 447              		.section	.text.HAL_PCD_ResumeCallback,"ax",%progbits
 448              		.align	1
 449              		.global	HAL_PCD_ResumeCallback
 450              		.syntax unified
 451              		.thumb
 452              		.thumb_func
 454              	HAL_PCD_ResumeCallback:
 455              	.LVL43:
 456              	.LFB362:
 241:USB_DEVICE/Target/usbd_conf.c **** 
 242:USB_DEVICE/Target/usbd_conf.c **** /**
 243:USB_DEVICE/Target/usbd_conf.c ****   * @brief  Resume callback.
 244:USB_DEVICE/Target/usbd_conf.c ****   * When Low power mode is enabled the debug cannot be used (IAR, Keil doesn't support it)
 245:USB_DEVICE/Target/usbd_conf.c ****   * @param  hpcd: PCD handle
 246:USB_DEVICE/Target/usbd_conf.c ****   * @retval None
 247:USB_DEVICE/Target/usbd_conf.c ****   */
 248:USB_DEVICE/Target/usbd_conf.c **** #if (USE_HAL_PCD_REGISTER_CALLBACKS == 1U)
 249:USB_DEVICE/Target/usbd_conf.c **** static void PCD_ResumeCallback(PCD_HandleTypeDef *hpcd)
 250:USB_DEVICE/Target/usbd_conf.c **** #else
 251:USB_DEVICE/Target/usbd_conf.c **** void HAL_PCD_ResumeCallback(PCD_HandleTypeDef *hpcd)
 252:USB_DEVICE/Target/usbd_conf.c **** #endif /* USE_HAL_PCD_REGISTER_CALLBACKS */
 253:USB_DEVICE/Target/usbd_conf.c **** {
 457              		.loc 1 253 1 is_stmt 1 view -0
 458              		.cfi_startproc
 459              		@ args = 0, pretend = 0, frame = 0
 460              		@ frame_needed = 0, uses_anonymous_args = 0
 461              		.loc 1 253 1 is_stmt 0 view .LVU91
 462 0000 08B5     		push	{r3, lr}
 463              		.cfi_def_cfa_offset 8
 464              		.cfi_offset 3, -8
 465              		.cfi_offset 14, -4
 254:USB_DEVICE/Target/usbd_conf.c ****   /* USER CODE BEGIN 3 */
 255:USB_DEVICE/Target/usbd_conf.c **** 
 256:USB_DEVICE/Target/usbd_conf.c ****   /* USER CODE END 3 */
 257:USB_DEVICE/Target/usbd_conf.c ****   USBD_LL_Resume((USBD_HandleTypeDef*)hpcd->pData);
 466              		.loc 1 257 3 is_stmt 1 view .LVU92
 467 0002 D0F8E004 		ldr	r0, [r0, #1248]
 468              	.LVL44:
 469              		.loc 1 257 3 is_stmt 0 view .LVU93
 470 0006 FFF7FEFF 		bl	USBD_LL_Resume
 471              	.LVL45:
 258:USB_DEVICE/Target/usbd_conf.c **** }
 472              		.loc 1 258 1 view .LVU94
ARM GAS  C:\Users\thewo\AppData\Local\Temp\cci8avqb.s 			page 14


 473 000a 08BD     		pop	{r3, pc}
 474              		.cfi_endproc
 475              	.LFE362:
 477              		.section	.text.HAL_PCD_ISOOUTIncompleteCallback,"ax",%progbits
 478              		.align	1
 479              		.global	HAL_PCD_ISOOUTIncompleteCallback
 480              		.syntax unified
 481              		.thumb
 482              		.thumb_func
 484              	HAL_PCD_ISOOUTIncompleteCallback:
 485              	.LVL46:
 486              	.LFB363:
 259:USB_DEVICE/Target/usbd_conf.c **** 
 260:USB_DEVICE/Target/usbd_conf.c **** /**
 261:USB_DEVICE/Target/usbd_conf.c ****   * @brief  ISOOUTIncomplete callback.
 262:USB_DEVICE/Target/usbd_conf.c ****   * @param  hpcd: PCD handle
 263:USB_DEVICE/Target/usbd_conf.c ****   * @param  epnum: Endpoint number
 264:USB_DEVICE/Target/usbd_conf.c ****   * @retval None
 265:USB_DEVICE/Target/usbd_conf.c ****   */
 266:USB_DEVICE/Target/usbd_conf.c **** #if (USE_HAL_PCD_REGISTER_CALLBACKS == 1U)
 267:USB_DEVICE/Target/usbd_conf.c **** static void PCD_ISOOUTIncompleteCallback(PCD_HandleTypeDef *hpcd, uint8_t epnum)
 268:USB_DEVICE/Target/usbd_conf.c **** #else
 269:USB_DEVICE/Target/usbd_conf.c **** void HAL_PCD_ISOOUTIncompleteCallback(PCD_HandleTypeDef *hpcd, uint8_t epnum)
 270:USB_DEVICE/Target/usbd_conf.c **** #endif /* USE_HAL_PCD_REGISTER_CALLBACKS */
 271:USB_DEVICE/Target/usbd_conf.c **** {
 487              		.loc 1 271 1 is_stmt 1 view -0
 488              		.cfi_startproc
 489              		@ args = 0, pretend = 0, frame = 0
 490              		@ frame_needed = 0, uses_anonymous_args = 0
 491              		.loc 1 271 1 is_stmt 0 view .LVU96
 492 0000 08B5     		push	{r3, lr}
 493              		.cfi_def_cfa_offset 8
 494              		.cfi_offset 3, -8
 495              		.cfi_offset 14, -4
 272:USB_DEVICE/Target/usbd_conf.c ****   USBD_LL_IsoOUTIncomplete((USBD_HandleTypeDef*)hpcd->pData, epnum);
 496              		.loc 1 272 3 is_stmt 1 view .LVU97
 497 0002 D0F8E004 		ldr	r0, [r0, #1248]
 498              	.LVL47:
 499              		.loc 1 272 3 is_stmt 0 view .LVU98
 500 0006 FFF7FEFF 		bl	USBD_LL_IsoOUTIncomplete
 501              	.LVL48:
 273:USB_DEVICE/Target/usbd_conf.c **** }
 502              		.loc 1 273 1 view .LVU99
 503 000a 08BD     		pop	{r3, pc}
 504              		.cfi_endproc
 505              	.LFE363:
 507              		.section	.text.HAL_PCD_ISOINIncompleteCallback,"ax",%progbits
 508              		.align	1
 509              		.global	HAL_PCD_ISOINIncompleteCallback
 510              		.syntax unified
 511              		.thumb
 512              		.thumb_func
 514              	HAL_PCD_ISOINIncompleteCallback:
 515              	.LVL49:
 516              	.LFB364:
 274:USB_DEVICE/Target/usbd_conf.c **** 
 275:USB_DEVICE/Target/usbd_conf.c **** /**
ARM GAS  C:\Users\thewo\AppData\Local\Temp\cci8avqb.s 			page 15


 276:USB_DEVICE/Target/usbd_conf.c ****   * @brief  ISOINIncomplete callback.
 277:USB_DEVICE/Target/usbd_conf.c ****   * @param  hpcd: PCD handle
 278:USB_DEVICE/Target/usbd_conf.c ****   * @param  epnum: Endpoint number
 279:USB_DEVICE/Target/usbd_conf.c ****   * @retval None
 280:USB_DEVICE/Target/usbd_conf.c ****   */
 281:USB_DEVICE/Target/usbd_conf.c **** #if (USE_HAL_PCD_REGISTER_CALLBACKS == 1U)
 282:USB_DEVICE/Target/usbd_conf.c **** static void PCD_ISOINIncompleteCallback(PCD_HandleTypeDef *hpcd, uint8_t epnum)
 283:USB_DEVICE/Target/usbd_conf.c **** #else
 284:USB_DEVICE/Target/usbd_conf.c **** void HAL_PCD_ISOINIncompleteCallback(PCD_HandleTypeDef *hpcd, uint8_t epnum)
 285:USB_DEVICE/Target/usbd_conf.c **** #endif /* USE_HAL_PCD_REGISTER_CALLBACKS */
 286:USB_DEVICE/Target/usbd_conf.c **** {
 517              		.loc 1 286 1 is_stmt 1 view -0
 518              		.cfi_startproc
 519              		@ args = 0, pretend = 0, frame = 0
 520              		@ frame_needed = 0, uses_anonymous_args = 0
 521              		.loc 1 286 1 is_stmt 0 view .LVU101
 522 0000 08B5     		push	{r3, lr}
 523              		.cfi_def_cfa_offset 8
 524              		.cfi_offset 3, -8
 525              		.cfi_offset 14, -4
 287:USB_DEVICE/Target/usbd_conf.c ****   USBD_LL_IsoINIncomplete((USBD_HandleTypeDef*)hpcd->pData, epnum);
 526              		.loc 1 287 3 is_stmt 1 view .LVU102
 527 0002 D0F8E004 		ldr	r0, [r0, #1248]
 528              	.LVL50:
 529              		.loc 1 287 3 is_stmt 0 view .LVU103
 530 0006 FFF7FEFF 		bl	USBD_LL_IsoINIncomplete
 531              	.LVL51:
 288:USB_DEVICE/Target/usbd_conf.c **** }
 532              		.loc 1 288 1 view .LVU104
 533 000a 08BD     		pop	{r3, pc}
 534              		.cfi_endproc
 535              	.LFE364:
 537              		.section	.text.HAL_PCD_ConnectCallback,"ax",%progbits
 538              		.align	1
 539              		.global	HAL_PCD_ConnectCallback
 540              		.syntax unified
 541              		.thumb
 542              		.thumb_func
 544              	HAL_PCD_ConnectCallback:
 545              	.LVL52:
 546              	.LFB365:
 289:USB_DEVICE/Target/usbd_conf.c **** 
 290:USB_DEVICE/Target/usbd_conf.c **** /**
 291:USB_DEVICE/Target/usbd_conf.c ****   * @brief  Connect callback.
 292:USB_DEVICE/Target/usbd_conf.c ****   * @param  hpcd: PCD handle
 293:USB_DEVICE/Target/usbd_conf.c ****   * @retval None
 294:USB_DEVICE/Target/usbd_conf.c ****   */
 295:USB_DEVICE/Target/usbd_conf.c **** #if (USE_HAL_PCD_REGISTER_CALLBACKS == 1U)
 296:USB_DEVICE/Target/usbd_conf.c **** static void PCD_ConnectCallback(PCD_HandleTypeDef *hpcd)
 297:USB_DEVICE/Target/usbd_conf.c **** #else
 298:USB_DEVICE/Target/usbd_conf.c **** void HAL_PCD_ConnectCallback(PCD_HandleTypeDef *hpcd)
 299:USB_DEVICE/Target/usbd_conf.c **** #endif /* USE_HAL_PCD_REGISTER_CALLBACKS */
 300:USB_DEVICE/Target/usbd_conf.c **** {
 547              		.loc 1 300 1 is_stmt 1 view -0
 548              		.cfi_startproc
 549              		@ args = 0, pretend = 0, frame = 0
 550              		@ frame_needed = 0, uses_anonymous_args = 0
ARM GAS  C:\Users\thewo\AppData\Local\Temp\cci8avqb.s 			page 16


 551              		.loc 1 300 1 is_stmt 0 view .LVU106
 552 0000 08B5     		push	{r3, lr}
 553              		.cfi_def_cfa_offset 8
 554              		.cfi_offset 3, -8
 555              		.cfi_offset 14, -4
 301:USB_DEVICE/Target/usbd_conf.c ****   USBD_LL_DevConnected((USBD_HandleTypeDef*)hpcd->pData);
 556              		.loc 1 301 3 is_stmt 1 view .LVU107
 557 0002 D0F8E004 		ldr	r0, [r0, #1248]
 558              	.LVL53:
 559              		.loc 1 301 3 is_stmt 0 view .LVU108
 560 0006 FFF7FEFF 		bl	USBD_LL_DevConnected
 561              	.LVL54:
 302:USB_DEVICE/Target/usbd_conf.c **** }
 562              		.loc 1 302 1 view .LVU109
 563 000a 08BD     		pop	{r3, pc}
 564              		.cfi_endproc
 565              	.LFE365:
 567              		.section	.text.HAL_PCD_DisconnectCallback,"ax",%progbits
 568              		.align	1
 569              		.global	HAL_PCD_DisconnectCallback
 570              		.syntax unified
 571              		.thumb
 572              		.thumb_func
 574              	HAL_PCD_DisconnectCallback:
 575              	.LVL55:
 576              	.LFB366:
 303:USB_DEVICE/Target/usbd_conf.c **** 
 304:USB_DEVICE/Target/usbd_conf.c **** /**
 305:USB_DEVICE/Target/usbd_conf.c ****   * @brief  Disconnect callback.
 306:USB_DEVICE/Target/usbd_conf.c ****   * @param  hpcd: PCD handle
 307:USB_DEVICE/Target/usbd_conf.c ****   * @retval None
 308:USB_DEVICE/Target/usbd_conf.c ****   */
 309:USB_DEVICE/Target/usbd_conf.c **** #if (USE_HAL_PCD_REGISTER_CALLBACKS == 1U)
 310:USB_DEVICE/Target/usbd_conf.c **** static void PCD_DisconnectCallback(PCD_HandleTypeDef *hpcd)
 311:USB_DEVICE/Target/usbd_conf.c **** #else
 312:USB_DEVICE/Target/usbd_conf.c **** void HAL_PCD_DisconnectCallback(PCD_HandleTypeDef *hpcd)
 313:USB_DEVICE/Target/usbd_conf.c **** #endif /* USE_HAL_PCD_REGISTER_CALLBACKS */
 314:USB_DEVICE/Target/usbd_conf.c **** {
 577              		.loc 1 314 1 is_stmt 1 view -0
 578              		.cfi_startproc
 579              		@ args = 0, pretend = 0, frame = 0
 580              		@ frame_needed = 0, uses_anonymous_args = 0
 581              		.loc 1 314 1 is_stmt 0 view .LVU111
 582 0000 08B5     		push	{r3, lr}
 583              		.cfi_def_cfa_offset 8
 584              		.cfi_offset 3, -8
 585              		.cfi_offset 14, -4
 315:USB_DEVICE/Target/usbd_conf.c ****   USBD_LL_DevDisconnected((USBD_HandleTypeDef*)hpcd->pData);
 586              		.loc 1 315 3 is_stmt 1 view .LVU112
 587 0002 D0F8E004 		ldr	r0, [r0, #1248]
 588              	.LVL56:
 589              		.loc 1 315 3 is_stmt 0 view .LVU113
 590 0006 FFF7FEFF 		bl	USBD_LL_DevDisconnected
 591              	.LVL57:
 316:USB_DEVICE/Target/usbd_conf.c **** }
 592              		.loc 1 316 1 view .LVU114
 593 000a 08BD     		pop	{r3, pc}
ARM GAS  C:\Users\thewo\AppData\Local\Temp\cci8avqb.s 			page 17


 594              		.cfi_endproc
 595              	.LFE366:
 597              		.section	.text.USBD_LL_Init,"ax",%progbits
 598              		.align	1
 599              		.global	USBD_LL_Init
 600              		.syntax unified
 601              		.thumb
 602              		.thumb_func
 604              	USBD_LL_Init:
 605              	.LVL58:
 606              	.LFB367:
 317:USB_DEVICE/Target/usbd_conf.c **** 
 318:USB_DEVICE/Target/usbd_conf.c **** /*******************************************************************************
 319:USB_DEVICE/Target/usbd_conf.c ****                        LL Driver Interface (USB Device Library --> PCD)
 320:USB_DEVICE/Target/usbd_conf.c **** *******************************************************************************/
 321:USB_DEVICE/Target/usbd_conf.c **** 
 322:USB_DEVICE/Target/usbd_conf.c **** /**
 323:USB_DEVICE/Target/usbd_conf.c ****   * @brief  Initializes the low level portion of the device driver.
 324:USB_DEVICE/Target/usbd_conf.c ****   * @param  pdev: Device handle
 325:USB_DEVICE/Target/usbd_conf.c ****   * @retval USBD status
 326:USB_DEVICE/Target/usbd_conf.c ****   */
 327:USB_DEVICE/Target/usbd_conf.c **** USBD_StatusTypeDef USBD_LL_Init(USBD_HandleTypeDef *pdev)
 328:USB_DEVICE/Target/usbd_conf.c **** {
 607              		.loc 1 328 1 is_stmt 1 view -0
 608              		.cfi_startproc
 609              		@ args = 0, pretend = 0, frame = 0
 610              		@ frame_needed = 0, uses_anonymous_args = 0
 329:USB_DEVICE/Target/usbd_conf.c ****   /* Init USB Ip. */
 330:USB_DEVICE/Target/usbd_conf.c ****   if (pdev->id == DEVICE_HS) {
 611              		.loc 1 330 3 view .LVU116
 612              		.loc 1 330 11 is_stmt 0 view .LVU117
 613 0000 0378     		ldrb	r3, [r0]	@ zero_extendqisi2
 614              		.loc 1 330 6 view .LVU118
 615 0002 012B     		cmp	r3, #1
 616 0004 01D0     		beq	.L50
 331:USB_DEVICE/Target/usbd_conf.c ****   /* Link the driver to the stack. */
 332:USB_DEVICE/Target/usbd_conf.c ****   hpcd_USB_OTG_HS.pData = pdev;
 333:USB_DEVICE/Target/usbd_conf.c ****   pdev->pData = &hpcd_USB_OTG_HS;
 334:USB_DEVICE/Target/usbd_conf.c **** 
 335:USB_DEVICE/Target/usbd_conf.c ****   hpcd_USB_OTG_HS.Instance = USB_OTG_HS;
 336:USB_DEVICE/Target/usbd_conf.c ****   hpcd_USB_OTG_HS.Init.dev_endpoints = 9;
 337:USB_DEVICE/Target/usbd_conf.c ****   hpcd_USB_OTG_HS.Init.speed = PCD_SPEED_FULL;
 338:USB_DEVICE/Target/usbd_conf.c ****   hpcd_USB_OTG_HS.Init.dma_enable = DISABLE;
 339:USB_DEVICE/Target/usbd_conf.c ****   hpcd_USB_OTG_HS.Init.phy_itface = USB_OTG_EMBEDDED_PHY;
 340:USB_DEVICE/Target/usbd_conf.c ****   hpcd_USB_OTG_HS.Init.Sof_enable = DISABLE;
 341:USB_DEVICE/Target/usbd_conf.c ****   hpcd_USB_OTG_HS.Init.low_power_enable = DISABLE;
 342:USB_DEVICE/Target/usbd_conf.c ****   hpcd_USB_OTG_HS.Init.lpm_enable = DISABLE;
 343:USB_DEVICE/Target/usbd_conf.c ****   hpcd_USB_OTG_HS.Init.vbus_sensing_enable = DISABLE;
 344:USB_DEVICE/Target/usbd_conf.c ****   hpcd_USB_OTG_HS.Init.use_dedicated_ep1 = DISABLE;
 345:USB_DEVICE/Target/usbd_conf.c ****   hpcd_USB_OTG_HS.Init.use_external_vbus = DISABLE;
 346:USB_DEVICE/Target/usbd_conf.c ****   if (HAL_PCD_Init(&hpcd_USB_OTG_HS) != HAL_OK)
 347:USB_DEVICE/Target/usbd_conf.c ****   {
 348:USB_DEVICE/Target/usbd_conf.c ****     Error_Handler( );
 349:USB_DEVICE/Target/usbd_conf.c ****   }
 350:USB_DEVICE/Target/usbd_conf.c **** 
 351:USB_DEVICE/Target/usbd_conf.c **** #if (USE_HAL_PCD_REGISTER_CALLBACKS == 1U)
 352:USB_DEVICE/Target/usbd_conf.c ****   /* Register USB PCD CallBacks */
ARM GAS  C:\Users\thewo\AppData\Local\Temp\cci8avqb.s 			page 18


 353:USB_DEVICE/Target/usbd_conf.c ****   HAL_PCD_RegisterCallback(&hpcd_USB_OTG_HS, HAL_PCD_SOF_CB_ID, PCD_SOFCallback);
 354:USB_DEVICE/Target/usbd_conf.c ****   HAL_PCD_RegisterCallback(&hpcd_USB_OTG_HS, HAL_PCD_SETUPSTAGE_CB_ID, PCD_SetupStageCallback);
 355:USB_DEVICE/Target/usbd_conf.c ****   HAL_PCD_RegisterCallback(&hpcd_USB_OTG_HS, HAL_PCD_RESET_CB_ID, PCD_ResetCallback);
 356:USB_DEVICE/Target/usbd_conf.c ****   HAL_PCD_RegisterCallback(&hpcd_USB_OTG_HS, HAL_PCD_SUSPEND_CB_ID, PCD_SuspendCallback);
 357:USB_DEVICE/Target/usbd_conf.c ****   HAL_PCD_RegisterCallback(&hpcd_USB_OTG_HS, HAL_PCD_RESUME_CB_ID, PCD_ResumeCallback);
 358:USB_DEVICE/Target/usbd_conf.c ****   HAL_PCD_RegisterCallback(&hpcd_USB_OTG_HS, HAL_PCD_CONNECT_CB_ID, PCD_ConnectCallback);
 359:USB_DEVICE/Target/usbd_conf.c ****   HAL_PCD_RegisterCallback(&hpcd_USB_OTG_HS, HAL_PCD_DISCONNECT_CB_ID, PCD_DisconnectCallback);
 360:USB_DEVICE/Target/usbd_conf.c **** 
 361:USB_DEVICE/Target/usbd_conf.c ****   HAL_PCD_RegisterDataOutStageCallback(&hpcd_USB_OTG_HS, PCD_DataOutStageCallback);
 362:USB_DEVICE/Target/usbd_conf.c ****   HAL_PCD_RegisterDataInStageCallback(&hpcd_USB_OTG_HS, PCD_DataInStageCallback);
 363:USB_DEVICE/Target/usbd_conf.c ****   HAL_PCD_RegisterIsoOutIncpltCallback(&hpcd_USB_OTG_HS, PCD_ISOOUTIncompleteCallback);
 364:USB_DEVICE/Target/usbd_conf.c ****   HAL_PCD_RegisterIsoInIncpltCallback(&hpcd_USB_OTG_HS, PCD_ISOINIncompleteCallback);
 365:USB_DEVICE/Target/usbd_conf.c **** #endif /* USE_HAL_PCD_REGISTER_CALLBACKS */
 366:USB_DEVICE/Target/usbd_conf.c ****   /* USER CODE BEGIN TxRx_HS_Configuration */
 367:USB_DEVICE/Target/usbd_conf.c ****   HAL_PCDEx_SetRxFiFo(&hpcd_USB_OTG_HS, 0x200);
 368:USB_DEVICE/Target/usbd_conf.c ****   HAL_PCDEx_SetTxFiFo(&hpcd_USB_OTG_HS, 0, 0x80);
 369:USB_DEVICE/Target/usbd_conf.c ****   HAL_PCDEx_SetTxFiFo(&hpcd_USB_OTG_HS, 1, 0x174);
 370:USB_DEVICE/Target/usbd_conf.c ****   /* USER CODE END TxRx_HS_Configuration */
 371:USB_DEVICE/Target/usbd_conf.c ****   }
 372:USB_DEVICE/Target/usbd_conf.c ****   return USBD_OK;
 617              		.loc 1 372 3 is_stmt 1 view .LVU119
 373:USB_DEVICE/Target/usbd_conf.c **** }
 618              		.loc 1 373 1 is_stmt 0 view .LVU120
 619 0006 0020     		movs	r0, #0
 620              	.LVL59:
 621              		.loc 1 373 1 view .LVU121
 622 0008 7047     		bx	lr
 623              	.LVL60:
 624              	.L50:
 328:USB_DEVICE/Target/usbd_conf.c ****   /* Init USB Ip. */
 625              		.loc 1 328 1 view .LVU122
 626 000a 10B5     		push	{r4, lr}
 627              		.cfi_def_cfa_offset 8
 628              		.cfi_offset 4, -8
 629              		.cfi_offset 14, -4
 332:USB_DEVICE/Target/usbd_conf.c ****   pdev->pData = &hpcd_USB_OTG_HS;
 630              		.loc 1 332 3 is_stmt 1 view .LVU123
 332:USB_DEVICE/Target/usbd_conf.c ****   pdev->pData = &hpcd_USB_OTG_HS;
 631              		.loc 1 332 25 is_stmt 0 view .LVU124
 632 000c 164B     		ldr	r3, .L52
 633 000e C3F8E004 		str	r0, [r3, #1248]
 333:USB_DEVICE/Target/usbd_conf.c **** 
 634              		.loc 1 333 3 is_stmt 1 view .LVU125
 333:USB_DEVICE/Target/usbd_conf.c **** 
 635              		.loc 1 333 15 is_stmt 0 view .LVU126
 636 0012 C0F8C832 		str	r3, [r0, #712]
 335:USB_DEVICE/Target/usbd_conf.c ****   hpcd_USB_OTG_HS.Init.dev_endpoints = 9;
 637              		.loc 1 335 3 is_stmt 1 view .LVU127
 335:USB_DEVICE/Target/usbd_conf.c ****   hpcd_USB_OTG_HS.Init.dev_endpoints = 9;
 638              		.loc 1 335 28 is_stmt 0 view .LVU128
 639 0016 154A     		ldr	r2, .L52+4
 640 0018 1A60     		str	r2, [r3]
 336:USB_DEVICE/Target/usbd_conf.c ****   hpcd_USB_OTG_HS.Init.speed = PCD_SPEED_FULL;
 641              		.loc 1 336 3 is_stmt 1 view .LVU129
 336:USB_DEVICE/Target/usbd_conf.c ****   hpcd_USB_OTG_HS.Init.speed = PCD_SPEED_FULL;
 642              		.loc 1 336 38 is_stmt 0 view .LVU130
 643 001a 0922     		movs	r2, #9
ARM GAS  C:\Users\thewo\AppData\Local\Temp\cci8avqb.s 			page 19


 644 001c 1A71     		strb	r2, [r3, #4]
 337:USB_DEVICE/Target/usbd_conf.c ****   hpcd_USB_OTG_HS.Init.dma_enable = DISABLE;
 645              		.loc 1 337 3 is_stmt 1 view .LVU131
 337:USB_DEVICE/Target/usbd_conf.c ****   hpcd_USB_OTG_HS.Init.dma_enable = DISABLE;
 646              		.loc 1 337 30 is_stmt 0 view .LVU132
 647 001e 0221     		movs	r1, #2
 648 0020 D971     		strb	r1, [r3, #7]
 338:USB_DEVICE/Target/usbd_conf.c ****   hpcd_USB_OTG_HS.Init.phy_itface = USB_OTG_EMBEDDED_PHY;
 649              		.loc 1 338 3 is_stmt 1 view .LVU133
 338:USB_DEVICE/Target/usbd_conf.c ****   hpcd_USB_OTG_HS.Init.phy_itface = USB_OTG_EMBEDDED_PHY;
 650              		.loc 1 338 35 is_stmt 0 view .LVU134
 651 0022 0022     		movs	r2, #0
 652 0024 9A71     		strb	r2, [r3, #6]
 339:USB_DEVICE/Target/usbd_conf.c ****   hpcd_USB_OTG_HS.Init.Sof_enable = DISABLE;
 653              		.loc 1 339 3 is_stmt 1 view .LVU135
 339:USB_DEVICE/Target/usbd_conf.c ****   hpcd_USB_OTG_HS.Init.Sof_enable = DISABLE;
 654              		.loc 1 339 35 is_stmt 0 view .LVU136
 655 0026 5972     		strb	r1, [r3, #9]
 340:USB_DEVICE/Target/usbd_conf.c ****   hpcd_USB_OTG_HS.Init.low_power_enable = DISABLE;
 656              		.loc 1 340 3 is_stmt 1 view .LVU137
 340:USB_DEVICE/Target/usbd_conf.c ****   hpcd_USB_OTG_HS.Init.low_power_enable = DISABLE;
 657              		.loc 1 340 35 is_stmt 0 view .LVU138
 658 0028 9A72     		strb	r2, [r3, #10]
 341:USB_DEVICE/Target/usbd_conf.c ****   hpcd_USB_OTG_HS.Init.lpm_enable = DISABLE;
 659              		.loc 1 341 3 is_stmt 1 view .LVU139
 341:USB_DEVICE/Target/usbd_conf.c ****   hpcd_USB_OTG_HS.Init.lpm_enable = DISABLE;
 660              		.loc 1 341 41 is_stmt 0 view .LVU140
 661 002a DA72     		strb	r2, [r3, #11]
 342:USB_DEVICE/Target/usbd_conf.c ****   hpcd_USB_OTG_HS.Init.vbus_sensing_enable = DISABLE;
 662              		.loc 1 342 3 is_stmt 1 view .LVU141
 342:USB_DEVICE/Target/usbd_conf.c ****   hpcd_USB_OTG_HS.Init.vbus_sensing_enable = DISABLE;
 663              		.loc 1 342 35 is_stmt 0 view .LVU142
 664 002c 1A73     		strb	r2, [r3, #12]
 343:USB_DEVICE/Target/usbd_conf.c ****   hpcd_USB_OTG_HS.Init.use_dedicated_ep1 = DISABLE;
 665              		.loc 1 343 3 is_stmt 1 view .LVU143
 343:USB_DEVICE/Target/usbd_conf.c ****   hpcd_USB_OTG_HS.Init.use_dedicated_ep1 = DISABLE;
 666              		.loc 1 343 44 is_stmt 0 view .LVU144
 667 002e 9A73     		strb	r2, [r3, #14]
 344:USB_DEVICE/Target/usbd_conf.c ****   hpcd_USB_OTG_HS.Init.use_external_vbus = DISABLE;
 668              		.loc 1 344 3 is_stmt 1 view .LVU145
 344:USB_DEVICE/Target/usbd_conf.c ****   hpcd_USB_OTG_HS.Init.use_external_vbus = DISABLE;
 669              		.loc 1 344 42 is_stmt 0 view .LVU146
 670 0030 DA73     		strb	r2, [r3, #15]
 345:USB_DEVICE/Target/usbd_conf.c ****   if (HAL_PCD_Init(&hpcd_USB_OTG_HS) != HAL_OK)
 671              		.loc 1 345 3 is_stmt 1 view .LVU147
 345:USB_DEVICE/Target/usbd_conf.c ****   if (HAL_PCD_Init(&hpcd_USB_OTG_HS) != HAL_OK)
 672              		.loc 1 345 42 is_stmt 0 view .LVU148
 673 0032 1A74     		strb	r2, [r3, #16]
 346:USB_DEVICE/Target/usbd_conf.c ****   {
 674              		.loc 1 346 3 is_stmt 1 view .LVU149
 346:USB_DEVICE/Target/usbd_conf.c ****   {
 675              		.loc 1 346 7 is_stmt 0 view .LVU150
 676 0034 1846     		mov	r0, r3
 677              	.LVL61:
 346:USB_DEVICE/Target/usbd_conf.c ****   {
 678              		.loc 1 346 7 view .LVU151
 679 0036 FFF7FEFF 		bl	HAL_PCD_Init
ARM GAS  C:\Users\thewo\AppData\Local\Temp\cci8avqb.s 			page 20


 680              	.LVL62:
 346:USB_DEVICE/Target/usbd_conf.c ****   {
 681              		.loc 1 346 6 discriminator 1 view .LVU152
 682 003a 90B9     		cbnz	r0, .L51
 683              	.L45:
 367:USB_DEVICE/Target/usbd_conf.c ****   HAL_PCDEx_SetTxFiFo(&hpcd_USB_OTG_HS, 0, 0x80);
 684              		.loc 1 367 3 is_stmt 1 view .LVU153
 685 003c 0A4C     		ldr	r4, .L52
 686 003e 4FF40071 		mov	r1, #512
 687 0042 2046     		mov	r0, r4
 688 0044 FFF7FEFF 		bl	HAL_PCDEx_SetRxFiFo
 689              	.LVL63:
 368:USB_DEVICE/Target/usbd_conf.c ****   HAL_PCDEx_SetTxFiFo(&hpcd_USB_OTG_HS, 1, 0x174);
 690              		.loc 1 368 3 view .LVU154
 691 0048 8022     		movs	r2, #128
 692 004a 0021     		movs	r1, #0
 693 004c 2046     		mov	r0, r4
 694 004e FFF7FEFF 		bl	HAL_PCDEx_SetTxFiFo
 695              	.LVL64:
 369:USB_DEVICE/Target/usbd_conf.c ****   /* USER CODE END TxRx_HS_Configuration */
 696              		.loc 1 369 3 view .LVU155
 697 0052 4FF4BA72 		mov	r2, #372
 698 0056 0121     		movs	r1, #1
 699 0058 2046     		mov	r0, r4
 700 005a FFF7FEFF 		bl	HAL_PCDEx_SetTxFiFo
 701              	.LVL65:
 372:USB_DEVICE/Target/usbd_conf.c **** }
 702              		.loc 1 372 3 view .LVU156
 703              		.loc 1 373 1 is_stmt 0 view .LVU157
 704 005e 0020     		movs	r0, #0
 705 0060 10BD     		pop	{r4, pc}
 706              	.L51:
 348:USB_DEVICE/Target/usbd_conf.c ****   }
 707              		.loc 1 348 5 is_stmt 1 view .LVU158
 708 0062 FFF7FEFF 		bl	Error_Handler
 709              	.LVL66:
 710 0066 E9E7     		b	.L45
 711              	.L53:
 712              		.align	2
 713              	.L52:
 714 0068 00000000 		.word	hpcd_USB_OTG_HS
 715 006c 00000440 		.word	1074003968
 716              		.cfi_endproc
 717              	.LFE367:
 719              		.section	.text.USBD_LL_IsStallEP,"ax",%progbits
 720              		.align	1
 721              		.global	USBD_LL_IsStallEP
 722              		.syntax unified
 723              		.thumb
 724              		.thumb_func
 726              	USBD_LL_IsStallEP:
 727              	.LVL67:
 728              	.LFB376:
 374:USB_DEVICE/Target/usbd_conf.c **** 
 375:USB_DEVICE/Target/usbd_conf.c **** /**
 376:USB_DEVICE/Target/usbd_conf.c ****   * @brief  De-Initializes the low level portion of the device driver.
 377:USB_DEVICE/Target/usbd_conf.c ****   * @param  pdev: Device handle
ARM GAS  C:\Users\thewo\AppData\Local\Temp\cci8avqb.s 			page 21


 378:USB_DEVICE/Target/usbd_conf.c ****   * @retval USBD status
 379:USB_DEVICE/Target/usbd_conf.c ****   */
 380:USB_DEVICE/Target/usbd_conf.c **** USBD_StatusTypeDef USBD_LL_DeInit(USBD_HandleTypeDef *pdev)
 381:USB_DEVICE/Target/usbd_conf.c **** {
 382:USB_DEVICE/Target/usbd_conf.c ****   HAL_StatusTypeDef hal_status = HAL_OK;
 383:USB_DEVICE/Target/usbd_conf.c ****   USBD_StatusTypeDef usb_status = USBD_OK;
 384:USB_DEVICE/Target/usbd_conf.c **** 
 385:USB_DEVICE/Target/usbd_conf.c ****   hal_status = HAL_PCD_DeInit(pdev->pData);
 386:USB_DEVICE/Target/usbd_conf.c **** 
 387:USB_DEVICE/Target/usbd_conf.c ****   usb_status =  USBD_Get_USB_Status(hal_status);
 388:USB_DEVICE/Target/usbd_conf.c **** 
 389:USB_DEVICE/Target/usbd_conf.c ****   return usb_status;
 390:USB_DEVICE/Target/usbd_conf.c **** }
 391:USB_DEVICE/Target/usbd_conf.c **** 
 392:USB_DEVICE/Target/usbd_conf.c **** /**
 393:USB_DEVICE/Target/usbd_conf.c ****   * @brief  Starts the low level portion of the device driver.
 394:USB_DEVICE/Target/usbd_conf.c ****   * @param  pdev: Device handle
 395:USB_DEVICE/Target/usbd_conf.c ****   * @retval USBD status
 396:USB_DEVICE/Target/usbd_conf.c ****   */
 397:USB_DEVICE/Target/usbd_conf.c **** USBD_StatusTypeDef USBD_LL_Start(USBD_HandleTypeDef *pdev)
 398:USB_DEVICE/Target/usbd_conf.c **** {
 399:USB_DEVICE/Target/usbd_conf.c ****   HAL_StatusTypeDef hal_status = HAL_OK;
 400:USB_DEVICE/Target/usbd_conf.c ****   USBD_StatusTypeDef usb_status = USBD_OK;
 401:USB_DEVICE/Target/usbd_conf.c **** 
 402:USB_DEVICE/Target/usbd_conf.c ****   hal_status = HAL_PCD_Start(pdev->pData);
 403:USB_DEVICE/Target/usbd_conf.c **** 
 404:USB_DEVICE/Target/usbd_conf.c ****   usb_status =  USBD_Get_USB_Status(hal_status);
 405:USB_DEVICE/Target/usbd_conf.c **** 
 406:USB_DEVICE/Target/usbd_conf.c ****   return usb_status;
 407:USB_DEVICE/Target/usbd_conf.c **** }
 408:USB_DEVICE/Target/usbd_conf.c **** 
 409:USB_DEVICE/Target/usbd_conf.c **** /**
 410:USB_DEVICE/Target/usbd_conf.c ****   * @brief  Stops the low level portion of the device driver.
 411:USB_DEVICE/Target/usbd_conf.c ****   * @param  pdev: Device handle
 412:USB_DEVICE/Target/usbd_conf.c ****   * @retval USBD status
 413:USB_DEVICE/Target/usbd_conf.c ****   */
 414:USB_DEVICE/Target/usbd_conf.c **** USBD_StatusTypeDef USBD_LL_Stop(USBD_HandleTypeDef *pdev)
 415:USB_DEVICE/Target/usbd_conf.c **** {
 416:USB_DEVICE/Target/usbd_conf.c ****   HAL_StatusTypeDef hal_status = HAL_OK;
 417:USB_DEVICE/Target/usbd_conf.c ****   USBD_StatusTypeDef usb_status = USBD_OK;
 418:USB_DEVICE/Target/usbd_conf.c **** 
 419:USB_DEVICE/Target/usbd_conf.c ****   hal_status = HAL_PCD_Stop(pdev->pData);
 420:USB_DEVICE/Target/usbd_conf.c **** 
 421:USB_DEVICE/Target/usbd_conf.c ****   usb_status =  USBD_Get_USB_Status(hal_status);
 422:USB_DEVICE/Target/usbd_conf.c **** 
 423:USB_DEVICE/Target/usbd_conf.c ****   return usb_status;
 424:USB_DEVICE/Target/usbd_conf.c **** }
 425:USB_DEVICE/Target/usbd_conf.c **** 
 426:USB_DEVICE/Target/usbd_conf.c **** /**
 427:USB_DEVICE/Target/usbd_conf.c ****   * @brief  Opens an endpoint of the low level driver.
 428:USB_DEVICE/Target/usbd_conf.c ****   * @param  pdev: Device handle
 429:USB_DEVICE/Target/usbd_conf.c ****   * @param  ep_addr: Endpoint number
 430:USB_DEVICE/Target/usbd_conf.c ****   * @param  ep_type: Endpoint type
 431:USB_DEVICE/Target/usbd_conf.c ****   * @param  ep_mps: Endpoint max packet size
 432:USB_DEVICE/Target/usbd_conf.c ****   * @retval USBD status
 433:USB_DEVICE/Target/usbd_conf.c ****   */
 434:USB_DEVICE/Target/usbd_conf.c **** USBD_StatusTypeDef USBD_LL_OpenEP(USBD_HandleTypeDef *pdev, uint8_t ep_addr, uint8_t ep_type, uint1
ARM GAS  C:\Users\thewo\AppData\Local\Temp\cci8avqb.s 			page 22


 435:USB_DEVICE/Target/usbd_conf.c **** {
 436:USB_DEVICE/Target/usbd_conf.c ****   HAL_StatusTypeDef hal_status = HAL_OK;
 437:USB_DEVICE/Target/usbd_conf.c ****   USBD_StatusTypeDef usb_status = USBD_OK;
 438:USB_DEVICE/Target/usbd_conf.c **** 
 439:USB_DEVICE/Target/usbd_conf.c ****   hal_status = HAL_PCD_EP_Open(pdev->pData, ep_addr, ep_mps, ep_type);
 440:USB_DEVICE/Target/usbd_conf.c **** 
 441:USB_DEVICE/Target/usbd_conf.c ****   usb_status =  USBD_Get_USB_Status(hal_status);
 442:USB_DEVICE/Target/usbd_conf.c **** 
 443:USB_DEVICE/Target/usbd_conf.c ****   return usb_status;
 444:USB_DEVICE/Target/usbd_conf.c **** }
 445:USB_DEVICE/Target/usbd_conf.c **** 
 446:USB_DEVICE/Target/usbd_conf.c **** /**
 447:USB_DEVICE/Target/usbd_conf.c ****   * @brief  Closes an endpoint of the low level driver.
 448:USB_DEVICE/Target/usbd_conf.c ****   * @param  pdev: Device handle
 449:USB_DEVICE/Target/usbd_conf.c ****   * @param  ep_addr: Endpoint number
 450:USB_DEVICE/Target/usbd_conf.c ****   * @retval USBD status
 451:USB_DEVICE/Target/usbd_conf.c ****   */
 452:USB_DEVICE/Target/usbd_conf.c **** USBD_StatusTypeDef USBD_LL_CloseEP(USBD_HandleTypeDef *pdev, uint8_t ep_addr)
 453:USB_DEVICE/Target/usbd_conf.c **** {
 454:USB_DEVICE/Target/usbd_conf.c ****   HAL_StatusTypeDef hal_status = HAL_OK;
 455:USB_DEVICE/Target/usbd_conf.c ****   USBD_StatusTypeDef usb_status = USBD_OK;
 456:USB_DEVICE/Target/usbd_conf.c **** 
 457:USB_DEVICE/Target/usbd_conf.c ****   hal_status = HAL_PCD_EP_Close(pdev->pData, ep_addr);
 458:USB_DEVICE/Target/usbd_conf.c **** 
 459:USB_DEVICE/Target/usbd_conf.c ****   usb_status =  USBD_Get_USB_Status(hal_status);
 460:USB_DEVICE/Target/usbd_conf.c **** 
 461:USB_DEVICE/Target/usbd_conf.c ****   return usb_status;
 462:USB_DEVICE/Target/usbd_conf.c **** }
 463:USB_DEVICE/Target/usbd_conf.c **** 
 464:USB_DEVICE/Target/usbd_conf.c **** /**
 465:USB_DEVICE/Target/usbd_conf.c ****   * @brief  Flushes an endpoint of the Low Level Driver.
 466:USB_DEVICE/Target/usbd_conf.c ****   * @param  pdev: Device handle
 467:USB_DEVICE/Target/usbd_conf.c ****   * @param  ep_addr: Endpoint number
 468:USB_DEVICE/Target/usbd_conf.c ****   * @retval USBD status
 469:USB_DEVICE/Target/usbd_conf.c ****   */
 470:USB_DEVICE/Target/usbd_conf.c **** USBD_StatusTypeDef USBD_LL_FlushEP(USBD_HandleTypeDef *pdev, uint8_t ep_addr)
 471:USB_DEVICE/Target/usbd_conf.c **** {
 472:USB_DEVICE/Target/usbd_conf.c ****   HAL_StatusTypeDef hal_status = HAL_OK;
 473:USB_DEVICE/Target/usbd_conf.c ****   USBD_StatusTypeDef usb_status = USBD_OK;
 474:USB_DEVICE/Target/usbd_conf.c **** 
 475:USB_DEVICE/Target/usbd_conf.c ****   hal_status = HAL_PCD_EP_Flush(pdev->pData, ep_addr);
 476:USB_DEVICE/Target/usbd_conf.c **** 
 477:USB_DEVICE/Target/usbd_conf.c ****   usb_status =  USBD_Get_USB_Status(hal_status);
 478:USB_DEVICE/Target/usbd_conf.c **** 
 479:USB_DEVICE/Target/usbd_conf.c ****   return usb_status;
 480:USB_DEVICE/Target/usbd_conf.c **** }
 481:USB_DEVICE/Target/usbd_conf.c **** 
 482:USB_DEVICE/Target/usbd_conf.c **** /**
 483:USB_DEVICE/Target/usbd_conf.c ****   * @brief  Sets a Stall condition on an endpoint of the Low Level Driver.
 484:USB_DEVICE/Target/usbd_conf.c ****   * @param  pdev: Device handle
 485:USB_DEVICE/Target/usbd_conf.c ****   * @param  ep_addr: Endpoint number
 486:USB_DEVICE/Target/usbd_conf.c ****   * @retval USBD status
 487:USB_DEVICE/Target/usbd_conf.c ****   */
 488:USB_DEVICE/Target/usbd_conf.c **** USBD_StatusTypeDef USBD_LL_StallEP(USBD_HandleTypeDef *pdev, uint8_t ep_addr)
 489:USB_DEVICE/Target/usbd_conf.c **** {
 490:USB_DEVICE/Target/usbd_conf.c ****   HAL_StatusTypeDef hal_status = HAL_OK;
 491:USB_DEVICE/Target/usbd_conf.c ****   USBD_StatusTypeDef usb_status = USBD_OK;
ARM GAS  C:\Users\thewo\AppData\Local\Temp\cci8avqb.s 			page 23


 492:USB_DEVICE/Target/usbd_conf.c **** 
 493:USB_DEVICE/Target/usbd_conf.c ****   hal_status = HAL_PCD_EP_SetStall(pdev->pData, ep_addr);
 494:USB_DEVICE/Target/usbd_conf.c **** 
 495:USB_DEVICE/Target/usbd_conf.c ****   usb_status =  USBD_Get_USB_Status(hal_status);
 496:USB_DEVICE/Target/usbd_conf.c **** 
 497:USB_DEVICE/Target/usbd_conf.c ****   return usb_status;
 498:USB_DEVICE/Target/usbd_conf.c **** }
 499:USB_DEVICE/Target/usbd_conf.c **** 
 500:USB_DEVICE/Target/usbd_conf.c **** /**
 501:USB_DEVICE/Target/usbd_conf.c ****   * @brief  Clears a Stall condition on an endpoint of the Low Level Driver.
 502:USB_DEVICE/Target/usbd_conf.c ****   * @param  pdev: Device handle
 503:USB_DEVICE/Target/usbd_conf.c ****   * @param  ep_addr: Endpoint number
 504:USB_DEVICE/Target/usbd_conf.c ****   * @retval USBD status
 505:USB_DEVICE/Target/usbd_conf.c ****   */
 506:USB_DEVICE/Target/usbd_conf.c **** USBD_StatusTypeDef USBD_LL_ClearStallEP(USBD_HandleTypeDef *pdev, uint8_t ep_addr)
 507:USB_DEVICE/Target/usbd_conf.c **** {
 508:USB_DEVICE/Target/usbd_conf.c ****   HAL_StatusTypeDef hal_status = HAL_OK;
 509:USB_DEVICE/Target/usbd_conf.c ****   USBD_StatusTypeDef usb_status = USBD_OK;
 510:USB_DEVICE/Target/usbd_conf.c **** 
 511:USB_DEVICE/Target/usbd_conf.c ****   hal_status = HAL_PCD_EP_ClrStall(pdev->pData, ep_addr);
 512:USB_DEVICE/Target/usbd_conf.c **** 
 513:USB_DEVICE/Target/usbd_conf.c ****   usb_status =  USBD_Get_USB_Status(hal_status);
 514:USB_DEVICE/Target/usbd_conf.c **** 
 515:USB_DEVICE/Target/usbd_conf.c ****   return usb_status;
 516:USB_DEVICE/Target/usbd_conf.c **** }
 517:USB_DEVICE/Target/usbd_conf.c **** 
 518:USB_DEVICE/Target/usbd_conf.c **** /**
 519:USB_DEVICE/Target/usbd_conf.c ****   * @brief  Returns Stall condition.
 520:USB_DEVICE/Target/usbd_conf.c ****   * @param  pdev: Device handle
 521:USB_DEVICE/Target/usbd_conf.c ****   * @param  ep_addr: Endpoint number
 522:USB_DEVICE/Target/usbd_conf.c ****   * @retval Stall (1: Yes, 0: No)
 523:USB_DEVICE/Target/usbd_conf.c ****   */
 524:USB_DEVICE/Target/usbd_conf.c **** uint8_t USBD_LL_IsStallEP(USBD_HandleTypeDef *pdev, uint8_t ep_addr)
 525:USB_DEVICE/Target/usbd_conf.c **** {
 729              		.loc 1 525 1 view -0
 730              		.cfi_startproc
 731              		@ args = 0, pretend = 0, frame = 0
 732              		@ frame_needed = 0, uses_anonymous_args = 0
 733              		@ link register save eliminated.
 526:USB_DEVICE/Target/usbd_conf.c ****   PCD_HandleTypeDef *hpcd = (PCD_HandleTypeDef*) pdev->pData;
 734              		.loc 1 526 3 view .LVU160
 735              		.loc 1 526 22 is_stmt 0 view .LVU161
 736 0000 D0F8C832 		ldr	r3, [r0, #712]
 737              	.LVL68:
 527:USB_DEVICE/Target/usbd_conf.c **** 
 528:USB_DEVICE/Target/usbd_conf.c ****   if((ep_addr & 0x80) == 0x80)
 738              		.loc 1 528 3 is_stmt 1 view .LVU162
 739              		.loc 1 528 5 is_stmt 0 view .LVU163
 740 0004 11F0800F 		tst	r1, #128
 741 0008 08D1     		bne	.L57
 529:USB_DEVICE/Target/usbd_conf.c ****   {
 530:USB_DEVICE/Target/usbd_conf.c ****     return hpcd->IN_ep[ep_addr & 0x7F].is_stall;
 531:USB_DEVICE/Target/usbd_conf.c ****   }
 532:USB_DEVICE/Target/usbd_conf.c ****   else
 533:USB_DEVICE/Target/usbd_conf.c ****   {
 534:USB_DEVICE/Target/usbd_conf.c ****     return hpcd->OUT_ep[ep_addr & 0x7F].is_stall;
 742              		.loc 1 534 5 is_stmt 1 view .LVU164
ARM GAS  C:\Users\thewo\AppData\Local\Temp\cci8avqb.s 			page 24


 743              		.loc 1 534 33 is_stmt 0 view .LVU165
 744 000a 01F07F01 		and	r1, r1, #127
 745              	.LVL69:
 746              		.loc 1 534 40 view .LVU166
 747 000e 01EBC101 		add	r1, r1, r1, lsl #3
 748 0012 03EB8103 		add	r3, r3, r1, lsl #2
 749              	.LVL70:
 750              		.loc 1 534 40 view .LVU167
 751 0016 93F85602 		ldrb	r0, [r3, #598]	@ zero_extendqisi2
 752              	.LVL71:
 535:USB_DEVICE/Target/usbd_conf.c ****   }
 536:USB_DEVICE/Target/usbd_conf.c **** }
 753              		.loc 1 536 1 view .LVU168
 754 001a 7047     		bx	lr
 755              	.LVL72:
 756              	.L57:
 530:USB_DEVICE/Target/usbd_conf.c ****   }
 757              		.loc 1 530 5 is_stmt 1 view .LVU169
 530:USB_DEVICE/Target/usbd_conf.c ****   }
 758              		.loc 1 530 32 is_stmt 0 view .LVU170
 759 001c 01F07F01 		and	r1, r1, #127
 760              	.LVL73:
 530:USB_DEVICE/Target/usbd_conf.c ****   }
 761              		.loc 1 530 39 view .LVU171
 762 0020 01EBC101 		add	r1, r1, r1, lsl #3
 763 0024 03EB8103 		add	r3, r3, r1, lsl #2
 764              	.LVL74:
 530:USB_DEVICE/Target/usbd_conf.c ****   }
 765              		.loc 1 530 39 view .LVU172
 766 0028 987D     		ldrb	r0, [r3, #22]	@ zero_extendqisi2
 767              	.LVL75:
 530:USB_DEVICE/Target/usbd_conf.c ****   }
 768              		.loc 1 530 39 view .LVU173
 769 002a 7047     		bx	lr
 770              		.cfi_endproc
 771              	.LFE376:
 773              		.section	.text.USBD_LL_GetRxDataSize,"ax",%progbits
 774              		.align	1
 775              		.global	USBD_LL_GetRxDataSize
 776              		.syntax unified
 777              		.thumb
 778              		.thumb_func
 780              	USBD_LL_GetRxDataSize:
 781              	.LVL76:
 782              	.LFB380:
 537:USB_DEVICE/Target/usbd_conf.c **** 
 538:USB_DEVICE/Target/usbd_conf.c **** /**
 539:USB_DEVICE/Target/usbd_conf.c ****   * @brief  Assigns a USB address to the device.
 540:USB_DEVICE/Target/usbd_conf.c ****   * @param  pdev: Device handle
 541:USB_DEVICE/Target/usbd_conf.c ****   * @param  dev_addr: Device address
 542:USB_DEVICE/Target/usbd_conf.c ****   * @retval USBD status
 543:USB_DEVICE/Target/usbd_conf.c ****   */
 544:USB_DEVICE/Target/usbd_conf.c **** USBD_StatusTypeDef USBD_LL_SetUSBAddress(USBD_HandleTypeDef *pdev, uint8_t dev_addr)
 545:USB_DEVICE/Target/usbd_conf.c **** {
 546:USB_DEVICE/Target/usbd_conf.c ****   HAL_StatusTypeDef hal_status = HAL_OK;
 547:USB_DEVICE/Target/usbd_conf.c ****   USBD_StatusTypeDef usb_status = USBD_OK;
 548:USB_DEVICE/Target/usbd_conf.c **** 
ARM GAS  C:\Users\thewo\AppData\Local\Temp\cci8avqb.s 			page 25


 549:USB_DEVICE/Target/usbd_conf.c ****   hal_status = HAL_PCD_SetAddress(pdev->pData, dev_addr);
 550:USB_DEVICE/Target/usbd_conf.c **** 
 551:USB_DEVICE/Target/usbd_conf.c ****   usb_status =  USBD_Get_USB_Status(hal_status);
 552:USB_DEVICE/Target/usbd_conf.c **** 
 553:USB_DEVICE/Target/usbd_conf.c ****   return usb_status;
 554:USB_DEVICE/Target/usbd_conf.c **** }
 555:USB_DEVICE/Target/usbd_conf.c **** 
 556:USB_DEVICE/Target/usbd_conf.c **** /**
 557:USB_DEVICE/Target/usbd_conf.c ****   * @brief  Transmits data over an endpoint.
 558:USB_DEVICE/Target/usbd_conf.c ****   * @param  pdev: Device handle
 559:USB_DEVICE/Target/usbd_conf.c ****   * @param  ep_addr: Endpoint number
 560:USB_DEVICE/Target/usbd_conf.c ****   * @param  pbuf: Pointer to data to be sent
 561:USB_DEVICE/Target/usbd_conf.c ****   * @param  size: Data size
 562:USB_DEVICE/Target/usbd_conf.c ****   * @retval USBD status
 563:USB_DEVICE/Target/usbd_conf.c ****   */
 564:USB_DEVICE/Target/usbd_conf.c **** USBD_StatusTypeDef USBD_LL_Transmit(USBD_HandleTypeDef *pdev, uint8_t ep_addr, uint8_t *pbuf, uint3
 565:USB_DEVICE/Target/usbd_conf.c **** {
 566:USB_DEVICE/Target/usbd_conf.c ****   HAL_StatusTypeDef hal_status = HAL_OK;
 567:USB_DEVICE/Target/usbd_conf.c ****   USBD_StatusTypeDef usb_status = USBD_OK;
 568:USB_DEVICE/Target/usbd_conf.c **** 
 569:USB_DEVICE/Target/usbd_conf.c ****   hal_status = HAL_PCD_EP_Transmit(pdev->pData, ep_addr, pbuf, size);
 570:USB_DEVICE/Target/usbd_conf.c **** 
 571:USB_DEVICE/Target/usbd_conf.c ****   usb_status =  USBD_Get_USB_Status(hal_status);
 572:USB_DEVICE/Target/usbd_conf.c **** 
 573:USB_DEVICE/Target/usbd_conf.c ****   return usb_status;
 574:USB_DEVICE/Target/usbd_conf.c **** }
 575:USB_DEVICE/Target/usbd_conf.c **** 
 576:USB_DEVICE/Target/usbd_conf.c **** /**
 577:USB_DEVICE/Target/usbd_conf.c ****   * @brief  Prepares an endpoint for reception.
 578:USB_DEVICE/Target/usbd_conf.c ****   * @param  pdev: Device handle
 579:USB_DEVICE/Target/usbd_conf.c ****   * @param  ep_addr: Endpoint number
 580:USB_DEVICE/Target/usbd_conf.c ****   * @param  pbuf: Pointer to data to be received
 581:USB_DEVICE/Target/usbd_conf.c ****   * @param  size: Data size
 582:USB_DEVICE/Target/usbd_conf.c ****   * @retval USBD status
 583:USB_DEVICE/Target/usbd_conf.c ****   */
 584:USB_DEVICE/Target/usbd_conf.c **** USBD_StatusTypeDef USBD_LL_PrepareReceive(USBD_HandleTypeDef *pdev, uint8_t ep_addr, uint8_t *pbuf,
 585:USB_DEVICE/Target/usbd_conf.c **** {
 586:USB_DEVICE/Target/usbd_conf.c ****   HAL_StatusTypeDef hal_status = HAL_OK;
 587:USB_DEVICE/Target/usbd_conf.c ****   USBD_StatusTypeDef usb_status = USBD_OK;
 588:USB_DEVICE/Target/usbd_conf.c **** 
 589:USB_DEVICE/Target/usbd_conf.c ****   hal_status = HAL_PCD_EP_Receive(pdev->pData, ep_addr, pbuf, size);
 590:USB_DEVICE/Target/usbd_conf.c **** 
 591:USB_DEVICE/Target/usbd_conf.c ****   usb_status =  USBD_Get_USB_Status(hal_status);
 592:USB_DEVICE/Target/usbd_conf.c **** 
 593:USB_DEVICE/Target/usbd_conf.c ****   return usb_status;
 594:USB_DEVICE/Target/usbd_conf.c **** }
 595:USB_DEVICE/Target/usbd_conf.c **** 
 596:USB_DEVICE/Target/usbd_conf.c **** /**
 597:USB_DEVICE/Target/usbd_conf.c ****   * @brief  Returns the last transferred packet size.
 598:USB_DEVICE/Target/usbd_conf.c ****   * @param  pdev: Device handle
 599:USB_DEVICE/Target/usbd_conf.c ****   * @param  ep_addr: Endpoint number
 600:USB_DEVICE/Target/usbd_conf.c ****   * @retval Received Data Size
 601:USB_DEVICE/Target/usbd_conf.c ****   */
 602:USB_DEVICE/Target/usbd_conf.c **** uint32_t USBD_LL_GetRxDataSize(USBD_HandleTypeDef *pdev, uint8_t ep_addr)
 603:USB_DEVICE/Target/usbd_conf.c **** {
 783              		.loc 1 603 1 is_stmt 1 view -0
 784              		.cfi_startproc
ARM GAS  C:\Users\thewo\AppData\Local\Temp\cci8avqb.s 			page 26


 785              		@ args = 0, pretend = 0, frame = 0
 786              		@ frame_needed = 0, uses_anonymous_args = 0
 787              		.loc 1 603 1 is_stmt 0 view .LVU175
 788 0000 08B5     		push	{r3, lr}
 789              		.cfi_def_cfa_offset 8
 790              		.cfi_offset 3, -8
 791              		.cfi_offset 14, -4
 604:USB_DEVICE/Target/usbd_conf.c ****   return HAL_PCD_EP_GetRxCount((PCD_HandleTypeDef*) pdev->pData, ep_addr);
 792              		.loc 1 604 3 is_stmt 1 view .LVU176
 793              		.loc 1 604 10 is_stmt 0 view .LVU177
 794 0002 D0F8C802 		ldr	r0, [r0, #712]
 795              	.LVL77:
 796              		.loc 1 604 10 view .LVU178
 797 0006 FFF7FEFF 		bl	HAL_PCD_EP_GetRxCount
 798              	.LVL78:
 605:USB_DEVICE/Target/usbd_conf.c **** }
 799              		.loc 1 605 1 view .LVU179
 800 000a 08BD     		pop	{r3, pc}
 801              		.cfi_endproc
 802              	.LFE380:
 804              		.section	.text.USBD_static_malloc,"ax",%progbits
 805              		.align	1
 806              		.global	USBD_static_malloc
 807              		.syntax unified
 808              		.thumb
 809              		.thumb_func
 811              	USBD_static_malloc:
 812              	.LVL79:
 813              	.LFB381:
 606:USB_DEVICE/Target/usbd_conf.c **** 
 607:USB_DEVICE/Target/usbd_conf.c **** #ifdef USBD_HS_TESTMODE_ENABLE
 608:USB_DEVICE/Target/usbd_conf.c **** /**
 609:USB_DEVICE/Target/usbd_conf.c ****   * @brief  Set High speed Test mode.
 610:USB_DEVICE/Target/usbd_conf.c ****   * @param  pdev: Device handle
 611:USB_DEVICE/Target/usbd_conf.c ****   * @param  testmode: test mode
 612:USB_DEVICE/Target/usbd_conf.c ****   * @retval USBD Status
 613:USB_DEVICE/Target/usbd_conf.c ****   */
 614:USB_DEVICE/Target/usbd_conf.c **** USBD_StatusTypeDef USBD_LL_SetTestMode(USBD_HandleTypeDef *pdev, uint8_t testmode)
 615:USB_DEVICE/Target/usbd_conf.c **** {
 616:USB_DEVICE/Target/usbd_conf.c ****   UNUSED(pdev);
 617:USB_DEVICE/Target/usbd_conf.c ****   UNUSED(testmode);
 618:USB_DEVICE/Target/usbd_conf.c **** 
 619:USB_DEVICE/Target/usbd_conf.c ****   return USBD_OK;
 620:USB_DEVICE/Target/usbd_conf.c **** }
 621:USB_DEVICE/Target/usbd_conf.c **** #endif /* USBD_HS_TESTMODE_ENABLE */
 622:USB_DEVICE/Target/usbd_conf.c **** /**
 623:USB_DEVICE/Target/usbd_conf.c ****   * @brief  Static single allocation.
 624:USB_DEVICE/Target/usbd_conf.c ****   * @param  size: Size of allocated memory
 625:USB_DEVICE/Target/usbd_conf.c ****   * @retval None
 626:USB_DEVICE/Target/usbd_conf.c ****   */
 627:USB_DEVICE/Target/usbd_conf.c **** void *USBD_static_malloc(uint32_t size)
 628:USB_DEVICE/Target/usbd_conf.c **** {
 814              		.loc 1 628 1 is_stmt 1 view -0
 815              		.cfi_startproc
 816              		@ args = 0, pretend = 0, frame = 0
 817              		@ frame_needed = 0, uses_anonymous_args = 0
 818              		@ link register save eliminated.
ARM GAS  C:\Users\thewo\AppData\Local\Temp\cci8avqb.s 			page 27


 629:USB_DEVICE/Target/usbd_conf.c ****   UNUSED(size);
 819              		.loc 1 629 3 view .LVU181
 630:USB_DEVICE/Target/usbd_conf.c ****   static uint32_t mem[(sizeof(USBD_CDC_HandleTypeDef)/4)+1];/* On 32-bit boundary */
 820              		.loc 1 630 3 view .LVU182
 631:USB_DEVICE/Target/usbd_conf.c ****   return mem;
 821              		.loc 1 631 3 view .LVU183
 632:USB_DEVICE/Target/usbd_conf.c **** }
 822              		.loc 1 632 1 is_stmt 0 view .LVU184
 823 0000 0048     		ldr	r0, .L61
 824              	.LVL80:
 825              		.loc 1 632 1 view .LVU185
 826 0002 7047     		bx	lr
 827              	.L62:
 828              		.align	2
 829              	.L61:
 830 0004 00000000 		.word	mem.0
 831              		.cfi_endproc
 832              	.LFE381:
 834              		.section	.text.USBD_static_free,"ax",%progbits
 835              		.align	1
 836              		.global	USBD_static_free
 837              		.syntax unified
 838              		.thumb
 839              		.thumb_func
 841              	USBD_static_free:
 842              	.LVL81:
 843              	.LFB382:
 633:USB_DEVICE/Target/usbd_conf.c **** 
 634:USB_DEVICE/Target/usbd_conf.c **** /**
 635:USB_DEVICE/Target/usbd_conf.c ****   * @brief  Dummy memory free
 636:USB_DEVICE/Target/usbd_conf.c ****   * @param  p: Pointer to allocated  memory address
 637:USB_DEVICE/Target/usbd_conf.c ****   * @retval None
 638:USB_DEVICE/Target/usbd_conf.c ****   */
 639:USB_DEVICE/Target/usbd_conf.c **** void USBD_static_free(void *p)
 640:USB_DEVICE/Target/usbd_conf.c **** {
 844              		.loc 1 640 1 is_stmt 1 view -0
 845              		.cfi_startproc
 846              		@ args = 0, pretend = 0, frame = 0
 847              		@ frame_needed = 0, uses_anonymous_args = 0
 848              		@ link register save eliminated.
 641:USB_DEVICE/Target/usbd_conf.c ****   UNUSED(p);
 849              		.loc 1 641 3 view .LVU187
 642:USB_DEVICE/Target/usbd_conf.c **** }
 850              		.loc 1 642 1 is_stmt 0 view .LVU188
 851 0000 7047     		bx	lr
 852              		.cfi_endproc
 853              	.LFE382:
 855              		.section	.text.USBD_LL_Delay,"ax",%progbits
 856              		.align	1
 857              		.global	USBD_LL_Delay
 858              		.syntax unified
 859              		.thumb
 860              		.thumb_func
 862              	USBD_LL_Delay:
 863              	.LVL82:
 864              	.LFB383:
 643:USB_DEVICE/Target/usbd_conf.c **** 
ARM GAS  C:\Users\thewo\AppData\Local\Temp\cci8avqb.s 			page 28


 644:USB_DEVICE/Target/usbd_conf.c **** /**
 645:USB_DEVICE/Target/usbd_conf.c ****   * @brief  Delays routine for the USB device library.
 646:USB_DEVICE/Target/usbd_conf.c ****   * @param  Delay: Delay in ms
 647:USB_DEVICE/Target/usbd_conf.c ****   * @retval None
 648:USB_DEVICE/Target/usbd_conf.c ****   */
 649:USB_DEVICE/Target/usbd_conf.c **** void USBD_LL_Delay(uint32_t Delay)
 650:USB_DEVICE/Target/usbd_conf.c **** {
 865              		.loc 1 650 1 is_stmt 1 view -0
 866              		.cfi_startproc
 867              		@ args = 0, pretend = 0, frame = 0
 868              		@ frame_needed = 0, uses_anonymous_args = 0
 869              		.loc 1 650 1 is_stmt 0 view .LVU190
 870 0000 08B5     		push	{r3, lr}
 871              		.cfi_def_cfa_offset 8
 872              		.cfi_offset 3, -8
 873              		.cfi_offset 14, -4
 651:USB_DEVICE/Target/usbd_conf.c ****   HAL_Delay(Delay);
 874              		.loc 1 651 3 is_stmt 1 view .LVU191
 875 0002 FFF7FEFF 		bl	HAL_Delay
 876              	.LVL83:
 652:USB_DEVICE/Target/usbd_conf.c **** }
 877              		.loc 1 652 1 is_stmt 0 view .LVU192
 878 0006 08BD     		pop	{r3, pc}
 879              		.cfi_endproc
 880              	.LFE383:
 882              		.section	.text.USBD_Get_USB_Status,"ax",%progbits
 883              		.align	1
 884              		.global	USBD_Get_USB_Status
 885              		.syntax unified
 886              		.thumb
 887              		.thumb_func
 889              	USBD_Get_USB_Status:
 890              	.LVL84:
 891              	.LFB384:
 653:USB_DEVICE/Target/usbd_conf.c **** 
 654:USB_DEVICE/Target/usbd_conf.c **** /**
 655:USB_DEVICE/Target/usbd_conf.c ****   * @brief  Returns the USB status depending on the HAL status:
 656:USB_DEVICE/Target/usbd_conf.c ****   * @param  hal_status: HAL status
 657:USB_DEVICE/Target/usbd_conf.c ****   * @retval USB status
 658:USB_DEVICE/Target/usbd_conf.c ****   */
 659:USB_DEVICE/Target/usbd_conf.c **** USBD_StatusTypeDef USBD_Get_USB_Status(HAL_StatusTypeDef hal_status)
 660:USB_DEVICE/Target/usbd_conf.c **** {
 892              		.loc 1 660 1 is_stmt 1 view -0
 893              		.cfi_startproc
 894              		@ args = 0, pretend = 0, frame = 0
 895              		@ frame_needed = 0, uses_anonymous_args = 0
 896              		@ link register save eliminated.
 661:USB_DEVICE/Target/usbd_conf.c ****   USBD_StatusTypeDef usb_status = USBD_OK;
 897              		.loc 1 661 3 view .LVU194
 662:USB_DEVICE/Target/usbd_conf.c **** 
 663:USB_DEVICE/Target/usbd_conf.c ****   switch (hal_status)
 898              		.loc 1 663 3 view .LVU195
 899 0000 0328     		cmp	r0, #3
 900 0002 05D8     		bhi	.L72
 901 0004 DFE800F0 		tbb	[pc, r0]
 902              	.L69:
 903 0008 05       		.byte	(.L67-.L69)/2
ARM GAS  C:\Users\thewo\AppData\Local\Temp\cci8avqb.s 			page 29


 904 0009 04       		.byte	(.L72-.L69)/2
 905 000a 02       		.byte	(.L70-.L69)/2
 906 000b 05       		.byte	(.L67-.L69)/2
 907              		.p2align 1
 908              	.L70:
 664:USB_DEVICE/Target/usbd_conf.c ****   {
 665:USB_DEVICE/Target/usbd_conf.c ****     case HAL_OK :
 666:USB_DEVICE/Target/usbd_conf.c ****       usb_status = USBD_OK;
 667:USB_DEVICE/Target/usbd_conf.c ****     break;
 668:USB_DEVICE/Target/usbd_conf.c ****     case HAL_ERROR :
 669:USB_DEVICE/Target/usbd_conf.c ****       usb_status = USBD_FAIL;
 670:USB_DEVICE/Target/usbd_conf.c ****     break;
 671:USB_DEVICE/Target/usbd_conf.c ****     case HAL_BUSY :
 672:USB_DEVICE/Target/usbd_conf.c ****       usb_status = USBD_BUSY;
 909              		.loc 1 672 7 view .LVU196
 910              	.LVL85:
 673:USB_DEVICE/Target/usbd_conf.c ****     break;
 911              		.loc 1 673 5 view .LVU197
 672:USB_DEVICE/Target/usbd_conf.c ****     break;
 912              		.loc 1 672 18 is_stmt 0 view .LVU198
 913 000c 0120     		movs	r0, #1
 914              	.LVL86:
 915              		.loc 1 673 5 view .LVU199
 916 000e 7047     		bx	lr
 917              	.LVL87:
 918              	.L72:
 669:USB_DEVICE/Target/usbd_conf.c ****     break;
 919              		.loc 1 669 18 view .LVU200
 920 0010 0320     		movs	r0, #3
 921              	.LVL88:
 922              	.L67:
 674:USB_DEVICE/Target/usbd_conf.c ****     case HAL_TIMEOUT :
 675:USB_DEVICE/Target/usbd_conf.c ****       usb_status = USBD_FAIL;
 676:USB_DEVICE/Target/usbd_conf.c ****     break;
 677:USB_DEVICE/Target/usbd_conf.c ****     default :
 678:USB_DEVICE/Target/usbd_conf.c ****       usb_status = USBD_FAIL;
 679:USB_DEVICE/Target/usbd_conf.c ****     break;
 680:USB_DEVICE/Target/usbd_conf.c ****   }
 681:USB_DEVICE/Target/usbd_conf.c ****   return usb_status;
 923              		.loc 1 681 3 is_stmt 1 view .LVU201
 682:USB_DEVICE/Target/usbd_conf.c **** }
 924              		.loc 1 682 1 is_stmt 0 view .LVU202
 925 0012 7047     		bx	lr
 926              		.cfi_endproc
 927              	.LFE384:
 929              		.section	.text.USBD_LL_DeInit,"ax",%progbits
 930              		.align	1
 931              		.global	USBD_LL_DeInit
 932              		.syntax unified
 933              		.thumb
 934              		.thumb_func
 936              	USBD_LL_DeInit:
 937              	.LVL89:
 938              	.LFB368:
 381:USB_DEVICE/Target/usbd_conf.c ****   HAL_StatusTypeDef hal_status = HAL_OK;
 939              		.loc 1 381 1 is_stmt 1 view -0
 940              		.cfi_startproc
ARM GAS  C:\Users\thewo\AppData\Local\Temp\cci8avqb.s 			page 30


 941              		@ args = 0, pretend = 0, frame = 0
 942              		@ frame_needed = 0, uses_anonymous_args = 0
 381:USB_DEVICE/Target/usbd_conf.c ****   HAL_StatusTypeDef hal_status = HAL_OK;
 943              		.loc 1 381 1 is_stmt 0 view .LVU204
 944 0000 08B5     		push	{r3, lr}
 945              		.cfi_def_cfa_offset 8
 946              		.cfi_offset 3, -8
 947              		.cfi_offset 14, -4
 382:USB_DEVICE/Target/usbd_conf.c ****   USBD_StatusTypeDef usb_status = USBD_OK;
 948              		.loc 1 382 3 is_stmt 1 view .LVU205
 949              	.LVL90:
 383:USB_DEVICE/Target/usbd_conf.c **** 
 950              		.loc 1 383 3 view .LVU206
 385:USB_DEVICE/Target/usbd_conf.c **** 
 951              		.loc 1 385 3 view .LVU207
 385:USB_DEVICE/Target/usbd_conf.c **** 
 952              		.loc 1 385 16 is_stmt 0 view .LVU208
 953 0002 D0F8C802 		ldr	r0, [r0, #712]
 954              	.LVL91:
 385:USB_DEVICE/Target/usbd_conf.c **** 
 955              		.loc 1 385 16 view .LVU209
 956 0006 FFF7FEFF 		bl	HAL_PCD_DeInit
 957              	.LVL92:
 387:USB_DEVICE/Target/usbd_conf.c **** 
 958              		.loc 1 387 3 is_stmt 1 view .LVU210
 387:USB_DEVICE/Target/usbd_conf.c **** 
 959              		.loc 1 387 17 is_stmt 0 view .LVU211
 960 000a FFF7FEFF 		bl	USBD_Get_USB_Status
 961              	.LVL93:
 389:USB_DEVICE/Target/usbd_conf.c **** }
 962              		.loc 1 389 3 is_stmt 1 view .LVU212
 390:USB_DEVICE/Target/usbd_conf.c **** 
 963              		.loc 1 390 1 is_stmt 0 view .LVU213
 964 000e 08BD     		pop	{r3, pc}
 965              		.cfi_endproc
 966              	.LFE368:
 968              		.section	.text.USBD_LL_Start,"ax",%progbits
 969              		.align	1
 970              		.global	USBD_LL_Start
 971              		.syntax unified
 972              		.thumb
 973              		.thumb_func
 975              	USBD_LL_Start:
 976              	.LVL94:
 977              	.LFB369:
 398:USB_DEVICE/Target/usbd_conf.c ****   HAL_StatusTypeDef hal_status = HAL_OK;
 978              		.loc 1 398 1 is_stmt 1 view -0
 979              		.cfi_startproc
 980              		@ args = 0, pretend = 0, frame = 0
 981              		@ frame_needed = 0, uses_anonymous_args = 0
 398:USB_DEVICE/Target/usbd_conf.c ****   HAL_StatusTypeDef hal_status = HAL_OK;
 982              		.loc 1 398 1 is_stmt 0 view .LVU215
 983 0000 08B5     		push	{r3, lr}
 984              		.cfi_def_cfa_offset 8
 985              		.cfi_offset 3, -8
 986              		.cfi_offset 14, -4
 399:USB_DEVICE/Target/usbd_conf.c ****   USBD_StatusTypeDef usb_status = USBD_OK;
ARM GAS  C:\Users\thewo\AppData\Local\Temp\cci8avqb.s 			page 31


 987              		.loc 1 399 3 is_stmt 1 view .LVU216
 988              	.LVL95:
 400:USB_DEVICE/Target/usbd_conf.c **** 
 989              		.loc 1 400 3 view .LVU217
 402:USB_DEVICE/Target/usbd_conf.c **** 
 990              		.loc 1 402 3 view .LVU218
 402:USB_DEVICE/Target/usbd_conf.c **** 
 991              		.loc 1 402 16 is_stmt 0 view .LVU219
 992 0002 D0F8C802 		ldr	r0, [r0, #712]
 993              	.LVL96:
 402:USB_DEVICE/Target/usbd_conf.c **** 
 994              		.loc 1 402 16 view .LVU220
 995 0006 FFF7FEFF 		bl	HAL_PCD_Start
 996              	.LVL97:
 404:USB_DEVICE/Target/usbd_conf.c **** 
 997              		.loc 1 404 3 is_stmt 1 view .LVU221
 404:USB_DEVICE/Target/usbd_conf.c **** 
 998              		.loc 1 404 17 is_stmt 0 view .LVU222
 999 000a FFF7FEFF 		bl	USBD_Get_USB_Status
 1000              	.LVL98:
 406:USB_DEVICE/Target/usbd_conf.c **** }
 1001              		.loc 1 406 3 is_stmt 1 view .LVU223
 407:USB_DEVICE/Target/usbd_conf.c **** 
 1002              		.loc 1 407 1 is_stmt 0 view .LVU224
 1003 000e 08BD     		pop	{r3, pc}
 1004              		.cfi_endproc
 1005              	.LFE369:
 1007              		.section	.text.USBD_LL_Stop,"ax",%progbits
 1008              		.align	1
 1009              		.global	USBD_LL_Stop
 1010              		.syntax unified
 1011              		.thumb
 1012              		.thumb_func
 1014              	USBD_LL_Stop:
 1015              	.LVL99:
 1016              	.LFB370:
 415:USB_DEVICE/Target/usbd_conf.c ****   HAL_StatusTypeDef hal_status = HAL_OK;
 1017              		.loc 1 415 1 is_stmt 1 view -0
 1018              		.cfi_startproc
 1019              		@ args = 0, pretend = 0, frame = 0
 1020              		@ frame_needed = 0, uses_anonymous_args = 0
 415:USB_DEVICE/Target/usbd_conf.c ****   HAL_StatusTypeDef hal_status = HAL_OK;
 1021              		.loc 1 415 1 is_stmt 0 view .LVU226
 1022 0000 08B5     		push	{r3, lr}
 1023              		.cfi_def_cfa_offset 8
 1024              		.cfi_offset 3, -8
 1025              		.cfi_offset 14, -4
 416:USB_DEVICE/Target/usbd_conf.c ****   USBD_StatusTypeDef usb_status = USBD_OK;
 1026              		.loc 1 416 3 is_stmt 1 view .LVU227
 1027              	.LVL100:
 417:USB_DEVICE/Target/usbd_conf.c **** 
 1028              		.loc 1 417 3 view .LVU228
 419:USB_DEVICE/Target/usbd_conf.c **** 
 1029              		.loc 1 419 3 view .LVU229
 419:USB_DEVICE/Target/usbd_conf.c **** 
 1030              		.loc 1 419 16 is_stmt 0 view .LVU230
 1031 0002 D0F8C802 		ldr	r0, [r0, #712]
ARM GAS  C:\Users\thewo\AppData\Local\Temp\cci8avqb.s 			page 32


 1032              	.LVL101:
 419:USB_DEVICE/Target/usbd_conf.c **** 
 1033              		.loc 1 419 16 view .LVU231
 1034 0006 FFF7FEFF 		bl	HAL_PCD_Stop
 1035              	.LVL102:
 421:USB_DEVICE/Target/usbd_conf.c **** 
 1036              		.loc 1 421 3 is_stmt 1 view .LVU232
 421:USB_DEVICE/Target/usbd_conf.c **** 
 1037              		.loc 1 421 17 is_stmt 0 view .LVU233
 1038 000a FFF7FEFF 		bl	USBD_Get_USB_Status
 1039              	.LVL103:
 423:USB_DEVICE/Target/usbd_conf.c **** }
 1040              		.loc 1 423 3 is_stmt 1 view .LVU234
 424:USB_DEVICE/Target/usbd_conf.c **** 
 1041              		.loc 1 424 1 is_stmt 0 view .LVU235
 1042 000e 08BD     		pop	{r3, pc}
 1043              		.cfi_endproc
 1044              	.LFE370:
 1046              		.section	.text.USBD_LL_OpenEP,"ax",%progbits
 1047              		.align	1
 1048              		.global	USBD_LL_OpenEP
 1049              		.syntax unified
 1050              		.thumb
 1051              		.thumb_func
 1053              	USBD_LL_OpenEP:
 1054              	.LVL104:
 1055              	.LFB371:
 435:USB_DEVICE/Target/usbd_conf.c ****   HAL_StatusTypeDef hal_status = HAL_OK;
 1056              		.loc 1 435 1 is_stmt 1 view -0
 1057              		.cfi_startproc
 1058              		@ args = 0, pretend = 0, frame = 0
 1059              		@ frame_needed = 0, uses_anonymous_args = 0
 435:USB_DEVICE/Target/usbd_conf.c ****   HAL_StatusTypeDef hal_status = HAL_OK;
 1060              		.loc 1 435 1 is_stmt 0 view .LVU237
 1061 0000 08B5     		push	{r3, lr}
 1062              		.cfi_def_cfa_offset 8
 1063              		.cfi_offset 3, -8
 1064              		.cfi_offset 14, -4
 1065 0002 9446     		mov	ip, r2
 1066 0004 1A46     		mov	r2, r3
 1067              	.LVL105:
 436:USB_DEVICE/Target/usbd_conf.c ****   USBD_StatusTypeDef usb_status = USBD_OK;
 1068              		.loc 1 436 3 is_stmt 1 view .LVU238
 437:USB_DEVICE/Target/usbd_conf.c **** 
 1069              		.loc 1 437 3 view .LVU239
 439:USB_DEVICE/Target/usbd_conf.c **** 
 1070              		.loc 1 439 3 view .LVU240
 439:USB_DEVICE/Target/usbd_conf.c **** 
 1071              		.loc 1 439 16 is_stmt 0 view .LVU241
 1072 0006 6346     		mov	r3, ip
 1073              	.LVL106:
 439:USB_DEVICE/Target/usbd_conf.c **** 
 1074              		.loc 1 439 16 view .LVU242
 1075 0008 D0F8C802 		ldr	r0, [r0, #712]
 1076              	.LVL107:
 439:USB_DEVICE/Target/usbd_conf.c **** 
 1077              		.loc 1 439 16 view .LVU243
ARM GAS  C:\Users\thewo\AppData\Local\Temp\cci8avqb.s 			page 33


 1078 000c FFF7FEFF 		bl	HAL_PCD_EP_Open
 1079              	.LVL108:
 441:USB_DEVICE/Target/usbd_conf.c **** 
 1080              		.loc 1 441 3 is_stmt 1 view .LVU244
 441:USB_DEVICE/Target/usbd_conf.c **** 
 1081              		.loc 1 441 17 is_stmt 0 view .LVU245
 1082 0010 FFF7FEFF 		bl	USBD_Get_USB_Status
 1083              	.LVL109:
 443:USB_DEVICE/Target/usbd_conf.c **** }
 1084              		.loc 1 443 3 is_stmt 1 view .LVU246
 444:USB_DEVICE/Target/usbd_conf.c **** 
 1085              		.loc 1 444 1 is_stmt 0 view .LVU247
 1086 0014 08BD     		pop	{r3, pc}
 1087              		.cfi_endproc
 1088              	.LFE371:
 1090              		.section	.text.USBD_LL_CloseEP,"ax",%progbits
 1091              		.align	1
 1092              		.global	USBD_LL_CloseEP
 1093              		.syntax unified
 1094              		.thumb
 1095              		.thumb_func
 1097              	USBD_LL_CloseEP:
 1098              	.LVL110:
 1099              	.LFB372:
 453:USB_DEVICE/Target/usbd_conf.c ****   HAL_StatusTypeDef hal_status = HAL_OK;
 1100              		.loc 1 453 1 is_stmt 1 view -0
 1101              		.cfi_startproc
 1102              		@ args = 0, pretend = 0, frame = 0
 1103              		@ frame_needed = 0, uses_anonymous_args = 0
 453:USB_DEVICE/Target/usbd_conf.c ****   HAL_StatusTypeDef hal_status = HAL_OK;
 1104              		.loc 1 453 1 is_stmt 0 view .LVU249
 1105 0000 08B5     		push	{r3, lr}
 1106              		.cfi_def_cfa_offset 8
 1107              		.cfi_offset 3, -8
 1108              		.cfi_offset 14, -4
 454:USB_DEVICE/Target/usbd_conf.c ****   USBD_StatusTypeDef usb_status = USBD_OK;
 1109              		.loc 1 454 3 is_stmt 1 view .LVU250
 1110              	.LVL111:
 455:USB_DEVICE/Target/usbd_conf.c **** 
 1111              		.loc 1 455 3 view .LVU251
 457:USB_DEVICE/Target/usbd_conf.c **** 
 1112              		.loc 1 457 3 view .LVU252
 457:USB_DEVICE/Target/usbd_conf.c **** 
 1113              		.loc 1 457 16 is_stmt 0 view .LVU253
 1114 0002 D0F8C802 		ldr	r0, [r0, #712]
 1115              	.LVL112:
 457:USB_DEVICE/Target/usbd_conf.c **** 
 1116              		.loc 1 457 16 view .LVU254
 1117 0006 FFF7FEFF 		bl	HAL_PCD_EP_Close
 1118              	.LVL113:
 459:USB_DEVICE/Target/usbd_conf.c **** 
 1119              		.loc 1 459 3 is_stmt 1 view .LVU255
 459:USB_DEVICE/Target/usbd_conf.c **** 
 1120              		.loc 1 459 17 is_stmt 0 view .LVU256
 1121 000a FFF7FEFF 		bl	USBD_Get_USB_Status
 1122              	.LVL114:
 461:USB_DEVICE/Target/usbd_conf.c **** }
ARM GAS  C:\Users\thewo\AppData\Local\Temp\cci8avqb.s 			page 34


 1123              		.loc 1 461 3 is_stmt 1 view .LVU257
 462:USB_DEVICE/Target/usbd_conf.c **** 
 1124              		.loc 1 462 1 is_stmt 0 view .LVU258
 1125 000e 08BD     		pop	{r3, pc}
 1126              		.cfi_endproc
 1127              	.LFE372:
 1129              		.section	.text.USBD_LL_FlushEP,"ax",%progbits
 1130              		.align	1
 1131              		.global	USBD_LL_FlushEP
 1132              		.syntax unified
 1133              		.thumb
 1134              		.thumb_func
 1136              	USBD_LL_FlushEP:
 1137              	.LVL115:
 1138              	.LFB373:
 471:USB_DEVICE/Target/usbd_conf.c ****   HAL_StatusTypeDef hal_status = HAL_OK;
 1139              		.loc 1 471 1 is_stmt 1 view -0
 1140              		.cfi_startproc
 1141              		@ args = 0, pretend = 0, frame = 0
 1142              		@ frame_needed = 0, uses_anonymous_args = 0
 471:USB_DEVICE/Target/usbd_conf.c ****   HAL_StatusTypeDef hal_status = HAL_OK;
 1143              		.loc 1 471 1 is_stmt 0 view .LVU260
 1144 0000 08B5     		push	{r3, lr}
 1145              		.cfi_def_cfa_offset 8
 1146              		.cfi_offset 3, -8
 1147              		.cfi_offset 14, -4
 472:USB_DEVICE/Target/usbd_conf.c ****   USBD_StatusTypeDef usb_status = USBD_OK;
 1148              		.loc 1 472 3 is_stmt 1 view .LVU261
 1149              	.LVL116:
 473:USB_DEVICE/Target/usbd_conf.c **** 
 1150              		.loc 1 473 3 view .LVU262
 475:USB_DEVICE/Target/usbd_conf.c **** 
 1151              		.loc 1 475 3 view .LVU263
 475:USB_DEVICE/Target/usbd_conf.c **** 
 1152              		.loc 1 475 16 is_stmt 0 view .LVU264
 1153 0002 D0F8C802 		ldr	r0, [r0, #712]
 1154              	.LVL117:
 475:USB_DEVICE/Target/usbd_conf.c **** 
 1155              		.loc 1 475 16 view .LVU265
 1156 0006 FFF7FEFF 		bl	HAL_PCD_EP_Flush
 1157              	.LVL118:
 477:USB_DEVICE/Target/usbd_conf.c **** 
 1158              		.loc 1 477 3 is_stmt 1 view .LVU266
 477:USB_DEVICE/Target/usbd_conf.c **** 
 1159              		.loc 1 477 17 is_stmt 0 view .LVU267
 1160 000a FFF7FEFF 		bl	USBD_Get_USB_Status
 1161              	.LVL119:
 479:USB_DEVICE/Target/usbd_conf.c **** }
 1162              		.loc 1 479 3 is_stmt 1 view .LVU268
 480:USB_DEVICE/Target/usbd_conf.c **** 
 1163              		.loc 1 480 1 is_stmt 0 view .LVU269
 1164 000e 08BD     		pop	{r3, pc}
 1165              		.cfi_endproc
 1166              	.LFE373:
 1168              		.section	.text.USBD_LL_StallEP,"ax",%progbits
 1169              		.align	1
 1170              		.global	USBD_LL_StallEP
ARM GAS  C:\Users\thewo\AppData\Local\Temp\cci8avqb.s 			page 35


 1171              		.syntax unified
 1172              		.thumb
 1173              		.thumb_func
 1175              	USBD_LL_StallEP:
 1176              	.LVL120:
 1177              	.LFB374:
 489:USB_DEVICE/Target/usbd_conf.c ****   HAL_StatusTypeDef hal_status = HAL_OK;
 1178              		.loc 1 489 1 is_stmt 1 view -0
 1179              		.cfi_startproc
 1180              		@ args = 0, pretend = 0, frame = 0
 1181              		@ frame_needed = 0, uses_anonymous_args = 0
 489:USB_DEVICE/Target/usbd_conf.c ****   HAL_StatusTypeDef hal_status = HAL_OK;
 1182              		.loc 1 489 1 is_stmt 0 view .LVU271
 1183 0000 08B5     		push	{r3, lr}
 1184              		.cfi_def_cfa_offset 8
 1185              		.cfi_offset 3, -8
 1186              		.cfi_offset 14, -4
 490:USB_DEVICE/Target/usbd_conf.c ****   USBD_StatusTypeDef usb_status = USBD_OK;
 1187              		.loc 1 490 3 is_stmt 1 view .LVU272
 1188              	.LVL121:
 491:USB_DEVICE/Target/usbd_conf.c **** 
 1189              		.loc 1 491 3 view .LVU273
 493:USB_DEVICE/Target/usbd_conf.c **** 
 1190              		.loc 1 493 3 view .LVU274
 493:USB_DEVICE/Target/usbd_conf.c **** 
 1191              		.loc 1 493 16 is_stmt 0 view .LVU275
 1192 0002 D0F8C802 		ldr	r0, [r0, #712]
 1193              	.LVL122:
 493:USB_DEVICE/Target/usbd_conf.c **** 
 1194              		.loc 1 493 16 view .LVU276
 1195 0006 FFF7FEFF 		bl	HAL_PCD_EP_SetStall
 1196              	.LVL123:
 495:USB_DEVICE/Target/usbd_conf.c **** 
 1197              		.loc 1 495 3 is_stmt 1 view .LVU277
 495:USB_DEVICE/Target/usbd_conf.c **** 
 1198              		.loc 1 495 17 is_stmt 0 view .LVU278
 1199 000a FFF7FEFF 		bl	USBD_Get_USB_Status
 1200              	.LVL124:
 497:USB_DEVICE/Target/usbd_conf.c **** }
 1201              		.loc 1 497 3 is_stmt 1 view .LVU279
 498:USB_DEVICE/Target/usbd_conf.c **** 
 1202              		.loc 1 498 1 is_stmt 0 view .LVU280
 1203 000e 08BD     		pop	{r3, pc}
 1204              		.cfi_endproc
 1205              	.LFE374:
 1207              		.section	.text.USBD_LL_ClearStallEP,"ax",%progbits
 1208              		.align	1
 1209              		.global	USBD_LL_ClearStallEP
 1210              		.syntax unified
 1211              		.thumb
 1212              		.thumb_func
 1214              	USBD_LL_ClearStallEP:
 1215              	.LVL125:
 1216              	.LFB375:
 507:USB_DEVICE/Target/usbd_conf.c ****   HAL_StatusTypeDef hal_status = HAL_OK;
 1217              		.loc 1 507 1 is_stmt 1 view -0
 1218              		.cfi_startproc
ARM GAS  C:\Users\thewo\AppData\Local\Temp\cci8avqb.s 			page 36


 1219              		@ args = 0, pretend = 0, frame = 0
 1220              		@ frame_needed = 0, uses_anonymous_args = 0
 507:USB_DEVICE/Target/usbd_conf.c ****   HAL_StatusTypeDef hal_status = HAL_OK;
 1221              		.loc 1 507 1 is_stmt 0 view .LVU282
 1222 0000 08B5     		push	{r3, lr}
 1223              		.cfi_def_cfa_offset 8
 1224              		.cfi_offset 3, -8
 1225              		.cfi_offset 14, -4
 508:USB_DEVICE/Target/usbd_conf.c ****   USBD_StatusTypeDef usb_status = USBD_OK;
 1226              		.loc 1 508 3 is_stmt 1 view .LVU283
 1227              	.LVL126:
 509:USB_DEVICE/Target/usbd_conf.c **** 
 1228              		.loc 1 509 3 view .LVU284
 511:USB_DEVICE/Target/usbd_conf.c **** 
 1229              		.loc 1 511 3 view .LVU285
 511:USB_DEVICE/Target/usbd_conf.c **** 
 1230              		.loc 1 511 16 is_stmt 0 view .LVU286
 1231 0002 D0F8C802 		ldr	r0, [r0, #712]
 1232              	.LVL127:
 511:USB_DEVICE/Target/usbd_conf.c **** 
 1233              		.loc 1 511 16 view .LVU287
 1234 0006 FFF7FEFF 		bl	HAL_PCD_EP_ClrStall
 1235              	.LVL128:
 513:USB_DEVICE/Target/usbd_conf.c **** 
 1236              		.loc 1 513 3 is_stmt 1 view .LVU288
 513:USB_DEVICE/Target/usbd_conf.c **** 
 1237              		.loc 1 513 17 is_stmt 0 view .LVU289
 1238 000a FFF7FEFF 		bl	USBD_Get_USB_Status
 1239              	.LVL129:
 515:USB_DEVICE/Target/usbd_conf.c **** }
 1240              		.loc 1 515 3 is_stmt 1 view .LVU290
 516:USB_DEVICE/Target/usbd_conf.c **** 
 1241              		.loc 1 516 1 is_stmt 0 view .LVU291
 1242 000e 08BD     		pop	{r3, pc}
 1243              		.cfi_endproc
 1244              	.LFE375:
 1246              		.section	.text.USBD_LL_SetUSBAddress,"ax",%progbits
 1247              		.align	1
 1248              		.global	USBD_LL_SetUSBAddress
 1249              		.syntax unified
 1250              		.thumb
 1251              		.thumb_func
 1253              	USBD_LL_SetUSBAddress:
 1254              	.LVL130:
 1255              	.LFB377:
 545:USB_DEVICE/Target/usbd_conf.c ****   HAL_StatusTypeDef hal_status = HAL_OK;
 1256              		.loc 1 545 1 is_stmt 1 view -0
 1257              		.cfi_startproc
 1258              		@ args = 0, pretend = 0, frame = 0
 1259              		@ frame_needed = 0, uses_anonymous_args = 0
 545:USB_DEVICE/Target/usbd_conf.c ****   HAL_StatusTypeDef hal_status = HAL_OK;
 1260              		.loc 1 545 1 is_stmt 0 view .LVU293
 1261 0000 08B5     		push	{r3, lr}
 1262              		.cfi_def_cfa_offset 8
 1263              		.cfi_offset 3, -8
 1264              		.cfi_offset 14, -4
 546:USB_DEVICE/Target/usbd_conf.c ****   USBD_StatusTypeDef usb_status = USBD_OK;
ARM GAS  C:\Users\thewo\AppData\Local\Temp\cci8avqb.s 			page 37


 1265              		.loc 1 546 3 is_stmt 1 view .LVU294
 1266              	.LVL131:
 547:USB_DEVICE/Target/usbd_conf.c **** 
 1267              		.loc 1 547 3 view .LVU295
 549:USB_DEVICE/Target/usbd_conf.c **** 
 1268              		.loc 1 549 3 view .LVU296
 549:USB_DEVICE/Target/usbd_conf.c **** 
 1269              		.loc 1 549 16 is_stmt 0 view .LVU297
 1270 0002 D0F8C802 		ldr	r0, [r0, #712]
 1271              	.LVL132:
 549:USB_DEVICE/Target/usbd_conf.c **** 
 1272              		.loc 1 549 16 view .LVU298
 1273 0006 FFF7FEFF 		bl	HAL_PCD_SetAddress
 1274              	.LVL133:
 551:USB_DEVICE/Target/usbd_conf.c **** 
 1275              		.loc 1 551 3 is_stmt 1 view .LVU299
 551:USB_DEVICE/Target/usbd_conf.c **** 
 1276              		.loc 1 551 17 is_stmt 0 view .LVU300
 1277 000a FFF7FEFF 		bl	USBD_Get_USB_Status
 1278              	.LVL134:
 553:USB_DEVICE/Target/usbd_conf.c **** }
 1279              		.loc 1 553 3 is_stmt 1 view .LVU301
 554:USB_DEVICE/Target/usbd_conf.c **** 
 1280              		.loc 1 554 1 is_stmt 0 view .LVU302
 1281 000e 08BD     		pop	{r3, pc}
 1282              		.cfi_endproc
 1283              	.LFE377:
 1285              		.section	.text.USBD_LL_Transmit,"ax",%progbits
 1286              		.align	1
 1287              		.global	USBD_LL_Transmit
 1288              		.syntax unified
 1289              		.thumb
 1290              		.thumb_func
 1292              	USBD_LL_Transmit:
 1293              	.LVL135:
 1294              	.LFB378:
 565:USB_DEVICE/Target/usbd_conf.c ****   HAL_StatusTypeDef hal_status = HAL_OK;
 1295              		.loc 1 565 1 is_stmt 1 view -0
 1296              		.cfi_startproc
 1297              		@ args = 0, pretend = 0, frame = 0
 1298              		@ frame_needed = 0, uses_anonymous_args = 0
 565:USB_DEVICE/Target/usbd_conf.c ****   HAL_StatusTypeDef hal_status = HAL_OK;
 1299              		.loc 1 565 1 is_stmt 0 view .LVU304
 1300 0000 08B5     		push	{r3, lr}
 1301              		.cfi_def_cfa_offset 8
 1302              		.cfi_offset 3, -8
 1303              		.cfi_offset 14, -4
 566:USB_DEVICE/Target/usbd_conf.c ****   USBD_StatusTypeDef usb_status = USBD_OK;
 1304              		.loc 1 566 3 is_stmt 1 view .LVU305
 1305              	.LVL136:
 567:USB_DEVICE/Target/usbd_conf.c **** 
 1306              		.loc 1 567 3 view .LVU306
 569:USB_DEVICE/Target/usbd_conf.c **** 
 1307              		.loc 1 569 3 view .LVU307
 569:USB_DEVICE/Target/usbd_conf.c **** 
 1308              		.loc 1 569 16 is_stmt 0 view .LVU308
 1309 0002 D0F8C802 		ldr	r0, [r0, #712]
ARM GAS  C:\Users\thewo\AppData\Local\Temp\cci8avqb.s 			page 38


 1310              	.LVL137:
 569:USB_DEVICE/Target/usbd_conf.c **** 
 1311              		.loc 1 569 16 view .LVU309
 1312 0006 FFF7FEFF 		bl	HAL_PCD_EP_Transmit
 1313              	.LVL138:
 571:USB_DEVICE/Target/usbd_conf.c **** 
 1314              		.loc 1 571 3 is_stmt 1 view .LVU310
 571:USB_DEVICE/Target/usbd_conf.c **** 
 1315              		.loc 1 571 17 is_stmt 0 view .LVU311
 1316 000a FFF7FEFF 		bl	USBD_Get_USB_Status
 1317              	.LVL139:
 573:USB_DEVICE/Target/usbd_conf.c **** }
 1318              		.loc 1 573 3 is_stmt 1 view .LVU312
 574:USB_DEVICE/Target/usbd_conf.c **** 
 1319              		.loc 1 574 1 is_stmt 0 view .LVU313
 1320 000e 08BD     		pop	{r3, pc}
 1321              		.cfi_endproc
 1322              	.LFE378:
 1324              		.section	.text.USBD_LL_PrepareReceive,"ax",%progbits
 1325              		.align	1
 1326              		.global	USBD_LL_PrepareReceive
 1327              		.syntax unified
 1328              		.thumb
 1329              		.thumb_func
 1331              	USBD_LL_PrepareReceive:
 1332              	.LVL140:
 1333              	.LFB379:
 585:USB_DEVICE/Target/usbd_conf.c ****   HAL_StatusTypeDef hal_status = HAL_OK;
 1334              		.loc 1 585 1 is_stmt 1 view -0
 1335              		.cfi_startproc
 1336              		@ args = 0, pretend = 0, frame = 0
 1337              		@ frame_needed = 0, uses_anonymous_args = 0
 585:USB_DEVICE/Target/usbd_conf.c ****   HAL_StatusTypeDef hal_status = HAL_OK;
 1338              		.loc 1 585 1 is_stmt 0 view .LVU315
 1339 0000 08B5     		push	{r3, lr}
 1340              		.cfi_def_cfa_offset 8
 1341              		.cfi_offset 3, -8
 1342              		.cfi_offset 14, -4
 586:USB_DEVICE/Target/usbd_conf.c ****   USBD_StatusTypeDef usb_status = USBD_OK;
 1343              		.loc 1 586 3 is_stmt 1 view .LVU316
 1344              	.LVL141:
 587:USB_DEVICE/Target/usbd_conf.c **** 
 1345              		.loc 1 587 3 view .LVU317
 589:USB_DEVICE/Target/usbd_conf.c **** 
 1346              		.loc 1 589 3 view .LVU318
 589:USB_DEVICE/Target/usbd_conf.c **** 
 1347              		.loc 1 589 16 is_stmt 0 view .LVU319
 1348 0002 D0F8C802 		ldr	r0, [r0, #712]
 1349              	.LVL142:
 589:USB_DEVICE/Target/usbd_conf.c **** 
 1350              		.loc 1 589 16 view .LVU320
 1351 0006 FFF7FEFF 		bl	HAL_PCD_EP_Receive
 1352              	.LVL143:
 591:USB_DEVICE/Target/usbd_conf.c **** 
 1353              		.loc 1 591 3 is_stmt 1 view .LVU321
 591:USB_DEVICE/Target/usbd_conf.c **** 
 1354              		.loc 1 591 17 is_stmt 0 view .LVU322
ARM GAS  C:\Users\thewo\AppData\Local\Temp\cci8avqb.s 			page 39


 1355 000a FFF7FEFF 		bl	USBD_Get_USB_Status
 1356              	.LVL144:
 593:USB_DEVICE/Target/usbd_conf.c **** }
 1357              		.loc 1 593 3 is_stmt 1 view .LVU323
 594:USB_DEVICE/Target/usbd_conf.c **** 
 1358              		.loc 1 594 1 is_stmt 0 view .LVU324
 1359 000e 08BD     		pop	{r3, pc}
 1360              		.cfi_endproc
 1361              	.LFE379:
 1363              		.section	.bss.mem.0,"aw",%nobits
 1364              		.align	2
 1367              	mem.0:
 1368 0000 00000000 		.space	544
 1368      00000000 
 1368      00000000 
 1368      00000000 
 1368      00000000 
 1369              		.global	hpcd_USB_OTG_HS
 1370              		.section	.bss.hpcd_USB_OTG_HS,"aw",%nobits
 1371              		.align	2
 1374              	hpcd_USB_OTG_HS:
 1375 0000 00000000 		.space	1252
 1375      00000000 
 1375      00000000 
 1375      00000000 
 1375      00000000 
 1376              		.text
 1377              	.Letext0:
 1378              		.file 2 "Drivers/CMSIS/Device/ST/STM32H7xx/Include/stm32h725xx.h"
 1379              		.file 3 "C:/Users/thewo/AppData/Roaming/Code/User/globalStorage/bmd.stm32-for-vscode/@xpack-dev-to
 1380              		.file 4 "C:/Users/thewo/AppData/Roaming/Code/User/globalStorage/bmd.stm32-for-vscode/@xpack-dev-to
 1381              		.file 5 "Drivers/CMSIS/Include/core_cm7.h"
 1382              		.file 6 "Drivers/CMSIS/Device/ST/STM32H7xx/Include/stm32h7xx.h"
 1383              		.file 7 "Drivers/STM32H7xx_HAL_Driver/Inc/stm32h7xx_hal_def.h"
 1384              		.file 8 "Drivers/STM32H7xx_HAL_Driver/Inc/stm32h7xx_hal_rcc_ex.h"
 1385              		.file 9 "Drivers/STM32H7xx_HAL_Driver/Inc/stm32h7xx_ll_usb.h"
 1386              		.file 10 "Drivers/STM32H7xx_HAL_Driver/Inc/stm32h7xx_hal_pcd.h"
 1387              		.file 11 "Middlewares/ST/STM32_USB_Device_Library/Core/Inc/usbd_def.h"
 1388              		.file 12 "Drivers/STM32H7xx_HAL_Driver/Inc/stm32h7xx_hal_pcd_ex.h"
 1389              		.file 13 "Middlewares/ST/STM32_USB_Device_Library/Core/Inc/usbd_core.h"
 1390              		.file 14 "Drivers/STM32H7xx_HAL_Driver/Inc/stm32h7xx_hal.h"
 1391              		.file 15 "Drivers/STM32H7xx_HAL_Driver/Inc/stm32h7xx_hal_cortex.h"
 1392              		.file 16 "Drivers/STM32H7xx_HAL_Driver/Inc/stm32h7xx_hal_pwr_ex.h"
 1393              		.file 17 "<built-in>"
ARM GAS  C:\Users\thewo\AppData\Local\Temp\cci8avqb.s 			page 40

