ARM GAS  C:\Users\thewo\AppData\Local\Temp\cc4MpHw8.s 			page 1


   1              		.cpu cortex-m7
   2              		.arch armv7e-m
   3              		.fpu fpv5-d16
   4              		.eabi_attribute 28, 1
   5              		.eabi_attribute 20, 1
   6              		.eabi_attribute 21, 1
   7              		.eabi_attribute 23, 3
   8              		.eabi_attribute 24, 1
   9              		.eabi_attribute 25, 1
  10              		.eabi_attribute 26, 1
  11              		.eabi_attribute 30, 1
  12              		.eabi_attribute 34, 1
  13              		.eabi_attribute 18, 4
  14              		.file	"usbd_cdc_if.c"
  15              		.text
  16              	.Ltext0:
  17              		.cfi_sections	.debug_frame
  18              		.file 1 "USB_DEVICE/App/usbd_cdc_if.c"
  19              		.section	.text.CDC_DeInit_HS,"ax",%progbits
  20              		.align	1
  21              		.syntax unified
  22              		.thumb
  23              		.thumb_func
  25              	CDC_DeInit_HS:
  26              	.LFB355:
   1:USB_DEVICE/App/usbd_cdc_if.c **** /* USER CODE BEGIN Header */
   2:USB_DEVICE/App/usbd_cdc_if.c **** /**
   3:USB_DEVICE/App/usbd_cdc_if.c ****   ******************************************************************************
   4:USB_DEVICE/App/usbd_cdc_if.c ****   * @file           : usbd_cdc_if.c
   5:USB_DEVICE/App/usbd_cdc_if.c ****   * @version        : v1.0_Cube
   6:USB_DEVICE/App/usbd_cdc_if.c ****   * @brief          : Usb device for Virtual Com Port.
   7:USB_DEVICE/App/usbd_cdc_if.c ****   ******************************************************************************
   8:USB_DEVICE/App/usbd_cdc_if.c ****   * @attention
   9:USB_DEVICE/App/usbd_cdc_if.c ****   *
  10:USB_DEVICE/App/usbd_cdc_if.c ****   * Copyright (c) 2025 STMicroelectronics.
  11:USB_DEVICE/App/usbd_cdc_if.c ****   * All rights reserved.
  12:USB_DEVICE/App/usbd_cdc_if.c ****   *
  13:USB_DEVICE/App/usbd_cdc_if.c ****   * This software is licensed under terms that can be found in the LICENSE file
  14:USB_DEVICE/App/usbd_cdc_if.c ****   * in the root directory of this software component.
  15:USB_DEVICE/App/usbd_cdc_if.c ****   * If no LICENSE file comes with this software, it is provided AS-IS.
  16:USB_DEVICE/App/usbd_cdc_if.c ****   *
  17:USB_DEVICE/App/usbd_cdc_if.c ****   ******************************************************************************
  18:USB_DEVICE/App/usbd_cdc_if.c ****   */
  19:USB_DEVICE/App/usbd_cdc_if.c **** /* USER CODE END Header */
  20:USB_DEVICE/App/usbd_cdc_if.c **** 
  21:USB_DEVICE/App/usbd_cdc_if.c **** /* Includes ------------------------------------------------------------------*/
  22:USB_DEVICE/App/usbd_cdc_if.c **** #include "usbd_cdc_if.h"
  23:USB_DEVICE/App/usbd_cdc_if.c **** 
  24:USB_DEVICE/App/usbd_cdc_if.c **** /* USER CODE BEGIN INCLUDE */
  25:USB_DEVICE/App/usbd_cdc_if.c **** 
  26:USB_DEVICE/App/usbd_cdc_if.c **** /* USER CODE END INCLUDE */
  27:USB_DEVICE/App/usbd_cdc_if.c **** 
  28:USB_DEVICE/App/usbd_cdc_if.c **** /* Private typedef -----------------------------------------------------------*/
  29:USB_DEVICE/App/usbd_cdc_if.c **** /* Private define ------------------------------------------------------------*/
  30:USB_DEVICE/App/usbd_cdc_if.c **** /* Private macro -------------------------------------------------------------*/
  31:USB_DEVICE/App/usbd_cdc_if.c **** 
  32:USB_DEVICE/App/usbd_cdc_if.c **** /* USER CODE BEGIN PV */
ARM GAS  C:\Users\thewo\AppData\Local\Temp\cc4MpHw8.s 			page 2


  33:USB_DEVICE/App/usbd_cdc_if.c **** /* Private variables ---------------------------------------------------------*/
  34:USB_DEVICE/App/usbd_cdc_if.c **** 
  35:USB_DEVICE/App/usbd_cdc_if.c **** /* USER CODE END PV */
  36:USB_DEVICE/App/usbd_cdc_if.c **** 
  37:USB_DEVICE/App/usbd_cdc_if.c **** /** @addtogroup STM32_USB_OTG_DEVICE_LIBRARY
  38:USB_DEVICE/App/usbd_cdc_if.c ****   * @brief Usb device library.
  39:USB_DEVICE/App/usbd_cdc_if.c ****   * @{
  40:USB_DEVICE/App/usbd_cdc_if.c ****   */
  41:USB_DEVICE/App/usbd_cdc_if.c **** 
  42:USB_DEVICE/App/usbd_cdc_if.c **** /** @addtogroup USBD_CDC_IF
  43:USB_DEVICE/App/usbd_cdc_if.c ****   * @{
  44:USB_DEVICE/App/usbd_cdc_if.c ****   */
  45:USB_DEVICE/App/usbd_cdc_if.c **** 
  46:USB_DEVICE/App/usbd_cdc_if.c **** /** @defgroup USBD_CDC_IF_Private_TypesDefinitions USBD_CDC_IF_Private_TypesDefinitions
  47:USB_DEVICE/App/usbd_cdc_if.c ****   * @brief Private types.
  48:USB_DEVICE/App/usbd_cdc_if.c ****   * @{
  49:USB_DEVICE/App/usbd_cdc_if.c ****   */
  50:USB_DEVICE/App/usbd_cdc_if.c **** 
  51:USB_DEVICE/App/usbd_cdc_if.c **** /* USER CODE BEGIN PRIVATE_TYPES */
  52:USB_DEVICE/App/usbd_cdc_if.c **** 
  53:USB_DEVICE/App/usbd_cdc_if.c **** /* USER CODE END PRIVATE_TYPES */
  54:USB_DEVICE/App/usbd_cdc_if.c **** 
  55:USB_DEVICE/App/usbd_cdc_if.c **** /**
  56:USB_DEVICE/App/usbd_cdc_if.c ****   * @}
  57:USB_DEVICE/App/usbd_cdc_if.c ****   */
  58:USB_DEVICE/App/usbd_cdc_if.c **** 
  59:USB_DEVICE/App/usbd_cdc_if.c **** /** @defgroup USBD_CDC_IF_Private_Defines USBD_CDC_IF_Private_Defines
  60:USB_DEVICE/App/usbd_cdc_if.c ****   * @brief Private defines.
  61:USB_DEVICE/App/usbd_cdc_if.c ****   * @{
  62:USB_DEVICE/App/usbd_cdc_if.c ****   */
  63:USB_DEVICE/App/usbd_cdc_if.c **** 
  64:USB_DEVICE/App/usbd_cdc_if.c **** /* USER CODE BEGIN PRIVATE_DEFINES */
  65:USB_DEVICE/App/usbd_cdc_if.c **** /* USER CODE END PRIVATE_DEFINES */
  66:USB_DEVICE/App/usbd_cdc_if.c **** 
  67:USB_DEVICE/App/usbd_cdc_if.c **** /**
  68:USB_DEVICE/App/usbd_cdc_if.c ****   * @}
  69:USB_DEVICE/App/usbd_cdc_if.c ****   */
  70:USB_DEVICE/App/usbd_cdc_if.c **** 
  71:USB_DEVICE/App/usbd_cdc_if.c **** /** @defgroup USBD_CDC_IF_Private_Macros USBD_CDC_IF_Private_Macros
  72:USB_DEVICE/App/usbd_cdc_if.c ****   * @brief Private macros.
  73:USB_DEVICE/App/usbd_cdc_if.c ****   * @{
  74:USB_DEVICE/App/usbd_cdc_if.c ****   */
  75:USB_DEVICE/App/usbd_cdc_if.c **** 
  76:USB_DEVICE/App/usbd_cdc_if.c **** /* USER CODE BEGIN PRIVATE_MACRO */
  77:USB_DEVICE/App/usbd_cdc_if.c **** 
  78:USB_DEVICE/App/usbd_cdc_if.c **** /* USER CODE END PRIVATE_MACRO */
  79:USB_DEVICE/App/usbd_cdc_if.c **** 
  80:USB_DEVICE/App/usbd_cdc_if.c **** /**
  81:USB_DEVICE/App/usbd_cdc_if.c ****   * @}
  82:USB_DEVICE/App/usbd_cdc_if.c ****   */
  83:USB_DEVICE/App/usbd_cdc_if.c **** 
  84:USB_DEVICE/App/usbd_cdc_if.c **** /** @defgroup USBD_CDC_IF_Private_Variables USBD_CDC_IF_Private_Variables
  85:USB_DEVICE/App/usbd_cdc_if.c ****   * @brief Private variables.
  86:USB_DEVICE/App/usbd_cdc_if.c ****   * @{
  87:USB_DEVICE/App/usbd_cdc_if.c ****   */
  88:USB_DEVICE/App/usbd_cdc_if.c **** 
  89:USB_DEVICE/App/usbd_cdc_if.c **** /* Create buffer for reception and transmission           */
ARM GAS  C:\Users\thewo\AppData\Local\Temp\cc4MpHw8.s 			page 3


  90:USB_DEVICE/App/usbd_cdc_if.c **** /* It's up to user to redefine and/or remove those define */
  91:USB_DEVICE/App/usbd_cdc_if.c **** /** Received data over USB are stored in this buffer      */
  92:USB_DEVICE/App/usbd_cdc_if.c **** uint8_t UserRxBufferHS[APP_RX_DATA_SIZE];
  93:USB_DEVICE/App/usbd_cdc_if.c **** 
  94:USB_DEVICE/App/usbd_cdc_if.c **** /** Data to send over USB CDC are stored in this buffer   */
  95:USB_DEVICE/App/usbd_cdc_if.c **** uint8_t UserTxBufferHS[APP_TX_DATA_SIZE];
  96:USB_DEVICE/App/usbd_cdc_if.c **** 
  97:USB_DEVICE/App/usbd_cdc_if.c **** /* USER CODE BEGIN PRIVATE_VARIABLES */
  98:USB_DEVICE/App/usbd_cdc_if.c **** USBD_CDC_LineCodingTypeDef LineCoding = {
  99:USB_DEVICE/App/usbd_cdc_if.c ****   115200,                       /* baud rate */
 100:USB_DEVICE/App/usbd_cdc_if.c ****   0x00,                         /* stop bits - 1 */
 101:USB_DEVICE/App/usbd_cdc_if.c ****   0x00,                         /* parity - none */
 102:USB_DEVICE/App/usbd_cdc_if.c ****   0x08                          /* nb. of bits 8 */
 103:USB_DEVICE/App/usbd_cdc_if.c **** };
 104:USB_DEVICE/App/usbd_cdc_if.c **** /* USER CODE END PRIVATE_VARIABLES */
 105:USB_DEVICE/App/usbd_cdc_if.c **** 
 106:USB_DEVICE/App/usbd_cdc_if.c **** /**
 107:USB_DEVICE/App/usbd_cdc_if.c ****   * @}
 108:USB_DEVICE/App/usbd_cdc_if.c ****   */
 109:USB_DEVICE/App/usbd_cdc_if.c **** 
 110:USB_DEVICE/App/usbd_cdc_if.c **** /** @defgroup USBD_CDC_IF_Exported_Variables USBD_CDC_IF_Exported_Variables
 111:USB_DEVICE/App/usbd_cdc_if.c ****   * @brief Public variables.
 112:USB_DEVICE/App/usbd_cdc_if.c ****   * @{
 113:USB_DEVICE/App/usbd_cdc_if.c ****   */
 114:USB_DEVICE/App/usbd_cdc_if.c **** 
 115:USB_DEVICE/App/usbd_cdc_if.c **** extern USBD_HandleTypeDef hUsbDeviceHS;
 116:USB_DEVICE/App/usbd_cdc_if.c **** 
 117:USB_DEVICE/App/usbd_cdc_if.c **** /* USER CODE BEGIN EXPORTED_VARIABLES */
 118:USB_DEVICE/App/usbd_cdc_if.c **** 
 119:USB_DEVICE/App/usbd_cdc_if.c **** /* USER CODE END EXPORTED_VARIABLES */
 120:USB_DEVICE/App/usbd_cdc_if.c **** 
 121:USB_DEVICE/App/usbd_cdc_if.c **** /**
 122:USB_DEVICE/App/usbd_cdc_if.c ****   * @}
 123:USB_DEVICE/App/usbd_cdc_if.c ****   */
 124:USB_DEVICE/App/usbd_cdc_if.c **** 
 125:USB_DEVICE/App/usbd_cdc_if.c **** /** @defgroup USBD_CDC_IF_Private_FunctionPrototypes USBD_CDC_IF_Private_FunctionPrototypes
 126:USB_DEVICE/App/usbd_cdc_if.c ****   * @brief Private functions declaration.
 127:USB_DEVICE/App/usbd_cdc_if.c ****   * @{
 128:USB_DEVICE/App/usbd_cdc_if.c ****   */
 129:USB_DEVICE/App/usbd_cdc_if.c **** 
 130:USB_DEVICE/App/usbd_cdc_if.c **** static int8_t CDC_Init_HS(void);
 131:USB_DEVICE/App/usbd_cdc_if.c **** static int8_t CDC_DeInit_HS(void);
 132:USB_DEVICE/App/usbd_cdc_if.c **** static int8_t CDC_Control_HS(uint8_t cmd, uint8_t* pbuf, uint16_t length);
 133:USB_DEVICE/App/usbd_cdc_if.c **** static int8_t CDC_Receive_HS(uint8_t* pbuf, uint32_t *Len);
 134:USB_DEVICE/App/usbd_cdc_if.c **** static int8_t CDC_TransmitCplt_HS(uint8_t *pbuf, uint32_t *Len, uint8_t epnum);
 135:USB_DEVICE/App/usbd_cdc_if.c **** 
 136:USB_DEVICE/App/usbd_cdc_if.c **** /* USER CODE BEGIN PRIVATE_FUNCTIONS_DECLARATION */
 137:USB_DEVICE/App/usbd_cdc_if.c **** 
 138:USB_DEVICE/App/usbd_cdc_if.c **** /* USER CODE END PRIVATE_FUNCTIONS_DECLARATION */
 139:USB_DEVICE/App/usbd_cdc_if.c **** 
 140:USB_DEVICE/App/usbd_cdc_if.c **** /**
 141:USB_DEVICE/App/usbd_cdc_if.c ****   * @}
 142:USB_DEVICE/App/usbd_cdc_if.c ****   */
 143:USB_DEVICE/App/usbd_cdc_if.c **** 
 144:USB_DEVICE/App/usbd_cdc_if.c **** USBD_CDC_ItfTypeDef USBD_Interface_fops_HS =
 145:USB_DEVICE/App/usbd_cdc_if.c **** {
 146:USB_DEVICE/App/usbd_cdc_if.c ****   CDC_Init_HS,
ARM GAS  C:\Users\thewo\AppData\Local\Temp\cc4MpHw8.s 			page 4


 147:USB_DEVICE/App/usbd_cdc_if.c ****   CDC_DeInit_HS,
 148:USB_DEVICE/App/usbd_cdc_if.c ****   CDC_Control_HS,
 149:USB_DEVICE/App/usbd_cdc_if.c ****   CDC_Receive_HS,
 150:USB_DEVICE/App/usbd_cdc_if.c ****   CDC_TransmitCplt_HS
 151:USB_DEVICE/App/usbd_cdc_if.c **** };
 152:USB_DEVICE/App/usbd_cdc_if.c **** 
 153:USB_DEVICE/App/usbd_cdc_if.c **** /* Private functions ---------------------------------------------------------*/
 154:USB_DEVICE/App/usbd_cdc_if.c **** 
 155:USB_DEVICE/App/usbd_cdc_if.c **** /**
 156:USB_DEVICE/App/usbd_cdc_if.c ****   * @brief  Initializes the CDC media low layer over the USB HS IP
 157:USB_DEVICE/App/usbd_cdc_if.c ****   * @retval USBD_OK if all operations are OK else USBD_FAIL
 158:USB_DEVICE/App/usbd_cdc_if.c ****   */
 159:USB_DEVICE/App/usbd_cdc_if.c **** static int8_t CDC_Init_HS(void)
 160:USB_DEVICE/App/usbd_cdc_if.c **** {
 161:USB_DEVICE/App/usbd_cdc_if.c ****   /* USER CODE BEGIN 8 */
 162:USB_DEVICE/App/usbd_cdc_if.c ****   /* Set Application Buffers */
 163:USB_DEVICE/App/usbd_cdc_if.c ****   USBD_CDC_SetTxBuffer(&hUsbDeviceHS, UserTxBufferHS, 0);
 164:USB_DEVICE/App/usbd_cdc_if.c ****   USBD_CDC_SetRxBuffer(&hUsbDeviceHS, UserRxBufferHS);
 165:USB_DEVICE/App/usbd_cdc_if.c ****   return (USBD_OK);
 166:USB_DEVICE/App/usbd_cdc_if.c ****   /* USER CODE END 8 */
 167:USB_DEVICE/App/usbd_cdc_if.c **** }
 168:USB_DEVICE/App/usbd_cdc_if.c **** 
 169:USB_DEVICE/App/usbd_cdc_if.c **** /**
 170:USB_DEVICE/App/usbd_cdc_if.c ****   * @brief  DeInitializes the CDC media low layer
 171:USB_DEVICE/App/usbd_cdc_if.c ****   * @param  None
 172:USB_DEVICE/App/usbd_cdc_if.c ****   * @retval USBD_OK if all operations are OK else USBD_FAIL
 173:USB_DEVICE/App/usbd_cdc_if.c ****   */
 174:USB_DEVICE/App/usbd_cdc_if.c **** static int8_t CDC_DeInit_HS(void)
 175:USB_DEVICE/App/usbd_cdc_if.c **** {
  27              		.loc 1 175 1 view -0
  28              		.cfi_startproc
  29              		@ args = 0, pretend = 0, frame = 0
  30              		@ frame_needed = 0, uses_anonymous_args = 0
  31              		@ link register save eliminated.
 176:USB_DEVICE/App/usbd_cdc_if.c ****   /* USER CODE BEGIN 9 */
 177:USB_DEVICE/App/usbd_cdc_if.c ****   return (USBD_OK);
  32              		.loc 1 177 3 view .LVU1
 178:USB_DEVICE/App/usbd_cdc_if.c ****   /* USER CODE END 9 */
 179:USB_DEVICE/App/usbd_cdc_if.c **** }
  33              		.loc 1 179 1 is_stmt 0 view .LVU2
  34 0000 0020     		movs	r0, #0
  35 0002 7047     		bx	lr
  36              		.cfi_endproc
  37              	.LFE355:
  39              		.section	.text.CDC_Control_HS,"ax",%progbits
  40              		.align	1
  41              		.syntax unified
  42              		.thumb
  43              		.thumb_func
  45              	CDC_Control_HS:
  46              	.LVL0:
  47              	.LFB356:
 180:USB_DEVICE/App/usbd_cdc_if.c **** 
 181:USB_DEVICE/App/usbd_cdc_if.c **** /**
 182:USB_DEVICE/App/usbd_cdc_if.c ****   * @brief  Manage the CDC class requests
 183:USB_DEVICE/App/usbd_cdc_if.c ****   * @param  cmd: Command code
 184:USB_DEVICE/App/usbd_cdc_if.c ****   * @param  pbuf: Buffer containing command data (request parameters)
ARM GAS  C:\Users\thewo\AppData\Local\Temp\cc4MpHw8.s 			page 5


 185:USB_DEVICE/App/usbd_cdc_if.c ****   * @param  length: Number of data to be sent (in bytes)
 186:USB_DEVICE/App/usbd_cdc_if.c ****   * @retval Result of the operation: USBD_OK if all operations are OK else USBD_FAIL
 187:USB_DEVICE/App/usbd_cdc_if.c ****   */
 188:USB_DEVICE/App/usbd_cdc_if.c **** static int8_t CDC_Control_HS(uint8_t cmd, uint8_t* pbuf, uint16_t length)
 189:USB_DEVICE/App/usbd_cdc_if.c **** {
  48              		.loc 1 189 1 is_stmt 1 view -0
  49              		.cfi_startproc
  50              		@ args = 0, pretend = 0, frame = 0
  51              		@ frame_needed = 0, uses_anonymous_args = 0
  52              		@ link register save eliminated.
 190:USB_DEVICE/App/usbd_cdc_if.c ****   /* USER CODE BEGIN 10 */
 191:USB_DEVICE/App/usbd_cdc_if.c ****   switch(cmd)
  53              		.loc 1 191 3 view .LVU4
  54 0000 2028     		cmp	r0, #32
  55 0002 11D0     		beq	.L3
  56 0004 2128     		cmp	r0, #33
  57 0006 21D1     		bne	.L5
 192:USB_DEVICE/App/usbd_cdc_if.c ****   {
 193:USB_DEVICE/App/usbd_cdc_if.c ****   case CDC_SEND_ENCAPSULATED_COMMAND:
 194:USB_DEVICE/App/usbd_cdc_if.c **** 
 195:USB_DEVICE/App/usbd_cdc_if.c ****     break;
 196:USB_DEVICE/App/usbd_cdc_if.c **** 
 197:USB_DEVICE/App/usbd_cdc_if.c ****   case CDC_GET_ENCAPSULATED_RESPONSE:
 198:USB_DEVICE/App/usbd_cdc_if.c **** 
 199:USB_DEVICE/App/usbd_cdc_if.c ****     break;
 200:USB_DEVICE/App/usbd_cdc_if.c **** 
 201:USB_DEVICE/App/usbd_cdc_if.c ****   case CDC_SET_COMM_FEATURE:
 202:USB_DEVICE/App/usbd_cdc_if.c **** 
 203:USB_DEVICE/App/usbd_cdc_if.c ****     break;
 204:USB_DEVICE/App/usbd_cdc_if.c **** 
 205:USB_DEVICE/App/usbd_cdc_if.c ****   case CDC_GET_COMM_FEATURE:
 206:USB_DEVICE/App/usbd_cdc_if.c **** 
 207:USB_DEVICE/App/usbd_cdc_if.c ****     break;
 208:USB_DEVICE/App/usbd_cdc_if.c **** 
 209:USB_DEVICE/App/usbd_cdc_if.c ****   case CDC_CLEAR_COMM_FEATURE:
 210:USB_DEVICE/App/usbd_cdc_if.c **** 
 211:USB_DEVICE/App/usbd_cdc_if.c ****     break;
 212:USB_DEVICE/App/usbd_cdc_if.c **** 
 213:USB_DEVICE/App/usbd_cdc_if.c ****   /*******************************************************************************/
 214:USB_DEVICE/App/usbd_cdc_if.c ****   /* Line Coding Structure                                                       */
 215:USB_DEVICE/App/usbd_cdc_if.c ****   /*-----------------------------------------------------------------------------*/
 216:USB_DEVICE/App/usbd_cdc_if.c ****   /* Offset | Field       | Size | Value  | Description                          */
 217:USB_DEVICE/App/usbd_cdc_if.c ****   /* 0      | dwDTERate   |   4  | Number |Data terminal rate, in bits per second*/
 218:USB_DEVICE/App/usbd_cdc_if.c ****   /* 4      | bCharFormat |   1  | Number | Stop bits                            */
 219:USB_DEVICE/App/usbd_cdc_if.c ****   /*                                        0 - 1 Stop bit                       */
 220:USB_DEVICE/App/usbd_cdc_if.c ****   /*                                        1 - 1.5 Stop bits                    */
 221:USB_DEVICE/App/usbd_cdc_if.c ****   /*                                        2 - 2 Stop bits                      */
 222:USB_DEVICE/App/usbd_cdc_if.c ****   /* 5      | bParityType |  1   | Number | Parity                               */
 223:USB_DEVICE/App/usbd_cdc_if.c ****   /*                                        0 - None                             */
 224:USB_DEVICE/App/usbd_cdc_if.c ****   /*                                        1 - Odd                              */
 225:USB_DEVICE/App/usbd_cdc_if.c ****   /*                                        2 - Even                             */
 226:USB_DEVICE/App/usbd_cdc_if.c ****   /*                                        3 - Mark                             */
 227:USB_DEVICE/App/usbd_cdc_if.c ****   /*                                        4 - Space                            */
 228:USB_DEVICE/App/usbd_cdc_if.c ****   /* 6      | bDataBits  |   1   | Number Data bits (5, 6, 7, 8 or 16).          */
 229:USB_DEVICE/App/usbd_cdc_if.c ****   /*******************************************************************************/
 230:USB_DEVICE/App/usbd_cdc_if.c ****   case CDC_SET_LINE_CODING:
 231:USB_DEVICE/App/usbd_cdc_if.c ****     LineCoding.bitrate = (uint32_t) (pbuf[0] | (pbuf[1] << 8) | (pbuf[2] << 16) | (pbuf[3] << 24));
ARM GAS  C:\Users\thewo\AppData\Local\Temp\cc4MpHw8.s 			page 6


 232:USB_DEVICE/App/usbd_cdc_if.c ****     LineCoding.format = pbuf[4];
 233:USB_DEVICE/App/usbd_cdc_if.c ****     LineCoding.paritytype = pbuf[5];
 234:USB_DEVICE/App/usbd_cdc_if.c ****     LineCoding.datatype = pbuf[6];
 235:USB_DEVICE/App/usbd_cdc_if.c ****     break;
 236:USB_DEVICE/App/usbd_cdc_if.c **** 
 237:USB_DEVICE/App/usbd_cdc_if.c ****   case CDC_GET_LINE_CODING:
 238:USB_DEVICE/App/usbd_cdc_if.c ****     pbuf[0] = (uint8_t) (LineCoding.bitrate);
  58              		.loc 1 238 5 view .LVU5
  59              		.loc 1 238 36 is_stmt 0 view .LVU6
  60 0008 114B     		ldr	r3, .L6
  61              		.loc 1 238 15 view .LVU7
  62 000a 1A78     		ldrb	r2, [r3]	@ zero_extendqisi2
  63              	.LVL1:
  64              		.loc 1 238 13 view .LVU8
  65 000c 0A70     		strb	r2, [r1]
 239:USB_DEVICE/App/usbd_cdc_if.c ****     pbuf[1] = (uint8_t) (LineCoding.bitrate >> 8);
  66              		.loc 1 239 5 is_stmt 1 view .LVU9
  67              		.loc 1 239 15 is_stmt 0 view .LVU10
  68 000e 5A78     		ldrb	r2, [r3, #1]	@ zero_extendqisi2
  69              		.loc 1 239 13 view .LVU11
  70 0010 4A70     		strb	r2, [r1, #1]
 240:USB_DEVICE/App/usbd_cdc_if.c ****     pbuf[2] = (uint8_t) (LineCoding.bitrate >> 16);
  71              		.loc 1 240 5 is_stmt 1 view .LVU12
  72              		.loc 1 240 15 is_stmt 0 view .LVU13
  73 0012 9A78     		ldrb	r2, [r3, #2]	@ zero_extendqisi2
  74              		.loc 1 240 13 view .LVU14
  75 0014 8A70     		strb	r2, [r1, #2]
 241:USB_DEVICE/App/usbd_cdc_if.c ****     pbuf[3] = (uint8_t) (LineCoding.bitrate >> 24);
  76              		.loc 1 241 5 is_stmt 1 view .LVU15
  77              		.loc 1 241 15 is_stmt 0 view .LVU16
  78 0016 DA78     		ldrb	r2, [r3, #3]	@ zero_extendqisi2
  79              		.loc 1 241 13 view .LVU17
  80 0018 CA70     		strb	r2, [r1, #3]
 242:USB_DEVICE/App/usbd_cdc_if.c ****     pbuf[4] = LineCoding.format;
  81              		.loc 1 242 5 is_stmt 1 view .LVU18
  82              		.loc 1 242 25 is_stmt 0 view .LVU19
  83 001a 1A79     		ldrb	r2, [r3, #4]	@ zero_extendqisi2
  84              		.loc 1 242 13 view .LVU20
  85 001c 0A71     		strb	r2, [r1, #4]
 243:USB_DEVICE/App/usbd_cdc_if.c ****     pbuf[5] = LineCoding.paritytype;
  86              		.loc 1 243 5 is_stmt 1 view .LVU21
  87              		.loc 1 243 25 is_stmt 0 view .LVU22
  88 001e 5A79     		ldrb	r2, [r3, #5]	@ zero_extendqisi2
  89              		.loc 1 243 13 view .LVU23
  90 0020 4A71     		strb	r2, [r1, #5]
 244:USB_DEVICE/App/usbd_cdc_if.c ****     pbuf[6] = LineCoding.datatype;
  91              		.loc 1 244 5 is_stmt 1 view .LVU24
  92              		.loc 1 244 25 is_stmt 0 view .LVU25
  93 0022 9B79     		ldrb	r3, [r3, #6]	@ zero_extendqisi2
  94              		.loc 1 244 13 view .LVU26
  95 0024 8B71     		strb	r3, [r1, #6]
 245:USB_DEVICE/App/usbd_cdc_if.c ****     break;
  96              		.loc 1 245 5 is_stmt 1 view .LVU27
  97 0026 11E0     		b	.L5
  98              	.LVL2:
  99              	.L3:
 231:USB_DEVICE/App/usbd_cdc_if.c ****     LineCoding.format = pbuf[4];
ARM GAS  C:\Users\thewo\AppData\Local\Temp\cc4MpHw8.s 			page 7


 100              		.loc 1 231 5 view .LVU28
 231:USB_DEVICE/App/usbd_cdc_if.c ****     LineCoding.format = pbuf[4];
 101              		.loc 1 231 42 is_stmt 0 view .LVU29
 102 0028 0B78     		ldrb	r3, [r1]	@ zero_extendqisi2
 231:USB_DEVICE/App/usbd_cdc_if.c ****     LineCoding.format = pbuf[4];
 103              		.loc 1 231 53 view .LVU30
 104 002a 4A78     		ldrb	r2, [r1, #1]	@ zero_extendqisi2
 105              	.LVL3:
 231:USB_DEVICE/App/usbd_cdc_if.c ****     LineCoding.format = pbuf[4];
 106              		.loc 1 231 46 view .LVU31
 107 002c 43EA0223 		orr	r3, r3, r2, lsl #8
 231:USB_DEVICE/App/usbd_cdc_if.c ****     LineCoding.format = pbuf[4];
 108              		.loc 1 231 70 view .LVU32
 109 0030 8A78     		ldrb	r2, [r1, #2]	@ zero_extendqisi2
 231:USB_DEVICE/App/usbd_cdc_if.c ****     LineCoding.format = pbuf[4];
 110              		.loc 1 231 63 view .LVU33
 111 0032 43EA0243 		orr	r3, r3, r2, lsl #16
 231:USB_DEVICE/App/usbd_cdc_if.c ****     LineCoding.format = pbuf[4];
 112              		.loc 1 231 88 view .LVU34
 113 0036 CA78     		ldrb	r2, [r1, #3]	@ zero_extendqisi2
 231:USB_DEVICE/App/usbd_cdc_if.c ****     LineCoding.format = pbuf[4];
 114              		.loc 1 231 81 view .LVU35
 115 0038 43EA0263 		orr	r3, r3, r2, lsl #24
 231:USB_DEVICE/App/usbd_cdc_if.c ****     LineCoding.format = pbuf[4];
 116              		.loc 1 231 24 view .LVU36
 117 003c 044A     		ldr	r2, .L6
 118 003e 1360     		str	r3, [r2]
 232:USB_DEVICE/App/usbd_cdc_if.c ****     LineCoding.paritytype = pbuf[5];
 119              		.loc 1 232 5 is_stmt 1 view .LVU37
 232:USB_DEVICE/App/usbd_cdc_if.c ****     LineCoding.paritytype = pbuf[5];
 120              		.loc 1 232 23 is_stmt 0 view .LVU38
 121 0040 0B79     		ldrb	r3, [r1, #4]	@ zero_extendqisi2
 122 0042 1371     		strb	r3, [r2, #4]
 233:USB_DEVICE/App/usbd_cdc_if.c ****     LineCoding.datatype = pbuf[6];
 123              		.loc 1 233 5 is_stmt 1 view .LVU39
 233:USB_DEVICE/App/usbd_cdc_if.c ****     LineCoding.datatype = pbuf[6];
 124              		.loc 1 233 27 is_stmt 0 view .LVU40
 125 0044 4B79     		ldrb	r3, [r1, #5]	@ zero_extendqisi2
 126 0046 5371     		strb	r3, [r2, #5]
 234:USB_DEVICE/App/usbd_cdc_if.c ****     break;
 127              		.loc 1 234 5 is_stmt 1 view .LVU41
 234:USB_DEVICE/App/usbd_cdc_if.c ****     break;
 128              		.loc 1 234 25 is_stmt 0 view .LVU42
 129 0048 8B79     		ldrb	r3, [r1, #6]	@ zero_extendqisi2
 130 004a 9371     		strb	r3, [r2, #6]
 235:USB_DEVICE/App/usbd_cdc_if.c **** 
 131              		.loc 1 235 5 is_stmt 1 view .LVU43
 132              	.L5:
 246:USB_DEVICE/App/usbd_cdc_if.c **** 
 247:USB_DEVICE/App/usbd_cdc_if.c ****   case CDC_SET_CONTROL_LINE_STATE:
 248:USB_DEVICE/App/usbd_cdc_if.c **** 
 249:USB_DEVICE/App/usbd_cdc_if.c ****     break;
 250:USB_DEVICE/App/usbd_cdc_if.c **** 
 251:USB_DEVICE/App/usbd_cdc_if.c ****   case CDC_SEND_BREAK:
 252:USB_DEVICE/App/usbd_cdc_if.c **** 
 253:USB_DEVICE/App/usbd_cdc_if.c ****     break;
 254:USB_DEVICE/App/usbd_cdc_if.c **** 
ARM GAS  C:\Users\thewo\AppData\Local\Temp\cc4MpHw8.s 			page 8


 255:USB_DEVICE/App/usbd_cdc_if.c ****   default:
 256:USB_DEVICE/App/usbd_cdc_if.c ****     break;
 257:USB_DEVICE/App/usbd_cdc_if.c ****   }
 258:USB_DEVICE/App/usbd_cdc_if.c **** 
 259:USB_DEVICE/App/usbd_cdc_if.c ****   return (USBD_OK);
 133              		.loc 1 259 3 view .LVU44
 260:USB_DEVICE/App/usbd_cdc_if.c ****   /* USER CODE END 10 */
 261:USB_DEVICE/App/usbd_cdc_if.c **** }
 134              		.loc 1 261 1 is_stmt 0 view .LVU45
 135 004c 0020     		movs	r0, #0
 136              	.LVL4:
 137              		.loc 1 261 1 view .LVU46
 138 004e 7047     		bx	lr
 139              	.L7:
 140              		.align	2
 141              	.L6:
 142 0050 00000000 		.word	LineCoding
 143              		.cfi_endproc
 144              	.LFE356:
 146              		.section	.text.CDC_TransmitCplt_HS,"ax",%progbits
 147              		.align	1
 148              		.syntax unified
 149              		.thumb
 150              		.thumb_func
 152              	CDC_TransmitCplt_HS:
 153              	.LVL5:
 154              	.LFB359:
 262:USB_DEVICE/App/usbd_cdc_if.c **** 
 263:USB_DEVICE/App/usbd_cdc_if.c **** /**
 264:USB_DEVICE/App/usbd_cdc_if.c ****   * @brief Data received over USB OUT endpoint are sent over CDC interface
 265:USB_DEVICE/App/usbd_cdc_if.c ****   *         through this function.
 266:USB_DEVICE/App/usbd_cdc_if.c ****   *
 267:USB_DEVICE/App/usbd_cdc_if.c ****   *         @note
 268:USB_DEVICE/App/usbd_cdc_if.c ****   *         This function will issue a NAK packet on any OUT packet received on
 269:USB_DEVICE/App/usbd_cdc_if.c ****   *         USB endpoint until exiting this function. If you exit this function
 270:USB_DEVICE/App/usbd_cdc_if.c ****   *         before transfer is complete on CDC interface (ie. using DMA controller)
 271:USB_DEVICE/App/usbd_cdc_if.c ****   *         it will result in receiving more data while previous ones are still
 272:USB_DEVICE/App/usbd_cdc_if.c ****   *         not sent.
 273:USB_DEVICE/App/usbd_cdc_if.c ****   *
 274:USB_DEVICE/App/usbd_cdc_if.c ****   * @param  Buf: Buffer of data to be received
 275:USB_DEVICE/App/usbd_cdc_if.c ****   * @param  Len: Number of data received (in bytes)
 276:USB_DEVICE/App/usbd_cdc_if.c ****   * @retval Result of the operation: USBD_OK if all operations are OK else USBD_FAILL
 277:USB_DEVICE/App/usbd_cdc_if.c ****   */
 278:USB_DEVICE/App/usbd_cdc_if.c **** static int8_t CDC_Receive_HS(uint8_t* Buf, uint32_t *Len)
 279:USB_DEVICE/App/usbd_cdc_if.c **** {
 280:USB_DEVICE/App/usbd_cdc_if.c ****   /* USER CODE BEGIN 11 */
 281:USB_DEVICE/App/usbd_cdc_if.c ****   USBD_CDC_SetRxBuffer(&hUsbDeviceHS, &Buf[0]);
 282:USB_DEVICE/App/usbd_cdc_if.c ****   USBD_CDC_ReceivePacket(&hUsbDeviceHS);
 283:USB_DEVICE/App/usbd_cdc_if.c ****   return (USBD_OK);
 284:USB_DEVICE/App/usbd_cdc_if.c ****   /* USER CODE END 11 */
 285:USB_DEVICE/App/usbd_cdc_if.c **** }
 286:USB_DEVICE/App/usbd_cdc_if.c **** 
 287:USB_DEVICE/App/usbd_cdc_if.c **** /**
 288:USB_DEVICE/App/usbd_cdc_if.c ****   * @brief  Data to send over USB IN endpoint are sent over CDC interface
 289:USB_DEVICE/App/usbd_cdc_if.c ****   *         through this function.
 290:USB_DEVICE/App/usbd_cdc_if.c ****   * @param  Buf: Buffer of data to be sent
 291:USB_DEVICE/App/usbd_cdc_if.c ****   * @param  Len: Number of data to be sent (in bytes)
ARM GAS  C:\Users\thewo\AppData\Local\Temp\cc4MpHw8.s 			page 9


 292:USB_DEVICE/App/usbd_cdc_if.c ****   * @retval Result of the operation: USBD_OK if all operations are OK else USBD_FAIL or USBD_BUSY
 293:USB_DEVICE/App/usbd_cdc_if.c ****   */
 294:USB_DEVICE/App/usbd_cdc_if.c **** uint8_t CDC_Transmit_HS(uint8_t* Buf, uint16_t Len)
 295:USB_DEVICE/App/usbd_cdc_if.c **** {
 296:USB_DEVICE/App/usbd_cdc_if.c ****   uint8_t result = USBD_OK;
 297:USB_DEVICE/App/usbd_cdc_if.c ****   /* USER CODE BEGIN 12 */
 298:USB_DEVICE/App/usbd_cdc_if.c ****   USBD_CDC_HandleTypeDef *hcdc = (USBD_CDC_HandleTypeDef*)hUsbDeviceHS.pClassData;
 299:USB_DEVICE/App/usbd_cdc_if.c ****   if (hcdc->TxState != 0){
 300:USB_DEVICE/App/usbd_cdc_if.c ****     return USBD_BUSY;
 301:USB_DEVICE/App/usbd_cdc_if.c ****   }
 302:USB_DEVICE/App/usbd_cdc_if.c ****   USBD_CDC_SetTxBuffer(&hUsbDeviceHS, Buf, Len);
 303:USB_DEVICE/App/usbd_cdc_if.c ****   result = USBD_CDC_TransmitPacket(&hUsbDeviceHS);
 304:USB_DEVICE/App/usbd_cdc_if.c ****   /* USER CODE END 12 */
 305:USB_DEVICE/App/usbd_cdc_if.c ****   return result;
 306:USB_DEVICE/App/usbd_cdc_if.c **** }
 307:USB_DEVICE/App/usbd_cdc_if.c **** 
 308:USB_DEVICE/App/usbd_cdc_if.c **** /**
 309:USB_DEVICE/App/usbd_cdc_if.c ****   * @brief  CDC_TransmitCplt_HS
 310:USB_DEVICE/App/usbd_cdc_if.c ****   *         Data transmitted callback
 311:USB_DEVICE/App/usbd_cdc_if.c ****   *
 312:USB_DEVICE/App/usbd_cdc_if.c ****   *         @note
 313:USB_DEVICE/App/usbd_cdc_if.c ****   *         This function is IN transfer complete callback used to inform user that
 314:USB_DEVICE/App/usbd_cdc_if.c ****   *         the submitted Data is successfully sent over USB.
 315:USB_DEVICE/App/usbd_cdc_if.c ****   *
 316:USB_DEVICE/App/usbd_cdc_if.c ****   * @param  Buf: Buffer of data to be received
 317:USB_DEVICE/App/usbd_cdc_if.c ****   * @param  Len: Number of data received (in bytes)
 318:USB_DEVICE/App/usbd_cdc_if.c ****   * @retval Result of the operation: USBD_OK if all operations are OK else USBD_FAIL
 319:USB_DEVICE/App/usbd_cdc_if.c ****   */
 320:USB_DEVICE/App/usbd_cdc_if.c **** static int8_t CDC_TransmitCplt_HS(uint8_t *Buf, uint32_t *Len, uint8_t epnum)
 321:USB_DEVICE/App/usbd_cdc_if.c **** {
 155              		.loc 1 321 1 is_stmt 1 view -0
 156              		.cfi_startproc
 157              		@ args = 0, pretend = 0, frame = 0
 158              		@ frame_needed = 0, uses_anonymous_args = 0
 159              		@ link register save eliminated.
 322:USB_DEVICE/App/usbd_cdc_if.c ****   uint8_t result = USBD_OK;
 160              		.loc 1 322 3 view .LVU48
 323:USB_DEVICE/App/usbd_cdc_if.c ****   /* USER CODE BEGIN 14 */
 324:USB_DEVICE/App/usbd_cdc_if.c ****   UNUSED(Buf);
 161              		.loc 1 324 3 view .LVU49
 325:USB_DEVICE/App/usbd_cdc_if.c ****   UNUSED(Len);
 162              		.loc 1 325 3 view .LVU50
 326:USB_DEVICE/App/usbd_cdc_if.c ****   UNUSED(epnum);
 163              		.loc 1 326 3 view .LVU51
 327:USB_DEVICE/App/usbd_cdc_if.c ****   /* USER CODE END 14 */
 328:USB_DEVICE/App/usbd_cdc_if.c ****   return result;
 164              		.loc 1 328 3 view .LVU52
 329:USB_DEVICE/App/usbd_cdc_if.c **** }
 165              		.loc 1 329 1 is_stmt 0 view .LVU53
 166 0000 0020     		movs	r0, #0
 167              	.LVL6:
 168              		.loc 1 329 1 view .LVU54
 169 0002 7047     		bx	lr
 170              		.cfi_endproc
 171              	.LFE359:
 173              		.section	.text.CDC_Receive_HS,"ax",%progbits
 174              		.align	1
ARM GAS  C:\Users\thewo\AppData\Local\Temp\cc4MpHw8.s 			page 10


 175              		.syntax unified
 176              		.thumb
 177              		.thumb_func
 179              	CDC_Receive_HS:
 180              	.LVL7:
 181              	.LFB357:
 279:USB_DEVICE/App/usbd_cdc_if.c ****   /* USER CODE BEGIN 11 */
 182              		.loc 1 279 1 is_stmt 1 view -0
 183              		.cfi_startproc
 184              		@ args = 0, pretend = 0, frame = 0
 185              		@ frame_needed = 0, uses_anonymous_args = 0
 279:USB_DEVICE/App/usbd_cdc_if.c ****   /* USER CODE BEGIN 11 */
 186              		.loc 1 279 1 is_stmt 0 view .LVU56
 187 0000 10B5     		push	{r4, lr}
 188              		.cfi_def_cfa_offset 8
 189              		.cfi_offset 4, -8
 190              		.cfi_offset 14, -4
 191 0002 0146     		mov	r1, r0
 192              	.LVL8:
 281:USB_DEVICE/App/usbd_cdc_if.c ****   USBD_CDC_ReceivePacket(&hUsbDeviceHS);
 193              		.loc 1 281 3 is_stmt 1 view .LVU57
 194 0004 044C     		ldr	r4, .L11
 195 0006 2046     		mov	r0, r4
 196              	.LVL9:
 281:USB_DEVICE/App/usbd_cdc_if.c ****   USBD_CDC_ReceivePacket(&hUsbDeviceHS);
 197              		.loc 1 281 3 is_stmt 0 view .LVU58
 198 0008 FFF7FEFF 		bl	USBD_CDC_SetRxBuffer
 199              	.LVL10:
 282:USB_DEVICE/App/usbd_cdc_if.c ****   return (USBD_OK);
 200              		.loc 1 282 3 is_stmt 1 view .LVU59
 201 000c 2046     		mov	r0, r4
 202 000e FFF7FEFF 		bl	USBD_CDC_ReceivePacket
 203              	.LVL11:
 283:USB_DEVICE/App/usbd_cdc_if.c ****   /* USER CODE END 11 */
 204              		.loc 1 283 3 view .LVU60
 285:USB_DEVICE/App/usbd_cdc_if.c **** 
 205              		.loc 1 285 1 is_stmt 0 view .LVU61
 206 0012 0020     		movs	r0, #0
 207 0014 10BD     		pop	{r4, pc}
 208              	.L12:
 209 0016 00BF     		.align	2
 210              	.L11:
 211 0018 00000000 		.word	hUsbDeviceHS
 212              		.cfi_endproc
 213              	.LFE357:
 215              		.section	.text.CDC_Init_HS,"ax",%progbits
 216              		.align	1
 217              		.syntax unified
 218              		.thumb
 219              		.thumb_func
 221              	CDC_Init_HS:
 222              	.LFB354:
 160:USB_DEVICE/App/usbd_cdc_if.c ****   /* USER CODE BEGIN 8 */
 223              		.loc 1 160 1 is_stmt 1 view -0
 224              		.cfi_startproc
 225              		@ args = 0, pretend = 0, frame = 0
 226              		@ frame_needed = 0, uses_anonymous_args = 0
ARM GAS  C:\Users\thewo\AppData\Local\Temp\cc4MpHw8.s 			page 11


 227 0000 10B5     		push	{r4, lr}
 228              		.cfi_def_cfa_offset 8
 229              		.cfi_offset 4, -8
 230              		.cfi_offset 14, -4
 163:USB_DEVICE/App/usbd_cdc_if.c ****   USBD_CDC_SetRxBuffer(&hUsbDeviceHS, UserRxBufferHS);
 231              		.loc 1 163 3 view .LVU63
 232 0002 064C     		ldr	r4, .L15
 233 0004 0022     		movs	r2, #0
 234 0006 0649     		ldr	r1, .L15+4
 235 0008 2046     		mov	r0, r4
 236 000a FFF7FEFF 		bl	USBD_CDC_SetTxBuffer
 237              	.LVL12:
 164:USB_DEVICE/App/usbd_cdc_if.c ****   return (USBD_OK);
 238              		.loc 1 164 3 view .LVU64
 239 000e 0549     		ldr	r1, .L15+8
 240 0010 2046     		mov	r0, r4
 241 0012 FFF7FEFF 		bl	USBD_CDC_SetRxBuffer
 242              	.LVL13:
 165:USB_DEVICE/App/usbd_cdc_if.c ****   /* USER CODE END 8 */
 243              		.loc 1 165 3 view .LVU65
 167:USB_DEVICE/App/usbd_cdc_if.c **** 
 244              		.loc 1 167 1 is_stmt 0 view .LVU66
 245 0016 0020     		movs	r0, #0
 246 0018 10BD     		pop	{r4, pc}
 247              	.L16:
 248 001a 00BF     		.align	2
 249              	.L15:
 250 001c 00000000 		.word	hUsbDeviceHS
 251 0020 00000000 		.word	UserTxBufferHS
 252 0024 00000000 		.word	UserRxBufferHS
 253              		.cfi_endproc
 254              	.LFE354:
 256              		.section	.text.CDC_Transmit_HS,"ax",%progbits
 257              		.align	1
 258              		.global	CDC_Transmit_HS
 259              		.syntax unified
 260              		.thumb
 261              		.thumb_func
 263              	CDC_Transmit_HS:
 264              	.LVL14:
 265              	.LFB358:
 295:USB_DEVICE/App/usbd_cdc_if.c ****   uint8_t result = USBD_OK;
 266              		.loc 1 295 1 is_stmt 1 view -0
 267              		.cfi_startproc
 268              		@ args = 0, pretend = 0, frame = 0
 269              		@ frame_needed = 0, uses_anonymous_args = 0
 296:USB_DEVICE/App/usbd_cdc_if.c ****   /* USER CODE BEGIN 12 */
 270              		.loc 1 296 3 view .LVU68
 298:USB_DEVICE/App/usbd_cdc_if.c ****   if (hcdc->TxState != 0){
 271              		.loc 1 298 3 view .LVU69
 298:USB_DEVICE/App/usbd_cdc_if.c ****   if (hcdc->TxState != 0){
 272              		.loc 1 298 27 is_stmt 0 view .LVU70
 273 0000 094B     		ldr	r3, .L25
 274 0002 D3F8BC32 		ldr	r3, [r3, #700]
 275              	.LVL15:
 299:USB_DEVICE/App/usbd_cdc_if.c ****     return USBD_BUSY;
 276              		.loc 1 299 3 is_stmt 1 view .LVU71
ARM GAS  C:\Users\thewo\AppData\Local\Temp\cc4MpHw8.s 			page 12


 299:USB_DEVICE/App/usbd_cdc_if.c ****     return USBD_BUSY;
 277              		.loc 1 299 11 is_stmt 0 view .LVU72
 278 0006 D3F81432 		ldr	r3, [r3, #532]
 279              	.LVL16:
 299:USB_DEVICE/App/usbd_cdc_if.c ****     return USBD_BUSY;
 280              		.loc 1 299 6 view .LVU73
 281 000a 0BB1     		cbz	r3, .L24
 300:USB_DEVICE/App/usbd_cdc_if.c ****   }
 282              		.loc 1 300 12 view .LVU74
 283 000c 0120     		movs	r0, #1
 284              	.LVL17:
 306:USB_DEVICE/App/usbd_cdc_if.c **** 
 285              		.loc 1 306 1 view .LVU75
 286 000e 7047     		bx	lr
 287              	.LVL18:
 288              	.L24:
 295:USB_DEVICE/App/usbd_cdc_if.c ****   uint8_t result = USBD_OK;
 289              		.loc 1 295 1 view .LVU76
 290 0010 10B5     		push	{r4, lr}
 291              		.cfi_def_cfa_offset 8
 292              		.cfi_offset 4, -8
 293              		.cfi_offset 14, -4
 302:USB_DEVICE/App/usbd_cdc_if.c ****   result = USBD_CDC_TransmitPacket(&hUsbDeviceHS);
 294              		.loc 1 302 3 is_stmt 1 view .LVU77
 295 0012 054C     		ldr	r4, .L25
 296              	.LVL19:
 302:USB_DEVICE/App/usbd_cdc_if.c ****   result = USBD_CDC_TransmitPacket(&hUsbDeviceHS);
 297              		.loc 1 302 3 is_stmt 0 view .LVU78
 298 0014 0A46     		mov	r2, r1
 299 0016 0146     		mov	r1, r0
 300              	.LVL20:
 302:USB_DEVICE/App/usbd_cdc_if.c ****   result = USBD_CDC_TransmitPacket(&hUsbDeviceHS);
 301              		.loc 1 302 3 view .LVU79
 302 0018 2046     		mov	r0, r4
 303              	.LVL21:
 302:USB_DEVICE/App/usbd_cdc_if.c ****   result = USBD_CDC_TransmitPacket(&hUsbDeviceHS);
 304              		.loc 1 302 3 view .LVU80
 305 001a FFF7FEFF 		bl	USBD_CDC_SetTxBuffer
 306              	.LVL22:
 303:USB_DEVICE/App/usbd_cdc_if.c ****   /* USER CODE END 12 */
 307              		.loc 1 303 3 is_stmt 1 view .LVU81
 303:USB_DEVICE/App/usbd_cdc_if.c ****   /* USER CODE END 12 */
 308              		.loc 1 303 12 is_stmt 0 view .LVU82
 309 001e 2046     		mov	r0, r4
 310 0020 FFF7FEFF 		bl	USBD_CDC_TransmitPacket
 311              	.LVL23:
 305:USB_DEVICE/App/usbd_cdc_if.c **** }
 312              		.loc 1 305 3 is_stmt 1 view .LVU83
 306:USB_DEVICE/App/usbd_cdc_if.c **** 
 313              		.loc 1 306 1 is_stmt 0 view .LVU84
 314 0024 10BD     		pop	{r4, pc}
 315              	.L26:
 316 0026 00BF     		.align	2
 317              	.L25:
 318 0028 00000000 		.word	hUsbDeviceHS
 319              		.cfi_endproc
 320              	.LFE358:
ARM GAS  C:\Users\thewo\AppData\Local\Temp\cc4MpHw8.s 			page 13


 322              		.global	USBD_Interface_fops_HS
 323              		.section	.data.USBD_Interface_fops_HS,"aw"
 324              		.align	2
 327              	USBD_Interface_fops_HS:
 328 0000 00000000 		.word	CDC_Init_HS
 329 0004 00000000 		.word	CDC_DeInit_HS
 330 0008 00000000 		.word	CDC_Control_HS
 331 000c 00000000 		.word	CDC_Receive_HS
 332 0010 00000000 		.word	CDC_TransmitCplt_HS
 333              		.global	LineCoding
 334              		.section	.data.LineCoding,"aw"
 335              		.align	2
 338              	LineCoding:
 339 0000 00C20100 		.word	115200
 340 0004 00       		.byte	0
 341 0005 00       		.byte	0
 342 0006 08       		.byte	8
 343 0007 00       		.space	1
 344              		.global	UserTxBufferHS
 345              		.section	.bss.UserTxBufferHS,"aw",%nobits
 346              		.align	2
 349              	UserTxBufferHS:
 350 0000 00000000 		.space	2048
 350      00000000 
 350      00000000 
 350      00000000 
 350      00000000 
 351              		.global	UserRxBufferHS
 352              		.section	.bss.UserRxBufferHS,"aw",%nobits
 353              		.align	2
 356              	UserRxBufferHS:
 357 0000 00000000 		.space	2048
 357      00000000 
 357      00000000 
 357      00000000 
 357      00000000 
 358              		.text
 359              	.Letext0:
 360              		.file 2 "C:/Users/thewo/AppData/Roaming/Code/User/globalStorage/bmd.stm32-for-vscode/@xpack-dev-to
 361              		.file 3 "C:/Users/thewo/AppData/Roaming/Code/User/globalStorage/bmd.stm32-for-vscode/@xpack-dev-to
 362              		.file 4 "Middlewares/ST/STM32_USB_Device_Library/Core/Inc/usbd_def.h"
 363              		.file 5 "Middlewares/ST/STM32_USB_Device_Library/Class/CDC/Inc/usbd_cdc.h"
 364              		.file 6 "USB_DEVICE/App/usbd_cdc_if.h"
ARM GAS  C:\Users\thewo\AppData\Local\Temp\cc4MpHw8.s 			page 14

