ARM GAS  C:\Users\thewo\AppData\Local\Temp\ccpweVbM.s 			page 1


   1              		.cpu cortex-m7
   2              		.arch armv7e-m
   3              		.fpu fpv5-d16
   4              		.eabi_attribute 28, 1
   5              		.eabi_attribute 20, 1
   6              		.eabi_attribute 21, 1
   7              		.eabi_attribute 23, 3
   8              		.eabi_attribute 24, 1
   9              		.eabi_attribute 25, 1
  10              		.eabi_attribute 26, 1
  11              		.eabi_attribute 30, 1
  12              		.eabi_attribute 34, 1
  13              		.eabi_attribute 18, 4
  14              		.file	"cordic.c"
  15              		.text
  16              		.section	.text.MX_CORDIC_Init,"ax",%progbits
  17              		.align	1
  18              		.global	MX_CORDIC_Init
  19              		.syntax unified
  20              		.thumb
  21              		.thumb_func
  23              	MX_CORDIC_Init:
  24              		@ args = 0, pretend = 0, frame = 0
  25              		@ frame_needed = 0, uses_anonymous_args = 0
  26 0000 08B5     		push	{r3, lr}
  27 0002 0548     		ldr	r0, .L5
  28 0004 054B     		ldr	r3, .L5+4
  29 0006 0360     		str	r3, [r0]
  30 0008 FFF7FEFF 		bl	HAL_CORDIC_Init
  31 000c 00B9     		cbnz	r0, .L4
  32              	.L1:
  33 000e 08BD     		pop	{r3, pc}
  34              	.L4:
  35 0010 FFF7FEFF 		bl	Error_Handler
  36 0014 FBE7     		b	.L1
  37              	.L6:
  38 0016 00BF     		.align	2
  39              	.L5:
  40 0018 00000000 		.word	hcordic
  41 001c 00440248 		.word	1208108032
  43              		.section	.text.HAL_CORDIC_MspInit,"ax",%progbits
  44              		.align	1
  45              		.global	HAL_CORDIC_MspInit
  46              		.syntax unified
  47              		.thumb
  48              		.thumb_func
  50              	HAL_CORDIC_MspInit:
  51              		@ args = 0, pretend = 0, frame = 8
  52              		@ frame_needed = 0, uses_anonymous_args = 0
  53              		@ link register save eliminated.
  54 0000 0268     		ldr	r2, [r0]
  55 0002 0A4B     		ldr	r3, .L14
  56 0004 9A42     		cmp	r2, r3
  57 0006 00D0     		beq	.L13
  58 0008 7047     		bx	lr
  59              	.L13:
  60 000a 82B0     		sub	sp, sp, #8
ARM GAS  C:\Users\thewo\AppData\Local\Temp\ccpweVbM.s 			page 2


  61 000c 03F18053 		add	r3, r3, #268435456
  62 0010 D3F8DC20 		ldr	r2, [r3, #220]
  63 0014 42F40032 		orr	r2, r2, #131072
  64 0018 C3F8DC20 		str	r2, [r3, #220]
  65 001c D3F8DC30 		ldr	r3, [r3, #220]
  66 0020 03F40033 		and	r3, r3, #131072
  67 0024 0193     		str	r3, [sp, #4]
  68 0026 019B     		ldr	r3, [sp, #4]
  69 0028 02B0     		add	sp, sp, #8
  70              		@ sp needed
  71 002a 7047     		bx	lr
  72              	.L15:
  73              		.align	2
  74              	.L14:
  75 002c 00440248 		.word	1208108032
  77              		.section	.text.HAL_CORDIC_MspDeInit,"ax",%progbits
  78              		.align	1
  79              		.global	HAL_CORDIC_MspDeInit
  80              		.syntax unified
  81              		.thumb
  82              		.thumb_func
  84              	HAL_CORDIC_MspDeInit:
  85              		@ args = 0, pretend = 0, frame = 0
  86              		@ frame_needed = 0, uses_anonymous_args = 0
  87              		@ link register save eliminated.
  88 0000 0268     		ldr	r2, [r0]
  89 0002 064B     		ldr	r3, .L19
  90 0004 9A42     		cmp	r2, r3
  91 0006 00D0     		beq	.L18
  92              	.L16:
  93 0008 7047     		bx	lr
  94              	.L18:
  95 000a 054A     		ldr	r2, .L19+4
  96 000c D2F8DC30 		ldr	r3, [r2, #220]
  97 0010 23F40033 		bic	r3, r3, #131072
  98 0014 C2F8DC30 		str	r3, [r2, #220]
  99 0018 F6E7     		b	.L16
 100              	.L20:
 101 001a 00BF     		.align	2
 102              	.L19:
 103 001c 00440248 		.word	1208108032
 104 0020 00440258 		.word	1476543488
 106              		.global	hcordic
 107              		.section	.bss.hcordic,"aw",%nobits
 108              		.align	2
 111              	hcordic:
 112 0000 00000000 		.space	40
 112      00000000 
 112      00000000 
 112      00000000 
 112      00000000 
 113              		.ident	"GCC: (xPack GNU Arm Embedded GCC x86_64) 14.2.1 20241119"
ARM GAS  C:\Users\thewo\AppData\Local\Temp\ccpweVbM.s 			page 3

