ARM GAS  C:\Users\thewo\AppData\Local\Temp\cch2dluO.s 			page 1


   1              		.cpu cortex-m7
   2              		.arch armv7e-m
   3              		.fpu fpv5-d16
   4              		.eabi_attribute 28, 1
   5              		.eabi_attribute 20, 1
   6              		.eabi_attribute 21, 1
   7              		.eabi_attribute 23, 3
   8              		.eabi_attribute 24, 1
   9              		.eabi_attribute 25, 1
  10              		.eabi_attribute 26, 1
  11              		.eabi_attribute 30, 1
  12              		.eabi_attribute 34, 1
  13              		.eabi_attribute 18, 4
  14              		.file	"fmac.c"
  15              		.text
  16              		.section	.text.MX_FMAC_Init,"ax",%progbits
  17              		.align	1
  18              		.global	MX_FMAC_Init
  19              		.syntax unified
  20              		.thumb
  21              		.thumb_func
  23              	MX_FMAC_Init:
  24              		@ args = 0, pretend = 0, frame = 0
  25              		@ frame_needed = 0, uses_anonymous_args = 0
  26 0000 08B5     		push	{r3, lr}
  27 0002 0548     		ldr	r0, .L5
  28 0004 054B     		ldr	r3, .L5+4
  29 0006 0360     		str	r3, [r0]
  30 0008 FFF7FEFF 		bl	HAL_FMAC_Init
  31 000c 00B9     		cbnz	r0, .L4
  32              	.L1:
  33 000e 08BD     		pop	{r3, pc}
  34              	.L4:
  35 0010 FFF7FEFF 		bl	Error_Handler
  36 0014 FBE7     		b	.L1
  37              	.L6:
  38 0016 00BF     		.align	2
  39              	.L5:
  40 0018 00000000 		.word	hfmac
  41 001c 00400248 		.word	1208107008
  43              		.section	.text.HAL_FMAC_MspInit,"ax",%progbits
  44              		.align	1
  45              		.global	HAL_FMAC_MspInit
  46              		.syntax unified
  47              		.thumb
  48              		.thumb_func
  50              	HAL_FMAC_MspInit:
  51              		@ args = 0, pretend = 0, frame = 8
  52              		@ frame_needed = 0, uses_anonymous_args = 0
  53              		@ link register save eliminated.
  54 0000 0268     		ldr	r2, [r0]
  55 0002 0A4B     		ldr	r3, .L14
  56 0004 9A42     		cmp	r2, r3
  57 0006 00D0     		beq	.L13
  58 0008 7047     		bx	lr
  59              	.L13:
  60 000a 82B0     		sub	sp, sp, #8
ARM GAS  C:\Users\thewo\AppData\Local\Temp\cch2dluO.s 			page 2


  61 000c 084B     		ldr	r3, .L14+4
  62 000e D3F8DC20 		ldr	r2, [r3, #220]
  63 0012 42F48032 		orr	r2, r2, #65536
  64 0016 C3F8DC20 		str	r2, [r3, #220]
  65 001a D3F8DC30 		ldr	r3, [r3, #220]
  66 001e 03F48033 		and	r3, r3, #65536
  67 0022 0193     		str	r3, [sp, #4]
  68 0024 019B     		ldr	r3, [sp, #4]
  69 0026 02B0     		add	sp, sp, #8
  70              		@ sp needed
  71 0028 7047     		bx	lr
  72              	.L15:
  73 002a 00BF     		.align	2
  74              	.L14:
  75 002c 00400248 		.word	1208107008
  76 0030 00440258 		.word	1476543488
  78              		.section	.text.HAL_FMAC_MspDeInit,"ax",%progbits
  79              		.align	1
  80              		.global	HAL_FMAC_MspDeInit
  81              		.syntax unified
  82              		.thumb
  83              		.thumb_func
  85              	HAL_FMAC_MspDeInit:
  86              		@ args = 0, pretend = 0, frame = 0
  87              		@ frame_needed = 0, uses_anonymous_args = 0
  88              		@ link register save eliminated.
  89 0000 0268     		ldr	r2, [r0]
  90 0002 064B     		ldr	r3, .L19
  91 0004 9A42     		cmp	r2, r3
  92 0006 00D0     		beq	.L18
  93              	.L16:
  94 0008 7047     		bx	lr
  95              	.L18:
  96 000a 054A     		ldr	r2, .L19+4
  97 000c D2F8DC30 		ldr	r3, [r2, #220]
  98 0010 23F48033 		bic	r3, r3, #65536
  99 0014 C2F8DC30 		str	r3, [r2, #220]
 100 0018 F6E7     		b	.L16
 101              	.L20:
 102 001a 00BF     		.align	2
 103              	.L19:
 104 001c 00400248 		.word	1208107008
 105 0020 00440258 		.word	1476543488
 107              		.global	hfmac
 108              		.section	.bss.hfmac,"aw",%nobits
 109              		.align	2
 112              	hfmac:
 113 0000 00000000 		.space	56
 113      00000000 
 113      00000000 
 113      00000000 
 113      00000000 
 114              		.ident	"GCC: (xPack GNU Arm Embedded GCC x86_64) 14.2.1 20241119"
ARM GAS  C:\Users\thewo\AppData\Local\Temp\cch2dluO.s 			page 3

