ARM GAS  C:\Users\thewo\AppData\Local\Temp\ccV0Z1eZ.s 			page 1


   1              		.cpu cortex-m7
   2              		.arch armv7e-m
   3              		.fpu fpv5-d16
   4              		.eabi_attribute 28, 1
   5              		.eabi_attribute 20, 1
   6              		.eabi_attribute 21, 1
   7              		.eabi_attribute 23, 3
   8              		.eabi_attribute 24, 1
   9              		.eabi_attribute 25, 1
  10              		.eabi_attribute 26, 1
  11              		.eabi_attribute 30, 1
  12              		.eabi_attribute 34, 1
  13              		.eabi_attribute 18, 4
  14              		.file	"main.c"
  15              		.text
  16              		.section	.text.Error_Handler,"ax",%progbits
  17              		.align	1
  18              		.global	Error_Handler
  19              		.syntax unified
  20              		.thumb
  21              		.thumb_func
  23              	Error_Handler:
  24              		@ Volatile: function does not return.
  25              		@ args = 0, pretend = 0, frame = 0
  26              		@ frame_needed = 0, uses_anonymous_args = 0
  27              		@ link register save eliminated.
  28              		.syntax unified
  29              	@ 209 "Drivers/CMSIS/Include/cmsis_gcc.h" 1
  30 0000 72B6     		cpsid i
  31              	@ 0 "" 2
  32              		.thumb
  33              		.syntax unified
  34              	.L2:
  35 0002 FEE7     		b	.L2
  37              		.section	.text.SystemClock_Config,"ax",%progbits
  38              		.align	1
  39              		.global	SystemClock_Config
  40              		.syntax unified
  41              		.thumb
  42              		.thumb_func
  44              	SystemClock_Config:
  45              		@ args = 0, pretend = 0, frame = 112
  46              		@ frame_needed = 0, uses_anonymous_args = 0
  47 0000 00B5     		push	{lr}
  48 0002 9DB0     		sub	sp, sp, #116
  49 0004 4C22     		movs	r2, #76
  50 0006 0021     		movs	r1, #0
  51 0008 09A8     		add	r0, sp, #36
  52 000a FFF7FEFF 		bl	memset
  53 000e 2022     		movs	r2, #32
  54 0010 0021     		movs	r1, #0
  55 0012 01A8     		add	r0, sp, #4
  56 0014 FFF7FEFF 		bl	memset
  57 0018 0420     		movs	r0, #4
  58 001a FFF7FEFF 		bl	HAL_PWREx_ConfigSupply
  59 001e 0023     		movs	r3, #0
  60 0020 0093     		str	r3, [sp]
ARM GAS  C:\Users\thewo\AppData\Local\Temp\ccV0Z1eZ.s 			page 2


  61 0022 204B     		ldr	r3, .L10
  62 0024 9A69     		ldr	r2, [r3, #24]
  63 0026 22F44042 		bic	r2, r2, #49152
  64 002a 9A61     		str	r2, [r3, #24]
  65 002c 9B69     		ldr	r3, [r3, #24]
  66 002e 03F44043 		and	r3, r3, #49152
  67 0032 0093     		str	r3, [sp]
  68 0034 009B     		ldr	r3, [sp]
  69              	.L4:
  70 0036 1B4B     		ldr	r3, .L10
  71 0038 9B69     		ldr	r3, [r3, #24]
  72 003a 13F4005F 		tst	r3, #8192
  73 003e FAD0     		beq	.L4
  74 0040 2123     		movs	r3, #33
  75 0042 0993     		str	r3, [sp, #36]
  76 0044 4FF4A023 		mov	r3, #327680
  77 0048 0A93     		str	r3, [sp, #40]
  78 004a 0122     		movs	r2, #1
  79 004c 0F92     		str	r2, [sp, #60]
  80 004e 0223     		movs	r3, #2
  81 0050 1293     		str	r3, [sp, #72]
  82 0052 1393     		str	r3, [sp, #76]
  83 0054 1493     		str	r3, [sp, #80]
  84 0056 1421     		movs	r1, #20
  85 0058 1591     		str	r1, [sp, #84]
  86 005a 1692     		str	r2, [sp, #88]
  87 005c 1793     		str	r3, [sp, #92]
  88 005e 1893     		str	r3, [sp, #96]
  89 0060 0C23     		movs	r3, #12
  90 0062 1993     		str	r3, [sp, #100]
  91 0064 0023     		movs	r3, #0
  92 0066 1A93     		str	r3, [sp, #104]
  93 0068 1B93     		str	r3, [sp, #108]
  94 006a 09A8     		add	r0, sp, #36
  95 006c FFF7FEFF 		bl	HAL_RCC_OscConfig
  96 0070 A0B9     		cbnz	r0, .L8
  97 0072 3F23     		movs	r3, #63
  98 0074 0193     		str	r3, [sp, #4]
  99 0076 0321     		movs	r1, #3
 100 0078 0291     		str	r1, [sp, #8]
 101 007a 0023     		movs	r3, #0
 102 007c 0393     		str	r3, [sp, #12]
 103 007e 0493     		str	r3, [sp, #16]
 104 0080 4023     		movs	r3, #64
 105 0082 0593     		str	r3, [sp, #20]
 106 0084 0693     		str	r3, [sp, #24]
 107 0086 4FF48062 		mov	r2, #1024
 108 008a 0792     		str	r2, [sp, #28]
 109 008c 0893     		str	r3, [sp, #32]
 110 008e 01A8     		add	r0, sp, #4
 111 0090 FFF7FEFF 		bl	HAL_RCC_ClockConfig
 112 0094 20B9     		cbnz	r0, .L9
 113 0096 1DB0     		add	sp, sp, #116
 114              		@ sp needed
 115 0098 5DF804FB 		ldr	pc, [sp], #4
 116              	.L8:
 117 009c FFF7FEFF 		bl	Error_Handler
ARM GAS  C:\Users\thewo\AppData\Local\Temp\ccV0Z1eZ.s 			page 3


 118              	.L9:
 119 00a0 FFF7FEFF 		bl	Error_Handler
 120              	.L11:
 121              		.align	2
 122              	.L10:
 123 00a4 00480258 		.word	1476544512
 125              		.section	.text.PeriphCommonClock_Config,"ax",%progbits
 126              		.align	1
 127              		.global	PeriphCommonClock_Config
 128              		.syntax unified
 129              		.thumb
 130              		.thumb_func
 132              	PeriphCommonClock_Config:
 133              		@ args = 0, pretend = 0, frame = 184
 134              		@ frame_needed = 0, uses_anonymous_args = 0
 135 0000 10B5     		push	{r4, lr}
 136 0002 AEB0     		sub	sp, sp, #184
 137 0004 B822     		movs	r2, #184
 138 0006 0021     		movs	r1, #0
 139 0008 6846     		mov	r0, sp
 140 000a FFF7FEFF 		bl	memset
 141 000e 41F20802 		movw	r2, #4104
 142 0012 0023     		movs	r3, #0
 143 0014 CDE90023 		strd	r2, [sp]
 144 0018 0223     		movs	r3, #2
 145 001a 0A93     		str	r3, [sp, #40]
 146 001c 1022     		movs	r2, #16
 147 001e 0B92     		str	r2, [sp, #44]
 148 0020 0C93     		str	r3, [sp, #48]
 149 0022 0D93     		str	r3, [sp, #52]
 150 0024 0323     		movs	r3, #3
 151 0026 0E93     		str	r3, [sp, #56]
 152 0028 4FF44063 		mov	r3, #3072
 153 002c 0F93     		str	r3, [sp, #60]
 154 002e 4FF40053 		mov	r3, #8192
 155 0032 1793     		str	r3, [sp, #92]
 156 0034 4FF48053 		mov	r3, #4096
 157 0038 2093     		str	r3, [sp, #128]
 158 003a 6846     		mov	r0, sp
 159 003c FFF7FEFF 		bl	HAL_RCCEx_PeriphCLKConfig
 160 0040 08B9     		cbnz	r0, .L15
 161 0042 2EB0     		add	sp, sp, #184
 162              		@ sp needed
 163 0044 10BD     		pop	{r4, pc}
 164              	.L15:
 165 0046 FFF7FEFF 		bl	Error_Handler
 167              		.section	.rodata.main.str1.4,"aMS",%progbits,1
 168              		.align	2
 169              	.LC0:
 170 0000 48656C6C 		.ascii	"Hello World!\015\012\000"
 170      6F20576F 
 170      726C6421 
 170      0D0A00
 171              		.section	.text.main,"ax",%progbits
 172              		.align	1
 173              		.global	main
 174              		.syntax unified
ARM GAS  C:\Users\thewo\AppData\Local\Temp\ccV0Z1eZ.s 			page 4


 175              		.thumb
 176              		.thumb_func
 178              	main:
 179              		@ args = 0, pretend = 0, frame = 0
 180              		@ frame_needed = 0, uses_anonymous_args = 0
 181 0000 10B5     		push	{r4, lr}
 182 0002 FFF7FEFF 		bl	HAL_Init
 183 0006 FFF7FEFF 		bl	SystemClock_Config
 184 000a FFF7FEFF 		bl	PeriphCommonClock_Config
 185 000e FFF7FEFF 		bl	MX_GPIO_Init
 186 0012 FFF7FEFF 		bl	MX_CORDIC_Init
 187 0016 FFF7FEFF 		bl	MX_FMAC_Init
 188 001a FFF7FEFF 		bl	MX_I2C3_Init
 189 001e FFF7FEFF 		bl	MX_SPI1_Init
 190 0022 FFF7FEFF 		bl	MX_SPI2_Init
 191 0026 FFF7FEFF 		bl	MX_TIM2_Init
 192 002a FFF7FEFF 		bl	MX_TIM4_Init
 193 002e FFF7FEFF 		bl	MX_ADC1_Init
 194 0032 FFF7FEFF 		bl	MX_USB_DEVICE_Init
 195              	.L17:
 196 0036 0B4C     		ldr	r4, .L19
 197 0038 0B4B     		ldr	r3, .L19+4
 198 003a A446     		mov	ip, r4
 199 003c 0FCB     		ldm	r3, {r0, r1, r2, r3}
 200 003e ACE80700 		stmia	ip!, {r0, r1, r2}
 201 0042 2CF8023B 		strh	r3, [ip], #2	@ movhi
 202 0046 1B0C     		lsrs	r3, r3, #16
 203 0048 8CF80030 		strb	r3, [ip]
 204 004c 0E21     		movs	r1, #14
 205 004e 074B     		ldr	r3, .L19+8
 206 0050 1980     		strh	r1, [r3]	@ movhi
 207 0052 2046     		mov	r0, r4
 208 0054 FFF7FEFF 		bl	CDC_Transmit_HS
 209 0058 4FF47A70 		mov	r0, #1000
 210 005c FFF7FEFF 		bl	HAL_Delay
 211 0060 E9E7     		b	.L17
 212              	.L20:
 213 0062 00BF     		.align	2
 214              	.L19:
 215 0064 00000000 		.word	usbTxBuf
 216 0068 00000000 		.word	.LC0
 217 006c 00000000 		.word	usbTxBufLen
 219              		.section	.text.assert_failed,"ax",%progbits
 220              		.align	1
 221              		.global	assert_failed
 222              		.syntax unified
 223              		.thumb
 224              		.thumb_func
 226              	assert_failed:
 227              		@ args = 0, pretend = 0, frame = 0
 228              		@ frame_needed = 0, uses_anonymous_args = 0
 229              		@ link register save eliminated.
 230 0000 7047     		bx	lr
 232              		.global	usbTxBufLen
 233              		.section	.bss.usbTxBufLen,"aw",%nobits
 234              		.align	1
 237              	usbTxBufLen:
ARM GAS  C:\Users\thewo\AppData\Local\Temp\ccV0Z1eZ.s 			page 5


 238 0000 0000     		.space	2
 239              		.global	usbTxBuf
 240              		.section	.bss.usbTxBuf,"aw",%nobits
 241              		.align	2
 244              	usbTxBuf:
 245 0000 00000000 		.space	128
 245      00000000 
 245      00000000 
 245      00000000 
 245      00000000 
 246              		.ident	"GCC: (xPack GNU Arm Embedded GCC x86_64) 14.2.1 20241119"
ARM GAS  C:\Users\thewo\AppData\Local\Temp\ccV0Z1eZ.s 			page 6

