ARM GAS  C:\Users\thewo\AppData\Local\Temp\ccMtGnIh.s 			page 1


   1              		.cpu cortex-m7
   2              		.arch armv7e-m
   3              		.fpu fpv5-d16
   4              		.eabi_attribute 28, 1
   5              		.eabi_attribute 20, 1
   6              		.eabi_attribute 21, 1
   7              		.eabi_attribute 23, 3
   8              		.eabi_attribute 24, 1
   9              		.eabi_attribute 25, 1
  10              		.eabi_attribute 26, 1
  11              		.eabi_attribute 30, 1
  12              		.eabi_attribute 34, 1
  13              		.eabi_attribute 18, 4
  14              		.file	"stm32h7xx_hal_cortex.c"
  15              		.text
  16              		.section	.text.__NVIC_EnableIRQ,"ax",%progbits
  17              		.align	1
  18              		.syntax unified
  19              		.thumb
  20              		.thumb_func
  22              	__NVIC_EnableIRQ:
  23              		@ args = 0, pretend = 0, frame = 0
  24              		@ frame_needed = 0, uses_anonymous_args = 0
  25              		@ link register save eliminated.
  26 0000 0028     		cmp	r0, #0
  27 0002 07DB     		blt	.L1
  28 0004 00F01F02 		and	r2, r0, #31
  29 0008 4009     		lsrs	r0, r0, #5
  30 000a 0123     		movs	r3, #1
  31 000c 9340     		lsls	r3, r3, r2
  32 000e 024A     		ldr	r2, .L3
  33 0010 42F82030 		str	r3, [r2, r0, lsl #2]
  34              	.L1:
  35 0014 7047     		bx	lr
  36              	.L4:
  37 0016 00BF     		.align	2
  38              	.L3:
  39 0018 00E100E0 		.word	-536813312
  41              		.section	.text.__NVIC_DisableIRQ,"ax",%progbits
  42              		.align	1
  43              		.syntax unified
  44              		.thumb
  45              		.thumb_func
  47              	__NVIC_DisableIRQ:
  48              		@ args = 0, pretend = 0, frame = 0
  49              		@ frame_needed = 0, uses_anonymous_args = 0
  50              		@ link register save eliminated.
  51 0000 0028     		cmp	r0, #0
  52 0002 0CDB     		blt	.L5
  53 0004 00F01F02 		and	r2, r0, #31
  54 0008 4009     		lsrs	r0, r0, #5
  55 000a 0123     		movs	r3, #1
  56 000c 9340     		lsls	r3, r3, r2
  57 000e 2030     		adds	r0, r0, #32
  58 0010 034A     		ldr	r2, .L7
  59 0012 42F82030 		str	r3, [r2, r0, lsl #2]
  60              		.syntax unified
ARM GAS  C:\Users\thewo\AppData\Local\Temp\ccMtGnIh.s 			page 2


  61              	@ 946 "Drivers/CMSIS/Include/cmsis_gcc.h" 1
  62 0016 BFF34F8F 		dsb 0xF
  63              	@ 0 "" 2
  64              	@ 935 "Drivers/CMSIS/Include/cmsis_gcc.h" 1
  65 001a BFF36F8F 		isb 0xF
  66              	@ 0 "" 2
  67              		.thumb
  68              		.syntax unified
  69              	.L5:
  70 001e 7047     		bx	lr
  71              	.L8:
  72              		.align	2
  73              	.L7:
  74 0020 00E100E0 		.word	-536813312
  76              		.section	.text.__NVIC_SetPriority,"ax",%progbits
  77              		.align	1
  78              		.syntax unified
  79              		.thumb
  80              		.thumb_func
  82              	__NVIC_SetPriority:
  83              		@ args = 0, pretend = 0, frame = 0
  84              		@ frame_needed = 0, uses_anonymous_args = 0
  85              		@ link register save eliminated.
  86 0000 0028     		cmp	r0, #0
  87 0002 04DB     		blt	.L10
  88 0004 0901     		lsls	r1, r1, #4
  89 0006 C9B2     		uxtb	r1, r1
  90 0008 044B     		ldr	r3, .L12
  91 000a 1954     		strb	r1, [r3, r0]
  92 000c 7047     		bx	lr
  93              	.L10:
  94 000e 00F00F00 		and	r0, r0, #15
  95 0012 0901     		lsls	r1, r1, #4
  96 0014 C9B2     		uxtb	r1, r1
  97 0016 024B     		ldr	r3, .L12+4
  98 0018 1954     		strb	r1, [r3, r0]
  99 001a 7047     		bx	lr
 100              	.L13:
 101              		.align	2
 102              	.L12:
 103 001c 00E400E0 		.word	-536812544
 104 0020 14ED00E0 		.word	-536810220
 106              		.section	.text.__NVIC_GetPriority,"ax",%progbits
 107              		.align	1
 108              		.syntax unified
 109              		.thumb
 110              		.thumb_func
 112              	__NVIC_GetPriority:
 113              		@ args = 0, pretend = 0, frame = 0
 114              		@ frame_needed = 0, uses_anonymous_args = 0
 115              		@ link register save eliminated.
 116 0000 0028     		cmp	r0, #0
 117 0002 03DB     		blt	.L15
 118 0004 044B     		ldr	r3, .L17
 119 0006 185C     		ldrb	r0, [r3, r0]	@ zero_extendqisi2
 120 0008 0009     		lsrs	r0, r0, #4
 121 000a 7047     		bx	lr
ARM GAS  C:\Users\thewo\AppData\Local\Temp\ccMtGnIh.s 			page 3


 122              	.L15:
 123 000c 00F00F00 		and	r0, r0, #15
 124 0010 024B     		ldr	r3, .L17+4
 125 0012 185C     		ldrb	r0, [r3, r0]	@ zero_extendqisi2
 126 0014 0009     		lsrs	r0, r0, #4
 127 0016 7047     		bx	lr
 128              	.L18:
 129              		.align	2
 130              	.L17:
 131 0018 00E400E0 		.word	-536812544
 132 001c 14ED00E0 		.word	-536810220
 134              		.section	.text.NVIC_EncodePriority,"ax",%progbits
 135              		.align	1
 136              		.syntax unified
 137              		.thumb
 138              		.thumb_func
 140              	NVIC_EncodePriority:
 141              		@ args = 0, pretend = 0, frame = 0
 142              		@ frame_needed = 0, uses_anonymous_args = 0
 143 0000 00B5     		push	{lr}
 144 0002 00F00700 		and	r0, r0, #7
 145 0006 C0F1070C 		rsb	ip, r0, #7
 146 000a BCF1040F 		cmp	ip, #4
 147 000e 28BF     		it	cs
 148 0010 4FF0040C 		movcs	ip, #4
 149 0014 031D     		adds	r3, r0, #4
 150 0016 062B     		cmp	r3, #6
 151 0018 0FD9     		bls	.L21
 152 001a C31E     		subs	r3, r0, #3
 153              	.L20:
 154 001c 4FF0FF3E 		mov	lr, #-1
 155 0020 0EFA0CF0 		lsl	r0, lr, ip
 156 0024 21EA0001 		bic	r1, r1, r0
 157 0028 9940     		lsls	r1, r1, r3
 158 002a 0EFA03FE 		lsl	lr, lr, r3
 159 002e 22EA0E02 		bic	r2, r2, lr
 160 0032 41EA0200 		orr	r0, r1, r2
 161 0036 5DF804FB 		ldr	pc, [sp], #4
 162              	.L21:
 163 003a 0023     		movs	r3, #0
 164 003c EEE7     		b	.L20
 166              		.section	.text.NVIC_DecodePriority,"ax",%progbits
 167              		.align	1
 168              		.syntax unified
 169              		.thumb
 170              		.thumb_func
 172              	NVIC_DecodePriority:
 173              		@ args = 0, pretend = 0, frame = 0
 174              		@ frame_needed = 0, uses_anonymous_args = 0
 175 0000 10B5     		push	{r4, lr}
 176 0002 01F00701 		and	r1, r1, #7
 177 0006 C1F1070C 		rsb	ip, r1, #7
 178 000a BCF1040F 		cmp	ip, #4
 179 000e 28BF     		it	cs
 180 0010 4FF0040C 		movcs	ip, #4
 181 0014 0C1D     		adds	r4, r1, #4
 182 0016 062C     		cmp	r4, #6
ARM GAS  C:\Users\thewo\AppData\Local\Temp\ccMtGnIh.s 			page 4


 183 0018 0FD9     		bls	.L25
 184 001a 0339     		subs	r1, r1, #3
 185              	.L24:
 186 001c 20FA01F4 		lsr	r4, r0, r1
 187 0020 4FF0FF3E 		mov	lr, #-1
 188 0024 0EFA0CFC 		lsl	ip, lr, ip
 189 0028 24EA0C04 		bic	r4, r4, ip
 190 002c 1460     		str	r4, [r2]
 191 002e 0EFA01FE 		lsl	lr, lr, r1
 192 0032 20EA0E00 		bic	r0, r0, lr
 193 0036 1860     		str	r0, [r3]
 194 0038 10BD     		pop	{r4, pc}
 195              	.L25:
 196 003a 0021     		movs	r1, #0
 197 003c EEE7     		b	.L24
 199              		.section	.text.__NVIC_SystemReset,"ax",%progbits
 200              		.align	1
 201              		.syntax unified
 202              		.thumb
 203              		.thumb_func
 205              	__NVIC_SystemReset:
 206              		@ Volatile: function does not return.
 207              		@ args = 0, pretend = 0, frame = 0
 208              		@ frame_needed = 0, uses_anonymous_args = 0
 209              		@ link register save eliminated.
 210              		.syntax unified
 211              	@ 946 "Drivers/CMSIS/Include/cmsis_gcc.h" 1
 212 0000 BFF34F8F 		dsb 0xF
 213              	@ 0 "" 2
 214              		.thumb
 215              		.syntax unified
 216 0004 0549     		ldr	r1, .L29
 217 0006 CA68     		ldr	r2, [r1, #12]
 218 0008 02F4E062 		and	r2, r2, #1792
 219 000c 044B     		ldr	r3, .L29+4
 220 000e 1343     		orrs	r3, r3, r2
 221 0010 CB60     		str	r3, [r1, #12]
 222              		.syntax unified
 223              	@ 946 "Drivers/CMSIS/Include/cmsis_gcc.h" 1
 224 0012 BFF34F8F 		dsb 0xF
 225              	@ 0 "" 2
 226              		.thumb
 227              		.syntax unified
 228              	.L28:
 229              		.syntax unified
 230              	@ 2167 "Drivers/CMSIS/Include/core_cm7.h" 1
 231 0016 00BF     		nop
 232              	@ 0 "" 2
 233              		.thumb
 234              		.syntax unified
 235 0018 FDE7     		b	.L28
 236              	.L30:
 237 001a 00BF     		.align	2
 238              	.L29:
 239 001c 00ED00E0 		.word	-536810240
 240 0020 0400FA05 		.word	100270084
 242              		.section	.rodata.HAL_NVIC_SetPriorityGrouping.str1.4,"aMS",%progbits,1
ARM GAS  C:\Users\thewo\AppData\Local\Temp\ccMtGnIh.s 			page 5


 243              		.align	2
 244              	.LC0:
 245 0000 44726976 		.ascii	"Drivers/STM32H7xx_HAL_Driver/Src/stm32h7xx_hal_cort"
 245      6572732F 
 245      53544D33 
 245      32483778 
 245      785F4841 
 246 0033 65782E63 		.ascii	"ex.c\000"
 246      00
 247              		.section	.text.HAL_NVIC_SetPriorityGrouping,"ax",%progbits
 248              		.align	1
 249              		.global	HAL_NVIC_SetPriorityGrouping
 250              		.syntax unified
 251              		.thumb
 252              		.thumb_func
 254              	HAL_NVIC_SetPriorityGrouping:
 255              		@ args = 0, pretend = 0, frame = 0
 256              		@ frame_needed = 0, uses_anonymous_args = 0
 257 0000 10B5     		push	{r4, lr}
 258 0002 0446     		mov	r4, r0
 259 0004 C31E     		subs	r3, r0, #3
 260 0006 042B     		cmp	r3, #4
 261 0008 0DD8     		bhi	.L34
 262              	.L32:
 263 000a 0949     		ldr	r1, .L35
 264 000c CB68     		ldr	r3, [r1, #12]
 265 000e 23F4E063 		bic	r3, r3, #1792
 266 0012 1B04     		lsls	r3, r3, #16
 267 0014 1B0C     		lsrs	r3, r3, #16
 268 0016 2402     		lsls	r4, r4, #8
 269 0018 04F4E064 		and	r4, r4, #1792
 270 001c 2343     		orrs	r3, r3, r4
 271 001e 054A     		ldr	r2, .L35+4
 272 0020 1A43     		orrs	r2, r2, r3
 273 0022 CA60     		str	r2, [r1, #12]
 274 0024 10BD     		pop	{r4, pc}
 275              	.L34:
 276 0026 9121     		movs	r1, #145
 277 0028 0348     		ldr	r0, .L35+8
 278 002a FFF7FEFF 		bl	assert_failed
 279 002e ECE7     		b	.L32
 280              	.L36:
 281              		.align	2
 282              	.L35:
 283 0030 00ED00E0 		.word	-536810240
 284 0034 0000FA05 		.word	100270080
 285 0038 00000000 		.word	.LC0
 287              		.section	.text.HAL_NVIC_SetPriority,"ax",%progbits
 288              		.align	1
 289              		.global	HAL_NVIC_SetPriority
 290              		.syntax unified
 291              		.thumb
 292              		.thumb_func
 294              	HAL_NVIC_SetPriority:
 295              		@ args = 0, pretend = 0, frame = 0
 296              		@ frame_needed = 0, uses_anonymous_args = 0
 297 0000 70B5     		push	{r4, r5, r6, lr}
ARM GAS  C:\Users\thewo\AppData\Local\Temp\ccMtGnIh.s 			page 6


 298 0002 0646     		mov	r6, r0
 299 0004 0C46     		mov	r4, r1
 300 0006 1546     		mov	r5, r2
 301 0008 0F2A     		cmp	r2, #15
 302 000a 0ED8     		bhi	.L41
 303              	.L38:
 304 000c 0F2C     		cmp	r4, #15
 305 000e 11D8     		bhi	.L42
 306              	.L39:
 307 0010 0B4B     		ldr	r3, .L43
 308 0012 D868     		ldr	r0, [r3, #12]
 309 0014 2A46     		mov	r2, r5
 310 0016 2146     		mov	r1, r4
 311 0018 C0F30220 		ubfx	r0, r0, #8, #3
 312 001c FFF7FEFF 		bl	NVIC_EncodePriority
 313 0020 0146     		mov	r1, r0
 314 0022 3046     		mov	r0, r6
 315 0024 FFF7FEFF 		bl	__NVIC_SetPriority
 316 0028 70BD     		pop	{r4, r5, r6, pc}
 317              	.L41:
 318 002a A921     		movs	r1, #169
 319 002c 0548     		ldr	r0, .L43+4
 320 002e FFF7FEFF 		bl	assert_failed
 321 0032 EBE7     		b	.L38
 322              	.L42:
 323 0034 AA21     		movs	r1, #170
 324 0036 0348     		ldr	r0, .L43+4
 325 0038 FFF7FEFF 		bl	assert_failed
 326 003c E8E7     		b	.L39
 327              	.L44:
 328 003e 00BF     		.align	2
 329              	.L43:
 330 0040 00ED00E0 		.word	-536810240
 331 0044 00000000 		.word	.LC0
 333              		.section	.text.HAL_NVIC_EnableIRQ,"ax",%progbits
 334              		.align	1
 335              		.global	HAL_NVIC_EnableIRQ
 336              		.syntax unified
 337              		.thumb
 338              		.thumb_func
 340              	HAL_NVIC_EnableIRQ:
 341              		@ args = 0, pretend = 0, frame = 0
 342              		@ frame_needed = 0, uses_anonymous_args = 0
 343 0000 10B5     		push	{r4, lr}
 344 0002 041E     		subs	r4, r0, #0
 345 0004 03DB     		blt	.L48
 346              	.L46:
 347 0006 2046     		mov	r0, r4
 348 0008 FFF7FEFF 		bl	__NVIC_EnableIRQ
 349 000c 10BD     		pop	{r4, pc}
 350              	.L48:
 351 000e BD21     		movs	r1, #189
 352 0010 0148     		ldr	r0, .L49
 353 0012 FFF7FEFF 		bl	assert_failed
 354 0016 F6E7     		b	.L46
 355              	.L50:
 356              		.align	2
ARM GAS  C:\Users\thewo\AppData\Local\Temp\ccMtGnIh.s 			page 7


 357              	.L49:
 358 0018 00000000 		.word	.LC0
 360              		.section	.text.HAL_NVIC_DisableIRQ,"ax",%progbits
 361              		.align	1
 362              		.global	HAL_NVIC_DisableIRQ
 363              		.syntax unified
 364              		.thumb
 365              		.thumb_func
 367              	HAL_NVIC_DisableIRQ:
 368              		@ args = 0, pretend = 0, frame = 0
 369              		@ frame_needed = 0, uses_anonymous_args = 0
 370 0000 10B5     		push	{r4, lr}
 371 0002 041E     		subs	r4, r0, #0
 372 0004 03DB     		blt	.L54
 373              	.L52:
 374 0006 2046     		mov	r0, r4
 375 0008 FFF7FEFF 		bl	__NVIC_DisableIRQ
 376 000c 10BD     		pop	{r4, pc}
 377              	.L54:
 378 000e CD21     		movs	r1, #205
 379 0010 0148     		ldr	r0, .L55
 380 0012 FFF7FEFF 		bl	assert_failed
 381 0016 F6E7     		b	.L52
 382              	.L56:
 383              		.align	2
 384              	.L55:
 385 0018 00000000 		.word	.LC0
 387              		.section	.text.HAL_NVIC_SystemReset,"ax",%progbits
 388              		.align	1
 389              		.global	HAL_NVIC_SystemReset
 390              		.syntax unified
 391              		.thumb
 392              		.thumb_func
 394              	HAL_NVIC_SystemReset:
 395              		@ Volatile: function does not return.
 396              		@ args = 0, pretend = 0, frame = 0
 397              		@ frame_needed = 0, uses_anonymous_args = 0
 398 0000 08B5     		push	{r3, lr}
 399 0002 FFF7FEFF 		bl	__NVIC_SystemReset
 401              		.section	.text.HAL_SYSTICK_Config,"ax",%progbits
 402              		.align	1
 403              		.global	HAL_SYSTICK_Config
 404              		.syntax unified
 405              		.thumb
 406              		.thumb_func
 408              	HAL_SYSTICK_Config:
 409              		@ args = 0, pretend = 0, frame = 0
 410              		@ frame_needed = 0, uses_anonymous_args = 0
 411              		@ link register save eliminated.
 412 0000 0138     		subs	r0, r0, #1
 413 0002 B0F1807F 		cmp	r0, #16777216
 414 0006 0BD2     		bcs	.L61
 415 0008 4FF0E023 		mov	r3, #-536813568
 416 000c 5861     		str	r0, [r3, #20]
 417 000e 054A     		ldr	r2, .L62
 418 0010 F021     		movs	r1, #240
 419 0012 82F82310 		strb	r1, [r2, #35]
ARM GAS  C:\Users\thewo\AppData\Local\Temp\ccMtGnIh.s 			page 8


 420 0016 0020     		movs	r0, #0
 421 0018 9861     		str	r0, [r3, #24]
 422 001a 0722     		movs	r2, #7
 423 001c 1A61     		str	r2, [r3, #16]
 424 001e 7047     		bx	lr
 425              	.L61:
 426 0020 0120     		movs	r0, #1
 427 0022 7047     		bx	lr
 428              	.L63:
 429              		.align	2
 430              	.L62:
 431 0024 00ED00E0 		.word	-536810240
 433              		.section	.text.HAL_MPU_Disable,"ax",%progbits
 434              		.align	1
 435              		.global	HAL_MPU_Disable
 436              		.syntax unified
 437              		.thumb
 438              		.thumb_func
 440              	HAL_MPU_Disable:
 441              		@ args = 0, pretend = 0, frame = 0
 442              		@ frame_needed = 0, uses_anonymous_args = 0
 443              		@ link register save eliminated.
 444              		.syntax unified
 445              	@ 957 "Drivers/CMSIS/Include/cmsis_gcc.h" 1
 446 0000 BFF35F8F 		dmb 0xF
 447              	@ 0 "" 2
 448              		.thumb
 449              		.syntax unified
 450 0004 044B     		ldr	r3, .L65
 451 0006 5A6A     		ldr	r2, [r3, #36]
 452 0008 22F48032 		bic	r2, r2, #65536
 453 000c 5A62     		str	r2, [r3, #36]
 454 000e 0022     		movs	r2, #0
 455 0010 C3F89420 		str	r2, [r3, #148]
 456 0014 7047     		bx	lr
 457              	.L66:
 458 0016 00BF     		.align	2
 459              	.L65:
 460 0018 00ED00E0 		.word	-536810240
 462              		.section	.text.HAL_MPU_Enable,"ax",%progbits
 463              		.align	1
 464              		.global	HAL_MPU_Enable
 465              		.syntax unified
 466              		.thumb
 467              		.thumb_func
 469              	HAL_MPU_Enable:
 470              		@ args = 0, pretend = 0, frame = 0
 471              		@ frame_needed = 0, uses_anonymous_args = 0
 472              		@ link register save eliminated.
 473 0000 40F00100 		orr	r0, r0, #1
 474 0004 054B     		ldr	r3, .L68
 475 0006 C3F89400 		str	r0, [r3, #148]
 476 000a 5A6A     		ldr	r2, [r3, #36]
 477 000c 42F48032 		orr	r2, r2, #65536
 478 0010 5A62     		str	r2, [r3, #36]
 479              		.syntax unified
 480              	@ 946 "Drivers/CMSIS/Include/cmsis_gcc.h" 1
ARM GAS  C:\Users\thewo\AppData\Local\Temp\ccMtGnIh.s 			page 9


 481 0012 BFF34F8F 		dsb 0xF
 482              	@ 0 "" 2
 483              	@ 935 "Drivers/CMSIS/Include/cmsis_gcc.h" 1
 484 0016 BFF36F8F 		isb 0xF
 485              	@ 0 "" 2
 486              		.thumb
 487              		.syntax unified
 488 001a 7047     		bx	lr
 489              	.L69:
 490              		.align	2
 491              	.L68:
 492 001c 00ED00E0 		.word	-536810240
 494              		.section	.text.HAL_MPU_EnableRegion,"ax",%progbits
 495              		.align	1
 496              		.global	HAL_MPU_EnableRegion
 497              		.syntax unified
 498              		.thumb
 499              		.thumb_func
 501              	HAL_MPU_EnableRegion:
 502              		@ args = 0, pretend = 0, frame = 0
 503              		@ frame_needed = 0, uses_anonymous_args = 0
 504 0000 10B5     		push	{r4, lr}
 505 0002 0446     		mov	r4, r0
 506 0004 0F28     		cmp	r0, #15
 507 0006 09D8     		bhi	.L73
 508              	.L71:
 509 0008 074B     		ldr	r3, .L74
 510 000a C3F89840 		str	r4, [r3, #152]
 511 000e D3F8A020 		ldr	r2, [r3, #160]
 512 0012 42F00102 		orr	r2, r2, #1
 513 0016 C3F8A020 		str	r2, [r3, #160]
 514 001a 10BD     		pop	{r4, pc}
 515              	.L73:
 516 001c 40F22B11 		movw	r1, #299
 517 0020 0248     		ldr	r0, .L74+4
 518 0022 FFF7FEFF 		bl	assert_failed
 519 0026 EFE7     		b	.L71
 520              	.L75:
 521              		.align	2
 522              	.L74:
 523 0028 00ED00E0 		.word	-536810240
 524 002c 00000000 		.word	.LC0
 526              		.section	.text.HAL_MPU_DisableRegion,"ax",%progbits
 527              		.align	1
 528              		.global	HAL_MPU_DisableRegion
 529              		.syntax unified
 530              		.thumb
 531              		.thumb_func
 533              	HAL_MPU_DisableRegion:
 534              		@ args = 0, pretend = 0, frame = 0
 535              		@ frame_needed = 0, uses_anonymous_args = 0
 536 0000 10B5     		push	{r4, lr}
 537 0002 0446     		mov	r4, r0
 538 0004 0F28     		cmp	r0, #15
 539 0006 09D8     		bhi	.L79
 540              	.L77:
 541 0008 074B     		ldr	r3, .L80
ARM GAS  C:\Users\thewo\AppData\Local\Temp\ccMtGnIh.s 			page 10


 542 000a C3F89840 		str	r4, [r3, #152]
 543 000e D3F8A020 		ldr	r2, [r3, #160]
 544 0012 22F00102 		bic	r2, r2, #1
 545 0016 C3F8A020 		str	r2, [r3, #160]
 546 001a 10BD     		pop	{r4, pc}
 547              	.L79:
 548 001c 40F23B11 		movw	r1, #315
 549 0020 0248     		ldr	r0, .L80+4
 550 0022 FFF7FEFF 		bl	assert_failed
 551 0026 EFE7     		b	.L77
 552              	.L81:
 553              		.align	2
 554              	.L80:
 555 0028 00ED00E0 		.word	-536810240
 556 002c 00000000 		.word	.LC0
 558              		.section	.text.HAL_MPU_ConfigRegion,"ax",%progbits
 559              		.align	1
 560              		.global	HAL_MPU_ConfigRegion
 561              		.syntax unified
 562              		.thumb
 563              		.thumb_func
 565              	HAL_MPU_ConfigRegion:
 566              		@ args = 0, pretend = 0, frame = 0
 567              		@ frame_needed = 0, uses_anonymous_args = 0
 568 0000 10B5     		push	{r4, lr}
 569 0002 0446     		mov	r4, r0
 570 0004 4378     		ldrb	r3, [r0, #1]	@ zero_extendqisi2
 571 0006 0F2B     		cmp	r3, #15
 572 0008 49D8     		bhi	.L94
 573              	.L83:
 574 000a 2378     		ldrb	r3, [r4]	@ zero_extendqisi2
 575 000c 012B     		cmp	r3, #1
 576 000e 4CD8     		bhi	.L95
 577              	.L84:
 578 0010 237B     		ldrb	r3, [r4, #12]	@ zero_extendqisi2
 579 0012 012B     		cmp	r3, #1
 580 0014 4FD8     		bhi	.L96
 581              	.L85:
 582 0016 E37A     		ldrb	r3, [r4, #11]	@ zero_extendqisi2
 583 0018 052B     		cmp	r3, #5
 584 001a 18BF     		it	ne
 585 001c 032B     		cmpne	r3, #3
 586 001e 01D9     		bls	.L86
 587 0020 062B     		cmp	r3, #6
 588 0022 4ED1     		bne	.L97
 589              	.L86:
 590 0024 A37A     		ldrb	r3, [r4, #10]	@ zero_extendqisi2
 591 0026 022B     		cmp	r3, #2
 592 0028 51D8     		bhi	.L98
 593              	.L87:
 594 002a 637B     		ldrb	r3, [r4, #13]	@ zero_extendqisi2
 595 002c 012B     		cmp	r3, #1
 596 002e 54D8     		bhi	.L99
 597              	.L88:
 598 0030 A37B     		ldrb	r3, [r4, #14]	@ zero_extendqisi2
 599 0032 012B     		cmp	r3, #1
 600 0034 57D8     		bhi	.L100
ARM GAS  C:\Users\thewo\AppData\Local\Temp\ccMtGnIh.s 			page 11


 601              	.L89:
 602 0036 E37B     		ldrb	r3, [r4, #15]	@ zero_extendqisi2
 603 0038 012B     		cmp	r3, #1
 604 003a 5AD8     		bhi	.L101
 605              	.L90:
 606 003c 637A     		ldrb	r3, [r4, #9]	@ zero_extendqisi2
 607 003e FF2B     		cmp	r3, #255
 608 0040 5DD0     		beq	.L102
 609              	.L91:
 610 0042 237A     		ldrb	r3, [r4, #8]	@ zero_extendqisi2
 611 0044 043B     		subs	r3, r3, #4
 612 0046 DBB2     		uxtb	r3, r3
 613 0048 1B2B     		cmp	r3, #27
 614 004a 5ED8     		bhi	.L103
 615              	.L92:
 616 004c 6378     		ldrb	r3, [r4, #1]	@ zero_extendqisi2
 617 004e 324A     		ldr	r2, .L104
 618 0050 C2F89830 		str	r3, [r2, #152]
 619 0054 D2F8A030 		ldr	r3, [r2, #160]
 620 0058 23F00103 		bic	r3, r3, #1
 621 005c C2F8A030 		str	r3, [r2, #160]
 622 0060 6368     		ldr	r3, [r4, #4]
 623 0062 C2F89C30 		str	r3, [r2, #156]
 624 0066 217B     		ldrb	r1, [r4, #12]	@ zero_extendqisi2
 625 0068 E37A     		ldrb	r3, [r4, #11]	@ zero_extendqisi2
 626 006a 1B06     		lsls	r3, r3, #24
 627 006c 43EA0173 		orr	r3, r3, r1, lsl #28
 628 0070 A17A     		ldrb	r1, [r4, #10]	@ zero_extendqisi2
 629 0072 43EAC143 		orr	r3, r3, r1, lsl #19
 630 0076 617B     		ldrb	r1, [r4, #13]	@ zero_extendqisi2
 631 0078 43EA8143 		orr	r3, r3, r1, lsl #18
 632 007c A17B     		ldrb	r1, [r4, #14]	@ zero_extendqisi2
 633 007e 43EA4143 		orr	r3, r3, r1, lsl #17
 634 0082 E17B     		ldrb	r1, [r4, #15]	@ zero_extendqisi2
 635 0084 43EA0143 		orr	r3, r3, r1, lsl #16
 636 0088 617A     		ldrb	r1, [r4, #9]	@ zero_extendqisi2
 637 008a 43EA0123 		orr	r3, r3, r1, lsl #8
 638 008e 217A     		ldrb	r1, [r4, #8]	@ zero_extendqisi2
 639 0090 43EA4103 		orr	r3, r3, r1, lsl #1
 640 0094 2178     		ldrb	r1, [r4]	@ zero_extendqisi2
 641 0096 0B43     		orrs	r3, r3, r1
 642 0098 C2F8A030 		str	r3, [r2, #160]
 643 009c 10BD     		pop	{r4, pc}
 644              	.L94:
 645 009e 40F24D11 		movw	r1, #333
 646 00a2 1E48     		ldr	r0, .L104+4
 647 00a4 FFF7FEFF 		bl	assert_failed
 648 00a8 AFE7     		b	.L83
 649              	.L95:
 650 00aa 4FF4A771 		mov	r1, #334
 651 00ae 1B48     		ldr	r0, .L104+4
 652 00b0 FFF7FEFF 		bl	assert_failed
 653 00b4 ACE7     		b	.L84
 654              	.L96:
 655 00b6 40F24F11 		movw	r1, #335
 656 00ba 1848     		ldr	r0, .L104+4
 657 00bc FFF7FEFF 		bl	assert_failed
ARM GAS  C:\Users\thewo\AppData\Local\Temp\ccMtGnIh.s 			page 12


 658 00c0 A9E7     		b	.L85
 659              	.L97:
 660 00c2 4FF4A871 		mov	r1, #336
 661 00c6 1548     		ldr	r0, .L104+4
 662 00c8 FFF7FEFF 		bl	assert_failed
 663 00cc AAE7     		b	.L86
 664              	.L98:
 665 00ce 40F25111 		movw	r1, #337
 666 00d2 1248     		ldr	r0, .L104+4
 667 00d4 FFF7FEFF 		bl	assert_failed
 668 00d8 A7E7     		b	.L87
 669              	.L99:
 670 00da 4FF4A971 		mov	r1, #338
 671 00de 0F48     		ldr	r0, .L104+4
 672 00e0 FFF7FEFF 		bl	assert_failed
 673 00e4 A4E7     		b	.L88
 674              	.L100:
 675 00e6 40F25311 		movw	r1, #339
 676 00ea 0C48     		ldr	r0, .L104+4
 677 00ec FFF7FEFF 		bl	assert_failed
 678 00f0 A1E7     		b	.L89
 679              	.L101:
 680 00f2 4FF4AA71 		mov	r1, #340
 681 00f6 0948     		ldr	r0, .L104+4
 682 00f8 FFF7FEFF 		bl	assert_failed
 683 00fc 9EE7     		b	.L90
 684              	.L102:
 685 00fe 40F25511 		movw	r1, #341
 686 0102 0648     		ldr	r0, .L104+4
 687 0104 FFF7FEFF 		bl	assert_failed
 688 0108 9BE7     		b	.L91
 689              	.L103:
 690 010a 4FF4AB71 		mov	r1, #342
 691 010e 0348     		ldr	r0, .L104+4
 692 0110 FFF7FEFF 		bl	assert_failed
 693 0114 9AE7     		b	.L92
 694              	.L105:
 695 0116 00BF     		.align	2
 696              	.L104:
 697 0118 00ED00E0 		.word	-536810240
 698 011c 00000000 		.word	.LC0
 700              		.section	.text.HAL_NVIC_GetPriorityGrouping,"ax",%progbits
 701              		.align	1
 702              		.global	HAL_NVIC_GetPriorityGrouping
 703              		.syntax unified
 704              		.thumb
 705              		.thumb_func
 707              	HAL_NVIC_GetPriorityGrouping:
 708              		@ args = 0, pretend = 0, frame = 0
 709              		@ frame_needed = 0, uses_anonymous_args = 0
 710              		@ link register save eliminated.
 711 0000 024B     		ldr	r3, .L107
 712 0002 D868     		ldr	r0, [r3, #12]
 713 0004 C0F30220 		ubfx	r0, r0, #8, #3
 714 0008 7047     		bx	lr
 715              	.L108:
 716 000a 00BF     		.align	2
ARM GAS  C:\Users\thewo\AppData\Local\Temp\ccMtGnIh.s 			page 13


 717              	.L107:
 718 000c 00ED00E0 		.word	-536810240
 720              		.section	.text.HAL_NVIC_GetPriority,"ax",%progbits
 721              		.align	1
 722              		.global	HAL_NVIC_GetPriority
 723              		.syntax unified
 724              		.thumb
 725              		.thumb_func
 727              	HAL_NVIC_GetPriority:
 728              		@ args = 0, pretend = 0, frame = 0
 729              		@ frame_needed = 0, uses_anonymous_args = 0
 730 0000 F8B5     		push	{r3, r4, r5, r6, r7, lr}
 731 0002 0746     		mov	r7, r0
 732 0004 0C46     		mov	r4, r1
 733 0006 1546     		mov	r5, r2
 734 0008 1E46     		mov	r6, r3
 735 000a CB1E     		subs	r3, r1, #3
 736 000c 042B     		cmp	r3, #4
 737 000e 08D8     		bhi	.L112
 738              	.L110:
 739 0010 3846     		mov	r0, r7
 740 0012 FFF7FEFF 		bl	__NVIC_GetPriority
 741 0016 3346     		mov	r3, r6
 742 0018 2A46     		mov	r2, r5
 743 001a 2146     		mov	r1, r4
 744 001c FFF7FEFF 		bl	NVIC_DecodePriority
 745 0020 F8BD     		pop	{r3, r4, r5, r6, r7, pc}
 746              	.L112:
 747 0022 4FF4C771 		mov	r1, #398
 748 0026 0248     		ldr	r0, .L113
 749 0028 FFF7FEFF 		bl	assert_failed
 750 002c F0E7     		b	.L110
 751              	.L114:
 752 002e 00BF     		.align	2
 753              	.L113:
 754 0030 00000000 		.word	.LC0
 756              		.section	.text.HAL_NVIC_SetPendingIRQ,"ax",%progbits
 757              		.align	1
 758              		.global	HAL_NVIC_SetPendingIRQ
 759              		.syntax unified
 760              		.thumb
 761              		.thumb_func
 763              	HAL_NVIC_SetPendingIRQ:
 764              		@ args = 0, pretend = 0, frame = 0
 765              		@ frame_needed = 0, uses_anonymous_args = 0
 766 0000 08B5     		push	{r3, lr}
 767 0002 0028     		cmp	r0, #0
 768 0004 09DB     		blt	.L116
 769 0006 00F01F02 		and	r2, r0, #31
 770 000a 4009     		lsrs	r0, r0, #5
 771 000c 0123     		movs	r3, #1
 772 000e 9340     		lsls	r3, r3, r2
 773 0010 4030     		adds	r0, r0, #64
 774 0012 054A     		ldr	r2, .L119
 775 0014 42F82030 		str	r3, [r2, r0, lsl #2]
 776              	.L115:
 777 0018 08BD     		pop	{r3, pc}
ARM GAS  C:\Users\thewo\AppData\Local\Temp\ccMtGnIh.s 			page 14


 778              	.L116:
 779 001a 40F29D11 		movw	r1, #413
 780 001e 0348     		ldr	r0, .L119+4
 781 0020 FFF7FEFF 		bl	assert_failed
 782 0024 F8E7     		b	.L115
 783              	.L120:
 784 0026 00BF     		.align	2
 785              	.L119:
 786 0028 00E100E0 		.word	-536813312
 787 002c 00000000 		.word	.LC0
 789              		.section	.text.HAL_NVIC_GetPendingIRQ,"ax",%progbits
 790              		.align	1
 791              		.global	HAL_NVIC_GetPendingIRQ
 792              		.syntax unified
 793              		.thumb
 794              		.thumb_func
 796              	HAL_NVIC_GetPendingIRQ:
 797              		@ args = 0, pretend = 0, frame = 0
 798              		@ frame_needed = 0, uses_anonymous_args = 0
 799 0000 08B5     		push	{r3, lr}
 800 0002 0028     		cmp	r0, #0
 801 0004 0BDB     		blt	.L122
 802 0006 4309     		lsrs	r3, r0, #5
 803 0008 4033     		adds	r3, r3, #64
 804 000a 084A     		ldr	r2, .L125
 805 000c 52F82330 		ldr	r3, [r2, r3, lsl #2]
 806 0010 00F01F00 		and	r0, r0, #31
 807 0014 23FA00F0 		lsr	r0, r3, r0
 808 0018 00F00100 		and	r0, r0, #1
 809              	.L121:
 810 001c 08BD     		pop	{r3, pc}
 811              	.L122:
 812 001e 40F2AF11 		movw	r1, #431
 813 0022 0348     		ldr	r0, .L125+4
 814 0024 FFF7FEFF 		bl	assert_failed
 815 0028 0020     		movs	r0, #0
 816 002a F7E7     		b	.L121
 817              	.L126:
 818              		.align	2
 819              	.L125:
 820 002c 00E100E0 		.word	-536813312
 821 0030 00000000 		.word	.LC0
 823              		.section	.text.HAL_NVIC_ClearPendingIRQ,"ax",%progbits
 824              		.align	1
 825              		.global	HAL_NVIC_ClearPendingIRQ
 826              		.syntax unified
 827              		.thumb
 828              		.thumb_func
 830              	HAL_NVIC_ClearPendingIRQ:
 831              		@ args = 0, pretend = 0, frame = 0
 832              		@ frame_needed = 0, uses_anonymous_args = 0
 833 0000 08B5     		push	{r3, lr}
 834 0002 0028     		cmp	r0, #0
 835 0004 09DB     		blt	.L128
 836 0006 00F01F02 		and	r2, r0, #31
 837 000a 4009     		lsrs	r0, r0, #5
 838 000c 0123     		movs	r3, #1
ARM GAS  C:\Users\thewo\AppData\Local\Temp\ccMtGnIh.s 			page 15


 839 000e 9340     		lsls	r3, r3, r2
 840 0010 6030     		adds	r0, r0, #96
 841 0012 054A     		ldr	r2, .L131
 842 0014 42F82030 		str	r3, [r2, r0, lsl #2]
 843              	.L127:
 844 0018 08BD     		pop	{r3, pc}
 845              	.L128:
 846 001a 40F2BF11 		movw	r1, #447
 847 001e 0348     		ldr	r0, .L131+4
 848 0020 FFF7FEFF 		bl	assert_failed
 849 0024 F8E7     		b	.L127
 850              	.L132:
 851 0026 00BF     		.align	2
 852              	.L131:
 853 0028 00E100E0 		.word	-536813312
 854 002c 00000000 		.word	.LC0
 856              		.section	.text.HAL_NVIC_GetActive,"ax",%progbits
 857              		.align	1
 858              		.global	HAL_NVIC_GetActive
 859              		.syntax unified
 860              		.thumb
 861              		.thumb_func
 863              	HAL_NVIC_GetActive:
 864              		@ args = 0, pretend = 0, frame = 0
 865              		@ frame_needed = 0, uses_anonymous_args = 0
 866 0000 08B5     		push	{r3, lr}
 867 0002 0028     		cmp	r0, #0
 868 0004 0BDB     		blt	.L134
 869 0006 4309     		lsrs	r3, r0, #5
 870 0008 8033     		adds	r3, r3, #128
 871 000a 084A     		ldr	r2, .L137
 872 000c 52F82330 		ldr	r3, [r2, r3, lsl #2]
 873 0010 00F01F00 		and	r0, r0, #31
 874 0014 23FA00F0 		lsr	r0, r3, r0
 875 0018 00F00100 		and	r0, r0, #1
 876              	.L133:
 877 001c 08BD     		pop	{r3, pc}
 878              	.L134:
 879 001e 4FF4E871 		mov	r1, #464
 880 0022 0348     		ldr	r0, .L137+4
 881 0024 FFF7FEFF 		bl	assert_failed
 882 0028 0020     		movs	r0, #0
 883 002a F7E7     		b	.L133
 884              	.L138:
 885              		.align	2
 886              	.L137:
 887 002c 00E100E0 		.word	-536813312
 888 0030 00000000 		.word	.LC0
 890              		.section	.text.HAL_SYSTICK_CLKSourceConfig,"ax",%progbits
 891              		.align	1
 892              		.global	HAL_SYSTICK_CLKSourceConfig
 893              		.syntax unified
 894              		.thumb
 895              		.thumb_func
 897              	HAL_SYSTICK_CLKSourceConfig:
 898              		@ args = 0, pretend = 0, frame = 0
 899              		@ frame_needed = 0, uses_anonymous_args = 0
ARM GAS  C:\Users\thewo\AppData\Local\Temp\ccMtGnIh.s 			page 16


 900 0000 10B5     		push	{r4, lr}
 901 0002 0446     		mov	r4, r0
 902 0004 0428     		cmp	r0, #4
 903 0006 18BF     		it	ne
 904 0008 0028     		cmpne	r0, #0
 905 000a 08D1     		bne	.L144
 906              	.L140:
 907 000c 042C     		cmp	r4, #4
 908 000e 0CD0     		beq	.L145
 909 0010 4FF0E022 		mov	r2, #-536813568
 910 0014 1369     		ldr	r3, [r2, #16]
 911 0016 23F00403 		bic	r3, r3, #4
 912 001a 1361     		str	r3, [r2, #16]
 913              	.L139:
 914 001c 10BD     		pop	{r4, pc}
 915              	.L144:
 916 001e 40F2E111 		movw	r1, #481
 917 0022 0548     		ldr	r0, .L146
 918 0024 FFF7FEFF 		bl	assert_failed
 919 0028 F0E7     		b	.L140
 920              	.L145:
 921 002a 4FF0E022 		mov	r2, #-536813568
 922 002e 1369     		ldr	r3, [r2, #16]
 923 0030 43F00403 		orr	r3, r3, #4
 924 0034 1361     		str	r3, [r2, #16]
 925 0036 F1E7     		b	.L139
 926              	.L147:
 927              		.align	2
 928              	.L146:
 929 0038 00000000 		.word	.LC0
 931              		.section	.text.HAL_SYSTICK_Callback,"ax",%progbits
 932              		.align	1
 933              		.weak	HAL_SYSTICK_Callback
 934              		.syntax unified
 935              		.thumb
 936              		.thumb_func
 938              	HAL_SYSTICK_Callback:
 939              		@ args = 0, pretend = 0, frame = 0
 940              		@ frame_needed = 0, uses_anonymous_args = 0
 941              		@ link register save eliminated.
 942 0000 7047     		bx	lr
 944              		.section	.text.HAL_SYSTICK_IRQHandler,"ax",%progbits
 945              		.align	1
 946              		.global	HAL_SYSTICK_IRQHandler
 947              		.syntax unified
 948              		.thumb
 949              		.thumb_func
 951              	HAL_SYSTICK_IRQHandler:
 952              		@ args = 0, pretend = 0, frame = 0
 953              		@ frame_needed = 0, uses_anonymous_args = 0
 954 0000 08B5     		push	{r3, lr}
 955 0002 FFF7FEFF 		bl	HAL_SYSTICK_Callback
 956 0006 08BD     		pop	{r3, pc}
 958              		.section	.text.HAL_GetCurrentCPUID,"ax",%progbits
 959              		.align	1
 960              		.global	HAL_GetCurrentCPUID
 961              		.syntax unified
ARM GAS  C:\Users\thewo\AppData\Local\Temp\ccMtGnIh.s 			page 17


 962              		.thumb
 963              		.thumb_func
 965              	HAL_GetCurrentCPUID:
 966              		@ args = 0, pretend = 0, frame = 0
 967              		@ frame_needed = 0, uses_anonymous_args = 0
 968              		@ link register save eliminated.
 969 0000 0320     		movs	r0, #3
 970 0002 7047     		bx	lr
 972              		.ident	"GCC: (xPack GNU Arm Embedded GCC x86_64) 14.2.1 20241119"
ARM GAS  C:\Users\thewo\AppData\Local\Temp\ccMtGnIh.s 			page 18

