ARM GAS  C:\Users\thewo\AppData\Local\Temp\ccUp1enP.s 			page 1


   1              		.cpu cortex-m7
   2              		.arch armv7e-m
   3              		.fpu fpv5-d16
   4              		.eabi_attribute 28, 1
   5              		.eabi_attribute 20, 1
   6              		.eabi_attribute 21, 1
   7              		.eabi_attribute 23, 3
   8              		.eabi_attribute 24, 1
   9              		.eabi_attribute 25, 1
  10              		.eabi_attribute 26, 1
  11              		.eabi_attribute 30, 1
  12              		.eabi_attribute 34, 1
  13              		.eabi_attribute 18, 4
  14              		.file	"stm32h7xx_hal_i2c.c"
  15              		.text
  16              		.section	.text.I2C_Flush_TXDR,"ax",%progbits
  17              		.align	1
  18              		.syntax unified
  19              		.thumb
  20              		.thumb_func
  22              	I2C_Flush_TXDR:
  23              		@ args = 0, pretend = 0, frame = 0
  24              		@ frame_needed = 0, uses_anonymous_args = 0
  25              		@ link register save eliminated.
  26 0000 0368     		ldr	r3, [r0]
  27 0002 9A69     		ldr	r2, [r3, #24]
  28 0004 12F0020F 		tst	r2, #2
  29 0008 01D0     		beq	.L2
  30 000a 0022     		movs	r2, #0
  31 000c 9A62     		str	r2, [r3, #40]
  32              	.L2:
  33 000e 0368     		ldr	r3, [r0]
  34 0010 9A69     		ldr	r2, [r3, #24]
  35 0012 12F0010F 		tst	r2, #1
  36 0016 03D1     		bne	.L1
  37 0018 9A69     		ldr	r2, [r3, #24]
  38 001a 42F00102 		orr	r2, r2, #1
  39 001e 9A61     		str	r2, [r3, #24]
  40              	.L1:
  41 0020 7047     		bx	lr
  43              		.section	.text.I2C_Enable_IRQ,"ax",%progbits
  44              		.align	1
  45              		.syntax unified
  46              		.thumb
  47              		.thumb_func
  49              	I2C_Enable_IRQ:
  50              		@ args = 0, pretend = 0, frame = 0
  51              		@ frame_needed = 0, uses_anonymous_args = 0
  52              		@ link register save eliminated.
  53 0000 436B     		ldr	r3, [r0, #52]
  54 0002 234A     		ldr	r2, .L20
  55 0004 9342     		cmp	r3, r2
  56 0006 1FD0     		beq	.L5
  57 0008 224A     		ldr	r2, .L20+4
  58 000a 9342     		cmp	r3, r2
  59 000c 1CD0     		beq	.L5
  60 000e 224A     		ldr	r2, .L20+8
ARM GAS  C:\Users\thewo\AppData\Local\Temp\ccUp1enP.s 			page 2


  61 0010 9342     		cmp	r3, r2
  62 0012 19D0     		beq	.L5
  63 0014 11F4004F 		tst	r1, #32768
  64 0018 0FD1     		bne	.L16
  65 001a 0023     		movs	r3, #0
  66              	.L6:
  67 001c 11F0010F 		tst	r1, #1
  68 0020 01D0     		beq	.L7
  69 0022 43F0F203 		orr	r3, r3, #242
  70              	.L7:
  71 0026 11F0020F 		tst	r1, #2
  72 002a 08D0     		beq	.L8
  73 002c 43F0F403 		orr	r3, r3, #244
  74              	.L9:
  75 0030 2029     		cmp	r1, #32
  76 0032 1BD1     		bne	.L10
  77 0034 43F02003 		orr	r3, r3, #32
  78 0038 18E0     		b	.L10
  79              	.L16:
  80 003a B823     		movs	r3, #184
  81 003c EEE7     		b	.L6
  82              	.L8:
  83 003e 1029     		cmp	r1, #16
  84 0040 F6D1     		bne	.L9
  85 0042 43F09003 		orr	r3, r3, #144
  86 0046 11E0     		b	.L10
  87              	.L5:
  88 0048 11F4004F 		tst	r1, #32768
  89 004c 13D1     		bne	.L17
  90 004e 0023     		movs	r3, #0
  91              	.L11:
  92 0050 11F0010F 		tst	r1, #1
  93 0054 01D0     		beq	.L12
  94 0056 43F0F203 		orr	r3, r3, #242
  95              	.L12:
  96 005a 11F0020F 		tst	r1, #2
  97 005e 0CD0     		beq	.L13
  98 0060 43F0F403 		orr	r3, r3, #244
  99              	.L14:
 100 0064 2029     		cmp	r1, #32
 101 0066 0DD0     		beq	.L18
 102              	.L15:
 103 0068 4029     		cmp	r1, #64
 104 006a 0ED0     		beq	.L19
 105              	.L10:
 106 006c 0168     		ldr	r1, [r0]
 107 006e 0A68     		ldr	r2, [r1]
 108 0070 1343     		orrs	r3, r3, r2
 109 0072 0B60     		str	r3, [r1]
 110 0074 7047     		bx	lr
 111              	.L17:
 112 0076 B823     		movs	r3, #184
 113 0078 EAE7     		b	.L11
 114              	.L13:
 115 007a 1029     		cmp	r1, #16
 116 007c F2D1     		bne	.L14
 117 007e 43F09003 		orr	r3, r3, #144
ARM GAS  C:\Users\thewo\AppData\Local\Temp\ccUp1enP.s 			page 3


 118 0082 F1E7     		b	.L15
 119              	.L18:
 120 0084 43F06003 		orr	r3, r3, #96
 121 0088 F0E7     		b	.L10
 122              	.L19:
 123 008a 43F04003 		orr	r3, r3, #64
 124 008e EDE7     		b	.L10
 125              	.L21:
 126              		.align	2
 127              	.L20:
 128 0090 00000000 		.word	I2C_Master_ISR_DMA
 129 0094 00000000 		.word	I2C_Slave_ISR_DMA
 130 0098 00000000 		.word	I2C_Mem_ISR_DMA
 132              		.section	.text.I2C_Disable_IRQ,"ax",%progbits
 133              		.align	1
 134              		.syntax unified
 135              		.thumb
 136              		.thumb_func
 138              	I2C_Disable_IRQ:
 139              		@ args = 0, pretend = 0, frame = 0
 140              		@ frame_needed = 0, uses_anonymous_args = 0
 141              		@ link register save eliminated.
 142 0000 11F0010F 		tst	r1, #1
 143 0004 09D0     		beq	.L29
 144 0006 90F84130 		ldrb	r3, [r0, #65]	@ zero_extendqisi2
 145 000a 03F02803 		and	r3, r3, #40
 146 000e 282B     		cmp	r3, #40
 147 0010 01D0     		beq	.L32
 148 0012 F223     		movs	r3, #242
 149 0014 02E0     		b	.L23
 150              	.L32:
 151 0016 4223     		movs	r3, #66
 152 0018 00E0     		b	.L23
 153              	.L29:
 154 001a 0023     		movs	r3, #0
 155              	.L23:
 156 001c 11F0020F 		tst	r1, #2
 157 0020 09D0     		beq	.L24
 158 0022 43F0440C 		orr	ip, r3, #68
 159 0026 90F84120 		ldrb	r2, [r0, #65]	@ zero_extendqisi2
 160 002a 02F02802 		and	r2, r2, #40
 161 002e 282A     		cmp	r2, #40
 162 0030 09D0     		beq	.L31
 163 0032 43F0F403 		orr	r3, r3, #244
 164              	.L24:
 165 0036 11F4004F 		tst	r1, #32768
 166 003a 06D1     		bne	.L33
 167 003c 1029     		cmp	r1, #16
 168 003e 06D1     		bne	.L26
 169 0040 43F09003 		orr	r3, r3, #144
 170 0044 05E0     		b	.L27
 171              	.L31:
 172 0046 6346     		mov	r3, ip
 173 0048 F5E7     		b	.L24
 174              	.L33:
 175 004a 43F0B803 		orr	r3, r3, #184
 176              	.L26:
ARM GAS  C:\Users\thewo\AppData\Local\Temp\ccUp1enP.s 			page 4


 177 004e 2029     		cmp	r1, #32
 178 0050 07D0     		beq	.L34
 179              	.L27:
 180 0052 4029     		cmp	r1, #64
 181 0054 08D0     		beq	.L35
 182              	.L28:
 183 0056 0168     		ldr	r1, [r0]
 184 0058 0A68     		ldr	r2, [r1]
 185 005a 22EA0303 		bic	r3, r2, r3
 186 005e 0B60     		str	r3, [r1]
 187 0060 7047     		bx	lr
 188              	.L34:
 189 0062 43F02003 		orr	r3, r3, #32
 190 0066 F6E7     		b	.L28
 191              	.L35:
 192 0068 43F04003 		orr	r3, r3, #64
 193 006c F3E7     		b	.L28
 195              		.section	.text.I2C_ConvertOtherXferOptions,"ax",%progbits
 196              		.align	1
 197              		.syntax unified
 198              		.thumb
 199              		.thumb_func
 201              	I2C_ConvertOtherXferOptions:
 202              		@ args = 0, pretend = 0, frame = 0
 203              		@ frame_needed = 0, uses_anonymous_args = 0
 204              		@ link register save eliminated.
 205 0000 C36A     		ldr	r3, [r0, #44]
 206 0002 AA2B     		cmp	r3, #170
 207 0004 04D0     		beq	.L39
 208 0006 C36A     		ldr	r3, [r0, #44]
 209 0008 B3F52A4F 		cmp	r3, #43520
 210 000c 03D0     		beq	.L40
 211              	.L36:
 212 000e 7047     		bx	lr
 213              	.L39:
 214 0010 0023     		movs	r3, #0
 215 0012 C362     		str	r3, [r0, #44]
 216 0014 7047     		bx	lr
 217              	.L40:
 218 0016 4FF00073 		mov	r3, #33554432
 219 001a C362     		str	r3, [r0, #44]
 220 001c F7E7     		b	.L36
 222              		.section	.rodata.I2C_TransferConfig.str1.4,"aMS",%progbits,1
 223              		.align	2
 224              	.LC0:
 225 0000 44726976 		.ascii	"Drivers/STM32H7xx_HAL_Driver/Src/stm32h7xx_hal_i2c."
 225      6572732F 
 225      53544D33 
 225      32483778 
 225      785F4841 
 226 0033 6300     		.ascii	"c\000"
 227              		.section	.text.I2C_TransferConfig,"ax",%progbits
 228              		.align	1
 229              		.syntax unified
 230              		.thumb
 231              		.thumb_func
 233              	I2C_TransferConfig:
ARM GAS  C:\Users\thewo\AppData\Local\Temp\ccUp1enP.s 			page 5


 234              		@ args = 4, pretend = 0, frame = 0
 235              		@ frame_needed = 0, uses_anonymous_args = 0
 236 0000 2DE9F041 		push	{r4, r5, r6, r7, r8, lr}
 237 0004 0646     		mov	r6, r0
 238 0006 0C46     		mov	r4, r1
 239 0008 9046     		mov	r8, r2
 240 000a 1F46     		mov	r7, r3
 241 000c 069D     		ldr	r5, [sp, #24]
 242 000e 0368     		ldr	r3, [r0]
 243 0010 2849     		ldr	r1, .L48
 244 0012 294A     		ldr	r2, .L48+4
 245 0014 8B42     		cmp	r3, r1
 246 0016 18BF     		it	ne
 247 0018 9342     		cmpne	r3, r2
 248 001a 0ED0     		beq	.L42
 249 001c 02F58062 		add	r2, r2, #1024
 250 0020 9342     		cmp	r3, r2
 251 0022 0AD0     		beq	.L42
 252 0024 254A     		ldr	r2, .L48+8
 253 0026 9342     		cmp	r3, r2
 254 0028 07D0     		beq	.L42
 255 002a 254A     		ldr	r2, .L48+12
 256 002c 9342     		cmp	r3, r2
 257 002e 04D0     		beq	.L42
 258 0030 41F6A541 		movw	r1, #7333
 259 0034 2348     		ldr	r0, .L48+16
 260 0036 FFF7FEFF 		bl	assert_failed
 261              	.L42:
 262 003a B7F1807F 		cmp	r7, #16777216
 263 003e 18BF     		it	ne
 264 0040 B7F1007F 		cmpne	r7, #33554432
 265 0044 00D0     		beq	.L43
 266 0046 47BB     		cbnz	r7, .L46
 267              	.L43:
 268 0048 1F4A     		ldr	r2, .L48+20
 269 004a 204B     		ldr	r3, .L48+24
 270 004c 9542     		cmp	r5, r2
 271 004e 18BF     		it	ne
 272 0050 9D42     		cmpne	r5, r3
 273 0052 07D0     		beq	.L44
 274 0054 2A1E     		subs	r2, r5, #0
 275 0056 18BF     		it	ne
 276 0058 0122     		movne	r2, #1
 277 005a A3F58063 		sub	r3, r3, #1024
 278 005e 9D42     		cmp	r5, r3
 279 0060 00D0     		beq	.L44
 280 0062 02BB     		cbnz	r2, .L47
 281              	.L44:
 282 0064 C4F30904 		ubfx	r4, r4, #0, #10
 283 0068 44EA0843 		orr	r3, r4, r8, lsl #16
 284 006c 3B43     		orrs	r3, r3, r7
 285 006e 2B43     		orrs	r3, r3, r5
 286 0070 23F00043 		bic	r3, r3, #-2147483648
 287 0074 3168     		ldr	r1, [r6]
 288 0076 4A68     		ldr	r2, [r1, #4]
 289 0078 6D0D     		lsrs	r5, r5, #21
 290 007a 05F48065 		and	r5, r5, #1024
ARM GAS  C:\Users\thewo\AppData\Local\Temp\ccUp1enP.s 			page 6


 291 007e 45F07F75 		orr	r5, r5, #66846720
 292 0082 45F45835 		orr	r5, r5, #221184
 293 0086 45F47F75 		orr	r5, r5, #1020
 294 008a 45F00305 		orr	r5, r5, #3
 295 008e 22EA0502 		bic	r2, r2, r5
 296 0092 1343     		orrs	r3, r3, r2
 297 0094 4B60     		str	r3, [r1, #4]
 298 0096 BDE8F081 		pop	{r4, r5, r6, r7, r8, pc}
 299              	.L46:
 300 009a 41F6A641 		movw	r1, #7334
 301 009e 0948     		ldr	r0, .L48+16
 302 00a0 FFF7FEFF 		bl	assert_failed
 303 00a4 D0E7     		b	.L43
 304              	.L47:
 305 00a6 41F6A741 		movw	r1, #7335
 306 00aa 0648     		ldr	r0, .L48+16
 307 00ac FFF7FEFF 		bl	assert_failed
 308 00b0 D8E7     		b	.L44
 309              	.L49:
 310 00b2 00BF     		.align	2
 311              	.L48:
 312 00b4 00540040 		.word	1073763328
 313 00b8 00580040 		.word	1073764352
 314 00bc 001C0058 		.word	1476402176
 315 00c0 00640040 		.word	1073767424
 316 00c4 00000000 		.word	.LC0
 317 00c8 00400080 		.word	-2147467264
 318 00cc 00240080 		.word	-2147474432
 320              		.section	.text.I2C_IsErrorOccurred,"ax",%progbits
 321              		.align	1
 322              		.syntax unified
 323              		.thumb
 324              		.thumb_func
 326              	I2C_IsErrorOccurred:
 327              		@ args = 0, pretend = 0, frame = 0
 328              		@ frame_needed = 0, uses_anonymous_args = 0
 329 0000 2DE9F041 		push	{r4, r5, r6, r7, r8, lr}
 330 0004 0446     		mov	r4, r0
 331 0006 0368     		ldr	r3, [r0]
 332 0008 9E69     		ldr	r6, [r3, #24]
 333 000a 16F01006 		ands	r6, r6, #16
 334 000e 7ED0     		beq	.L67
 335 0010 0D46     		mov	r5, r1
 336 0012 9046     		mov	r8, r2
 337 0014 1022     		movs	r2, #16
 338 0016 DA61     		str	r2, [r3, #28]
 339 0018 0026     		movs	r6, #0
 340 001a 3746     		mov	r7, r6
 341              	.L53:
 342 001c 2368     		ldr	r3, [r4]
 343 001e 9869     		ldr	r0, [r3, #24]
 344 0020 10F0200F 		tst	r0, #32
 345 0024 32D1     		bne	.L59
 346 0026 8FBB     		cbnz	r7, .L59
 347 0028 B5F1FF3F 		cmp	r5, #-1
 348 002c F6D0     		beq	.L53
 349 002e FFF7FEFF 		bl	HAL_GetTick
ARM GAS  C:\Users\thewo\AppData\Local\Temp\ccUp1enP.s 			page 7


 350 0032 A0EB0800 		sub	r0, r0, r8
 351 0036 A842     		cmp	r0, r5
 352 0038 01D8     		bhi	.L54
 353 003a 002D     		cmp	r5, #0
 354 003c EED1     		bne	.L53
 355              	.L54:
 356 003e 2168     		ldr	r1, [r4]
 357 0040 4A68     		ldr	r2, [r1, #4]
 358 0042 02F48042 		and	r2, r2, #16384
 359 0046 94F84230 		ldrb	r3, [r4, #66]	@ zero_extendqisi2
 360 004a DBB2     		uxtb	r3, r3
 361 004c 8869     		ldr	r0, [r1, #24]
 362 004e 10F4004F 		tst	r0, #32768
 363 0052 04D0     		beq	.L57
 364 0054 203B     		subs	r3, r3, #32
 365 0056 18BF     		it	ne
 366 0058 0123     		movne	r3, #1
 367 005a 02B9     		cbnz	r2, .L57
 368 005c 73B9     		cbnz	r3, .L69
 369              	.L57:
 370 005e 2368     		ldr	r3, [r4]
 371 0060 9B69     		ldr	r3, [r3, #24]
 372 0062 13F0200F 		tst	r3, #32
 373 0066 D9D1     		bne	.L53
 374 0068 FFF7FEFF 		bl	HAL_GetTick
 375 006c A0EB0800 		sub	r0, r0, r8
 376 0070 1928     		cmp	r0, #25
 377 0072 F4D9     		bls	.L57
 378 0074 46F02006 		orr	r6, r6, #32
 379 0078 0127     		movs	r7, #1
 380 007a CFE7     		b	.L53
 381              	.L69:
 382 007c 4B68     		ldr	r3, [r1, #4]
 383 007e 43F48043 		orr	r3, r3, #16384
 384 0082 4B60     		str	r3, [r1, #4]
 385 0084 FFF7FEFF 		bl	HAL_GetTick
 386 0088 8046     		mov	r8, r0
 387 008a E8E7     		b	.L57
 388              	.L59:
 389 008c 0FB9     		cbnz	r7, .L61
 390 008e 2022     		movs	r2, #32
 391 0090 DA61     		str	r2, [r3, #28]
 392              	.L61:
 393 0092 46F00406 		orr	r6, r6, #4
 394 0096 0125     		movs	r5, #1
 395              	.L51:
 396 0098 2268     		ldr	r2, [r4]
 397 009a 9369     		ldr	r3, [r2, #24]
 398 009c 13F4807F 		tst	r3, #256
 399 00a0 05D0     		beq	.L62
 400 00a2 46F00106 		orr	r6, r6, #1
 401 00a6 4FF48071 		mov	r1, #256
 402 00aa D161     		str	r1, [r2, #28]
 403 00ac 0125     		movs	r5, #1
 404              	.L62:
 405 00ae 13F4806F 		tst	r3, #1024
 406 00b2 06D0     		beq	.L63
ARM GAS  C:\Users\thewo\AppData\Local\Temp\ccUp1enP.s 			page 8


 407 00b4 46F00806 		orr	r6, r6, #8
 408 00b8 2268     		ldr	r2, [r4]
 409 00ba 4FF48061 		mov	r1, #1024
 410 00be D161     		str	r1, [r2, #28]
 411 00c0 0125     		movs	r5, #1
 412              	.L63:
 413 00c2 13F4007F 		tst	r3, #512
 414 00c6 24D0     		beq	.L64
 415 00c8 46F00206 		orr	r6, r6, #2
 416 00cc 2368     		ldr	r3, [r4]
 417 00ce 4FF40072 		mov	r2, #512
 418 00d2 DA61     		str	r2, [r3, #28]
 419 00d4 0125     		movs	r5, #1
 420              	.L65:
 421 00d6 2046     		mov	r0, r4
 422 00d8 FFF7FEFF 		bl	I2C_Flush_TXDR
 423 00dc 2268     		ldr	r2, [r4]
 424 00de 5368     		ldr	r3, [r2, #4]
 425 00e0 23F0FF73 		bic	r3, r3, #33423360
 426 00e4 23F48B33 		bic	r3, r3, #71168
 427 00e8 23F4FF73 		bic	r3, r3, #510
 428 00ec 23F00103 		bic	r3, r3, #1
 429 00f0 5360     		str	r3, [r2, #4]
 430 00f2 636C     		ldr	r3, [r4, #68]
 431 00f4 3343     		orrs	r3, r3, r6
 432 00f6 6364     		str	r3, [r4, #68]
 433 00f8 2023     		movs	r3, #32
 434 00fa 84F84130 		strb	r3, [r4, #65]
 435 00fe 0023     		movs	r3, #0
 436 0100 84F84230 		strb	r3, [r4, #66]
 437 0104 84F84030 		strb	r3, [r4, #64]
 438              	.L66:
 439 0108 2846     		mov	r0, r5
 440 010a BDE8F081 		pop	{r4, r5, r6, r7, r8, pc}
 441              	.L67:
 442 010e 0025     		movs	r5, #0
 443 0110 C2E7     		b	.L51
 444              	.L64:
 445 0112 002D     		cmp	r5, #0
 446 0114 F8D0     		beq	.L66
 447 0116 DEE7     		b	.L65
 449              		.section	.text.I2C_WaitOnTXISFlagUntilTimeout,"ax",%progbits
 450              		.align	1
 451              		.syntax unified
 452              		.thumb
 453              		.thumb_func
 455              	I2C_WaitOnTXISFlagUntilTimeout:
 456              		@ args = 0, pretend = 0, frame = 0
 457              		@ frame_needed = 0, uses_anonymous_args = 0
 458 0000 70B5     		push	{r4, r5, r6, lr}
 459 0002 0446     		mov	r4, r0
 460 0004 0D46     		mov	r5, r1
 461 0006 1646     		mov	r6, r2
 462              	.L73:
 463 0008 2368     		ldr	r3, [r4]
 464 000a 9B69     		ldr	r3, [r3, #24]
 465 000c 13F0020F 		tst	r3, #2
ARM GAS  C:\Users\thewo\AppData\Local\Temp\ccUp1enP.s 			page 9


 466 0010 22D1     		bne	.L78
 467 0012 3246     		mov	r2, r6
 468 0014 2946     		mov	r1, r5
 469 0016 2046     		mov	r0, r4
 470 0018 FFF7FEFF 		bl	I2C_IsErrorOccurred
 471 001c F0B9     		cbnz	r0, .L76
 472 001e B5F1FF3F 		cmp	r5, #-1
 473 0022 F1D0     		beq	.L73
 474 0024 FFF7FEFF 		bl	HAL_GetTick
 475 0028 801B     		subs	r0, r0, r6
 476 002a A842     		cmp	r0, r5
 477 002c 01D8     		bhi	.L74
 478 002e 002D     		cmp	r5, #0
 479 0030 EAD1     		bne	.L73
 480              	.L74:
 481 0032 2368     		ldr	r3, [r4]
 482 0034 9B69     		ldr	r3, [r3, #24]
 483 0036 13F0020F 		tst	r3, #2
 484 003a E5D1     		bne	.L73
 485 003c 636C     		ldr	r3, [r4, #68]
 486 003e 43F02003 		orr	r3, r3, #32
 487 0042 6364     		str	r3, [r4, #68]
 488 0044 2023     		movs	r3, #32
 489 0046 84F84130 		strb	r3, [r4, #65]
 490 004a 0023     		movs	r3, #0
 491 004c 84F84230 		strb	r3, [r4, #66]
 492 0050 84F84030 		strb	r3, [r4, #64]
 493 0054 0120     		movs	r0, #1
 494 0056 00E0     		b	.L72
 495              	.L78:
 496 0058 0020     		movs	r0, #0
 497              	.L72:
 498 005a 70BD     		pop	{r4, r5, r6, pc}
 499              	.L76:
 500 005c 0120     		movs	r0, #1
 501 005e FCE7     		b	.L72
 503              		.section	.text.I2C_WaitOnFlagUntilTimeout,"ax",%progbits
 504              		.align	1
 505              		.syntax unified
 506              		.thumb
 507              		.thumb_func
 509              	I2C_WaitOnFlagUntilTimeout:
 510              		@ args = 4, pretend = 0, frame = 0
 511              		@ frame_needed = 0, uses_anonymous_args = 0
 512 0000 2DE9F843 		push	{r3, r4, r5, r6, r7, r8, r9, lr}
 513 0004 0546     		mov	r5, r0
 514 0006 8846     		mov	r8, r1
 515 0008 1746     		mov	r7, r2
 516 000a 1E46     		mov	r6, r3
 517 000c DDF82090 		ldr	r9, [sp, #32]
 518              	.L82:
 519 0010 2B68     		ldr	r3, [r5]
 520 0012 9C69     		ldr	r4, [r3, #24]
 521 0014 38EA0404 		bics	r4, r8, r4
 522 0018 0CBF     		ite	eq
 523 001a 0123     		moveq	r3, #1
 524 001c 0023     		movne	r3, #0
ARM GAS  C:\Users\thewo\AppData\Local\Temp\ccUp1enP.s 			page 10


 525 001e BB42     		cmp	r3, r7
 526 0020 27D1     		bne	.L87
 527 0022 4A46     		mov	r2, r9
 528 0024 3146     		mov	r1, r6
 529 0026 2846     		mov	r0, r5
 530 0028 FFF7FEFF 		bl	I2C_IsErrorOccurred
 531 002c 20BB     		cbnz	r0, .L85
 532 002e B6F1FF3F 		cmp	r6, #-1
 533 0032 EDD0     		beq	.L82
 534 0034 FFF7FEFF 		bl	HAL_GetTick
 535 0038 A0EB0900 		sub	r0, r0, r9
 536 003c B042     		cmp	r0, r6
 537 003e 01D8     		bhi	.L83
 538 0040 002E     		cmp	r6, #0
 539 0042 E5D1     		bne	.L82
 540              	.L83:
 541 0044 2B68     		ldr	r3, [r5]
 542 0046 9B69     		ldr	r3, [r3, #24]
 543 0048 38EA0303 		bics	r3, r8, r3
 544 004c 0CBF     		ite	eq
 545 004e 0123     		moveq	r3, #1
 546 0050 0023     		movne	r3, #0
 547 0052 BB42     		cmp	r3, r7
 548 0054 DCD1     		bne	.L82
 549 0056 6B6C     		ldr	r3, [r5, #68]
 550 0058 43F02003 		orr	r3, r3, #32
 551 005c 6B64     		str	r3, [r5, #68]
 552 005e 2023     		movs	r3, #32
 553 0060 85F84130 		strb	r3, [r5, #65]
 554 0064 0023     		movs	r3, #0
 555 0066 85F84230 		strb	r3, [r5, #66]
 556 006a 85F84030 		strb	r3, [r5, #64]
 557 006e 0120     		movs	r0, #1
 558 0070 00E0     		b	.L81
 559              	.L87:
 560 0072 0020     		movs	r0, #0
 561              	.L81:
 562 0074 BDE8F883 		pop	{r3, r4, r5, r6, r7, r8, r9, pc}
 563              	.L85:
 564 0078 0120     		movs	r0, #1
 565 007a FBE7     		b	.L81
 567              		.section	.text.I2C_RequestMemoryWrite,"ax",%progbits
 568              		.align	1
 569              		.syntax unified
 570              		.thumb
 571              		.thumb_func
 573              	I2C_RequestMemoryWrite:
 574              		@ args = 8, pretend = 0, frame = 0
 575              		@ frame_needed = 0, uses_anonymous_args = 0
 576 0000 2DE9F041 		push	{r4, r5, r6, r7, r8, lr}
 577 0004 82B0     		sub	sp, sp, #8
 578 0006 0446     		mov	r4, r0
 579 0008 9046     		mov	r8, r2
 580 000a 1D46     		mov	r5, r3
 581 000c 089E     		ldr	r6, [sp, #32]
 582 000e 099F     		ldr	r7, [sp, #36]
 583 0010 194B     		ldr	r3, .L97
ARM GAS  C:\Users\thewo\AppData\Local\Temp\ccUp1enP.s 			page 11


 584 0012 0093     		str	r3, [sp]
 585 0014 4FF08073 		mov	r3, #16777216
 586 0018 EAB2     		uxtb	r2, r5
 587 001a FFF7FEFF 		bl	I2C_TransferConfig
 588 001e 3A46     		mov	r2, r7
 589 0020 3146     		mov	r1, r6
 590 0022 2046     		mov	r0, r4
 591 0024 FFF7FEFF 		bl	I2C_WaitOnTXISFlagUntilTimeout
 592 0028 F8B9     		cbnz	r0, .L92
 593 002a 012D     		cmp	r5, #1
 594 002c 0ED1     		bne	.L90
 595 002e 2368     		ldr	r3, [r4]
 596 0030 5FFA88F2 		uxtb	r2, r8
 597 0034 9A62     		str	r2, [r3, #40]
 598              	.L91:
 599 0036 0097     		str	r7, [sp]
 600 0038 3346     		mov	r3, r6
 601 003a 0022     		movs	r2, #0
 602 003c 8021     		movs	r1, #128
 603 003e 2046     		mov	r0, r4
 604 0040 FFF7FEFF 		bl	I2C_WaitOnFlagUntilTimeout
 605 0044 A8B9     		cbnz	r0, .L96
 606              	.L89:
 607 0046 02B0     		add	sp, sp, #8
 608              		@ sp needed
 609 0048 BDE8F081 		pop	{r4, r5, r6, r7, r8, pc}
 610              	.L90:
 611 004c 2368     		ldr	r3, [r4]
 612 004e 4FEA1822 		lsr	r2, r8, #8
 613 0052 9A62     		str	r2, [r3, #40]
 614 0054 3A46     		mov	r2, r7
 615 0056 3146     		mov	r1, r6
 616 0058 2046     		mov	r0, r4
 617 005a FFF7FEFF 		bl	I2C_WaitOnTXISFlagUntilTimeout
 618 005e 30B9     		cbnz	r0, .L93
 619 0060 2368     		ldr	r3, [r4]
 620 0062 5FFA88F2 		uxtb	r2, r8
 621 0066 9A62     		str	r2, [r3, #40]
 622 0068 E5E7     		b	.L91
 623              	.L92:
 624 006a 0120     		movs	r0, #1
 625 006c EBE7     		b	.L89
 626              	.L93:
 627 006e 0120     		movs	r0, #1
 628 0070 E9E7     		b	.L89
 629              	.L96:
 630 0072 0120     		movs	r0, #1
 631 0074 E7E7     		b	.L89
 632              	.L98:
 633 0076 00BF     		.align	2
 634              	.L97:
 635 0078 00200080 		.word	-2147475456
 637              		.section	.text.I2C_RequestMemoryRead,"ax",%progbits
 638              		.align	1
 639              		.syntax unified
 640              		.thumb
 641              		.thumb_func
ARM GAS  C:\Users\thewo\AppData\Local\Temp\ccUp1enP.s 			page 12


 643              	I2C_RequestMemoryRead:
 644              		@ args = 8, pretend = 0, frame = 0
 645              		@ frame_needed = 0, uses_anonymous_args = 0
 646 0000 2DE9F041 		push	{r4, r5, r6, r7, r8, lr}
 647 0004 82B0     		sub	sp, sp, #8
 648 0006 0446     		mov	r4, r0
 649 0008 9046     		mov	r8, r2
 650 000a 1D46     		mov	r5, r3
 651 000c 089E     		ldr	r6, [sp, #32]
 652 000e 099F     		ldr	r7, [sp, #36]
 653 0010 184B     		ldr	r3, .L108
 654 0012 0093     		str	r3, [sp]
 655 0014 0023     		movs	r3, #0
 656 0016 EAB2     		uxtb	r2, r5
 657 0018 FFF7FEFF 		bl	I2C_TransferConfig
 658 001c 3A46     		mov	r2, r7
 659 001e 3146     		mov	r1, r6
 660 0020 2046     		mov	r0, r4
 661 0022 FFF7FEFF 		bl	I2C_WaitOnTXISFlagUntilTimeout
 662 0026 F8B9     		cbnz	r0, .L103
 663 0028 012D     		cmp	r5, #1
 664 002a 0ED1     		bne	.L101
 665 002c 2368     		ldr	r3, [r4]
 666 002e 5FFA88F2 		uxtb	r2, r8
 667 0032 9A62     		str	r2, [r3, #40]
 668              	.L102:
 669 0034 0097     		str	r7, [sp]
 670 0036 3346     		mov	r3, r6
 671 0038 0022     		movs	r2, #0
 672 003a 4021     		movs	r1, #64
 673 003c 2046     		mov	r0, r4
 674 003e FFF7FEFF 		bl	I2C_WaitOnFlagUntilTimeout
 675 0042 A8B9     		cbnz	r0, .L107
 676              	.L100:
 677 0044 02B0     		add	sp, sp, #8
 678              		@ sp needed
 679 0046 BDE8F081 		pop	{r4, r5, r6, r7, r8, pc}
 680              	.L101:
 681 004a 2368     		ldr	r3, [r4]
 682 004c 4FEA1822 		lsr	r2, r8, #8
 683 0050 9A62     		str	r2, [r3, #40]
 684 0052 3A46     		mov	r2, r7
 685 0054 3146     		mov	r1, r6
 686 0056 2046     		mov	r0, r4
 687 0058 FFF7FEFF 		bl	I2C_WaitOnTXISFlagUntilTimeout
 688 005c 30B9     		cbnz	r0, .L104
 689 005e 2368     		ldr	r3, [r4]
 690 0060 5FFA88F2 		uxtb	r2, r8
 691 0064 9A62     		str	r2, [r3, #40]
 692 0066 E5E7     		b	.L102
 693              	.L103:
 694 0068 0120     		movs	r0, #1
 695 006a EBE7     		b	.L100
 696              	.L104:
 697 006c 0120     		movs	r0, #1
 698 006e E9E7     		b	.L100
 699              	.L107:
ARM GAS  C:\Users\thewo\AppData\Local\Temp\ccUp1enP.s 			page 13


 700 0070 0120     		movs	r0, #1
 701 0072 E7E7     		b	.L100
 702              	.L109:
 703              		.align	2
 704              	.L108:
 705 0074 00200080 		.word	-2147475456
 707              		.section	.text.I2C_WaitOnSTOPFlagUntilTimeout,"ax",%progbits
 708              		.align	1
 709              		.syntax unified
 710              		.thumb
 711              		.thumb_func
 713              	I2C_WaitOnSTOPFlagUntilTimeout:
 714              		@ args = 0, pretend = 0, frame = 0
 715              		@ frame_needed = 0, uses_anonymous_args = 0
 716 0000 70B5     		push	{r4, r5, r6, lr}
 717 0002 0446     		mov	r4, r0
 718 0004 0D46     		mov	r5, r1
 719 0006 1646     		mov	r6, r2
 720 0008 04E0     		b	.L111
 721              	.L113:
 722 000a 2368     		ldr	r3, [r4]
 723 000c 9B69     		ldr	r3, [r3, #24]
 724 000e 13F0200F 		tst	r3, #32
 725 0012 12D0     		beq	.L117
 726              	.L111:
 727 0014 2368     		ldr	r3, [r4]
 728 0016 9B69     		ldr	r3, [r3, #24]
 729 0018 13F0200F 		tst	r3, #32
 730 001c 1BD1     		bne	.L118
 731 001e 3246     		mov	r2, r6
 732 0020 2946     		mov	r1, r5
 733 0022 2046     		mov	r0, r4
 734 0024 FFF7FEFF 		bl	I2C_IsErrorOccurred
 735 0028 B8B9     		cbnz	r0, .L115
 736 002a FFF7FEFF 		bl	HAL_GetTick
 737 002e 801B     		subs	r0, r0, r6
 738 0030 A842     		cmp	r0, r5
 739 0032 EAD8     		bhi	.L113
 740 0034 002D     		cmp	r5, #0
 741 0036 EDD1     		bne	.L111
 742 0038 E7E7     		b	.L113
 743              	.L117:
 744 003a 636C     		ldr	r3, [r4, #68]
 745 003c 43F02003 		orr	r3, r3, #32
 746 0040 6364     		str	r3, [r4, #68]
 747 0042 2023     		movs	r3, #32
 748 0044 84F84130 		strb	r3, [r4, #65]
 749 0048 0023     		movs	r3, #0
 750 004a 84F84230 		strb	r3, [r4, #66]
 751 004e 84F84030 		strb	r3, [r4, #64]
 752 0052 0120     		movs	r0, #1
 753 0054 00E0     		b	.L112
 754              	.L118:
 755 0056 0020     		movs	r0, #0
 756              	.L112:
 757 0058 70BD     		pop	{r4, r5, r6, pc}
 758              	.L115:
ARM GAS  C:\Users\thewo\AppData\Local\Temp\ccUp1enP.s 			page 14


 759 005a 0120     		movs	r0, #1
 760 005c FCE7     		b	.L112
 762              		.section	.text.I2C_WaitOnRXNEFlagUntilTimeout,"ax",%progbits
 763              		.align	1
 764              		.syntax unified
 765              		.thumb
 766              		.thumb_func
 768              	I2C_WaitOnRXNEFlagUntilTimeout:
 769              		@ args = 0, pretend = 0, frame = 0
 770              		@ frame_needed = 0, uses_anonymous_args = 0
 771 0000 F8B5     		push	{r3, r4, r5, r6, r7, lr}
 772 0002 0446     		mov	r4, r0
 773 0004 0E46     		mov	r6, r1
 774 0006 1746     		mov	r7, r2
 775 0008 0025     		movs	r5, #0
 776 000a 18E0     		b	.L120
 777              	.L123:
 778 000c 0023     		movs	r3, #0
 779 000e 6364     		str	r3, [r4, #68]
 780              	.L122:
 781 0010 FFF7FEFF 		bl	HAL_GetTick
 782 0014 C01B     		subs	r0, r0, r7
 783 0016 B042     		cmp	r0, r6
 784 0018 00D8     		bhi	.L124
 785 001a 86B9     		cbnz	r6, .L120
 786              	.L124:
 787 001c 7DB9     		cbnz	r5, .L120
 788 001e 2368     		ldr	r3, [r4]
 789 0020 9B69     		ldr	r3, [r3, #24]
 790 0022 13F0040F 		tst	r3, #4
 791 0026 0AD1     		bne	.L120
 792 0028 636C     		ldr	r3, [r4, #68]
 793 002a 43F02003 		orr	r3, r3, #32
 794 002e 6364     		str	r3, [r4, #68]
 795 0030 2023     		movs	r3, #32
 796 0032 84F84130 		strb	r3, [r4, #65]
 797 0036 0023     		movs	r3, #0
 798 0038 84F84030 		strb	r3, [r4, #64]
 799 003c 0125     		movs	r5, #1
 800              	.L120:
 801 003e 2368     		ldr	r3, [r4]
 802 0040 9B69     		ldr	r3, [r3, #24]
 803 0042 13F0040F 		tst	r3, #4
 804 0046 2ED1     		bne	.L126
 805 0048 6DBB     		cbnz	r5, .L126
 806 004a 3A46     		mov	r2, r7
 807 004c 3146     		mov	r1, r6
 808 004e 2046     		mov	r0, r4
 809 0050 FFF7FEFF 		bl	I2C_IsErrorOccurred
 810 0054 00B1     		cbz	r0, .L121
 811 0056 0125     		movs	r5, #1
 812              	.L121:
 813 0058 2368     		ldr	r3, [r4]
 814 005a 9A69     		ldr	r2, [r3, #24]
 815 005c 12F0200F 		tst	r2, #32
 816 0060 D6D0     		beq	.L122
 817 0062 002D     		cmp	r5, #0
ARM GAS  C:\Users\thewo\AppData\Local\Temp\ccUp1enP.s 			page 15


 818 0064 D4D1     		bne	.L122
 819 0066 9A69     		ldr	r2, [r3, #24]
 820 0068 9A69     		ldr	r2, [r3, #24]
 821 006a 12F0100F 		tst	r2, #16
 822 006e CDD0     		beq	.L123
 823 0070 1022     		movs	r2, #16
 824 0072 DA61     		str	r2, [r3, #28]
 825 0074 0423     		movs	r3, #4
 826 0076 6364     		str	r3, [r4, #68]
 827 0078 2368     		ldr	r3, [r4]
 828 007a 2022     		movs	r2, #32
 829 007c DA61     		str	r2, [r3, #28]
 830 007e 2168     		ldr	r1, [r4]
 831 0080 4B68     		ldr	r3, [r1, #4]
 832 0082 23F0FF73 		bic	r3, r3, #33423360
 833 0086 23F48B33 		bic	r3, r3, #71168
 834 008a 23F4FF73 		bic	r3, r3, #510
 835 008e 23F00103 		bic	r3, r3, #1
 836 0092 4B60     		str	r3, [r1, #4]
 837 0094 84F84120 		strb	r2, [r4, #65]
 838 0098 0023     		movs	r3, #0
 839 009a 84F84230 		strb	r3, [r4, #66]
 840 009e 84F84030 		strb	r3, [r4, #64]
 841 00a2 0125     		movs	r5, #1
 842 00a4 B4E7     		b	.L122
 843              	.L126:
 844 00a6 2846     		mov	r0, r5
 845 00a8 F8BD     		pop	{r3, r4, r5, r6, r7, pc}
 847              		.section	.text.HAL_I2C_MspInit,"ax",%progbits
 848              		.align	1
 849              		.weak	HAL_I2C_MspInit
 850              		.syntax unified
 851              		.thumb
 852              		.thumb_func
 854              	HAL_I2C_MspInit:
 855              		@ args = 0, pretend = 0, frame = 0
 856              		@ frame_needed = 0, uses_anonymous_args = 0
 857              		@ link register save eliminated.
 858 0000 7047     		bx	lr
 860              		.section	.text.HAL_I2C_Init,"ax",%progbits
 861              		.align	1
 862              		.global	HAL_I2C_Init
 863              		.syntax unified
 864              		.thumb
 865              		.thumb_func
 867              	HAL_I2C_Init:
 868              		@ args = 0, pretend = 0, frame = 0
 869              		@ frame_needed = 0, uses_anonymous_args = 0
 870 0000 0028     		cmp	r0, #0
 871 0002 00F0BF80 		beq	.L146
 872 0006 10B5     		push	{r4, lr}
 873 0008 0446     		mov	r4, r0
 874 000a 0368     		ldr	r3, [r0]
 875 000c 5E49     		ldr	r1, .L161
 876 000e 5F4A     		ldr	r2, .L161+4
 877 0010 8B42     		cmp	r3, r1
 878 0012 18BF     		it	ne
ARM GAS  C:\Users\thewo\AppData\Local\Temp\ccUp1enP.s 			page 16


 879 0014 9342     		cmpne	r3, r2
 880 0016 0ED0     		beq	.L133
 881 0018 02F58062 		add	r2, r2, #1024
 882 001c 9342     		cmp	r3, r2
 883 001e 0AD0     		beq	.L133
 884 0020 5B4A     		ldr	r2, .L161+8
 885 0022 9342     		cmp	r3, r2
 886 0024 07D0     		beq	.L133
 887 0026 5B4A     		ldr	r2, .L161+12
 888 0028 9342     		cmp	r3, r2
 889 002a 04D0     		beq	.L133
 890 002c 4FF40871 		mov	r1, #544
 891 0030 5948     		ldr	r0, .L161+16
 892 0032 FFF7FEFF 		bl	assert_failed
 893              	.L133:
 894 0036 A368     		ldr	r3, [r4, #8]
 895 0038 B3F5806F 		cmp	r3, #1024
 896 003c 66D2     		bcs	.L151
 897              	.L134:
 898 003e E368     		ldr	r3, [r4, #12]
 899 0040 013B     		subs	r3, r3, #1
 900 0042 012B     		cmp	r3, #1
 901 0044 68D8     		bhi	.L152
 902              	.L135:
 903 0046 2369     		ldr	r3, [r4, #16]
 904 0048 002B     		cmp	r3, #0
 905 004a 18BF     		it	ne
 906 004c B3F5004F 		cmpne	r3, #32768
 907 0050 68D1     		bne	.L153
 908              	.L136:
 909 0052 6369     		ldr	r3, [r4, #20]
 910 0054 FF2B     		cmp	r3, #255
 911 0056 6BD8     		bhi	.L154
 912              	.L137:
 913 0058 A369     		ldr	r3, [r4, #24]
 914 005a 072B     		cmp	r3, #7
 915 005c 6ED8     		bhi	.L155
 916              	.L138:
 917 005e E369     		ldr	r3, [r4, #28]
 918 0060 002B     		cmp	r3, #0
 919 0062 18BF     		it	ne
 920 0064 B3F5002F 		cmpne	r3, #524288
 921 0068 6ED1     		bne	.L156
 922              	.L139:
 923 006a 236A     		ldr	r3, [r4, #32]
 924 006c 002B     		cmp	r3, #0
 925 006e 18BF     		it	ne
 926 0070 B3F5003F 		cmpne	r3, #131072
 927 0074 6ED1     		bne	.L157
 928              	.L140:
 929 0076 94F84130 		ldrb	r3, [r4, #65]	@ zero_extendqisi2
 930 007a 002B     		cmp	r3, #0
 931 007c 70D0     		beq	.L158
 932              	.L141:
 933 007e 2423     		movs	r3, #36
 934 0080 84F84130 		strb	r3, [r4, #65]
 935 0084 2268     		ldr	r2, [r4]
ARM GAS  C:\Users\thewo\AppData\Local\Temp\ccUp1enP.s 			page 17


 936 0086 1368     		ldr	r3, [r2]
 937 0088 23F00103 		bic	r3, r3, #1
 938 008c 1360     		str	r3, [r2]
 939 008e 6368     		ldr	r3, [r4, #4]
 940 0090 2268     		ldr	r2, [r4]
 941 0092 23F07063 		bic	r3, r3, #251658240
 942 0096 1361     		str	r3, [r2, #16]
 943 0098 2268     		ldr	r2, [r4]
 944 009a 9368     		ldr	r3, [r2, #8]
 945 009c 23F40043 		bic	r3, r3, #32768
 946 00a0 9360     		str	r3, [r2, #8]
 947 00a2 E368     		ldr	r3, [r4, #12]
 948 00a4 012B     		cmp	r3, #1
 949 00a6 61D0     		beq	.L159
 950 00a8 A368     		ldr	r3, [r4, #8]
 951 00aa 2268     		ldr	r2, [r4]
 952 00ac 43F40443 		orr	r3, r3, #33792
 953 00b0 9360     		str	r3, [r2, #8]
 954              	.L143:
 955 00b2 E368     		ldr	r3, [r4, #12]
 956 00b4 022B     		cmp	r3, #2
 957 00b6 5FD0     		beq	.L160
 958 00b8 2268     		ldr	r2, [r4]
 959 00ba 5368     		ldr	r3, [r2, #4]
 960 00bc 23F40063 		bic	r3, r3, #2048
 961 00c0 5360     		str	r3, [r2, #4]
 962              	.L145:
 963 00c2 2268     		ldr	r2, [r4]
 964 00c4 5168     		ldr	r1, [r2, #4]
 965 00c6 354B     		ldr	r3, .L161+20
 966 00c8 0B43     		orrs	r3, r3, r1
 967 00ca 5360     		str	r3, [r2, #4]
 968 00cc 2268     		ldr	r2, [r4]
 969 00ce D368     		ldr	r3, [r2, #12]
 970 00d0 23F40043 		bic	r3, r3, #32768
 971 00d4 D360     		str	r3, [r2, #12]
 972 00d6 2369     		ldr	r3, [r4, #16]
 973 00d8 6269     		ldr	r2, [r4, #20]
 974 00da 1343     		orrs	r3, r3, r2
 975 00dc A169     		ldr	r1, [r4, #24]
 976 00de 2268     		ldr	r2, [r4]
 977 00e0 43EA0123 		orr	r3, r3, r1, lsl #8
 978 00e4 D360     		str	r3, [r2, #12]
 979 00e6 E369     		ldr	r3, [r4, #28]
 980 00e8 216A     		ldr	r1, [r4, #32]
 981 00ea 2268     		ldr	r2, [r4]
 982 00ec 0B43     		orrs	r3, r3, r1
 983 00ee 1360     		str	r3, [r2]
 984 00f0 2268     		ldr	r2, [r4]
 985 00f2 1368     		ldr	r3, [r2]
 986 00f4 43F00103 		orr	r3, r3, #1
 987 00f8 1360     		str	r3, [r2]
 988 00fa 0020     		movs	r0, #0
 989 00fc 6064     		str	r0, [r4, #68]
 990 00fe 2023     		movs	r3, #32
 991 0100 84F84130 		strb	r3, [r4, #65]
 992 0104 2063     		str	r0, [r4, #48]
ARM GAS  C:\Users\thewo\AppData\Local\Temp\ccUp1enP.s 			page 18


 993 0106 84F84200 		strb	r0, [r4, #66]
 994 010a 10BD     		pop	{r4, pc}
 995              	.L151:
 996 010c 40F22121 		movw	r1, #545
 997 0110 2148     		ldr	r0, .L161+16
 998 0112 FFF7FEFF 		bl	assert_failed
 999 0116 92E7     		b	.L134
 1000              	.L152:
 1001 0118 40F22221 		movw	r1, #546
 1002 011c 1E48     		ldr	r0, .L161+16
 1003 011e FFF7FEFF 		bl	assert_failed
 1004 0122 90E7     		b	.L135
 1005              	.L153:
 1006 0124 40F22321 		movw	r1, #547
 1007 0128 1B48     		ldr	r0, .L161+16
 1008 012a FFF7FEFF 		bl	assert_failed
 1009 012e 90E7     		b	.L136
 1010              	.L154:
 1011 0130 4FF40971 		mov	r1, #548
 1012 0134 1848     		ldr	r0, .L161+16
 1013 0136 FFF7FEFF 		bl	assert_failed
 1014 013a 8DE7     		b	.L137
 1015              	.L155:
 1016 013c 40F22521 		movw	r1, #549
 1017 0140 1548     		ldr	r0, .L161+16
 1018 0142 FFF7FEFF 		bl	assert_failed
 1019 0146 8AE7     		b	.L138
 1020              	.L156:
 1021 0148 40F22621 		movw	r1, #550
 1022 014c 1248     		ldr	r0, .L161+16
 1023 014e FFF7FEFF 		bl	assert_failed
 1024 0152 8AE7     		b	.L139
 1025              	.L157:
 1026 0154 40F22721 		movw	r1, #551
 1027 0158 0F48     		ldr	r0, .L161+16
 1028 015a FFF7FEFF 		bl	assert_failed
 1029 015e 8AE7     		b	.L140
 1030              	.L158:
 1031 0160 84F84030 		strb	r3, [r4, #64]
 1032 0164 2046     		mov	r0, r4
 1033 0166 FFF7FEFF 		bl	HAL_I2C_MspInit
 1034 016a 88E7     		b	.L141
 1035              	.L159:
 1036 016c A368     		ldr	r3, [r4, #8]
 1037 016e 2268     		ldr	r2, [r4]
 1038 0170 43F40043 		orr	r3, r3, #32768
 1039 0174 9360     		str	r3, [r2, #8]
 1040 0176 9CE7     		b	.L143
 1041              	.L160:
 1042 0178 2268     		ldr	r2, [r4]
 1043 017a 5368     		ldr	r3, [r2, #4]
 1044 017c 43F40063 		orr	r3, r3, #2048
 1045 0180 5360     		str	r3, [r2, #4]
 1046 0182 9EE7     		b	.L145
 1047              	.L146:
 1048 0184 0120     		movs	r0, #1
 1049 0186 7047     		bx	lr
ARM GAS  C:\Users\thewo\AppData\Local\Temp\ccUp1enP.s 			page 19


 1050              	.L162:
 1051              		.align	2
 1052              	.L161:
 1053 0188 00540040 		.word	1073763328
 1054 018c 00580040 		.word	1073764352
 1055 0190 001C0058 		.word	1476402176
 1056 0194 00640040 		.word	1073767424
 1057 0198 00000000 		.word	.LC0
 1058 019c 00800002 		.word	33587200
 1060              		.section	.text.HAL_I2C_MspDeInit,"ax",%progbits
 1061              		.align	1
 1062              		.weak	HAL_I2C_MspDeInit
 1063              		.syntax unified
 1064              		.thumb
 1065              		.thumb_func
 1067              	HAL_I2C_MspDeInit:
 1068              		@ args = 0, pretend = 0, frame = 0
 1069              		@ frame_needed = 0, uses_anonymous_args = 0
 1070              		@ link register save eliminated.
 1071 0000 7047     		bx	lr
 1073              		.section	.text.HAL_I2C_DeInit,"ax",%progbits
 1074              		.align	1
 1075              		.global	HAL_I2C_DeInit
 1076              		.syntax unified
 1077              		.thumb
 1078              		.thumb_func
 1080              	HAL_I2C_DeInit:
 1081              		@ args = 0, pretend = 0, frame = 0
 1082              		@ frame_needed = 0, uses_anonymous_args = 0
 1083 0000 60B3     		cbz	r0, .L167
 1084 0002 10B5     		push	{r4, lr}
 1085 0004 0446     		mov	r4, r0
 1086 0006 0368     		ldr	r3, [r0]
 1087 0008 1549     		ldr	r1, .L172
 1088 000a 164A     		ldr	r2, .L172+4
 1089 000c 8B42     		cmp	r3, r1
 1090 000e 18BF     		it	ne
 1091 0010 9342     		cmpne	r3, r2
 1092 0012 0ED0     		beq	.L166
 1093 0014 02F58062 		add	r2, r2, #1024
 1094 0018 9342     		cmp	r3, r2
 1095 001a 0AD0     		beq	.L166
 1096 001c 124A     		ldr	r2, .L172+8
 1097 001e 9342     		cmp	r3, r2
 1098 0020 07D0     		beq	.L166
 1099 0022 124A     		ldr	r2, .L172+12
 1100 0024 9342     		cmp	r3, r2
 1101 0026 04D0     		beq	.L166
 1102 0028 40F29321 		movw	r1, #659
 1103 002c 1048     		ldr	r0, .L172+16
 1104 002e FFF7FEFF 		bl	assert_failed
 1105              	.L166:
 1106 0032 2423     		movs	r3, #36
 1107 0034 84F84130 		strb	r3, [r4, #65]
 1108 0038 2268     		ldr	r2, [r4]
 1109 003a 1368     		ldr	r3, [r2]
 1110 003c 23F00103 		bic	r3, r3, #1
ARM GAS  C:\Users\thewo\AppData\Local\Temp\ccUp1enP.s 			page 20


 1111 0040 1360     		str	r3, [r2]
 1112 0042 2046     		mov	r0, r4
 1113 0044 FFF7FEFF 		bl	HAL_I2C_MspDeInit
 1114 0048 0020     		movs	r0, #0
 1115 004a 6064     		str	r0, [r4, #68]
 1116 004c 84F84100 		strb	r0, [r4, #65]
 1117 0050 2063     		str	r0, [r4, #48]
 1118 0052 84F84200 		strb	r0, [r4, #66]
 1119 0056 84F84000 		strb	r0, [r4, #64]
 1120 005a 10BD     		pop	{r4, pc}
 1121              	.L167:
 1122 005c 0120     		movs	r0, #1
 1123 005e 7047     		bx	lr
 1124              	.L173:
 1125              		.align	2
 1126              	.L172:
 1127 0060 00540040 		.word	1073763328
 1128 0064 00580040 		.word	1073764352
 1129 0068 001C0058 		.word	1476402176
 1130 006c 00640040 		.word	1073767424
 1131 0070 00000000 		.word	.LC0
 1133              		.section	.text.HAL_I2C_Master_Transmit,"ax",%progbits
 1134              		.align	1
 1135              		.global	HAL_I2C_Master_Transmit
 1136              		.syntax unified
 1137              		.thumb
 1138              		.thumb_func
 1140              	HAL_I2C_Master_Transmit:
 1141              		@ args = 4, pretend = 0, frame = 0
 1142              		@ frame_needed = 0, uses_anonymous_args = 0
 1143 0000 2DE9F047 		push	{r4, r5, r6, r7, r8, r9, r10, lr}
 1144 0004 82B0     		sub	sp, sp, #8
 1145 0006 0F46     		mov	r7, r1
 1146 0008 0A9E     		ldr	r6, [sp, #40]
 1147 000a 90F84110 		ldrb	r1, [r0, #65]	@ zero_extendqisi2
 1148 000e 2029     		cmp	r1, #32
 1149 0010 40F0B780 		bne	.L184
 1150 0014 0446     		mov	r4, r0
 1151 0016 9146     		mov	r9, r2
 1152 0018 9846     		mov	r8, r3
 1153 001a 90F84030 		ldrb	r3, [r0, #64]	@ zero_extendqisi2
 1154 001e 012B     		cmp	r3, #1
 1155 0020 00F0B380 		beq	.L185
 1156 0024 4FF0010A 		mov	r10, #1
 1157 0028 80F840A0 		strb	r10, [r0, #64]
 1158 002c FFF7FEFF 		bl	HAL_GetTick
 1159 0030 0546     		mov	r5, r0
 1160 0032 0090     		str	r0, [sp]
 1161 0034 1923     		movs	r3, #25
 1162 0036 5246     		mov	r2, r10
 1163 0038 4FF40041 		mov	r1, #32768
 1164 003c 2046     		mov	r0, r4
 1165 003e FFF7FEFF 		bl	I2C_WaitOnFlagUntilTimeout
 1166 0042 0028     		cmp	r0, #0
 1167 0044 40F0A380 		bne	.L186
 1168 0048 2123     		movs	r3, #33
 1169 004a 84F84130 		strb	r3, [r4, #65]
ARM GAS  C:\Users\thewo\AppData\Local\Temp\ccUp1enP.s 			page 21


 1170 004e 1023     		movs	r3, #16
 1171 0050 84F84230 		strb	r3, [r4, #66]
 1172 0054 0023     		movs	r3, #0
 1173 0056 6364     		str	r3, [r4, #68]
 1174 0058 C4F82490 		str	r9, [r4, #36]
 1175 005c A4F82A80 		strh	r8, [r4, #42]	@ movhi
 1176 0060 6363     		str	r3, [r4, #52]
 1177 0062 638D     		ldrh	r3, [r4, #42]
 1178 0064 9BB2     		uxth	r3, r3
 1179 0066 FF2B     		cmp	r3, #255
 1180 0068 1ED9     		bls	.L176
 1181 006a FF23     		movs	r3, #255
 1182 006c 2385     		strh	r3, [r4, #40]	@ movhi
 1183 006e 4FF08073 		mov	r3, #16777216
 1184              	.L177:
 1185 0072 228D     		ldrh	r2, [r4, #40]
 1186 0074 EAB1     		cbz	r2, .L178
 1187 0076 2268     		ldr	r2, [r4]
 1188 0078 99F80010 		ldrb	r1, [r9]	@ zero_extendqisi2
 1189 007c 9162     		str	r1, [r2, #40]
 1190 007e 626A     		ldr	r2, [r4, #36]
 1191 0080 0132     		adds	r2, r2, #1
 1192 0082 6262     		str	r2, [r4, #36]
 1193 0084 628D     		ldrh	r2, [r4, #42]
 1194 0086 92B2     		uxth	r2, r2
 1195 0088 013A     		subs	r2, r2, #1
 1196 008a 92B2     		uxth	r2, r2
 1197 008c 6285     		strh	r2, [r4, #42]	@ movhi
 1198 008e 228D     		ldrh	r2, [r4, #40]
 1199 0090 013A     		subs	r2, r2, #1
 1200 0092 92B2     		uxth	r2, r2
 1201 0094 2285     		strh	r2, [r4, #40]	@ movhi
 1202 0096 0132     		adds	r2, r2, #1
 1203 0098 4149     		ldr	r1, .L192
 1204 009a 0091     		str	r1, [sp]
 1205 009c D2B2     		uxtb	r2, r2
 1206 009e 3946     		mov	r1, r7
 1207 00a0 2046     		mov	r0, r4
 1208 00a2 FFF7FEFF 		bl	I2C_TransferConfig
 1209 00a6 18E0     		b	.L182
 1210              	.L176:
 1211 00a8 638D     		ldrh	r3, [r4, #42]
 1212 00aa 2385     		strh	r3, [r4, #40]	@ movhi
 1213 00ac 4FF00073 		mov	r3, #33554432
 1214 00b0 DFE7     		b	.L177
 1215              	.L178:
 1216 00b2 3B49     		ldr	r1, .L192
 1217 00b4 0091     		str	r1, [sp]
 1218 00b6 D2B2     		uxtb	r2, r2
 1219 00b8 3946     		mov	r1, r7
 1220 00ba 2046     		mov	r0, r4
 1221 00bc FFF7FEFF 		bl	I2C_TransferConfig
 1222 00c0 0BE0     		b	.L182
 1223              	.L181:
 1224 00c2 628D     		ldrh	r2, [r4, #42]
 1225 00c4 92B2     		uxth	r2, r2
 1226 00c6 2285     		strh	r2, [r4, #40]	@ movhi
ARM GAS  C:\Users\thewo\AppData\Local\Temp\ccUp1enP.s 			page 22


 1227 00c8 0023     		movs	r3, #0
 1228 00ca 0093     		str	r3, [sp]
 1229 00cc 4FF00073 		mov	r3, #33554432
 1230 00d0 D2B2     		uxtb	r2, r2
 1231 00d2 3946     		mov	r1, r7
 1232 00d4 2046     		mov	r0, r4
 1233 00d6 FFF7FEFF 		bl	I2C_TransferConfig
 1234              	.L182:
 1235 00da 638D     		ldrh	r3, [r4, #42]
 1236 00dc 9BB2     		uxth	r3, r3
 1237 00de 002B     		cmp	r3, #0
 1238 00e0 33D0     		beq	.L191
 1239 00e2 2A46     		mov	r2, r5
 1240 00e4 3146     		mov	r1, r6
 1241 00e6 2046     		mov	r0, r4
 1242 00e8 FFF7FEFF 		bl	I2C_WaitOnTXISFlagUntilTimeout
 1243 00ec 0028     		cmp	r0, #0
 1244 00ee 50D1     		bne	.L187
 1245 00f0 626A     		ldr	r2, [r4, #36]
 1246 00f2 2368     		ldr	r3, [r4]
 1247 00f4 1278     		ldrb	r2, [r2]	@ zero_extendqisi2
 1248 00f6 9A62     		str	r2, [r3, #40]
 1249 00f8 636A     		ldr	r3, [r4, #36]
 1250 00fa 0133     		adds	r3, r3, #1
 1251 00fc 6362     		str	r3, [r4, #36]
 1252 00fe 638D     		ldrh	r3, [r4, #42]
 1253 0100 9BB2     		uxth	r3, r3
 1254 0102 013B     		subs	r3, r3, #1
 1255 0104 9BB2     		uxth	r3, r3
 1256 0106 6385     		strh	r3, [r4, #42]	@ movhi
 1257 0108 238D     		ldrh	r3, [r4, #40]
 1258 010a 013B     		subs	r3, r3, #1
 1259 010c 9BB2     		uxth	r3, r3
 1260 010e 2385     		strh	r3, [r4, #40]	@ movhi
 1261 0110 628D     		ldrh	r2, [r4, #42]
 1262 0112 92B2     		uxth	r2, r2
 1263 0114 002A     		cmp	r2, #0
 1264 0116 E0D0     		beq	.L182
 1265 0118 002B     		cmp	r3, #0
 1266 011a DED1     		bne	.L182
 1267 011c 0095     		str	r5, [sp]
 1268 011e 3346     		mov	r3, r6
 1269 0120 0022     		movs	r2, #0
 1270 0122 8021     		movs	r1, #128
 1271 0124 2046     		mov	r0, r4
 1272 0126 FFF7FEFF 		bl	I2C_WaitOnFlagUntilTimeout
 1273 012a A0BB     		cbnz	r0, .L188
 1274 012c 638D     		ldrh	r3, [r4, #42]
 1275 012e 9BB2     		uxth	r3, r3
 1276 0130 FF2B     		cmp	r3, #255
 1277 0132 C6D9     		bls	.L181
 1278 0134 FF22     		movs	r2, #255
 1279 0136 2285     		strh	r2, [r4, #40]	@ movhi
 1280 0138 0023     		movs	r3, #0
 1281 013a 0093     		str	r3, [sp]
 1282 013c 4FF08073 		mov	r3, #16777216
 1283 0140 3946     		mov	r1, r7
ARM GAS  C:\Users\thewo\AppData\Local\Temp\ccUp1enP.s 			page 23


 1284 0142 2046     		mov	r0, r4
 1285 0144 FFF7FEFF 		bl	I2C_TransferConfig
 1286 0148 C7E7     		b	.L182
 1287              	.L191:
 1288 014a 2A46     		mov	r2, r5
 1289 014c 3146     		mov	r1, r6
 1290 014e 2046     		mov	r0, r4
 1291 0150 FFF7FEFF 		bl	I2C_WaitOnSTOPFlagUntilTimeout
 1292 0154 08BB     		cbnz	r0, .L189
 1293 0156 2368     		ldr	r3, [r4]
 1294 0158 2022     		movs	r2, #32
 1295 015a DA61     		str	r2, [r3, #28]
 1296 015c 2168     		ldr	r1, [r4]
 1297 015e 4B68     		ldr	r3, [r1, #4]
 1298 0160 23F0FF73 		bic	r3, r3, #33423360
 1299 0164 23F48B33 		bic	r3, r3, #71168
 1300 0168 23F4FF73 		bic	r3, r3, #510
 1301 016c 23F00103 		bic	r3, r3, #1
 1302 0170 4B60     		str	r3, [r1, #4]
 1303 0172 84F84120 		strb	r2, [r4, #65]
 1304 0176 0023     		movs	r3, #0
 1305 0178 84F84230 		strb	r3, [r4, #66]
 1306 017c 84F84030 		strb	r3, [r4, #64]
 1307 0180 00E0     		b	.L175
 1308              	.L184:
 1309 0182 0220     		movs	r0, #2
 1310              	.L175:
 1311 0184 02B0     		add	sp, sp, #8
 1312              		@ sp needed
 1313 0186 BDE8F087 		pop	{r4, r5, r6, r7, r8, r9, r10, pc}
 1314              	.L185:
 1315 018a 0220     		movs	r0, #2
 1316 018c FAE7     		b	.L175
 1317              	.L186:
 1318 018e 0120     		movs	r0, #1
 1319 0190 F8E7     		b	.L175
 1320              	.L187:
 1321 0192 0120     		movs	r0, #1
 1322 0194 F6E7     		b	.L175
 1323              	.L188:
 1324 0196 0120     		movs	r0, #1
 1325 0198 F4E7     		b	.L175
 1326              	.L189:
 1327 019a 0120     		movs	r0, #1
 1328 019c F2E7     		b	.L175
 1329              	.L193:
 1330 019e 00BF     		.align	2
 1331              	.L192:
 1332 01a0 00200080 		.word	-2147475456
 1334              		.section	.text.HAL_I2C_Master_Receive,"ax",%progbits
 1335              		.align	1
 1336              		.global	HAL_I2C_Master_Receive
 1337              		.syntax unified
 1338              		.thumb
 1339              		.thumb_func
 1341              	HAL_I2C_Master_Receive:
 1342              		@ args = 4, pretend = 0, frame = 0
ARM GAS  C:\Users\thewo\AppData\Local\Temp\ccUp1enP.s 			page 24


 1343              		@ frame_needed = 0, uses_anonymous_args = 0
 1344 0000 2DE9F047 		push	{r4, r5, r6, r7, r8, r9, r10, lr}
 1345 0004 82B0     		sub	sp, sp, #8
 1346 0006 0F46     		mov	r7, r1
 1347 0008 0A9E     		ldr	r6, [sp, #40]
 1348 000a 90F84110 		ldrb	r1, [r0, #65]	@ zero_extendqisi2
 1349 000e 2029     		cmp	r1, #32
 1350 0010 40F0A280 		bne	.L202
 1351 0014 0446     		mov	r4, r0
 1352 0016 9146     		mov	r9, r2
 1353 0018 9846     		mov	r8, r3
 1354 001a 90F84030 		ldrb	r3, [r0, #64]	@ zero_extendqisi2
 1355 001e 012B     		cmp	r3, #1
 1356 0020 00F09E80 		beq	.L203
 1357 0024 4FF0010A 		mov	r10, #1
 1358 0028 80F840A0 		strb	r10, [r0, #64]
 1359 002c FFF7FEFF 		bl	HAL_GetTick
 1360 0030 0546     		mov	r5, r0
 1361 0032 0090     		str	r0, [sp]
 1362 0034 1923     		movs	r3, #25
 1363 0036 5246     		mov	r2, r10
 1364 0038 4FF40041 		mov	r1, #32768
 1365 003c 2046     		mov	r0, r4
 1366 003e FFF7FEFF 		bl	I2C_WaitOnFlagUntilTimeout
 1367 0042 0028     		cmp	r0, #0
 1368 0044 40F08E80 		bne	.L204
 1369 0048 2223     		movs	r3, #34
 1370 004a 84F84130 		strb	r3, [r4, #65]
 1371 004e 1023     		movs	r3, #16
 1372 0050 84F84230 		strb	r3, [r4, #66]
 1373 0054 0023     		movs	r3, #0
 1374 0056 6364     		str	r3, [r4, #68]
 1375 0058 C4F82490 		str	r9, [r4, #36]
 1376 005c A4F82A80 		strh	r8, [r4, #42]	@ movhi
 1377 0060 6363     		str	r3, [r4, #52]
 1378 0062 638D     		ldrh	r3, [r4, #42]
 1379 0064 9BB2     		uxth	r3, r3
 1380 0066 FF2B     		cmp	r3, #255
 1381 0068 0AD9     		bls	.L196
 1382 006a FF22     		movs	r2, #255
 1383 006c 2285     		strh	r2, [r4, #40]	@ movhi
 1384 006e 414B     		ldr	r3, .L210
 1385 0070 0093     		str	r3, [sp]
 1386 0072 4FF08073 		mov	r3, #16777216
 1387 0076 3946     		mov	r1, r7
 1388 0078 2046     		mov	r0, r4
 1389 007a FFF7FEFF 		bl	I2C_TransferConfig
 1390 007e 18E0     		b	.L200
 1391              	.L196:
 1392 0080 628D     		ldrh	r2, [r4, #42]
 1393 0082 92B2     		uxth	r2, r2
 1394 0084 2285     		strh	r2, [r4, #40]	@ movhi
 1395 0086 3B4B     		ldr	r3, .L210
 1396 0088 0093     		str	r3, [sp]
 1397 008a 4FF00073 		mov	r3, #33554432
 1398 008e D2B2     		uxtb	r2, r2
 1399 0090 3946     		mov	r1, r7
ARM GAS  C:\Users\thewo\AppData\Local\Temp\ccUp1enP.s 			page 25


 1400 0092 2046     		mov	r0, r4
 1401 0094 FFF7FEFF 		bl	I2C_TransferConfig
 1402 0098 0BE0     		b	.L200
 1403              	.L199:
 1404 009a 628D     		ldrh	r2, [r4, #42]
 1405 009c 92B2     		uxth	r2, r2
 1406 009e 2285     		strh	r2, [r4, #40]	@ movhi
 1407 00a0 0023     		movs	r3, #0
 1408 00a2 0093     		str	r3, [sp]
 1409 00a4 4FF00073 		mov	r3, #33554432
 1410 00a8 D2B2     		uxtb	r2, r2
 1411 00aa 3946     		mov	r1, r7
 1412 00ac 2046     		mov	r0, r4
 1413 00ae FFF7FEFF 		bl	I2C_TransferConfig
 1414              	.L200:
 1415 00b2 638D     		ldrh	r3, [r4, #42]
 1416 00b4 9BB2     		uxth	r3, r3
 1417 00b6 002B     		cmp	r3, #0
 1418 00b8 32D0     		beq	.L209
 1419 00ba 2A46     		mov	r2, r5
 1420 00bc 3146     		mov	r1, r6
 1421 00be 2046     		mov	r0, r4
 1422 00c0 FFF7FEFF 		bl	I2C_WaitOnRXNEFlagUntilTimeout
 1423 00c4 0028     		cmp	r0, #0
 1424 00c6 4FD1     		bne	.L205
 1425 00c8 2368     		ldr	r3, [r4]
 1426 00ca 5A6A     		ldr	r2, [r3, #36]
 1427 00cc 636A     		ldr	r3, [r4, #36]
 1428 00ce 1A70     		strb	r2, [r3]
 1429 00d0 636A     		ldr	r3, [r4, #36]
 1430 00d2 0133     		adds	r3, r3, #1
 1431 00d4 6362     		str	r3, [r4, #36]
 1432 00d6 228D     		ldrh	r2, [r4, #40]
 1433 00d8 013A     		subs	r2, r2, #1
 1434 00da 92B2     		uxth	r2, r2
 1435 00dc 2285     		strh	r2, [r4, #40]	@ movhi
 1436 00de 638D     		ldrh	r3, [r4, #42]
 1437 00e0 9BB2     		uxth	r3, r3
 1438 00e2 013B     		subs	r3, r3, #1
 1439 00e4 9BB2     		uxth	r3, r3
 1440 00e6 6385     		strh	r3, [r4, #42]	@ movhi
 1441 00e8 638D     		ldrh	r3, [r4, #42]
 1442 00ea 9BB2     		uxth	r3, r3
 1443 00ec 002B     		cmp	r3, #0
 1444 00ee E0D0     		beq	.L200
 1445 00f0 002A     		cmp	r2, #0
 1446 00f2 DED1     		bne	.L200
 1447 00f4 0095     		str	r5, [sp]
 1448 00f6 3346     		mov	r3, r6
 1449 00f8 8021     		movs	r1, #128
 1450 00fa 2046     		mov	r0, r4
 1451 00fc FFF7FEFF 		bl	I2C_WaitOnFlagUntilTimeout
 1452 0100 A0BB     		cbnz	r0, .L206
 1453 0102 638D     		ldrh	r3, [r4, #42]
 1454 0104 9BB2     		uxth	r3, r3
 1455 0106 FF2B     		cmp	r3, #255
 1456 0108 C7D9     		bls	.L199
ARM GAS  C:\Users\thewo\AppData\Local\Temp\ccUp1enP.s 			page 26


 1457 010a FF22     		movs	r2, #255
 1458 010c 2285     		strh	r2, [r4, #40]	@ movhi
 1459 010e 0023     		movs	r3, #0
 1460 0110 0093     		str	r3, [sp]
 1461 0112 4FF08073 		mov	r3, #16777216
 1462 0116 3946     		mov	r1, r7
 1463 0118 2046     		mov	r0, r4
 1464 011a FFF7FEFF 		bl	I2C_TransferConfig
 1465 011e C8E7     		b	.L200
 1466              	.L209:
 1467 0120 2A46     		mov	r2, r5
 1468 0122 3146     		mov	r1, r6
 1469 0124 2046     		mov	r0, r4
 1470 0126 FFF7FEFF 		bl	I2C_WaitOnSTOPFlagUntilTimeout
 1471 012a 08BB     		cbnz	r0, .L207
 1472 012c 2368     		ldr	r3, [r4]
 1473 012e 2022     		movs	r2, #32
 1474 0130 DA61     		str	r2, [r3, #28]
 1475 0132 2168     		ldr	r1, [r4]
 1476 0134 4B68     		ldr	r3, [r1, #4]
 1477 0136 23F0FF73 		bic	r3, r3, #33423360
 1478 013a 23F48B33 		bic	r3, r3, #71168
 1479 013e 23F4FF73 		bic	r3, r3, #510
 1480 0142 23F00103 		bic	r3, r3, #1
 1481 0146 4B60     		str	r3, [r1, #4]
 1482 0148 84F84120 		strb	r2, [r4, #65]
 1483 014c 0023     		movs	r3, #0
 1484 014e 84F84230 		strb	r3, [r4, #66]
 1485 0152 84F84030 		strb	r3, [r4, #64]
 1486 0156 00E0     		b	.L195
 1487              	.L202:
 1488 0158 0220     		movs	r0, #2
 1489              	.L195:
 1490 015a 02B0     		add	sp, sp, #8
 1491              		@ sp needed
 1492 015c BDE8F087 		pop	{r4, r5, r6, r7, r8, r9, r10, pc}
 1493              	.L203:
 1494 0160 0220     		movs	r0, #2
 1495 0162 FAE7     		b	.L195
 1496              	.L204:
 1497 0164 0120     		movs	r0, #1
 1498 0166 F8E7     		b	.L195
 1499              	.L205:
 1500 0168 0120     		movs	r0, #1
 1501 016a F6E7     		b	.L195
 1502              	.L206:
 1503 016c 0120     		movs	r0, #1
 1504 016e F4E7     		b	.L195
 1505              	.L207:
 1506 0170 0120     		movs	r0, #1
 1507 0172 F2E7     		b	.L195
 1508              	.L211:
 1509              		.align	2
 1510              	.L210:
 1511 0174 00240080 		.word	-2147474432
 1513              		.section	.text.HAL_I2C_Slave_Transmit,"ax",%progbits
 1514              		.align	1
ARM GAS  C:\Users\thewo\AppData\Local\Temp\ccUp1enP.s 			page 27


 1515              		.global	HAL_I2C_Slave_Transmit
 1516              		.syntax unified
 1517              		.thumb
 1518              		.thumb_func
 1520              	HAL_I2C_Slave_Transmit:
 1521              		@ args = 0, pretend = 0, frame = 0
 1522              		@ frame_needed = 0, uses_anonymous_args = 0
 1523 0000 2DE9F041 		push	{r4, r5, r6, r7, r8, lr}
 1524 0004 82B0     		sub	sp, sp, #8
 1525 0006 1D46     		mov	r5, r3
 1526 0008 90F84130 		ldrb	r3, [r0, #65]	@ zero_extendqisi2
 1527 000c 202B     		cmp	r3, #32
 1528 000e 40F0EA80 		bne	.L227
 1529 0012 0446     		mov	r4, r0
 1530 0014 8846     		mov	r8, r1
 1531 0016 1746     		mov	r7, r2
 1532 0018 002A     		cmp	r2, #0
 1533 001a 18BF     		it	ne
 1534 001c 0029     		cmpne	r1, #0
 1535 001e 55D0     		beq	.L230
 1536 0020 90F84030 		ldrb	r3, [r0, #64]	@ zero_extendqisi2
 1537 0024 012B     		cmp	r3, #1
 1538 0026 00F0E280 		beq	.L228
 1539 002a 0123     		movs	r3, #1
 1540 002c 80F84030 		strb	r3, [r0, #64]
 1541 0030 FFF7FEFF 		bl	HAL_GetTick
 1542 0034 0646     		mov	r6, r0
 1543 0036 2123     		movs	r3, #33
 1544 0038 84F84130 		strb	r3, [r4, #65]
 1545 003c 2023     		movs	r3, #32
 1546 003e 84F84230 		strb	r3, [r4, #66]
 1547 0042 0023     		movs	r3, #0
 1548 0044 6364     		str	r3, [r4, #68]
 1549 0046 C4F82480 		str	r8, [r4, #36]
 1550 004a 6785     		strh	r7, [r4, #42]	@ movhi
 1551 004c 6363     		str	r3, [r4, #52]
 1552 004e 2268     		ldr	r2, [r4]
 1553 0050 5368     		ldr	r3, [r2, #4]
 1554 0052 23F40043 		bic	r3, r3, #32768
 1555 0056 5360     		str	r3, [r2, #4]
 1556 0058 236A     		ldr	r3, [r4, #32]
 1557 005a B3F5003F 		cmp	r3, #131072
 1558 005e 3AD0     		beq	.L231
 1559              	.L215:
 1560 0060 0096     		str	r6, [sp]
 1561 0062 2B46     		mov	r3, r5
 1562 0064 0022     		movs	r2, #0
 1563 0066 0821     		movs	r1, #8
 1564 0068 2046     		mov	r0, r4
 1565 006a FFF7FEFF 		bl	I2C_WaitOnFlagUntilTimeout
 1566 006e 0028     		cmp	r0, #0
 1567 0070 3ED1     		bne	.L232
 1568 0072 2368     		ldr	r3, [r4]
 1569 0074 0822     		movs	r2, #8
 1570 0076 DA61     		str	r2, [r3, #28]
 1571 0078 E368     		ldr	r3, [r4, #12]
 1572 007a 022B     		cmp	r3, #2
ARM GAS  C:\Users\thewo\AppData\Local\Temp\ccUp1enP.s 			page 28


 1573 007c 42D0     		beq	.L233
 1574              	.L217:
 1575 007e 0096     		str	r6, [sp]
 1576 0080 2B46     		mov	r3, r5
 1577 0082 0022     		movs	r2, #0
 1578 0084 4FF48031 		mov	r1, #65536
 1579 0088 2046     		mov	r0, r4
 1580 008a FFF7FEFF 		bl	I2C_WaitOnFlagUntilTimeout
 1581 008e 0028     		cmp	r0, #0
 1582 0090 4ED1     		bne	.L234
 1583              	.L219:
 1584 0092 628D     		ldrh	r2, [r4, #42]
 1585 0094 92B2     		uxth	r2, r2
 1586 0096 002A     		cmp	r2, #0
 1587 0098 5BD0     		beq	.L235
 1588 009a 3246     		mov	r2, r6
 1589 009c 2946     		mov	r1, r5
 1590 009e 2046     		mov	r0, r4
 1591 00a0 FFF7FEFF 		bl	I2C_WaitOnTXISFlagUntilTimeout
 1592 00a4 0028     		cmp	r0, #0
 1593 00a6 4DD1     		bne	.L236
 1594 00a8 626A     		ldr	r2, [r4, #36]
 1595 00aa 2368     		ldr	r3, [r4]
 1596 00ac 1278     		ldrb	r2, [r2]	@ zero_extendqisi2
 1597 00ae 9A62     		str	r2, [r3, #40]
 1598 00b0 636A     		ldr	r3, [r4, #36]
 1599 00b2 0133     		adds	r3, r3, #1
 1600 00b4 6362     		str	r3, [r4, #36]
 1601 00b6 B4F82AC0 		ldrh	ip, [r4, #42]
 1602 00ba 1FFA8CFC 		uxth	ip, ip
 1603 00be 0CF1FF3C 		add	ip, ip, #-1
 1604 00c2 1FFA8CFC 		uxth	ip, ip
 1605 00c6 A4F82AC0 		strh	ip, [r4, #42]	@ movhi
 1606 00ca E2E7     		b	.L219
 1607              	.L230:
 1608 00cc 4FF40073 		mov	r3, #512
 1609 00d0 4364     		str	r3, [r0, #68]
 1610 00d2 0120     		movs	r0, #1
 1611 00d4 88E0     		b	.L213
 1612              	.L231:
 1613 00d6 626A     		ldr	r2, [r4, #36]
 1614 00d8 2368     		ldr	r3, [r4]
 1615 00da 1278     		ldrb	r2, [r2]	@ zero_extendqisi2
 1616 00dc 9A62     		str	r2, [r3, #40]
 1617 00de 636A     		ldr	r3, [r4, #36]
 1618 00e0 0133     		adds	r3, r3, #1
 1619 00e2 6362     		str	r3, [r4, #36]
 1620 00e4 638D     		ldrh	r3, [r4, #42]
 1621 00e6 9BB2     		uxth	r3, r3
 1622 00e8 013B     		subs	r3, r3, #1
 1623 00ea 9BB2     		uxth	r3, r3
 1624 00ec 6385     		strh	r3, [r4, #42]	@ movhi
 1625 00ee B7E7     		b	.L215
 1626              	.L232:
 1627 00f0 2268     		ldr	r2, [r4]
 1628 00f2 5368     		ldr	r3, [r2, #4]
 1629 00f4 43F40043 		orr	r3, r3, #32768
ARM GAS  C:\Users\thewo\AppData\Local\Temp\ccUp1enP.s 			page 29


 1630 00f8 5360     		str	r3, [r2, #4]
 1631 00fa 2046     		mov	r0, r4
 1632 00fc FFF7FEFF 		bl	I2C_Flush_TXDR
 1633 0100 0120     		movs	r0, #1
 1634 0102 71E0     		b	.L213
 1635              	.L233:
 1636 0104 0096     		str	r6, [sp]
 1637 0106 2B46     		mov	r3, r5
 1638 0108 0022     		movs	r2, #0
 1639 010a 0821     		movs	r1, #8
 1640 010c 2046     		mov	r0, r4
 1641 010e FFF7FEFF 		bl	I2C_WaitOnFlagUntilTimeout
 1642 0112 18B9     		cbnz	r0, .L237
 1643 0114 2368     		ldr	r3, [r4]
 1644 0116 0822     		movs	r2, #8
 1645 0118 DA61     		str	r2, [r3, #28]
 1646 011a B0E7     		b	.L217
 1647              	.L237:
 1648 011c 2268     		ldr	r2, [r4]
 1649 011e 5368     		ldr	r3, [r2, #4]
 1650 0120 43F40043 		orr	r3, r3, #32768
 1651 0124 5360     		str	r3, [r2, #4]
 1652 0126 2046     		mov	r0, r4
 1653 0128 FFF7FEFF 		bl	I2C_Flush_TXDR
 1654 012c 0120     		movs	r0, #1
 1655 012e 5BE0     		b	.L213
 1656              	.L234:
 1657 0130 2268     		ldr	r2, [r4]
 1658 0132 5368     		ldr	r3, [r2, #4]
 1659 0134 43F40043 		orr	r3, r3, #32768
 1660 0138 5360     		str	r3, [r2, #4]
 1661 013a 2046     		mov	r0, r4
 1662 013c FFF7FEFF 		bl	I2C_Flush_TXDR
 1663 0140 0120     		movs	r0, #1
 1664 0142 51E0     		b	.L213
 1665              	.L236:
 1666 0144 2268     		ldr	r2, [r4]
 1667 0146 5368     		ldr	r3, [r2, #4]
 1668 0148 43F40043 		orr	r3, r3, #32768
 1669 014c 5360     		str	r3, [r2, #4]
 1670 014e 0120     		movs	r0, #1
 1671 0150 4AE0     		b	.L213
 1672              	.L235:
 1673 0152 0096     		str	r6, [sp]
 1674 0154 2B46     		mov	r3, r5
 1675 0156 1021     		movs	r1, #16
 1676 0158 2046     		mov	r0, r4
 1677 015a FFF7FEFF 		bl	I2C_WaitOnFlagUntilTimeout
 1678 015e E8B1     		cbz	r0, .L222
 1679 0160 638D     		ldrh	r3, [r4, #42]
 1680 0162 9BB2     		uxth	r3, r3
 1681 0164 626C     		ldr	r2, [r4, #68]
 1682 0166 042A     		cmp	r2, #4
 1683 0168 11D1     		bne	.L223
 1684 016a 83B9     		cbnz	r3, .L223
 1685 016c 6364     		str	r3, [r4, #68]
 1686              	.L224:
ARM GAS  C:\Users\thewo\AppData\Local\Temp\ccUp1enP.s 			page 30


 1687 016e 0096     		str	r6, [sp]
 1688 0170 2B46     		mov	r3, r5
 1689 0172 0122     		movs	r2, #1
 1690 0174 4FF40041 		mov	r1, #32768
 1691 0178 2046     		mov	r0, r4
 1692 017a FFF7FEFF 		bl	I2C_WaitOnFlagUntilTimeout
 1693 017e 20B3     		cbz	r0, .L226
 1694 0180 2268     		ldr	r2, [r4]
 1695 0182 5368     		ldr	r3, [r2, #4]
 1696 0184 43F40043 		orr	r3, r3, #32768
 1697 0188 5360     		str	r3, [r2, #4]
 1698 018a 0120     		movs	r0, #1
 1699 018c 2CE0     		b	.L213
 1700              	.L223:
 1701 018e 2268     		ldr	r2, [r4]
 1702 0190 5368     		ldr	r3, [r2, #4]
 1703 0192 43F40043 		orr	r3, r3, #32768
 1704 0196 5360     		str	r3, [r2, #4]
 1705 0198 0120     		movs	r0, #1
 1706 019a 25E0     		b	.L213
 1707              	.L222:
 1708 019c 2046     		mov	r0, r4
 1709 019e FFF7FEFF 		bl	I2C_Flush_TXDR
 1710 01a2 2368     		ldr	r3, [r4]
 1711 01a4 1022     		movs	r2, #16
 1712 01a6 DA61     		str	r2, [r3, #28]
 1713 01a8 3246     		mov	r2, r6
 1714 01aa 2946     		mov	r1, r5
 1715 01ac 2046     		mov	r0, r4
 1716 01ae FFF7FEFF 		bl	I2C_WaitOnSTOPFlagUntilTimeout
 1717 01b2 18B9     		cbnz	r0, .L238
 1718 01b4 2368     		ldr	r3, [r4]
 1719 01b6 2022     		movs	r2, #32
 1720 01b8 DA61     		str	r2, [r3, #28]
 1721 01ba D8E7     		b	.L224
 1722              	.L238:
 1723 01bc 2268     		ldr	r2, [r4]
 1724 01be 5368     		ldr	r3, [r2, #4]
 1725 01c0 43F40043 		orr	r3, r3, #32768
 1726 01c4 5360     		str	r3, [r2, #4]
 1727 01c6 0120     		movs	r0, #1
 1728 01c8 0EE0     		b	.L213
 1729              	.L226:
 1730 01ca 2268     		ldr	r2, [r4]
 1731 01cc 5368     		ldr	r3, [r2, #4]
 1732 01ce 43F40043 		orr	r3, r3, #32768
 1733 01d2 5360     		str	r3, [r2, #4]
 1734 01d4 2023     		movs	r3, #32
 1735 01d6 84F84130 		strb	r3, [r4, #65]
 1736 01da 0023     		movs	r3, #0
 1737 01dc 84F84230 		strb	r3, [r4, #66]
 1738 01e0 84F84030 		strb	r3, [r4, #64]
 1739 01e4 00E0     		b	.L213
 1740              	.L227:
 1741 01e6 0220     		movs	r0, #2
 1742              	.L213:
 1743 01e8 02B0     		add	sp, sp, #8
ARM GAS  C:\Users\thewo\AppData\Local\Temp\ccUp1enP.s 			page 31


 1744              		@ sp needed
 1745 01ea BDE8F081 		pop	{r4, r5, r6, r7, r8, pc}
 1746              	.L228:
 1747 01ee 0220     		movs	r0, #2
 1748 01f0 FAE7     		b	.L213
 1750              		.section	.text.HAL_I2C_Slave_Receive,"ax",%progbits
 1751              		.align	1
 1752              		.global	HAL_I2C_Slave_Receive
 1753              		.syntax unified
 1754              		.thumb
 1755              		.thumb_func
 1757              	HAL_I2C_Slave_Receive:
 1758              		@ args = 0, pretend = 0, frame = 0
 1759              		@ frame_needed = 0, uses_anonymous_args = 0
 1760 0000 2DE9F041 		push	{r4, r5, r6, r7, r8, lr}
 1761 0004 82B0     		sub	sp, sp, #8
 1762 0006 1D46     		mov	r5, r3
 1763 0008 90F84130 		ldrb	r3, [r0, #65]	@ zero_extendqisi2
 1764 000c 202B     		cmp	r3, #32
 1765 000e 40F0B280 		bne	.L249
 1766 0012 0446     		mov	r4, r0
 1767 0014 8846     		mov	r8, r1
 1768 0016 1746     		mov	r7, r2
 1769 0018 002A     		cmp	r2, #0
 1770 001a 18BF     		it	ne
 1771 001c 0029     		cmpne	r1, #0
 1772 001e 2BD0     		beq	.L252
 1773 0020 90F84030 		ldrb	r3, [r0, #64]	@ zero_extendqisi2
 1774 0024 012B     		cmp	r3, #1
 1775 0026 00F0AA80 		beq	.L250
 1776 002a 0123     		movs	r3, #1
 1777 002c 80F84030 		strb	r3, [r0, #64]
 1778 0030 FFF7FEFF 		bl	HAL_GetTick
 1779 0034 0646     		mov	r6, r0
 1780 0036 2223     		movs	r3, #34
 1781 0038 84F84130 		strb	r3, [r4, #65]
 1782 003c 2023     		movs	r3, #32
 1783 003e 84F84230 		strb	r3, [r4, #66]
 1784 0042 0022     		movs	r2, #0
 1785 0044 6264     		str	r2, [r4, #68]
 1786 0046 C4F82480 		str	r8, [r4, #36]
 1787 004a 6785     		strh	r7, [r4, #42]	@ movhi
 1788 004c 638D     		ldrh	r3, [r4, #42]
 1789 004e 2385     		strh	r3, [r4, #40]	@ movhi
 1790 0050 6263     		str	r2, [r4, #52]
 1791 0052 2168     		ldr	r1, [r4]
 1792 0054 4B68     		ldr	r3, [r1, #4]
 1793 0056 23F40043 		bic	r3, r3, #32768
 1794 005a 4B60     		str	r3, [r1, #4]
 1795 005c 0090     		str	r0, [sp]
 1796 005e 2B46     		mov	r3, r5
 1797 0060 0821     		movs	r1, #8
 1798 0062 2046     		mov	r0, r4
 1799 0064 FFF7FEFF 		bl	I2C_WaitOnFlagUntilTimeout
 1800 0068 58B1     		cbz	r0, .L242
 1801 006a 2268     		ldr	r2, [r4]
 1802 006c 5368     		ldr	r3, [r2, #4]
ARM GAS  C:\Users\thewo\AppData\Local\Temp\ccUp1enP.s 			page 32


 1803 006e 43F40043 		orr	r3, r3, #32768
 1804 0072 5360     		str	r3, [r2, #4]
 1805 0074 0120     		movs	r0, #1
 1806 0076 7FE0     		b	.L240
 1807              	.L252:
 1808 0078 4FF40073 		mov	r3, #512
 1809 007c 4364     		str	r3, [r0, #68]
 1810 007e 0120     		movs	r0, #1
 1811 0080 7AE0     		b	.L240
 1812              	.L242:
 1813 0082 2368     		ldr	r3, [r4]
 1814 0084 0822     		movs	r2, #8
 1815 0086 DA61     		str	r2, [r3, #28]
 1816 0088 0096     		str	r6, [sp]
 1817 008a 2B46     		mov	r3, r5
 1818 008c 0122     		movs	r2, #1
 1819 008e 4FF48031 		mov	r1, #65536
 1820 0092 2046     		mov	r0, r4
 1821 0094 FFF7FEFF 		bl	I2C_WaitOnFlagUntilTimeout
 1822 0098 F0B9     		cbnz	r0, .L253
 1823              	.L243:
 1824 009a 638D     		ldrh	r3, [r4, #42]
 1825 009c 9BB2     		uxth	r3, r3
 1826 009e 002B     		cmp	r3, #0
 1827 00a0 3BD0     		beq	.L254
 1828 00a2 3246     		mov	r2, r6
 1829 00a4 2946     		mov	r1, r5
 1830 00a6 2046     		mov	r0, r4
 1831 00a8 FFF7FEFF 		bl	I2C_WaitOnRXNEFlagUntilTimeout
 1832 00ac D8B9     		cbnz	r0, .L255
 1833 00ae 2368     		ldr	r3, [r4]
 1834 00b0 5A6A     		ldr	r2, [r3, #36]
 1835 00b2 636A     		ldr	r3, [r4, #36]
 1836 00b4 1A70     		strb	r2, [r3]
 1837 00b6 636A     		ldr	r3, [r4, #36]
 1838 00b8 0133     		adds	r3, r3, #1
 1839 00ba 6362     		str	r3, [r4, #36]
 1840 00bc B4F82AC0 		ldrh	ip, [r4, #42]
 1841 00c0 1FFA8CFC 		uxth	ip, ip
 1842 00c4 0CF1FF3C 		add	ip, ip, #-1
 1843 00c8 1FFA8CFC 		uxth	ip, ip
 1844 00cc A4F82AC0 		strh	ip, [r4, #42]	@ movhi
 1845 00d0 238D     		ldrh	r3, [r4, #40]
 1846 00d2 013B     		subs	r3, r3, #1
 1847 00d4 2385     		strh	r3, [r4, #40]	@ movhi
 1848 00d6 E0E7     		b	.L243
 1849              	.L253:
 1850 00d8 2268     		ldr	r2, [r4]
 1851 00da 5368     		ldr	r3, [r2, #4]
 1852 00dc 43F40043 		orr	r3, r3, #32768
 1853 00e0 5360     		str	r3, [r2, #4]
 1854 00e2 0120     		movs	r0, #1
 1855 00e4 48E0     		b	.L240
 1856              	.L255:
 1857 00e6 2268     		ldr	r2, [r4]
 1858 00e8 5368     		ldr	r3, [r2, #4]
 1859 00ea 43F40043 		orr	r3, r3, #32768
ARM GAS  C:\Users\thewo\AppData\Local\Temp\ccUp1enP.s 			page 33


 1860 00ee 5360     		str	r3, [r2, #4]
 1861 00f0 2368     		ldr	r3, [r4]
 1862 00f2 9A69     		ldr	r2, [r3, #24]
 1863 00f4 12F0040F 		tst	r2, #4
 1864 00f8 0DD0     		beq	.L245
 1865 00fa 5A6A     		ldr	r2, [r3, #36]
 1866 00fc 636A     		ldr	r3, [r4, #36]
 1867 00fe 1A70     		strb	r2, [r3]
 1868 0100 636A     		ldr	r3, [r4, #36]
 1869 0102 0133     		adds	r3, r3, #1
 1870 0104 6362     		str	r3, [r4, #36]
 1871 0106 638D     		ldrh	r3, [r4, #42]
 1872 0108 9BB2     		uxth	r3, r3
 1873 010a 013B     		subs	r3, r3, #1
 1874 010c 9BB2     		uxth	r3, r3
 1875 010e 6385     		strh	r3, [r4, #42]	@ movhi
 1876 0110 238D     		ldrh	r3, [r4, #40]
 1877 0112 013B     		subs	r3, r3, #1
 1878 0114 2385     		strh	r3, [r4, #40]	@ movhi
 1879              	.L245:
 1880 0116 0120     		movs	r0, #1
 1881 0118 2EE0     		b	.L240
 1882              	.L254:
 1883 011a 3246     		mov	r2, r6
 1884 011c 2946     		mov	r1, r5
 1885 011e 2046     		mov	r0, r4
 1886 0120 FFF7FEFF 		bl	I2C_WaitOnSTOPFlagUntilTimeout
 1887 0124 30B1     		cbz	r0, .L247
 1888 0126 2268     		ldr	r2, [r4]
 1889 0128 5368     		ldr	r3, [r2, #4]
 1890 012a 43F40043 		orr	r3, r3, #32768
 1891 012e 5360     		str	r3, [r2, #4]
 1892 0130 0120     		movs	r0, #1
 1893 0132 21E0     		b	.L240
 1894              	.L247:
 1895 0134 2368     		ldr	r3, [r4]
 1896 0136 2022     		movs	r2, #32
 1897 0138 DA61     		str	r2, [r3, #28]
 1898 013a 0096     		str	r6, [sp]
 1899 013c 2B46     		mov	r3, r5
 1900 013e 0122     		movs	r2, #1
 1901 0140 4FF40041 		mov	r1, #32768
 1902 0144 2046     		mov	r0, r4
 1903 0146 FFF7FEFF 		bl	I2C_WaitOnFlagUntilTimeout
 1904 014a 30B1     		cbz	r0, .L248
 1905 014c 2268     		ldr	r2, [r4]
 1906 014e 5368     		ldr	r3, [r2, #4]
 1907 0150 43F40043 		orr	r3, r3, #32768
 1908 0154 5360     		str	r3, [r2, #4]
 1909 0156 0120     		movs	r0, #1
 1910 0158 0EE0     		b	.L240
 1911              	.L248:
 1912 015a 2268     		ldr	r2, [r4]
 1913 015c 5368     		ldr	r3, [r2, #4]
 1914 015e 43F40043 		orr	r3, r3, #32768
 1915 0162 5360     		str	r3, [r2, #4]
 1916 0164 2023     		movs	r3, #32
ARM GAS  C:\Users\thewo\AppData\Local\Temp\ccUp1enP.s 			page 34


 1917 0166 84F84130 		strb	r3, [r4, #65]
 1918 016a 0023     		movs	r3, #0
 1919 016c 84F84230 		strb	r3, [r4, #66]
 1920 0170 84F84030 		strb	r3, [r4, #64]
 1921 0174 00E0     		b	.L240
 1922              	.L249:
 1923 0176 0220     		movs	r0, #2
 1924              	.L240:
 1925 0178 02B0     		add	sp, sp, #8
 1926              		@ sp needed
 1927 017a BDE8F081 		pop	{r4, r5, r6, r7, r8, pc}
 1928              	.L250:
 1929 017e 0220     		movs	r0, #2
 1930 0180 FAE7     		b	.L240
 1932              		.section	.text.HAL_I2C_Master_Transmit_IT,"ax",%progbits
 1933              		.align	1
 1934              		.global	HAL_I2C_Master_Transmit_IT
 1935              		.syntax unified
 1936              		.thumb
 1937              		.thumb_func
 1939              	HAL_I2C_Master_Transmit_IT:
 1940              		@ args = 0, pretend = 0, frame = 0
 1941              		@ frame_needed = 0, uses_anonymous_args = 0
 1942 0000 30B5     		push	{r4, r5, lr}
 1943 0002 83B0     		sub	sp, sp, #12
 1944 0004 0446     		mov	r4, r0
 1945 0006 90F84100 		ldrb	r0, [r0, #65]	@ zero_extendqisi2
 1946 000a 2028     		cmp	r0, #32
 1947 000c 4ED1     		bne	.L262
 1948 000e 2068     		ldr	r0, [r4]
 1949 0010 8569     		ldr	r5, [r0, #24]
 1950 0012 15F4004F 		tst	r5, #32768
 1951 0016 4BD1     		bne	.L263
 1952 0018 94F84050 		ldrb	r5, [r4, #64]	@ zero_extendqisi2
 1953 001c 012D     		cmp	r5, #1
 1954 001e 49D0     		beq	.L264
 1955 0020 0125     		movs	r5, #1
 1956 0022 84F84050 		strb	r5, [r4, #64]
 1957 0026 2125     		movs	r5, #33
 1958 0028 84F84150 		strb	r5, [r4, #65]
 1959 002c 1025     		movs	r5, #16
 1960 002e 84F84250 		strb	r5, [r4, #66]
 1961 0032 0025     		movs	r5, #0
 1962 0034 6564     		str	r5, [r4, #68]
 1963 0036 6262     		str	r2, [r4, #36]
 1964 0038 6385     		strh	r3, [r4, #42]	@ movhi
 1965 003a 1F4B     		ldr	r3, .L266
 1966 003c E362     		str	r3, [r4, #44]
 1967 003e 1F4B     		ldr	r3, .L266+4
 1968 0040 6363     		str	r3, [r4, #52]
 1969 0042 638D     		ldrh	r3, [r4, #42]
 1970 0044 9BB2     		uxth	r3, r3
 1971 0046 FF2B     		cmp	r3, #255
 1972 0048 24D9     		bls	.L258
 1973 004a FF23     		movs	r3, #255
 1974 004c 2385     		strh	r3, [r4, #40]	@ movhi
 1975 004e 4FF08073 		mov	r3, #16777216
ARM GAS  C:\Users\thewo\AppData\Local\Temp\ccUp1enP.s 			page 35


 1976              	.L259:
 1977 0052 258D     		ldrh	r5, [r4, #40]
 1978 0054 1DB3     		cbz	r5, .L260
 1979 0056 1278     		ldrb	r2, [r2]	@ zero_extendqisi2
 1980 0058 8262     		str	r2, [r0, #40]
 1981 005a 626A     		ldr	r2, [r4, #36]
 1982 005c 0132     		adds	r2, r2, #1
 1983 005e 6262     		str	r2, [r4, #36]
 1984 0060 628D     		ldrh	r2, [r4, #42]
 1985 0062 92B2     		uxth	r2, r2
 1986 0064 013A     		subs	r2, r2, #1
 1987 0066 92B2     		uxth	r2, r2
 1988 0068 6285     		strh	r2, [r4, #42]	@ movhi
 1989 006a 228D     		ldrh	r2, [r4, #40]
 1990 006c 013A     		subs	r2, r2, #1
 1991 006e 92B2     		uxth	r2, r2
 1992 0070 2285     		strh	r2, [r4, #40]	@ movhi
 1993 0072 0132     		adds	r2, r2, #1
 1994 0074 1248     		ldr	r0, .L266+8
 1995 0076 0090     		str	r0, [sp]
 1996 0078 D2B2     		uxtb	r2, r2
 1997 007a 2046     		mov	r0, r4
 1998 007c FFF7FEFF 		bl	I2C_TransferConfig
 1999              	.L261:
 2000 0080 0025     		movs	r5, #0
 2001 0082 84F84050 		strb	r5, [r4, #64]
 2002 0086 0121     		movs	r1, #1
 2003 0088 2046     		mov	r0, r4
 2004 008a FFF7FEFF 		bl	I2C_Enable_IRQ
 2005 008e 2846     		mov	r0, r5
 2006              	.L257:
 2007 0090 03B0     		add	sp, sp, #12
 2008              		@ sp needed
 2009 0092 30BD     		pop	{r4, r5, pc}
 2010              	.L258:
 2011 0094 638D     		ldrh	r3, [r4, #42]
 2012 0096 2385     		strh	r3, [r4, #40]	@ movhi
 2013 0098 4FF00073 		mov	r3, #33554432
 2014 009c D9E7     		b	.L259
 2015              	.L260:
 2016 009e 084A     		ldr	r2, .L266+8
 2017 00a0 0092     		str	r2, [sp]
 2018 00a2 EAB2     		uxtb	r2, r5
 2019 00a4 2046     		mov	r0, r4
 2020 00a6 FFF7FEFF 		bl	I2C_TransferConfig
 2021 00aa E9E7     		b	.L261
 2022              	.L262:
 2023 00ac 0220     		movs	r0, #2
 2024 00ae EFE7     		b	.L257
 2025              	.L263:
 2026 00b0 0220     		movs	r0, #2
 2027 00b2 EDE7     		b	.L257
 2028              	.L264:
 2029 00b4 0220     		movs	r0, #2
 2030 00b6 EBE7     		b	.L257
 2031              	.L267:
 2032              		.align	2
ARM GAS  C:\Users\thewo\AppData\Local\Temp\ccUp1enP.s 			page 36


 2033              	.L266:
 2034 00b8 0000FFFF 		.word	-65536
 2035 00bc 00000000 		.word	I2C_Master_ISR_IT
 2036 00c0 00200080 		.word	-2147475456
 2038              		.section	.text.HAL_I2C_Master_Receive_IT,"ax",%progbits
 2039              		.align	1
 2040              		.global	HAL_I2C_Master_Receive_IT
 2041              		.syntax unified
 2042              		.thumb
 2043              		.thumb_func
 2045              	HAL_I2C_Master_Receive_IT:
 2046              		@ args = 0, pretend = 0, frame = 0
 2047              		@ frame_needed = 0, uses_anonymous_args = 0
 2048 0000 30B5     		push	{r4, r5, lr}
 2049 0002 83B0     		sub	sp, sp, #12
 2050 0004 0446     		mov	r4, r0
 2051 0006 90F84100 		ldrb	r0, [r0, #65]	@ zero_extendqisi2
 2052 000a 2028     		cmp	r0, #32
 2053 000c 37D1     		bne	.L272
 2054 000e 2068     		ldr	r0, [r4]
 2055 0010 8069     		ldr	r0, [r0, #24]
 2056 0012 10F4004F 		tst	r0, #32768
 2057 0016 34D1     		bne	.L273
 2058 0018 94F84000 		ldrb	r0, [r4, #64]	@ zero_extendqisi2
 2059 001c 0128     		cmp	r0, #1
 2060 001e 32D0     		beq	.L274
 2061 0020 0120     		movs	r0, #1
 2062 0022 84F84000 		strb	r0, [r4, #64]
 2063 0026 2220     		movs	r0, #34
 2064 0028 84F84100 		strb	r0, [r4, #65]
 2065 002c 1020     		movs	r0, #16
 2066 002e 84F84200 		strb	r0, [r4, #66]
 2067 0032 0020     		movs	r0, #0
 2068 0034 6064     		str	r0, [r4, #68]
 2069 0036 6262     		str	r2, [r4, #36]
 2070 0038 6385     		strh	r3, [r4, #42]	@ movhi
 2071 003a 144B     		ldr	r3, .L276
 2072 003c E362     		str	r3, [r4, #44]
 2073 003e 144B     		ldr	r3, .L276+4
 2074 0040 6363     		str	r3, [r4, #52]
 2075 0042 638D     		ldrh	r3, [r4, #42]
 2076 0044 9BB2     		uxth	r3, r3
 2077 0046 FF2B     		cmp	r3, #255
 2078 0048 14D9     		bls	.L270
 2079 004a FF23     		movs	r3, #255
 2080 004c 2385     		strh	r3, [r4, #40]	@ movhi
 2081 004e 4FF08073 		mov	r3, #16777216
 2082              	.L271:
 2083 0052 104A     		ldr	r2, .L276+8
 2084 0054 0092     		str	r2, [sp]
 2085 0056 94F82820 		ldrb	r2, [r4, #40]	@ zero_extendqisi2
 2086 005a 2046     		mov	r0, r4
 2087 005c FFF7FEFF 		bl	I2C_TransferConfig
 2088 0060 0025     		movs	r5, #0
 2089 0062 84F84050 		strb	r5, [r4, #64]
 2090 0066 0221     		movs	r1, #2
 2091 0068 2046     		mov	r0, r4
ARM GAS  C:\Users\thewo\AppData\Local\Temp\ccUp1enP.s 			page 37


 2092 006a FFF7FEFF 		bl	I2C_Enable_IRQ
 2093 006e 2846     		mov	r0, r5
 2094              	.L269:
 2095 0070 03B0     		add	sp, sp, #12
 2096              		@ sp needed
 2097 0072 30BD     		pop	{r4, r5, pc}
 2098              	.L270:
 2099 0074 638D     		ldrh	r3, [r4, #42]
 2100 0076 2385     		strh	r3, [r4, #40]	@ movhi
 2101 0078 4FF00073 		mov	r3, #33554432
 2102 007c E9E7     		b	.L271
 2103              	.L272:
 2104 007e 0220     		movs	r0, #2
 2105 0080 F6E7     		b	.L269
 2106              	.L273:
 2107 0082 0220     		movs	r0, #2
 2108 0084 F4E7     		b	.L269
 2109              	.L274:
 2110 0086 0220     		movs	r0, #2
 2111 0088 F2E7     		b	.L269
 2112              	.L277:
 2113 008a 00BF     		.align	2
 2114              	.L276:
 2115 008c 0000FFFF 		.word	-65536
 2116 0090 00000000 		.word	I2C_Master_ISR_IT
 2117 0094 00240080 		.word	-2147474432
 2119              		.section	.text.HAL_I2C_Slave_Transmit_IT,"ax",%progbits
 2120              		.align	1
 2121              		.global	HAL_I2C_Slave_Transmit_IT
 2122              		.syntax unified
 2123              		.thumb
 2124              		.thumb_func
 2126              	HAL_I2C_Slave_Transmit_IT:
 2127              		@ args = 0, pretend = 0, frame = 0
 2128              		@ frame_needed = 0, uses_anonymous_args = 0
 2129 0000 90F84130 		ldrb	r3, [r0, #65]	@ zero_extendqisi2
 2130 0004 202B     		cmp	r3, #32
 2131 0006 38D1     		bne	.L281
 2132 0008 90F84030 		ldrb	r3, [r0, #64]	@ zero_extendqisi2
 2133 000c 012B     		cmp	r3, #1
 2134 000e 36D0     		beq	.L282
 2135 0010 10B5     		push	{r4, lr}
 2136 0012 0123     		movs	r3, #1
 2137 0014 80F84030 		strb	r3, [r0, #64]
 2138 0018 2123     		movs	r3, #33
 2139 001a 80F84130 		strb	r3, [r0, #65]
 2140 001e 2023     		movs	r3, #32
 2141 0020 80F84230 		strb	r3, [r0, #66]
 2142 0024 0023     		movs	r3, #0
 2143 0026 4364     		str	r3, [r0, #68]
 2144 0028 0468     		ldr	r4, [r0]
 2145 002a 6368     		ldr	r3, [r4, #4]
 2146 002c 23F40043 		bic	r3, r3, #32768
 2147 0030 6360     		str	r3, [r4, #4]
 2148 0032 4162     		str	r1, [r0, #36]
 2149 0034 4285     		strh	r2, [r0, #42]	@ movhi
 2150 0036 438D     		ldrh	r3, [r0, #42]
ARM GAS  C:\Users\thewo\AppData\Local\Temp\ccUp1enP.s 			page 38


 2151 0038 0385     		strh	r3, [r0, #40]	@ movhi
 2152 003a 124B     		ldr	r3, .L288
 2153 003c C362     		str	r3, [r0, #44]
 2154 003e 124B     		ldr	r3, .L288+4
 2155 0040 4363     		str	r3, [r0, #52]
 2156 0042 036A     		ldr	r3, [r0, #32]
 2157 0044 B3F5003F 		cmp	r3, #131072
 2158 0048 08D0     		beq	.L287
 2159              	.L280:
 2160 004a 0024     		movs	r4, #0
 2161 004c 80F84040 		strb	r4, [r0, #64]
 2162 0050 48F20101 		movw	r1, #32769
 2163 0054 FFF7FEFF 		bl	I2C_Enable_IRQ
 2164 0058 2046     		mov	r0, r4
 2165 005a 10BD     		pop	{r4, pc}
 2166              	.L287:
 2167 005c 0368     		ldr	r3, [r0]
 2168 005e 0A78     		ldrb	r2, [r1]	@ zero_extendqisi2
 2169 0060 9A62     		str	r2, [r3, #40]
 2170 0062 436A     		ldr	r3, [r0, #36]
 2171 0064 0133     		adds	r3, r3, #1
 2172 0066 4362     		str	r3, [r0, #36]
 2173 0068 438D     		ldrh	r3, [r0, #42]
 2174 006a 9BB2     		uxth	r3, r3
 2175 006c 013B     		subs	r3, r3, #1
 2176 006e 9BB2     		uxth	r3, r3
 2177 0070 4385     		strh	r3, [r0, #42]	@ movhi
 2178 0072 038D     		ldrh	r3, [r0, #40]
 2179 0074 013B     		subs	r3, r3, #1
 2180 0076 0385     		strh	r3, [r0, #40]	@ movhi
 2181 0078 E7E7     		b	.L280
 2182              	.L281:
 2183 007a 0220     		movs	r0, #2
 2184 007c 7047     		bx	lr
 2185              	.L282:
 2186 007e 0220     		movs	r0, #2
 2187 0080 7047     		bx	lr
 2188              	.L289:
 2189 0082 00BF     		.align	2
 2190              	.L288:
 2191 0084 0000FFFF 		.word	-65536
 2192 0088 00000000 		.word	I2C_Slave_ISR_IT
 2194              		.section	.text.HAL_I2C_Slave_Receive_IT,"ax",%progbits
 2195              		.align	1
 2196              		.global	HAL_I2C_Slave_Receive_IT
 2197              		.syntax unified
 2198              		.thumb
 2199              		.thumb_func
 2201              	HAL_I2C_Slave_Receive_IT:
 2202              		@ args = 0, pretend = 0, frame = 0
 2203              		@ frame_needed = 0, uses_anonymous_args = 0
 2204 0000 38B5     		push	{r3, r4, r5, lr}
 2205 0002 90F84130 		ldrb	r3, [r0, #65]	@ zero_extendqisi2
 2206 0006 202B     		cmp	r3, #32
 2207 0008 23D1     		bne	.L292
 2208 000a 90F84030 		ldrb	r3, [r0, #64]	@ zero_extendqisi2
 2209 000e 012B     		cmp	r3, #1
ARM GAS  C:\Users\thewo\AppData\Local\Temp\ccUp1enP.s 			page 39


 2210 0010 21D0     		beq	.L293
 2211 0012 0123     		movs	r3, #1
 2212 0014 80F84030 		strb	r3, [r0, #64]
 2213 0018 2223     		movs	r3, #34
 2214 001a 80F84130 		strb	r3, [r0, #65]
 2215 001e 2023     		movs	r3, #32
 2216 0020 80F84230 		strb	r3, [r0, #66]
 2217 0024 0024     		movs	r4, #0
 2218 0026 4464     		str	r4, [r0, #68]
 2219 0028 0568     		ldr	r5, [r0]
 2220 002a 6B68     		ldr	r3, [r5, #4]
 2221 002c 23F40043 		bic	r3, r3, #32768
 2222 0030 6B60     		str	r3, [r5, #4]
 2223 0032 4162     		str	r1, [r0, #36]
 2224 0034 4285     		strh	r2, [r0, #42]	@ movhi
 2225 0036 438D     		ldrh	r3, [r0, #42]
 2226 0038 0385     		strh	r3, [r0, #40]	@ movhi
 2227 003a 084B     		ldr	r3, .L295
 2228 003c C362     		str	r3, [r0, #44]
 2229 003e 084B     		ldr	r3, .L295+4
 2230 0040 4363     		str	r3, [r0, #52]
 2231 0042 80F84040 		strb	r4, [r0, #64]
 2232 0046 48F20201 		movw	r1, #32770
 2233 004a FFF7FEFF 		bl	I2C_Enable_IRQ
 2234 004e 2046     		mov	r0, r4
 2235              	.L291:
 2236 0050 38BD     		pop	{r3, r4, r5, pc}
 2237              	.L292:
 2238 0052 0220     		movs	r0, #2
 2239 0054 FCE7     		b	.L291
 2240              	.L293:
 2241 0056 0220     		movs	r0, #2
 2242 0058 FAE7     		b	.L291
 2243              	.L296:
 2244 005a 00BF     		.align	2
 2245              	.L295:
 2246 005c 0000FFFF 		.word	-65536
 2247 0060 00000000 		.word	I2C_Slave_ISR_IT
 2249              		.section	.text.HAL_I2C_Master_Transmit_DMA,"ax",%progbits
 2250              		.align	1
 2251              		.global	HAL_I2C_Master_Transmit_DMA
 2252              		.syntax unified
 2253              		.thumb
 2254              		.thumb_func
 2256              	HAL_I2C_Master_Transmit_DMA:
 2257              		@ args = 0, pretend = 0, frame = 0
 2258              		@ frame_needed = 0, uses_anonymous_args = 0
 2259 0000 70B5     		push	{r4, r5, r6, lr}
 2260 0002 82B0     		sub	sp, sp, #8
 2261 0004 0446     		mov	r4, r0
 2262 0006 90F84100 		ldrb	r0, [r0, #65]	@ zero_extendqisi2
 2263 000a 2028     		cmp	r0, #32
 2264 000c 40F09D80 		bne	.L307
 2265 0010 0D46     		mov	r5, r1
 2266 0012 2068     		ldr	r0, [r4]
 2267 0014 8169     		ldr	r1, [r0, #24]
 2268 0016 11F40041 		ands	r1, r1, #32768
ARM GAS  C:\Users\thewo\AppData\Local\Temp\ccUp1enP.s 			page 40


 2269 001a 40F09980 		bne	.L308
 2270 001e 94F84060 		ldrb	r6, [r4, #64]	@ zero_extendqisi2
 2271 0022 012E     		cmp	r6, #1
 2272 0024 00F09680 		beq	.L309
 2273 0028 0126     		movs	r6, #1
 2274 002a 84F84060 		strb	r6, [r4, #64]
 2275 002e 2126     		movs	r6, #33
 2276 0030 84F84160 		strb	r6, [r4, #65]
 2277 0034 1026     		movs	r6, #16
 2278 0036 84F84260 		strb	r6, [r4, #66]
 2279 003a 0026     		movs	r6, #0
 2280 003c 6664     		str	r6, [r4, #68]
 2281 003e 6262     		str	r2, [r4, #36]
 2282 0040 6385     		strh	r3, [r4, #42]	@ movhi
 2283 0042 454B     		ldr	r3, .L313
 2284 0044 E362     		str	r3, [r4, #44]
 2285 0046 454B     		ldr	r3, .L313+4
 2286 0048 6363     		str	r3, [r4, #52]
 2287 004a 638D     		ldrh	r3, [r4, #42]
 2288 004c 9BB2     		uxth	r3, r3
 2289 004e FF2B     		cmp	r3, #255
 2290 0050 37D9     		bls	.L299
 2291 0052 FF23     		movs	r3, #255
 2292 0054 2385     		strh	r3, [r4, #40]	@ movhi
 2293 0056 4FF08076 		mov	r6, #16777216
 2294              	.L300:
 2295 005a 238D     		ldrh	r3, [r4, #40]
 2296 005c 63B1     		cbz	r3, .L301
 2297 005e 1378     		ldrb	r3, [r2]	@ zero_extendqisi2
 2298 0060 8362     		str	r3, [r0, #40]
 2299 0062 636A     		ldr	r3, [r4, #36]
 2300 0064 0133     		adds	r3, r3, #1
 2301 0066 6362     		str	r3, [r4, #36]
 2302 0068 218D     		ldrh	r1, [r4, #40]
 2303 006a 638D     		ldrh	r3, [r4, #42]
 2304 006c 9BB2     		uxth	r3, r3
 2305 006e 013B     		subs	r3, r3, #1
 2306 0070 9BB2     		uxth	r3, r3
 2307 0072 6385     		strh	r3, [r4, #42]	@ movhi
 2308 0074 4B1E     		subs	r3, r1, #1
 2309 0076 2385     		strh	r3, [r4, #40]	@ movhi
 2310              	.L301:
 2311 0078 238D     		ldrh	r3, [r4, #40]
 2312 007a 002B     		cmp	r3, #0
 2313 007c 51D0     		beq	.L302
 2314 007e A36B     		ldr	r3, [r4, #56]
 2315 0080 23B3     		cbz	r3, .L303
 2316 0082 374A     		ldr	r2, .L313+8
 2317 0084 DA63     		str	r2, [r3, #60]
 2318 0086 A36B     		ldr	r3, [r4, #56]
 2319 0088 364A     		ldr	r2, .L313+12
 2320 008a DA64     		str	r2, [r3, #76]
 2321 008c A26B     		ldr	r2, [r4, #56]
 2322 008e 0023     		movs	r3, #0
 2323 0090 1364     		str	r3, [r2, #64]
 2324 0092 A26B     		ldr	r2, [r4, #56]
 2325 0094 1365     		str	r3, [r2, #80]
ARM GAS  C:\Users\thewo\AppData\Local\Temp\ccUp1enP.s 			page 41


 2326 0096 2268     		ldr	r2, [r4]
 2327 0098 238D     		ldrh	r3, [r4, #40]
 2328 009a 2832     		adds	r2, r2, #40
 2329 009c 616A     		ldr	r1, [r4, #36]
 2330 009e A06B     		ldr	r0, [r4, #56]
 2331 00a0 FFF7FEFF 		bl	HAL_DMA_Start_IT
 2332 00a4 00B3     		cbz	r0, .L312
 2333 00a6 2023     		movs	r3, #32
 2334 00a8 84F84130 		strb	r3, [r4, #65]
 2335 00ac 0022     		movs	r2, #0
 2336 00ae 84F84220 		strb	r2, [r4, #66]
 2337 00b2 636C     		ldr	r3, [r4, #68]
 2338 00b4 43F01003 		orr	r3, r3, #16
 2339 00b8 6364     		str	r3, [r4, #68]
 2340 00ba 84F84020 		strb	r2, [r4, #64]
 2341 00be 0120     		movs	r0, #1
 2342 00c0 44E0     		b	.L298
 2343              	.L299:
 2344 00c2 638D     		ldrh	r3, [r4, #42]
 2345 00c4 2385     		strh	r3, [r4, #40]	@ movhi
 2346 00c6 4FF00076 		mov	r6, #33554432
 2347 00ca C6E7     		b	.L300
 2348              	.L303:
 2349 00cc 2023     		movs	r3, #32
 2350 00ce 84F84130 		strb	r3, [r4, #65]
 2351 00d2 0022     		movs	r2, #0
 2352 00d4 84F84220 		strb	r2, [r4, #66]
 2353 00d8 636C     		ldr	r3, [r4, #68]
 2354 00da 43F08003 		orr	r3, r3, #128
 2355 00de 6364     		str	r3, [r4, #68]
 2356 00e0 84F84020 		strb	r2, [r4, #64]
 2357 00e4 0120     		movs	r0, #1
 2358 00e6 31E0     		b	.L298
 2359              	.L312:
 2360 00e8 228D     		ldrh	r2, [r4, #40]
 2361 00ea 0132     		adds	r2, r2, #1
 2362 00ec 1E4B     		ldr	r3, .L313+16
 2363 00ee 0093     		str	r3, [sp]
 2364 00f0 3346     		mov	r3, r6
 2365 00f2 D2B2     		uxtb	r2, r2
 2366 00f4 2946     		mov	r1, r5
 2367 00f6 2046     		mov	r0, r4
 2368 00f8 FFF7FEFF 		bl	I2C_TransferConfig
 2369 00fc 638D     		ldrh	r3, [r4, #42]
 2370 00fe 9BB2     		uxth	r3, r3
 2371 0100 228D     		ldrh	r2, [r4, #40]
 2372 0102 9B1A     		subs	r3, r3, r2
 2373 0104 9BB2     		uxth	r3, r3
 2374 0106 6385     		strh	r3, [r4, #42]	@ movhi
 2375 0108 0023     		movs	r3, #0
 2376 010a 84F84030 		strb	r3, [r4, #64]
 2377 010e 1021     		movs	r1, #16
 2378 0110 2046     		mov	r0, r4
 2379 0112 FFF7FEFF 		bl	I2C_Enable_IRQ
 2380 0116 2268     		ldr	r2, [r4]
 2381 0118 1368     		ldr	r3, [r2]
 2382 011a 43F48043 		orr	r3, r3, #16384
ARM GAS  C:\Users\thewo\AppData\Local\Temp\ccUp1enP.s 			page 42


 2383 011e 1360     		str	r3, [r2]
 2384 0120 11E0     		b	.L306
 2385              	.L302:
 2386 0122 124B     		ldr	r3, .L313+20
 2387 0124 6363     		str	r3, [r4, #52]
 2388 0126 104B     		ldr	r3, .L313+16
 2389 0128 0093     		str	r3, [sp]
 2390 012a 4FF00073 		mov	r3, #33554432
 2391 012e CAB2     		uxtb	r2, r1
 2392 0130 2946     		mov	r1, r5
 2393 0132 2046     		mov	r0, r4
 2394 0134 FFF7FEFF 		bl	I2C_TransferConfig
 2395 0138 0023     		movs	r3, #0
 2396 013a 84F84030 		strb	r3, [r4, #64]
 2397 013e 0121     		movs	r1, #1
 2398 0140 2046     		mov	r0, r4
 2399 0142 FFF7FEFF 		bl	I2C_Enable_IRQ
 2400              	.L306:
 2401 0146 0020     		movs	r0, #0
 2402 0148 00E0     		b	.L298
 2403              	.L307:
 2404 014a 0220     		movs	r0, #2
 2405              	.L298:
 2406 014c 02B0     		add	sp, sp, #8
 2407              		@ sp needed
 2408 014e 70BD     		pop	{r4, r5, r6, pc}
 2409              	.L308:
 2410 0150 0220     		movs	r0, #2
 2411 0152 FBE7     		b	.L298
 2412              	.L309:
 2413 0154 0220     		movs	r0, #2
 2414 0156 F9E7     		b	.L298
 2415              	.L314:
 2416              		.align	2
 2417              	.L313:
 2418 0158 0000FFFF 		.word	-65536
 2419 015c 00000000 		.word	I2C_Master_ISR_DMA
 2420 0160 00000000 		.word	I2C_DMAMasterTransmitCplt
 2421 0164 00000000 		.word	I2C_DMAError
 2422 0168 00200080 		.word	-2147475456
 2423 016c 00000000 		.word	I2C_Master_ISR_IT
 2425              		.section	.text.HAL_I2C_Master_Receive_DMA,"ax",%progbits
 2426              		.align	1
 2427              		.global	HAL_I2C_Master_Receive_DMA
 2428              		.syntax unified
 2429              		.thumb
 2430              		.thumb_func
 2432              	HAL_I2C_Master_Receive_DMA:
 2433              		@ args = 0, pretend = 0, frame = 0
 2434              		@ frame_needed = 0, uses_anonymous_args = 0
 2435 0000 70B5     		push	{r4, r5, r6, lr}
 2436 0002 82B0     		sub	sp, sp, #8
 2437 0004 0446     		mov	r4, r0
 2438 0006 90F84100 		ldrb	r0, [r0, #65]	@ zero_extendqisi2
 2439 000a 2028     		cmp	r0, #32
 2440 000c 40F08C80 		bne	.L324
 2441 0010 0D46     		mov	r5, r1
ARM GAS  C:\Users\thewo\AppData\Local\Temp\ccUp1enP.s 			page 43


 2442 0012 2168     		ldr	r1, [r4]
 2443 0014 8969     		ldr	r1, [r1, #24]
 2444 0016 11F4004F 		tst	r1, #32768
 2445 001a 40F08880 		bne	.L325
 2446 001e 94F84010 		ldrb	r1, [r4, #64]	@ zero_extendqisi2
 2447 0022 0129     		cmp	r1, #1
 2448 0024 00F08580 		beq	.L326
 2449 0028 0121     		movs	r1, #1
 2450 002a 84F84010 		strb	r1, [r4, #64]
 2451 002e 2221     		movs	r1, #34
 2452 0030 84F84110 		strb	r1, [r4, #65]
 2453 0034 1021     		movs	r1, #16
 2454 0036 84F84210 		strb	r1, [r4, #66]
 2455 003a 0021     		movs	r1, #0
 2456 003c 6164     		str	r1, [r4, #68]
 2457 003e 6262     		str	r2, [r4, #36]
 2458 0040 6385     		strh	r3, [r4, #42]	@ movhi
 2459 0042 3D4B     		ldr	r3, .L330
 2460 0044 E362     		str	r3, [r4, #44]
 2461 0046 3D4B     		ldr	r3, .L330+4
 2462 0048 6363     		str	r3, [r4, #52]
 2463 004a 638D     		ldrh	r3, [r4, #42]
 2464 004c 9BB2     		uxth	r3, r3
 2465 004e FF2B     		cmp	r3, #255
 2466 0050 27D9     		bls	.L317
 2467 0052 FF23     		movs	r3, #255
 2468 0054 2385     		strh	r3, [r4, #40]	@ movhi
 2469 0056 4FF08076 		mov	r6, #16777216
 2470              	.L318:
 2471 005a 218D     		ldrh	r1, [r4, #40]
 2472 005c 0029     		cmp	r1, #0
 2473 005e 4FD0     		beq	.L319
 2474 0060 E36B     		ldr	r3, [r4, #60]
 2475 0062 1BB3     		cbz	r3, .L320
 2476 0064 3649     		ldr	r1, .L330+8
 2477 0066 D963     		str	r1, [r3, #60]
 2478 0068 E36B     		ldr	r3, [r4, #60]
 2479 006a 3649     		ldr	r1, .L330+12
 2480 006c D964     		str	r1, [r3, #76]
 2481 006e E16B     		ldr	r1, [r4, #60]
 2482 0070 0023     		movs	r3, #0
 2483 0072 0B64     		str	r3, [r1, #64]
 2484 0074 E16B     		ldr	r1, [r4, #60]
 2485 0076 0B65     		str	r3, [r1, #80]
 2486 0078 2168     		ldr	r1, [r4]
 2487 007a 238D     		ldrh	r3, [r4, #40]
 2488 007c 2431     		adds	r1, r1, #36
 2489 007e E06B     		ldr	r0, [r4, #60]
 2490 0080 FFF7FEFF 		bl	HAL_DMA_Start_IT
 2491 0084 00B3     		cbz	r0, .L329
 2492 0086 2023     		movs	r3, #32
 2493 0088 84F84130 		strb	r3, [r4, #65]
 2494 008c 0022     		movs	r2, #0
 2495 008e 84F84220 		strb	r2, [r4, #66]
 2496 0092 636C     		ldr	r3, [r4, #68]
 2497 0094 43F01003 		orr	r3, r3, #16
 2498 0098 6364     		str	r3, [r4, #68]
ARM GAS  C:\Users\thewo\AppData\Local\Temp\ccUp1enP.s 			page 44


 2499 009a 84F84020 		strb	r2, [r4, #64]
 2500 009e 0120     		movs	r0, #1
 2501 00a0 43E0     		b	.L316
 2502              	.L317:
 2503 00a2 638D     		ldrh	r3, [r4, #42]
 2504 00a4 2385     		strh	r3, [r4, #40]	@ movhi
 2505 00a6 4FF00076 		mov	r6, #33554432
 2506 00aa D6E7     		b	.L318
 2507              	.L320:
 2508 00ac 2023     		movs	r3, #32
 2509 00ae 84F84130 		strb	r3, [r4, #65]
 2510 00b2 0022     		movs	r2, #0
 2511 00b4 84F84220 		strb	r2, [r4, #66]
 2512 00b8 636C     		ldr	r3, [r4, #68]
 2513 00ba 43F08003 		orr	r3, r3, #128
 2514 00be 6364     		str	r3, [r4, #68]
 2515 00c0 84F84020 		strb	r2, [r4, #64]
 2516 00c4 0120     		movs	r0, #1
 2517 00c6 30E0     		b	.L316
 2518              	.L329:
 2519 00c8 1F4B     		ldr	r3, .L330+16
 2520 00ca 0093     		str	r3, [sp]
 2521 00cc 3346     		mov	r3, r6
 2522 00ce 94F82820 		ldrb	r2, [r4, #40]	@ zero_extendqisi2
 2523 00d2 2946     		mov	r1, r5
 2524 00d4 2046     		mov	r0, r4
 2525 00d6 FFF7FEFF 		bl	I2C_TransferConfig
 2526 00da 638D     		ldrh	r3, [r4, #42]
 2527 00dc 9BB2     		uxth	r3, r3
 2528 00de 228D     		ldrh	r2, [r4, #40]
 2529 00e0 9B1A     		subs	r3, r3, r2
 2530 00e2 9BB2     		uxth	r3, r3
 2531 00e4 6385     		strh	r3, [r4, #42]	@ movhi
 2532 00e6 0023     		movs	r3, #0
 2533 00e8 84F84030 		strb	r3, [r4, #64]
 2534 00ec 1021     		movs	r1, #16
 2535 00ee 2046     		mov	r0, r4
 2536 00f0 FFF7FEFF 		bl	I2C_Enable_IRQ
 2537 00f4 2268     		ldr	r2, [r4]
 2538 00f6 1368     		ldr	r3, [r2]
 2539 00f8 43F40043 		orr	r3, r3, #32768
 2540 00fc 1360     		str	r3, [r2]
 2541 00fe 11E0     		b	.L323
 2542              	.L319:
 2543 0100 124B     		ldr	r3, .L330+20
 2544 0102 6363     		str	r3, [r4, #52]
 2545 0104 104B     		ldr	r3, .L330+16
 2546 0106 0093     		str	r3, [sp]
 2547 0108 4FF00073 		mov	r3, #33554432
 2548 010c CAB2     		uxtb	r2, r1
 2549 010e 2946     		mov	r1, r5
 2550 0110 2046     		mov	r0, r4
 2551 0112 FFF7FEFF 		bl	I2C_TransferConfig
 2552 0116 0023     		movs	r3, #0
 2553 0118 84F84030 		strb	r3, [r4, #64]
 2554 011c 0221     		movs	r1, #2
 2555 011e 2046     		mov	r0, r4
ARM GAS  C:\Users\thewo\AppData\Local\Temp\ccUp1enP.s 			page 45


 2556 0120 FFF7FEFF 		bl	I2C_Enable_IRQ
 2557              	.L323:
 2558 0124 0020     		movs	r0, #0
 2559 0126 00E0     		b	.L316
 2560              	.L324:
 2561 0128 0220     		movs	r0, #2
 2562              	.L316:
 2563 012a 02B0     		add	sp, sp, #8
 2564              		@ sp needed
 2565 012c 70BD     		pop	{r4, r5, r6, pc}
 2566              	.L325:
 2567 012e 0220     		movs	r0, #2
 2568 0130 FBE7     		b	.L316
 2569              	.L326:
 2570 0132 0220     		movs	r0, #2
 2571 0134 F9E7     		b	.L316
 2572              	.L331:
 2573 0136 00BF     		.align	2
 2574              	.L330:
 2575 0138 0000FFFF 		.word	-65536
 2576 013c 00000000 		.word	I2C_Master_ISR_DMA
 2577 0140 00000000 		.word	I2C_DMAMasterReceiveCplt
 2578 0144 00000000 		.word	I2C_DMAError
 2579 0148 00240080 		.word	-2147474432
 2580 014c 00000000 		.word	I2C_Master_ISR_IT
 2582              		.section	.text.HAL_I2C_Slave_Transmit_DMA,"ax",%progbits
 2583              		.align	1
 2584              		.global	HAL_I2C_Slave_Transmit_DMA
 2585              		.syntax unified
 2586              		.thumb
 2587              		.thumb_func
 2589              	HAL_I2C_Slave_Transmit_DMA:
 2590              		@ args = 0, pretend = 0, frame = 0
 2591              		@ frame_needed = 0, uses_anonymous_args = 0
 2592 0000 90F84130 		ldrb	r3, [r0, #65]	@ zero_extendqisi2
 2593 0004 202B     		cmp	r3, #32
 2594 0006 40F08D80 		bne	.L341
 2595 000a 10B5     		push	{r4, lr}
 2596 000c 0446     		mov	r4, r0
 2597 000e 002A     		cmp	r2, #0
 2598 0010 18BF     		it	ne
 2599 0012 0029     		cmpne	r1, #0
 2600 0014 42D0     		beq	.L348
 2601 0016 90F84030 		ldrb	r3, [r0, #64]	@ zero_extendqisi2
 2602 001a 012B     		cmp	r3, #1
 2603 001c 00F08480 		beq	.L342
 2604 0020 0123     		movs	r3, #1
 2605 0022 80F84030 		strb	r3, [r0, #64]
 2606 0026 2123     		movs	r3, #33
 2607 0028 80F84130 		strb	r3, [r0, #65]
 2608 002c 2023     		movs	r3, #32
 2609 002e 80F84230 		strb	r3, [r0, #66]
 2610 0032 0023     		movs	r3, #0
 2611 0034 4364     		str	r3, [r0, #68]
 2612 0036 4162     		str	r1, [r0, #36]
 2613 0038 4285     		strh	r2, [r0, #42]	@ movhi
 2614 003a 438D     		ldrh	r3, [r0, #42]
ARM GAS  C:\Users\thewo\AppData\Local\Temp\ccUp1enP.s 			page 46


 2615 003c 0385     		strh	r3, [r0, #40]	@ movhi
 2616 003e 3B4B     		ldr	r3, .L351
 2617 0040 C362     		str	r3, [r0, #44]
 2618 0042 3B4B     		ldr	r3, .L351+4
 2619 0044 4363     		str	r3, [r0, #52]
 2620 0046 036A     		ldr	r3, [r0, #32]
 2621 0048 B3F5003F 		cmp	r3, #131072
 2622 004c 2BD0     		beq	.L349
 2623              	.L335:
 2624 004e 638D     		ldrh	r3, [r4, #42]
 2625 0050 9BB2     		uxth	r3, r3
 2626 0052 002B     		cmp	r3, #0
 2627 0054 57D0     		beq	.L336
 2628 0056 A36B     		ldr	r3, [r4, #56]
 2629 0058 002B     		cmp	r3, #0
 2630 005a 33D0     		beq	.L337
 2631 005c 354A     		ldr	r2, .L351+8
 2632 005e DA63     		str	r2, [r3, #60]
 2633 0060 A36B     		ldr	r3, [r4, #56]
 2634 0062 354A     		ldr	r2, .L351+12
 2635 0064 DA64     		str	r2, [r3, #76]
 2636 0066 A26B     		ldr	r2, [r4, #56]
 2637 0068 0023     		movs	r3, #0
 2638 006a 1364     		str	r3, [r2, #64]
 2639 006c A26B     		ldr	r2, [r4, #56]
 2640 006e 1365     		str	r3, [r2, #80]
 2641 0070 2268     		ldr	r2, [r4]
 2642 0072 238D     		ldrh	r3, [r4, #40]
 2643 0074 2832     		adds	r2, r2, #40
 2644 0076 616A     		ldr	r1, [r4, #36]
 2645 0078 A06B     		ldr	r0, [r4, #56]
 2646 007a FFF7FEFF 		bl	HAL_DMA_Start_IT
 2647 007e 78B3     		cbz	r0, .L350
 2648 0080 2823     		movs	r3, #40
 2649 0082 84F84130 		strb	r3, [r4, #65]
 2650 0086 0022     		movs	r2, #0
 2651 0088 84F84220 		strb	r2, [r4, #66]
 2652 008c 636C     		ldr	r3, [r4, #68]
 2653 008e 43F01003 		orr	r3, r3, #16
 2654 0092 6364     		str	r3, [r4, #68]
 2655 0094 84F84020 		strb	r2, [r4, #64]
 2656 0098 0120     		movs	r0, #1
 2657 009a 03E0     		b	.L333
 2658              	.L348:
 2659 009c 4FF40073 		mov	r3, #512
 2660 00a0 4364     		str	r3, [r0, #68]
 2661 00a2 0120     		movs	r0, #1
 2662              	.L333:
 2663 00a4 10BD     		pop	{r4, pc}
 2664              	.L349:
 2665 00a6 0368     		ldr	r3, [r0]
 2666 00a8 0A78     		ldrb	r2, [r1]	@ zero_extendqisi2
 2667 00aa 9A62     		str	r2, [r3, #40]
 2668 00ac 436A     		ldr	r3, [r0, #36]
 2669 00ae 0133     		adds	r3, r3, #1
 2670 00b0 4362     		str	r3, [r0, #36]
 2671 00b2 438D     		ldrh	r3, [r0, #42]
ARM GAS  C:\Users\thewo\AppData\Local\Temp\ccUp1enP.s 			page 47


 2672 00b4 9BB2     		uxth	r3, r3
 2673 00b6 013B     		subs	r3, r3, #1
 2674 00b8 9BB2     		uxth	r3, r3
 2675 00ba 4385     		strh	r3, [r0, #42]	@ movhi
 2676 00bc 038D     		ldrh	r3, [r0, #40]
 2677 00be 013B     		subs	r3, r3, #1
 2678 00c0 0385     		strh	r3, [r0, #40]	@ movhi
 2679 00c2 C4E7     		b	.L335
 2680              	.L337:
 2681 00c4 2823     		movs	r3, #40
 2682 00c6 84F84130 		strb	r3, [r4, #65]
 2683 00ca 0022     		movs	r2, #0
 2684 00cc 84F84220 		strb	r2, [r4, #66]
 2685 00d0 636C     		ldr	r3, [r4, #68]
 2686 00d2 43F08003 		orr	r3, r3, #128
 2687 00d6 6364     		str	r3, [r4, #68]
 2688 00d8 84F84020 		strb	r2, [r4, #64]
 2689 00dc 0120     		movs	r0, #1
 2690 00de E1E7     		b	.L333
 2691              	.L350:
 2692 00e0 2268     		ldr	r2, [r4]
 2693 00e2 5368     		ldr	r3, [r2, #4]
 2694 00e4 23F40043 		bic	r3, r3, #32768
 2695 00e8 5360     		str	r3, [r2, #4]
 2696 00ea 0023     		movs	r3, #0
 2697 00ec 84F84030 		strb	r3, [r4, #64]
 2698 00f0 4FF40041 		mov	r1, #32768
 2699 00f4 2046     		mov	r0, r4
 2700 00f6 FFF7FEFF 		bl	I2C_Enable_IRQ
 2701 00fa 2268     		ldr	r2, [r4]
 2702 00fc 1368     		ldr	r3, [r2]
 2703 00fe 43F48043 		orr	r3, r3, #16384
 2704 0102 1360     		str	r3, [r2]
 2705 0104 0CE0     		b	.L340
 2706              	.L336:
 2707 0106 2268     		ldr	r2, [r4]
 2708 0108 5368     		ldr	r3, [r2, #4]
 2709 010a 23F40043 		bic	r3, r3, #32768
 2710 010e 5360     		str	r3, [r2, #4]
 2711 0110 0023     		movs	r3, #0
 2712 0112 84F84030 		strb	r3, [r4, #64]
 2713 0116 4FF40041 		mov	r1, #32768
 2714 011a 2046     		mov	r0, r4
 2715 011c FFF7FEFF 		bl	I2C_Enable_IRQ
 2716              	.L340:
 2717 0120 0020     		movs	r0, #0
 2718 0122 BFE7     		b	.L333
 2719              	.L341:
 2720 0124 0220     		movs	r0, #2
 2721 0126 7047     		bx	lr
 2722              	.L342:
 2723 0128 0220     		movs	r0, #2
 2724 012a BBE7     		b	.L333
 2725              	.L352:
 2726              		.align	2
 2727              	.L351:
 2728 012c 0000FFFF 		.word	-65536
ARM GAS  C:\Users\thewo\AppData\Local\Temp\ccUp1enP.s 			page 48


 2729 0130 00000000 		.word	I2C_Slave_ISR_DMA
 2730 0134 00000000 		.word	I2C_DMASlaveTransmitCplt
 2731 0138 00000000 		.word	I2C_DMAError
 2733              		.section	.text.HAL_I2C_Slave_Receive_DMA,"ax",%progbits
 2734              		.align	1
 2735              		.global	HAL_I2C_Slave_Receive_DMA
 2736              		.syntax unified
 2737              		.thumb
 2738              		.thumb_func
 2740              	HAL_I2C_Slave_Receive_DMA:
 2741              		@ args = 0, pretend = 0, frame = 0
 2742              		@ frame_needed = 0, uses_anonymous_args = 0
 2743 0000 38B5     		push	{r3, r4, r5, lr}
 2744 0002 90F84130 		ldrb	r3, [r0, #65]	@ zero_extendqisi2
 2745 0006 202B     		cmp	r3, #32
 2746 0008 65D1     		bne	.L359
 2747 000a 0446     		mov	r4, r0
 2748 000c 002A     		cmp	r2, #0
 2749 000e 18BF     		it	ne
 2750 0010 0029     		cmpne	r1, #0
 2751 0012 3AD0     		beq	.L363
 2752 0014 90F84030 		ldrb	r3, [r0, #64]	@ zero_extendqisi2
 2753 0018 012B     		cmp	r3, #1
 2754 001a 5FD0     		beq	.L360
 2755 001c 0123     		movs	r3, #1
 2756 001e 80F84030 		strb	r3, [r0, #64]
 2757 0022 2223     		movs	r3, #34
 2758 0024 80F84130 		strb	r3, [r0, #65]
 2759 0028 2023     		movs	r3, #32
 2760 002a 80F84230 		strb	r3, [r0, #66]
 2761 002e 0023     		movs	r3, #0
 2762 0030 4364     		str	r3, [r0, #68]
 2763 0032 4162     		str	r1, [r0, #36]
 2764 0034 4285     		strh	r2, [r0, #42]	@ movhi
 2765 0036 438D     		ldrh	r3, [r0, #42]
 2766 0038 0385     		strh	r3, [r0, #40]	@ movhi
 2767 003a 294B     		ldr	r3, .L365
 2768 003c C362     		str	r3, [r0, #44]
 2769 003e 294B     		ldr	r3, .L365+4
 2770 0040 4363     		str	r3, [r0, #52]
 2771 0042 C36B     		ldr	r3, [r0, #60]
 2772 0044 33B3     		cbz	r3, .L356
 2773 0046 284A     		ldr	r2, .L365+8
 2774 0048 DA63     		str	r2, [r3, #60]
 2775 004a C36B     		ldr	r3, [r0, #60]
 2776 004c 274A     		ldr	r2, .L365+12
 2777 004e DA64     		str	r2, [r3, #76]
 2778 0050 C26B     		ldr	r2, [r0, #60]
 2779 0052 0023     		movs	r3, #0
 2780 0054 1364     		str	r3, [r2, #64]
 2781 0056 C26B     		ldr	r2, [r0, #60]
 2782 0058 1365     		str	r3, [r2, #80]
 2783 005a 0068     		ldr	r0, [r0]
 2784 005c 238D     		ldrh	r3, [r4, #40]
 2785 005e 0A46     		mov	r2, r1
 2786 0060 00F12401 		add	r1, r0, #36
 2787 0064 E06B     		ldr	r0, [r4, #60]
ARM GAS  C:\Users\thewo\AppData\Local\Temp\ccUp1enP.s 			page 49


 2788 0066 FFF7FEFF 		bl	HAL_DMA_Start_IT
 2789 006a 0546     		mov	r5, r0
 2790 006c 00B3     		cbz	r0, .L364
 2791 006e 2823     		movs	r3, #40
 2792 0070 84F84130 		strb	r3, [r4, #65]
 2793 0074 0022     		movs	r2, #0
 2794 0076 84F84220 		strb	r2, [r4, #66]
 2795 007a 636C     		ldr	r3, [r4, #68]
 2796 007c 43F01003 		orr	r3, r3, #16
 2797 0080 6364     		str	r3, [r4, #68]
 2798 0082 84F84020 		strb	r2, [r4, #64]
 2799 0086 0125     		movs	r5, #1
 2800 0088 26E0     		b	.L354
 2801              	.L363:
 2802 008a 4FF40073 		mov	r3, #512
 2803 008e 4364     		str	r3, [r0, #68]
 2804 0090 0125     		movs	r5, #1
 2805 0092 21E0     		b	.L354
 2806              	.L356:
 2807 0094 2823     		movs	r3, #40
 2808 0096 80F84130 		strb	r3, [r0, #65]
 2809 009a 0022     		movs	r2, #0
 2810 009c 80F84220 		strb	r2, [r0, #66]
 2811 00a0 436C     		ldr	r3, [r0, #68]
 2812 00a2 43F08003 		orr	r3, r3, #128
 2813 00a6 4364     		str	r3, [r0, #68]
 2814 00a8 80F84020 		strb	r2, [r0, #64]
 2815 00ac 0125     		movs	r5, #1
 2816 00ae 13E0     		b	.L354
 2817              	.L364:
 2818 00b0 2268     		ldr	r2, [r4]
 2819 00b2 5368     		ldr	r3, [r2, #4]
 2820 00b4 23F40043 		bic	r3, r3, #32768
 2821 00b8 5360     		str	r3, [r2, #4]
 2822 00ba 0023     		movs	r3, #0
 2823 00bc 84F84030 		strb	r3, [r4, #64]
 2824 00c0 4FF40041 		mov	r1, #32768
 2825 00c4 2046     		mov	r0, r4
 2826 00c6 FFF7FEFF 		bl	I2C_Enable_IRQ
 2827 00ca 2268     		ldr	r2, [r4]
 2828 00cc 1368     		ldr	r3, [r2]
 2829 00ce 43F40043 		orr	r3, r3, #32768
 2830 00d2 1360     		str	r3, [r2]
 2831 00d4 00E0     		b	.L354
 2832              	.L359:
 2833 00d6 0225     		movs	r5, #2
 2834              	.L354:
 2835 00d8 2846     		mov	r0, r5
 2836 00da 38BD     		pop	{r3, r4, r5, pc}
 2837              	.L360:
 2838 00dc 0225     		movs	r5, #2
 2839 00de FBE7     		b	.L354
 2840              	.L366:
 2841              		.align	2
 2842              	.L365:
 2843 00e0 0000FFFF 		.word	-65536
 2844 00e4 00000000 		.word	I2C_Slave_ISR_DMA
ARM GAS  C:\Users\thewo\AppData\Local\Temp\ccUp1enP.s 			page 50


 2845 00e8 00000000 		.word	I2C_DMASlaveReceiveCplt
 2846 00ec 00000000 		.word	I2C_DMAError
 2848              		.section	.text.HAL_I2C_Mem_Write,"ax",%progbits
 2849              		.align	1
 2850              		.global	HAL_I2C_Mem_Write
 2851              		.syntax unified
 2852              		.thumb
 2853              		.thumb_func
 2855              	HAL_I2C_Mem_Write:
 2856              		@ args = 12, pretend = 0, frame = 0
 2857              		@ frame_needed = 0, uses_anonymous_args = 0
 2858 0000 2DE9F04F 		push	{r4, r5, r6, r7, r8, r9, r10, fp, lr}
 2859 0004 83B0     		sub	sp, sp, #12
 2860 0006 0446     		mov	r4, r0
 2861 0008 0D46     		mov	r5, r1
 2862 000a 9146     		mov	r9, r2
 2863 000c 9846     		mov	r8, r3
 2864 000e BDF834A0 		ldrh	r10, [sp, #52]
 2865 0012 0E9F     		ldr	r7, [sp, #56]
 2866 0014 013B     		subs	r3, r3, #1
 2867 0016 9BB2     		uxth	r3, r3
 2868 0018 012B     		cmp	r3, #1
 2869 001a 21D8     		bhi	.L384
 2870              	.L368:
 2871 001c 94F84130 		ldrb	r3, [r4, #65]	@ zero_extendqisi2
 2872 0020 202B     		cmp	r3, #32
 2873 0022 40F0BF80 		bne	.L377
 2874 0026 0C9B     		ldr	r3, [sp, #48]
 2875 0028 BAF1000F 		cmp	r10, #0
 2876 002c 18BF     		it	ne
 2877 002e 002B     		cmpne	r3, #0
 2878 0030 1CD0     		beq	.L385
 2879 0032 94F84030 		ldrb	r3, [r4, #64]	@ zero_extendqisi2
 2880 0036 012B     		cmp	r3, #1
 2881 0038 00F0B880 		beq	.L378
 2882 003c 4FF0010B 		mov	fp, #1
 2883 0040 84F840B0 		strb	fp, [r4, #64]
 2884 0044 FFF7FEFF 		bl	HAL_GetTick
 2885 0048 0646     		mov	r6, r0
 2886 004a 0090     		str	r0, [sp]
 2887 004c 1923     		movs	r3, #25
 2888 004e 5A46     		mov	r2, fp
 2889 0050 4FF40041 		mov	r1, #32768
 2890 0054 2046     		mov	r0, r4
 2891 0056 FFF7FEFF 		bl	I2C_WaitOnFlagUntilTimeout
 2892 005a 60B1     		cbz	r0, .L386
 2893 005c 0120     		movs	r0, #1
 2894 005e A2E0     		b	.L369
 2895              	.L384:
 2896 0060 40F6E111 		movw	r1, #2529
 2897 0064 5548     		ldr	r0, .L389
 2898 0066 FFF7FEFF 		bl	assert_failed
 2899 006a D7E7     		b	.L368
 2900              	.L385:
 2901 006c 4FF40073 		mov	r3, #512
 2902 0070 6364     		str	r3, [r4, #68]
 2903 0072 0120     		movs	r0, #1
ARM GAS  C:\Users\thewo\AppData\Local\Temp\ccUp1enP.s 			page 51


 2904 0074 97E0     		b	.L369
 2905              	.L386:
 2906 0076 2123     		movs	r3, #33
 2907 0078 84F84130 		strb	r3, [r4, #65]
 2908 007c 4023     		movs	r3, #64
 2909 007e 84F84230 		strb	r3, [r4, #66]
 2910 0082 0023     		movs	r3, #0
 2911 0084 6364     		str	r3, [r4, #68]
 2912 0086 0C9A     		ldr	r2, [sp, #48]
 2913 0088 6262     		str	r2, [r4, #36]
 2914 008a A4F82AA0 		strh	r10, [r4, #42]	@ movhi
 2915 008e 6363     		str	r3, [r4, #52]
 2916 0090 0196     		str	r6, [sp, #4]
 2917 0092 0097     		str	r7, [sp]
 2918 0094 4346     		mov	r3, r8
 2919 0096 4A46     		mov	r2, r9
 2920 0098 2946     		mov	r1, r5
 2921 009a 2046     		mov	r0, r4
 2922 009c FFF7FEFF 		bl	I2C_RequestMemoryWrite
 2923 00a0 70B9     		cbnz	r0, .L387
 2924 00a2 638D     		ldrh	r3, [r4, #42]
 2925 00a4 9BB2     		uxth	r3, r3
 2926 00a6 FF2B     		cmp	r3, #255
 2927 00a8 0FD9     		bls	.L372
 2928 00aa FF22     		movs	r2, #255
 2929 00ac 2285     		strh	r2, [r4, #40]	@ movhi
 2930 00ae 0023     		movs	r3, #0
 2931 00b0 0093     		str	r3, [sp]
 2932 00b2 4FF08073 		mov	r3, #16777216
 2933 00b6 2946     		mov	r1, r5
 2934 00b8 2046     		mov	r0, r4
 2935 00ba FFF7FEFF 		bl	I2C_TransferConfig
 2936 00be 21E0     		b	.L376
 2937              	.L387:
 2938 00c0 0023     		movs	r3, #0
 2939 00c2 84F84030 		strb	r3, [r4, #64]
 2940 00c6 5846     		mov	r0, fp
 2941 00c8 6DE0     		b	.L369
 2942              	.L372:
 2943 00ca 628D     		ldrh	r2, [r4, #42]
 2944 00cc 92B2     		uxth	r2, r2
 2945 00ce 2285     		strh	r2, [r4, #40]	@ movhi
 2946 00d0 0023     		movs	r3, #0
 2947 00d2 0093     		str	r3, [sp]
 2948 00d4 4FF00073 		mov	r3, #33554432
 2949 00d8 D2B2     		uxtb	r2, r2
 2950 00da 2946     		mov	r1, r5
 2951 00dc 2046     		mov	r0, r4
 2952 00de FFF7FEFF 		bl	I2C_TransferConfig
 2953 00e2 0FE0     		b	.L376
 2954              	.L375:
 2955 00e4 628D     		ldrh	r2, [r4, #42]
 2956 00e6 92B2     		uxth	r2, r2
 2957 00e8 2285     		strh	r2, [r4, #40]	@ movhi
 2958 00ea 0023     		movs	r3, #0
 2959 00ec 0093     		str	r3, [sp]
 2960 00ee 4FF00073 		mov	r3, #33554432
ARM GAS  C:\Users\thewo\AppData\Local\Temp\ccUp1enP.s 			page 52


 2961 00f2 D2B2     		uxtb	r2, r2
 2962 00f4 2946     		mov	r1, r5
 2963 00f6 2046     		mov	r0, r4
 2964 00f8 FFF7FEFF 		bl	I2C_TransferConfig
 2965              	.L374:
 2966 00fc 638D     		ldrh	r3, [r4, #42]
 2967 00fe 9BB2     		uxth	r3, r3
 2968 0100 002B     		cmp	r3, #0
 2969 0102 33D0     		beq	.L388
 2970              	.L376:
 2971 0104 3246     		mov	r2, r6
 2972 0106 3946     		mov	r1, r7
 2973 0108 2046     		mov	r0, r4
 2974 010a FFF7FEFF 		bl	I2C_WaitOnTXISFlagUntilTimeout
 2975 010e 0028     		cmp	r0, #0
 2976 0110 4ED1     		bne	.L380
 2977 0112 626A     		ldr	r2, [r4, #36]
 2978 0114 2368     		ldr	r3, [r4]
 2979 0116 1278     		ldrb	r2, [r2]	@ zero_extendqisi2
 2980 0118 9A62     		str	r2, [r3, #40]
 2981 011a 636A     		ldr	r3, [r4, #36]
 2982 011c 0133     		adds	r3, r3, #1
 2983 011e 6362     		str	r3, [r4, #36]
 2984 0120 638D     		ldrh	r3, [r4, #42]
 2985 0122 9BB2     		uxth	r3, r3
 2986 0124 013B     		subs	r3, r3, #1
 2987 0126 9BB2     		uxth	r3, r3
 2988 0128 6385     		strh	r3, [r4, #42]	@ movhi
 2989 012a 238D     		ldrh	r3, [r4, #40]
 2990 012c 013B     		subs	r3, r3, #1
 2991 012e 9BB2     		uxth	r3, r3
 2992 0130 2385     		strh	r3, [r4, #40]	@ movhi
 2993 0132 628D     		ldrh	r2, [r4, #42]
 2994 0134 92B2     		uxth	r2, r2
 2995 0136 002A     		cmp	r2, #0
 2996 0138 E0D0     		beq	.L374
 2997 013a 002B     		cmp	r3, #0
 2998 013c DED1     		bne	.L374
 2999 013e 0096     		str	r6, [sp]
 3000 0140 3B46     		mov	r3, r7
 3001 0142 0022     		movs	r2, #0
 3002 0144 8021     		movs	r1, #128
 3003 0146 2046     		mov	r0, r4
 3004 0148 FFF7FEFF 		bl	I2C_WaitOnFlagUntilTimeout
 3005 014c 90BB     		cbnz	r0, .L381
 3006 014e 638D     		ldrh	r3, [r4, #42]
 3007 0150 9BB2     		uxth	r3, r3
 3008 0152 FF2B     		cmp	r3, #255
 3009 0154 C6D9     		bls	.L375
 3010 0156 FF22     		movs	r2, #255
 3011 0158 2285     		strh	r2, [r4, #40]	@ movhi
 3012 015a 0023     		movs	r3, #0
 3013 015c 0093     		str	r3, [sp]
 3014 015e 4FF08073 		mov	r3, #16777216
 3015 0162 2946     		mov	r1, r5
 3016 0164 2046     		mov	r0, r4
 3017 0166 FFF7FEFF 		bl	I2C_TransferConfig
ARM GAS  C:\Users\thewo\AppData\Local\Temp\ccUp1enP.s 			page 53


 3018 016a C7E7     		b	.L374
 3019              	.L388:
 3020 016c 3246     		mov	r2, r6
 3021 016e 3946     		mov	r1, r7
 3022 0170 2046     		mov	r0, r4
 3023 0172 FFF7FEFF 		bl	I2C_WaitOnSTOPFlagUntilTimeout
 3024 0176 F8B9     		cbnz	r0, .L382
 3025 0178 2368     		ldr	r3, [r4]
 3026 017a 2022     		movs	r2, #32
 3027 017c DA61     		str	r2, [r3, #28]
 3028 017e 2168     		ldr	r1, [r4]
 3029 0180 4B68     		ldr	r3, [r1, #4]
 3030 0182 23F0FF73 		bic	r3, r3, #33423360
 3031 0186 23F48B33 		bic	r3, r3, #71168
 3032 018a 23F4FF73 		bic	r3, r3, #510
 3033 018e 23F00103 		bic	r3, r3, #1
 3034 0192 4B60     		str	r3, [r1, #4]
 3035 0194 84F84120 		strb	r2, [r4, #65]
 3036 0198 0023     		movs	r3, #0
 3037 019a 84F84230 		strb	r3, [r4, #66]
 3038 019e 84F84030 		strb	r3, [r4, #64]
 3039 01a2 00E0     		b	.L369
 3040              	.L377:
 3041 01a4 0220     		movs	r0, #2
 3042              	.L369:
 3043 01a6 03B0     		add	sp, sp, #12
 3044              		@ sp needed
 3045 01a8 BDE8F08F 		pop	{r4, r5, r6, r7, r8, r9, r10, fp, pc}
 3046              	.L378:
 3047 01ac 0220     		movs	r0, #2
 3048 01ae FAE7     		b	.L369
 3049              	.L380:
 3050 01b0 0120     		movs	r0, #1
 3051 01b2 F8E7     		b	.L369
 3052              	.L381:
 3053 01b4 0120     		movs	r0, #1
 3054 01b6 F6E7     		b	.L369
 3055              	.L382:
 3056 01b8 0120     		movs	r0, #1
 3057 01ba F4E7     		b	.L369
 3058              	.L390:
 3059              		.align	2
 3060              	.L389:
 3061 01bc 00000000 		.word	.LC0
 3063              		.section	.text.HAL_I2C_Mem_Read,"ax",%progbits
 3064              		.align	1
 3065              		.global	HAL_I2C_Mem_Read
 3066              		.syntax unified
 3067              		.thumb
 3068              		.thumb_func
 3070              	HAL_I2C_Mem_Read:
 3071              		@ args = 12, pretend = 0, frame = 0
 3072              		@ frame_needed = 0, uses_anonymous_args = 0
 3073 0000 2DE9F04F 		push	{r4, r5, r6, r7, r8, r9, r10, fp, lr}
 3074 0004 83B0     		sub	sp, sp, #12
 3075 0006 0446     		mov	r4, r0
 3076 0008 0D46     		mov	r5, r1
ARM GAS  C:\Users\thewo\AppData\Local\Temp\ccUp1enP.s 			page 54


 3077 000a 9146     		mov	r9, r2
 3078 000c 9846     		mov	r8, r3
 3079 000e BDF834A0 		ldrh	r10, [sp, #52]
 3080 0012 0E9F     		ldr	r7, [sp, #56]
 3081 0014 013B     		subs	r3, r3, #1
 3082 0016 9BB2     		uxth	r3, r3
 3083 0018 012B     		cmp	r3, #1
 3084 001a 21D8     		bhi	.L408
 3085              	.L392:
 3086 001c 94F84130 		ldrb	r3, [r4, #65]	@ zero_extendqisi2
 3087 0020 202B     		cmp	r3, #32
 3088 0022 40F0C080 		bne	.L401
 3089 0026 0C9B     		ldr	r3, [sp, #48]
 3090 0028 BAF1000F 		cmp	r10, #0
 3091 002c 18BF     		it	ne
 3092 002e 002B     		cmpne	r3, #0
 3093 0030 1CD0     		beq	.L409
 3094 0032 94F84030 		ldrb	r3, [r4, #64]	@ zero_extendqisi2
 3095 0036 012B     		cmp	r3, #1
 3096 0038 00F0B980 		beq	.L402
 3097 003c 4FF0010B 		mov	fp, #1
 3098 0040 84F840B0 		strb	fp, [r4, #64]
 3099 0044 FFF7FEFF 		bl	HAL_GetTick
 3100 0048 0646     		mov	r6, r0
 3101 004a 0090     		str	r0, [sp]
 3102 004c 1923     		movs	r3, #25
 3103 004e 5A46     		mov	r2, fp
 3104 0050 4FF40041 		mov	r1, #32768
 3105 0054 2046     		mov	r0, r4
 3106 0056 FFF7FEFF 		bl	I2C_WaitOnFlagUntilTimeout
 3107 005a 60B1     		cbz	r0, .L410
 3108 005c 0120     		movs	r0, #1
 3109 005e A3E0     		b	.L393
 3110              	.L408:
 3111 0060 40F66A21 		movw	r1, #2666
 3112 0064 5648     		ldr	r0, .L413
 3113 0066 FFF7FEFF 		bl	assert_failed
 3114 006a D7E7     		b	.L392
 3115              	.L409:
 3116 006c 4FF40073 		mov	r3, #512
 3117 0070 6364     		str	r3, [r4, #68]
 3118 0072 0120     		movs	r0, #1
 3119 0074 98E0     		b	.L393
 3120              	.L410:
 3121 0076 2223     		movs	r3, #34
 3122 0078 84F84130 		strb	r3, [r4, #65]
 3123 007c 4023     		movs	r3, #64
 3124 007e 84F84230 		strb	r3, [r4, #66]
 3125 0082 0023     		movs	r3, #0
 3126 0084 6364     		str	r3, [r4, #68]
 3127 0086 0C9A     		ldr	r2, [sp, #48]
 3128 0088 6262     		str	r2, [r4, #36]
 3129 008a A4F82AA0 		strh	r10, [r4, #42]	@ movhi
 3130 008e 6363     		str	r3, [r4, #52]
 3131 0090 0196     		str	r6, [sp, #4]
 3132 0092 0097     		str	r7, [sp]
 3133 0094 4346     		mov	r3, r8
ARM GAS  C:\Users\thewo\AppData\Local\Temp\ccUp1enP.s 			page 55


 3134 0096 4A46     		mov	r2, r9
 3135 0098 2946     		mov	r1, r5
 3136 009a 2046     		mov	r0, r4
 3137 009c FFF7FEFF 		bl	I2C_RequestMemoryRead
 3138 00a0 70B9     		cbnz	r0, .L411
 3139 00a2 638D     		ldrh	r3, [r4, #42]
 3140 00a4 9BB2     		uxth	r3, r3
 3141 00a6 FF2B     		cmp	r3, #255
 3142 00a8 0FD9     		bls	.L396
 3143 00aa FF22     		movs	r2, #255
 3144 00ac 2285     		strh	r2, [r4, #40]	@ movhi
 3145 00ae 454B     		ldr	r3, .L413+4
 3146 00b0 0093     		str	r3, [sp]
 3147 00b2 4FF08073 		mov	r3, #16777216
 3148 00b6 2946     		mov	r1, r5
 3149 00b8 2046     		mov	r0, r4
 3150 00ba FFF7FEFF 		bl	I2C_TransferConfig
 3151 00be 21E0     		b	.L400
 3152              	.L411:
 3153 00c0 0023     		movs	r3, #0
 3154 00c2 84F84030 		strb	r3, [r4, #64]
 3155 00c6 5846     		mov	r0, fp
 3156 00c8 6EE0     		b	.L393
 3157              	.L396:
 3158 00ca 628D     		ldrh	r2, [r4, #42]
 3159 00cc 92B2     		uxth	r2, r2
 3160 00ce 2285     		strh	r2, [r4, #40]	@ movhi
 3161 00d0 3C4B     		ldr	r3, .L413+4
 3162 00d2 0093     		str	r3, [sp]
 3163 00d4 4FF00073 		mov	r3, #33554432
 3164 00d8 D2B2     		uxtb	r2, r2
 3165 00da 2946     		mov	r1, r5
 3166 00dc 2046     		mov	r0, r4
 3167 00de FFF7FEFF 		bl	I2C_TransferConfig
 3168 00e2 0FE0     		b	.L400
 3169              	.L399:
 3170 00e4 628D     		ldrh	r2, [r4, #42]
 3171 00e6 92B2     		uxth	r2, r2
 3172 00e8 2285     		strh	r2, [r4, #40]	@ movhi
 3173 00ea 0023     		movs	r3, #0
 3174 00ec 0093     		str	r3, [sp]
 3175 00ee 4FF00073 		mov	r3, #33554432
 3176 00f2 D2B2     		uxtb	r2, r2
 3177 00f4 2946     		mov	r1, r5
 3178 00f6 2046     		mov	r0, r4
 3179 00f8 FFF7FEFF 		bl	I2C_TransferConfig
 3180              	.L398:
 3181 00fc 638D     		ldrh	r3, [r4, #42]
 3182 00fe 9BB2     		uxth	r3, r3
 3183 0100 002B     		cmp	r3, #0
 3184 0102 34D0     		beq	.L412
 3185              	.L400:
 3186 0104 0096     		str	r6, [sp]
 3187 0106 3B46     		mov	r3, r7
 3188 0108 0022     		movs	r2, #0
 3189 010a 0421     		movs	r1, #4
 3190 010c 2046     		mov	r0, r4
ARM GAS  C:\Users\thewo\AppData\Local\Temp\ccUp1enP.s 			page 56


 3191 010e FFF7FEFF 		bl	I2C_WaitOnFlagUntilTimeout
 3192 0112 0028     		cmp	r0, #0
 3193 0114 4DD1     		bne	.L404
 3194 0116 2368     		ldr	r3, [r4]
 3195 0118 5A6A     		ldr	r2, [r3, #36]
 3196 011a 636A     		ldr	r3, [r4, #36]
 3197 011c 1A70     		strb	r2, [r3]
 3198 011e 636A     		ldr	r3, [r4, #36]
 3199 0120 0133     		adds	r3, r3, #1
 3200 0122 6362     		str	r3, [r4, #36]
 3201 0124 228D     		ldrh	r2, [r4, #40]
 3202 0126 013A     		subs	r2, r2, #1
 3203 0128 92B2     		uxth	r2, r2
 3204 012a 2285     		strh	r2, [r4, #40]	@ movhi
 3205 012c 638D     		ldrh	r3, [r4, #42]
 3206 012e 9BB2     		uxth	r3, r3
 3207 0130 013B     		subs	r3, r3, #1
 3208 0132 9BB2     		uxth	r3, r3
 3209 0134 6385     		strh	r3, [r4, #42]	@ movhi
 3210 0136 638D     		ldrh	r3, [r4, #42]
 3211 0138 9BB2     		uxth	r3, r3
 3212 013a 002B     		cmp	r3, #0
 3213 013c DED0     		beq	.L398
 3214 013e 002A     		cmp	r2, #0
 3215 0140 DCD1     		bne	.L398
 3216 0142 0096     		str	r6, [sp]
 3217 0144 3B46     		mov	r3, r7
 3218 0146 8021     		movs	r1, #128
 3219 0148 2046     		mov	r0, r4
 3220 014a FFF7FEFF 		bl	I2C_WaitOnFlagUntilTimeout
 3221 014e 90BB     		cbnz	r0, .L405
 3222 0150 638D     		ldrh	r3, [r4, #42]
 3223 0152 9BB2     		uxth	r3, r3
 3224 0154 FF2B     		cmp	r3, #255
 3225 0156 C5D9     		bls	.L399
 3226 0158 FF22     		movs	r2, #255
 3227 015a 2285     		strh	r2, [r4, #40]	@ movhi
 3228 015c 0023     		movs	r3, #0
 3229 015e 0093     		str	r3, [sp]
 3230 0160 4FF08073 		mov	r3, #16777216
 3231 0164 2946     		mov	r1, r5
 3232 0166 2046     		mov	r0, r4
 3233 0168 FFF7FEFF 		bl	I2C_TransferConfig
 3234 016c C6E7     		b	.L398
 3235              	.L412:
 3236 016e 3246     		mov	r2, r6
 3237 0170 3946     		mov	r1, r7
 3238 0172 2046     		mov	r0, r4
 3239 0174 FFF7FEFF 		bl	I2C_WaitOnSTOPFlagUntilTimeout
 3240 0178 F8B9     		cbnz	r0, .L406
 3241 017a 2368     		ldr	r3, [r4]
 3242 017c 2022     		movs	r2, #32
 3243 017e DA61     		str	r2, [r3, #28]
 3244 0180 2168     		ldr	r1, [r4]
 3245 0182 4B68     		ldr	r3, [r1, #4]
 3246 0184 23F0FF73 		bic	r3, r3, #33423360
 3247 0188 23F48B33 		bic	r3, r3, #71168
ARM GAS  C:\Users\thewo\AppData\Local\Temp\ccUp1enP.s 			page 57


 3248 018c 23F4FF73 		bic	r3, r3, #510
 3249 0190 23F00103 		bic	r3, r3, #1
 3250 0194 4B60     		str	r3, [r1, #4]
 3251 0196 84F84120 		strb	r2, [r4, #65]
 3252 019a 0023     		movs	r3, #0
 3253 019c 84F84230 		strb	r3, [r4, #66]
 3254 01a0 84F84030 		strb	r3, [r4, #64]
 3255 01a4 00E0     		b	.L393
 3256              	.L401:
 3257 01a6 0220     		movs	r0, #2
 3258              	.L393:
 3259 01a8 03B0     		add	sp, sp, #12
 3260              		@ sp needed
 3261 01aa BDE8F08F 		pop	{r4, r5, r6, r7, r8, r9, r10, fp, pc}
 3262              	.L402:
 3263 01ae 0220     		movs	r0, #2
 3264 01b0 FAE7     		b	.L393
 3265              	.L404:
 3266 01b2 0120     		movs	r0, #1
 3267 01b4 F8E7     		b	.L393
 3268              	.L405:
 3269 01b6 0120     		movs	r0, #1
 3270 01b8 F6E7     		b	.L393
 3271              	.L406:
 3272 01ba 0120     		movs	r0, #1
 3273 01bc F4E7     		b	.L393
 3274              	.L414:
 3275 01be 00BF     		.align	2
 3276              	.L413:
 3277 01c0 00000000 		.word	.LC0
 3278 01c4 00240080 		.word	-2147474432
 3280              		.section	.text.HAL_I2C_Mem_Write_IT,"ax",%progbits
 3281              		.align	1
 3282              		.global	HAL_I2C_Mem_Write_IT
 3283              		.syntax unified
 3284              		.thumb
 3285              		.thumb_func
 3287              	HAL_I2C_Mem_Write_IT:
 3288              		@ args = 8, pretend = 0, frame = 0
 3289              		@ frame_needed = 0, uses_anonymous_args = 0
 3290 0000 2DE9F041 		push	{r4, r5, r6, r7, r8, lr}
 3291 0004 82B0     		sub	sp, sp, #8
 3292 0006 0446     		mov	r4, r0
 3293 0008 0E46     		mov	r6, r1
 3294 000a 1746     		mov	r7, r2
 3295 000c 1D46     		mov	r5, r3
 3296 000e BDF82480 		ldrh	r8, [sp, #36]
 3297 0012 013B     		subs	r3, r3, #1
 3298 0014 9BB2     		uxth	r3, r3
 3299 0016 012B     		cmp	r3, #1
 3300 0018 3FD8     		bhi	.L425
 3301              	.L416:
 3302 001a 94F84130 		ldrb	r3, [r4, #65]	@ zero_extendqisi2
 3303 001e 202B     		cmp	r3, #32
 3304 0020 4CD1     		bne	.L421
 3305 0022 089B     		ldr	r3, [sp, #32]
 3306 0024 B8F1000F 		cmp	r8, #0
ARM GAS  C:\Users\thewo\AppData\Local\Temp\ccUp1enP.s 			page 58


 3307 0028 18BF     		it	ne
 3308 002a 002B     		cmpne	r3, #0
 3309 002c 3BD0     		beq	.L426
 3310 002e 2368     		ldr	r3, [r4]
 3311 0030 9A69     		ldr	r2, [r3, #24]
 3312 0032 12F4004F 		tst	r2, #32768
 3313 0036 45D1     		bne	.L422
 3314 0038 94F84020 		ldrb	r2, [r4, #64]	@ zero_extendqisi2
 3315 003c 012A     		cmp	r2, #1
 3316 003e 43D0     		beq	.L423
 3317 0040 0122     		movs	r2, #1
 3318 0042 84F84020 		strb	r2, [r4, #64]
 3319 0046 2122     		movs	r2, #33
 3320 0048 84F84120 		strb	r2, [r4, #65]
 3321 004c 4022     		movs	r2, #64
 3322 004e 84F84220 		strb	r2, [r4, #66]
 3323 0052 0022     		movs	r2, #0
 3324 0054 6264     		str	r2, [r4, #68]
 3325 0056 2285     		strh	r2, [r4, #40]	@ movhi
 3326 0058 089A     		ldr	r2, [sp, #32]
 3327 005a 6262     		str	r2, [r4, #36]
 3328 005c A4F82A80 		strh	r8, [r4, #42]	@ movhi
 3329 0060 1A4A     		ldr	r2, .L428
 3330 0062 E262     		str	r2, [r4, #44]
 3331 0064 1A4A     		ldr	r2, .L428+4
 3332 0066 6263     		str	r2, [r4, #52]
 3333 0068 E664     		str	r6, [r4, #76]
 3334 006a 012D     		cmp	r5, #1
 3335 006c 20D0     		beq	.L427
 3336 006e 3A0A     		lsrs	r2, r7, #8
 3337 0070 9A62     		str	r2, [r3, #40]
 3338 0072 FFB2     		uxtb	r7, r7
 3339 0074 2765     		str	r7, [r4, #80]
 3340              	.L420:
 3341 0076 174B     		ldr	r3, .L428+8
 3342 0078 0093     		str	r3, [sp]
 3343 007a 4FF08073 		mov	r3, #16777216
 3344 007e EAB2     		uxtb	r2, r5
 3345 0080 3146     		mov	r1, r6
 3346 0082 2046     		mov	r0, r4
 3347 0084 FFF7FEFF 		bl	I2C_TransferConfig
 3348 0088 0025     		movs	r5, #0
 3349 008a 84F84050 		strb	r5, [r4, #64]
 3350 008e 0121     		movs	r1, #1
 3351 0090 2046     		mov	r0, r4
 3352 0092 FFF7FEFF 		bl	I2C_Enable_IRQ
 3353 0096 2846     		mov	r0, r5
 3354 0098 11E0     		b	.L417
 3355              	.L425:
 3356 009a 40F6F121 		movw	r1, #2801
 3357 009e 0E48     		ldr	r0, .L428+12
 3358 00a0 FFF7FEFF 		bl	assert_failed
 3359 00a4 B9E7     		b	.L416
 3360              	.L426:
 3361 00a6 4FF40073 		mov	r3, #512
 3362 00aa 6364     		str	r3, [r4, #68]
 3363 00ac 0120     		movs	r0, #1
ARM GAS  C:\Users\thewo\AppData\Local\Temp\ccUp1enP.s 			page 59


 3364 00ae 06E0     		b	.L417
 3365              	.L427:
 3366 00b0 FFB2     		uxtb	r7, r7
 3367 00b2 9F62     		str	r7, [r3, #40]
 3368 00b4 4FF0FF33 		mov	r3, #-1
 3369 00b8 2365     		str	r3, [r4, #80]
 3370 00ba DCE7     		b	.L420
 3371              	.L421:
 3372 00bc 0220     		movs	r0, #2
 3373              	.L417:
 3374 00be 02B0     		add	sp, sp, #8
 3375              		@ sp needed
 3376 00c0 BDE8F081 		pop	{r4, r5, r6, r7, r8, pc}
 3377              	.L422:
 3378 00c4 0220     		movs	r0, #2
 3379 00c6 FAE7     		b	.L417
 3380              	.L423:
 3381 00c8 0220     		movs	r0, #2
 3382 00ca F8E7     		b	.L417
 3383              	.L429:
 3384              		.align	2
 3385              	.L428:
 3386 00cc 0000FFFF 		.word	-65536
 3387 00d0 00000000 		.word	I2C_Mem_ISR_IT
 3388 00d4 00200080 		.word	-2147475456
 3389 00d8 00000000 		.word	.LC0
 3391              		.section	.text.HAL_I2C_Mem_Read_IT,"ax",%progbits
 3392              		.align	1
 3393              		.global	HAL_I2C_Mem_Read_IT
 3394              		.syntax unified
 3395              		.thumb
 3396              		.thumb_func
 3398              	HAL_I2C_Mem_Read_IT:
 3399              		@ args = 8, pretend = 0, frame = 0
 3400              		@ frame_needed = 0, uses_anonymous_args = 0
 3401 0000 2DE9F041 		push	{r4, r5, r6, r7, r8, lr}
 3402 0004 82B0     		sub	sp, sp, #8
 3403 0006 0446     		mov	r4, r0
 3404 0008 0E46     		mov	r6, r1
 3405 000a 1746     		mov	r7, r2
 3406 000c 1D46     		mov	r5, r3
 3407 000e BDF82480 		ldrh	r8, [sp, #36]
 3408 0012 013B     		subs	r3, r3, #1
 3409 0014 9BB2     		uxth	r3, r3
 3410 0016 012B     		cmp	r3, #1
 3411 0018 3DD8     		bhi	.L440
 3412              	.L431:
 3413 001a 94F84130 		ldrb	r3, [r4, #65]	@ zero_extendqisi2
 3414 001e 202B     		cmp	r3, #32
 3415 0020 4AD1     		bne	.L436
 3416 0022 089B     		ldr	r3, [sp, #32]
 3417 0024 B8F1000F 		cmp	r8, #0
 3418 0028 18BF     		it	ne
 3419 002a 002B     		cmpne	r3, #0
 3420 002c 39D0     		beq	.L441
 3421 002e 2368     		ldr	r3, [r4]
 3422 0030 9A69     		ldr	r2, [r3, #24]
ARM GAS  C:\Users\thewo\AppData\Local\Temp\ccUp1enP.s 			page 60


 3423 0032 12F4004F 		tst	r2, #32768
 3424 0036 43D1     		bne	.L437
 3425 0038 94F84020 		ldrb	r2, [r4, #64]	@ zero_extendqisi2
 3426 003c 012A     		cmp	r2, #1
 3427 003e 41D0     		beq	.L438
 3428 0040 0122     		movs	r2, #1
 3429 0042 84F84020 		strb	r2, [r4, #64]
 3430 0046 2222     		movs	r2, #34
 3431 0048 84F84120 		strb	r2, [r4, #65]
 3432 004c 4022     		movs	r2, #64
 3433 004e 84F84220 		strb	r2, [r4, #66]
 3434 0052 0022     		movs	r2, #0
 3435 0054 6264     		str	r2, [r4, #68]
 3436 0056 089A     		ldr	r2, [sp, #32]
 3437 0058 6262     		str	r2, [r4, #36]
 3438 005a A4F82A80 		strh	r8, [r4, #42]	@ movhi
 3439 005e 1A4A     		ldr	r2, .L443
 3440 0060 E262     		str	r2, [r4, #44]
 3441 0062 1A4A     		ldr	r2, .L443+4
 3442 0064 6263     		str	r2, [r4, #52]
 3443 0066 E664     		str	r6, [r4, #76]
 3444 0068 012D     		cmp	r5, #1
 3445 006a 1FD0     		beq	.L442
 3446 006c 3A0A     		lsrs	r2, r7, #8
 3447 006e 9A62     		str	r2, [r3, #40]
 3448 0070 FFB2     		uxtb	r7, r7
 3449 0072 2765     		str	r7, [r4, #80]
 3450              	.L435:
 3451 0074 164B     		ldr	r3, .L443+8
 3452 0076 0093     		str	r3, [sp]
 3453 0078 0023     		movs	r3, #0
 3454 007a EAB2     		uxtb	r2, r5
 3455 007c 3146     		mov	r1, r6
 3456 007e 2046     		mov	r0, r4
 3457 0080 FFF7FEFF 		bl	I2C_TransferConfig
 3458 0084 0025     		movs	r5, #0
 3459 0086 84F84050 		strb	r5, [r4, #64]
 3460 008a 0121     		movs	r1, #1
 3461 008c 2046     		mov	r0, r4
 3462 008e FFF7FEFF 		bl	I2C_Enable_IRQ
 3463 0092 2846     		mov	r0, r5
 3464 0094 11E0     		b	.L432
 3465              	.L440:
 3466 0096 40F64931 		movw	r1, #2889
 3467 009a 0E48     		ldr	r0, .L443+12
 3468 009c FFF7FEFF 		bl	assert_failed
 3469 00a0 BBE7     		b	.L431
 3470              	.L441:
 3471 00a2 4FF40073 		mov	r3, #512
 3472 00a6 6364     		str	r3, [r4, #68]
 3473 00a8 0120     		movs	r0, #1
 3474 00aa 06E0     		b	.L432
 3475              	.L442:
 3476 00ac FFB2     		uxtb	r7, r7
 3477 00ae 9F62     		str	r7, [r3, #40]
 3478 00b0 4FF0FF33 		mov	r3, #-1
 3479 00b4 2365     		str	r3, [r4, #80]
ARM GAS  C:\Users\thewo\AppData\Local\Temp\ccUp1enP.s 			page 61


 3480 00b6 DDE7     		b	.L435
 3481              	.L436:
 3482 00b8 0220     		movs	r0, #2
 3483              	.L432:
 3484 00ba 02B0     		add	sp, sp, #8
 3485              		@ sp needed
 3486 00bc BDE8F081 		pop	{r4, r5, r6, r7, r8, pc}
 3487              	.L437:
 3488 00c0 0220     		movs	r0, #2
 3489 00c2 FAE7     		b	.L432
 3490              	.L438:
 3491 00c4 0220     		movs	r0, #2
 3492 00c6 F8E7     		b	.L432
 3493              	.L444:
 3494              		.align	2
 3495              	.L443:
 3496 00c8 0000FFFF 		.word	-65536
 3497 00cc 00000000 		.word	I2C_Mem_ISR_IT
 3498 00d0 00200080 		.word	-2147475456
 3499 00d4 00000000 		.word	.LC0
 3501              		.section	.text.HAL_I2C_Mem_Write_DMA,"ax",%progbits
 3502              		.align	1
 3503              		.global	HAL_I2C_Mem_Write_DMA
 3504              		.syntax unified
 3505              		.thumb
 3506              		.thumb_func
 3508              	HAL_I2C_Mem_Write_DMA:
 3509              		@ args = 8, pretend = 0, frame = 0
 3510              		@ frame_needed = 0, uses_anonymous_args = 0
 3511 0000 2DE9F043 		push	{r4, r5, r6, r7, r8, r9, lr}
 3512 0004 83B0     		sub	sp, sp, #12
 3513 0006 0446     		mov	r4, r0
 3514 0008 8846     		mov	r8, r1
 3515 000a 1646     		mov	r6, r2
 3516 000c 1D46     		mov	r5, r3
 3517 000e 0A9F     		ldr	r7, [sp, #40]
 3518 0010 BDF82C90 		ldrh	r9, [sp, #44]
 3519 0014 013B     		subs	r3, r3, #1
 3520 0016 9BB2     		uxth	r3, r3
 3521 0018 012B     		cmp	r3, #1
 3522 001a 58D8     		bhi	.L461
 3523              	.L446:
 3524 001c 94F84130 		ldrb	r3, [r4, #65]	@ zero_extendqisi2
 3525 0020 202B     		cmp	r3, #32
 3526 0022 40F08780 		bne	.L456
 3527 0026 B9F1000F 		cmp	r9, #0
 3528 002a 18BF     		it	ne
 3529 002c 002F     		cmpne	r7, #0
 3530 002e 54D0     		beq	.L462
 3531 0030 2268     		ldr	r2, [r4]
 3532 0032 9369     		ldr	r3, [r2, #24]
 3533 0034 13F4004F 		tst	r3, #32768
 3534 0038 40F08180 		bne	.L457
 3535 003c 94F84030 		ldrb	r3, [r4, #64]	@ zero_extendqisi2
 3536 0040 012B     		cmp	r3, #1
 3537 0042 7ED0     		beq	.L458
 3538 0044 0123     		movs	r3, #1
ARM GAS  C:\Users\thewo\AppData\Local\Temp\ccUp1enP.s 			page 62


 3539 0046 84F84030 		strb	r3, [r4, #64]
 3540 004a 2123     		movs	r3, #33
 3541 004c 84F84130 		strb	r3, [r4, #65]
 3542 0050 4023     		movs	r3, #64
 3543 0052 84F84230 		strb	r3, [r4, #66]
 3544 0056 0023     		movs	r3, #0
 3545 0058 6364     		str	r3, [r4, #68]
 3546 005a 6762     		str	r7, [r4, #36]
 3547 005c A4F82A90 		strh	r9, [r4, #42]	@ movhi
 3548 0060 A3F58033 		sub	r3, r3, #65536
 3549 0064 E362     		str	r3, [r4, #44]
 3550 0066 384B     		ldr	r3, .L465
 3551 0068 6363     		str	r3, [r4, #52]
 3552 006a C4F84C80 		str	r8, [r4, #76]
 3553 006e 638D     		ldrh	r3, [r4, #42]
 3554 0070 9BB2     		uxth	r3, r3
 3555 0072 FF2B     		cmp	r3, #255
 3556 0074 36D9     		bls	.L449
 3557 0076 FF23     		movs	r3, #255
 3558 0078 2385     		strh	r3, [r4, #40]	@ movhi
 3559              	.L450:
 3560 007a 012D     		cmp	r5, #1
 3561 007c 35D0     		beq	.L463
 3562 007e 330A     		lsrs	r3, r6, #8
 3563 0080 9362     		str	r3, [r2, #40]
 3564 0082 F6B2     		uxtb	r6, r6
 3565 0084 2665     		str	r6, [r4, #80]
 3566              	.L452:
 3567 0086 A36B     		ldr	r3, [r4, #56]
 3568 0088 002B     		cmp	r3, #0
 3569 008a 34D0     		beq	.L453
 3570 008c 2F4A     		ldr	r2, .L465+4
 3571 008e DA63     		str	r2, [r3, #60]
 3572 0090 A36B     		ldr	r3, [r4, #56]
 3573 0092 2F4A     		ldr	r2, .L465+8
 3574 0094 DA64     		str	r2, [r3, #76]
 3575 0096 A26B     		ldr	r2, [r4, #56]
 3576 0098 0023     		movs	r3, #0
 3577 009a 1364     		str	r3, [r2, #64]
 3578 009c A26B     		ldr	r2, [r4, #56]
 3579 009e 1365     		str	r3, [r2, #80]
 3580 00a0 2268     		ldr	r2, [r4]
 3581 00a2 238D     		ldrh	r3, [r4, #40]
 3582 00a4 2832     		adds	r2, r2, #40
 3583 00a6 3946     		mov	r1, r7
 3584 00a8 A06B     		ldr	r0, [r4, #56]
 3585 00aa FFF7FEFF 		bl	HAL_DMA_Start_IT
 3586 00ae 0646     		mov	r6, r0
 3587 00b0 78B3     		cbz	r0, .L464
 3588 00b2 2023     		movs	r3, #32
 3589 00b4 84F84130 		strb	r3, [r4, #65]
 3590 00b8 0022     		movs	r2, #0
 3591 00ba 84F84220 		strb	r2, [r4, #66]
 3592 00be 636C     		ldr	r3, [r4, #68]
 3593 00c0 43F01003 		orr	r3, r3, #16
 3594 00c4 6364     		str	r3, [r4, #68]
 3595 00c6 84F84020 		strb	r2, [r4, #64]
ARM GAS  C:\Users\thewo\AppData\Local\Temp\ccUp1enP.s 			page 63


 3596 00ca 0126     		movs	r6, #1
 3597 00cc 33E0     		b	.L447
 3598              	.L461:
 3599 00ce 40F6A231 		movw	r1, #2978
 3600 00d2 2048     		ldr	r0, .L465+12
 3601 00d4 FFF7FEFF 		bl	assert_failed
 3602 00d8 A0E7     		b	.L446
 3603              	.L462:
 3604 00da 4FF40073 		mov	r3, #512
 3605 00de 6364     		str	r3, [r4, #68]
 3606 00e0 0126     		movs	r6, #1
 3607 00e2 28E0     		b	.L447
 3608              	.L449:
 3609 00e4 638D     		ldrh	r3, [r4, #42]
 3610 00e6 2385     		strh	r3, [r4, #40]	@ movhi
 3611 00e8 C7E7     		b	.L450
 3612              	.L463:
 3613 00ea F6B2     		uxtb	r6, r6
 3614 00ec 9662     		str	r6, [r2, #40]
 3615 00ee 4FF0FF33 		mov	r3, #-1
 3616 00f2 2365     		str	r3, [r4, #80]
 3617 00f4 C7E7     		b	.L452
 3618              	.L453:
 3619 00f6 2023     		movs	r3, #32
 3620 00f8 84F84130 		strb	r3, [r4, #65]
 3621 00fc 0022     		movs	r2, #0
 3622 00fe 84F84220 		strb	r2, [r4, #66]
 3623 0102 636C     		ldr	r3, [r4, #68]
 3624 0104 43F08003 		orr	r3, r3, #128
 3625 0108 6364     		str	r3, [r4, #68]
 3626 010a 84F84020 		strb	r2, [r4, #64]
 3627 010e 0126     		movs	r6, #1
 3628 0110 11E0     		b	.L447
 3629              	.L464:
 3630 0112 114B     		ldr	r3, .L465+16
 3631 0114 0093     		str	r3, [sp]
 3632 0116 4FF08073 		mov	r3, #16777216
 3633 011a EAB2     		uxtb	r2, r5
 3634 011c 4146     		mov	r1, r8
 3635 011e 2046     		mov	r0, r4
 3636 0120 FFF7FEFF 		bl	I2C_TransferConfig
 3637 0124 0023     		movs	r3, #0
 3638 0126 84F84030 		strb	r3, [r4, #64]
 3639 012a 0121     		movs	r1, #1
 3640 012c 2046     		mov	r0, r4
 3641 012e FFF7FEFF 		bl	I2C_Enable_IRQ
 3642 0132 00E0     		b	.L447
 3643              	.L456:
 3644 0134 0226     		movs	r6, #2
 3645              	.L447:
 3646 0136 3046     		mov	r0, r6
 3647 0138 03B0     		add	sp, sp, #12
 3648              		@ sp needed
 3649 013a BDE8F083 		pop	{r4, r5, r6, r7, r8, r9, pc}
 3650              	.L457:
 3651 013e 0226     		movs	r6, #2
 3652 0140 F9E7     		b	.L447
ARM GAS  C:\Users\thewo\AppData\Local\Temp\ccUp1enP.s 			page 64


 3653              	.L458:
 3654 0142 0226     		movs	r6, #2
 3655 0144 F7E7     		b	.L447
 3656              	.L466:
 3657 0146 00BF     		.align	2
 3658              	.L465:
 3659 0148 00000000 		.word	I2C_Mem_ISR_DMA
 3660 014c 00000000 		.word	I2C_DMAMasterTransmitCplt
 3661 0150 00000000 		.word	I2C_DMAError
 3662 0154 00000000 		.word	.LC0
 3663 0158 00200080 		.word	-2147475456
 3665              		.section	.text.HAL_I2C_Mem_Read_DMA,"ax",%progbits
 3666              		.align	1
 3667              		.global	HAL_I2C_Mem_Read_DMA
 3668              		.syntax unified
 3669              		.thumb
 3670              		.thumb_func
 3672              	HAL_I2C_Mem_Read_DMA:
 3673              		@ args = 8, pretend = 0, frame = 0
 3674              		@ frame_needed = 0, uses_anonymous_args = 0
 3675 0000 2DE9F043 		push	{r4, r5, r6, r7, r8, r9, lr}
 3676 0004 83B0     		sub	sp, sp, #12
 3677 0006 0446     		mov	r4, r0
 3678 0008 8846     		mov	r8, r1
 3679 000a 1646     		mov	r6, r2
 3680 000c 1D46     		mov	r5, r3
 3681 000e 0A9F     		ldr	r7, [sp, #40]
 3682 0010 BDF82C90 		ldrh	r9, [sp, #44]
 3683 0014 013B     		subs	r3, r3, #1
 3684 0016 9BB2     		uxth	r3, r3
 3685 0018 012B     		cmp	r3, #1
 3686 001a 57D8     		bhi	.L483
 3687              	.L468:
 3688 001c 94F84130 		ldrb	r3, [r4, #65]	@ zero_extendqisi2
 3689 0020 202B     		cmp	r3, #32
 3690 0022 40F08580 		bne	.L478
 3691 0026 B9F1000F 		cmp	r9, #0
 3692 002a 18BF     		it	ne
 3693 002c 002F     		cmpne	r7, #0
 3694 002e 53D0     		beq	.L484
 3695 0030 2268     		ldr	r2, [r4]
 3696 0032 9369     		ldr	r3, [r2, #24]
 3697 0034 13F4004F 		tst	r3, #32768
 3698 0038 7FD1     		bne	.L479
 3699 003a 94F84030 		ldrb	r3, [r4, #64]	@ zero_extendqisi2
 3700 003e 012B     		cmp	r3, #1
 3701 0040 7DD0     		beq	.L480
 3702 0042 0123     		movs	r3, #1
 3703 0044 84F84030 		strb	r3, [r4, #64]
 3704 0048 2223     		movs	r3, #34
 3705 004a 84F84130 		strb	r3, [r4, #65]
 3706 004e 4023     		movs	r3, #64
 3707 0050 84F84230 		strb	r3, [r4, #66]
 3708 0054 0023     		movs	r3, #0
 3709 0056 6364     		str	r3, [r4, #68]
 3710 0058 6762     		str	r7, [r4, #36]
 3711 005a A4F82A90 		strh	r9, [r4, #42]	@ movhi
ARM GAS  C:\Users\thewo\AppData\Local\Temp\ccUp1enP.s 			page 65


 3712 005e A3F58033 		sub	r3, r3, #65536
 3713 0062 E362     		str	r3, [r4, #44]
 3714 0064 374B     		ldr	r3, .L487
 3715 0066 6363     		str	r3, [r4, #52]
 3716 0068 C4F84C80 		str	r8, [r4, #76]
 3717 006c 638D     		ldrh	r3, [r4, #42]
 3718 006e 9BB2     		uxth	r3, r3
 3719 0070 FF2B     		cmp	r3, #255
 3720 0072 36D9     		bls	.L471
 3721 0074 FF23     		movs	r3, #255
 3722 0076 2385     		strh	r3, [r4, #40]	@ movhi
 3723              	.L472:
 3724 0078 012D     		cmp	r5, #1
 3725 007a 35D0     		beq	.L485
 3726 007c 330A     		lsrs	r3, r6, #8
 3727 007e 9362     		str	r3, [r2, #40]
 3728 0080 F6B2     		uxtb	r6, r6
 3729 0082 2665     		str	r6, [r4, #80]
 3730              	.L474:
 3731 0084 E36B     		ldr	r3, [r4, #60]
 3732 0086 002B     		cmp	r3, #0
 3733 0088 34D0     		beq	.L475
 3734 008a 2F4A     		ldr	r2, .L487+4
 3735 008c DA63     		str	r2, [r3, #60]
 3736 008e E36B     		ldr	r3, [r4, #60]
 3737 0090 2E4A     		ldr	r2, .L487+8
 3738 0092 DA64     		str	r2, [r3, #76]
 3739 0094 E26B     		ldr	r2, [r4, #60]
 3740 0096 0023     		movs	r3, #0
 3741 0098 1364     		str	r3, [r2, #64]
 3742 009a E26B     		ldr	r2, [r4, #60]
 3743 009c 1365     		str	r3, [r2, #80]
 3744 009e 2168     		ldr	r1, [r4]
 3745 00a0 238D     		ldrh	r3, [r4, #40]
 3746 00a2 3A46     		mov	r2, r7
 3747 00a4 2431     		adds	r1, r1, #36
 3748 00a6 E06B     		ldr	r0, [r4, #60]
 3749 00a8 FFF7FEFF 		bl	HAL_DMA_Start_IT
 3750 00ac 0646     		mov	r6, r0
 3751 00ae 78B3     		cbz	r0, .L486
 3752 00b0 2023     		movs	r3, #32
 3753 00b2 84F84130 		strb	r3, [r4, #65]
 3754 00b6 0022     		movs	r2, #0
 3755 00b8 84F84220 		strb	r2, [r4, #66]
 3756 00bc 636C     		ldr	r3, [r4, #68]
 3757 00be 43F01003 		orr	r3, r3, #16
 3758 00c2 6364     		str	r3, [r4, #68]
 3759 00c4 84F84020 		strb	r2, [r4, #64]
 3760 00c8 0126     		movs	r6, #1
 3761 00ca 32E0     		b	.L469
 3762              	.L483:
 3763 00cc 40F63441 		movw	r1, #3124
 3764 00d0 1F48     		ldr	r0, .L487+12
 3765 00d2 FFF7FEFF 		bl	assert_failed
 3766 00d6 A1E7     		b	.L468
 3767              	.L484:
 3768 00d8 4FF40073 		mov	r3, #512
ARM GAS  C:\Users\thewo\AppData\Local\Temp\ccUp1enP.s 			page 66


 3769 00dc 6364     		str	r3, [r4, #68]
 3770 00de 0126     		movs	r6, #1
 3771 00e0 27E0     		b	.L469
 3772              	.L471:
 3773 00e2 638D     		ldrh	r3, [r4, #42]
 3774 00e4 2385     		strh	r3, [r4, #40]	@ movhi
 3775 00e6 C7E7     		b	.L472
 3776              	.L485:
 3777 00e8 F6B2     		uxtb	r6, r6
 3778 00ea 9662     		str	r6, [r2, #40]
 3779 00ec 4FF0FF33 		mov	r3, #-1
 3780 00f0 2365     		str	r3, [r4, #80]
 3781 00f2 C7E7     		b	.L474
 3782              	.L475:
 3783 00f4 2023     		movs	r3, #32
 3784 00f6 84F84130 		strb	r3, [r4, #65]
 3785 00fa 0022     		movs	r2, #0
 3786 00fc 84F84220 		strb	r2, [r4, #66]
 3787 0100 636C     		ldr	r3, [r4, #68]
 3788 0102 43F08003 		orr	r3, r3, #128
 3789 0106 6364     		str	r3, [r4, #68]
 3790 0108 84F84020 		strb	r2, [r4, #64]
 3791 010c 0126     		movs	r6, #1
 3792 010e 10E0     		b	.L469
 3793              	.L486:
 3794 0110 104B     		ldr	r3, .L487+16
 3795 0112 0093     		str	r3, [sp]
 3796 0114 0023     		movs	r3, #0
 3797 0116 EAB2     		uxtb	r2, r5
 3798 0118 4146     		mov	r1, r8
 3799 011a 2046     		mov	r0, r4
 3800 011c FFF7FEFF 		bl	I2C_TransferConfig
 3801 0120 0023     		movs	r3, #0
 3802 0122 84F84030 		strb	r3, [r4, #64]
 3803 0126 0121     		movs	r1, #1
 3804 0128 2046     		mov	r0, r4
 3805 012a FFF7FEFF 		bl	I2C_Enable_IRQ
 3806 012e 00E0     		b	.L469
 3807              	.L478:
 3808 0130 0226     		movs	r6, #2
 3809              	.L469:
 3810 0132 3046     		mov	r0, r6
 3811 0134 03B0     		add	sp, sp, #12
 3812              		@ sp needed
 3813 0136 BDE8F083 		pop	{r4, r5, r6, r7, r8, r9, pc}
 3814              	.L479:
 3815 013a 0226     		movs	r6, #2
 3816 013c F9E7     		b	.L469
 3817              	.L480:
 3818 013e 0226     		movs	r6, #2
 3819 0140 F7E7     		b	.L469
 3820              	.L488:
 3821 0142 00BF     		.align	2
 3822              	.L487:
 3823 0144 00000000 		.word	I2C_Mem_ISR_DMA
 3824 0148 00000000 		.word	I2C_DMAMasterReceiveCplt
 3825 014c 00000000 		.word	I2C_DMAError
ARM GAS  C:\Users\thewo\AppData\Local\Temp\ccUp1enP.s 			page 67


 3826 0150 00000000 		.word	.LC0
 3827 0154 00200080 		.word	-2147475456
 3829              		.section	.text.HAL_I2C_IsDeviceReady,"ax",%progbits
 3830              		.align	1
 3831              		.global	HAL_I2C_IsDeviceReady
 3832              		.syntax unified
 3833              		.thumb
 3834              		.thumb_func
 3836              	HAL_I2C_IsDeviceReady:
 3837              		@ args = 0, pretend = 0, frame = 8
 3838              		@ frame_needed = 0, uses_anonymous_args = 0
 3839 0000 2DE9F047 		push	{r4, r5, r6, r7, r8, r9, r10, lr}
 3840 0004 84B0     		sub	sp, sp, #16
 3841 0006 1D46     		mov	r5, r3
 3842 0008 0023     		movs	r3, #0
 3843 000a 0393     		str	r3, [sp, #12]
 3844 000c 90F84130 		ldrb	r3, [r0, #65]	@ zero_extendqisi2
 3845 0010 202B     		cmp	r3, #32
 3846 0012 40F09F80 		bne	.L502
 3847 0016 0646     		mov	r6, r0
 3848 0018 8946     		mov	r9, r1
 3849 001a 9046     		mov	r8, r2
 3850 001c 0368     		ldr	r3, [r0]
 3851 001e 9B69     		ldr	r3, [r3, #24]
 3852 0020 13F4004F 		tst	r3, #32768
 3853 0024 40F09880 		bne	.L503
 3854 0028 90F84030 		ldrb	r3, [r0, #64]	@ zero_extendqisi2
 3855 002c 012B     		cmp	r3, #1
 3856 002e 00F09580 		beq	.L504
 3857 0032 0123     		movs	r3, #1
 3858 0034 80F84030 		strb	r3, [r0, #64]
 3859 0038 2423     		movs	r3, #36
 3860 003a 80F84130 		strb	r3, [r0, #65]
 3861 003e 0023     		movs	r3, #0
 3862 0040 4364     		str	r3, [r0, #68]
 3863 0042 9A46     		mov	r10, r3
 3864              	.L501:
 3865 0044 F368     		ldr	r3, [r6, #12]
 3866 0046 012B     		cmp	r3, #1
 3867 0048 10D0     		beq	.L509
 3868 004a C9F30902 		ubfx	r2, r9, #0, #10
 3869 004e 444B     		ldr	r3, .L513
 3870 0050 1343     		orrs	r3, r3, r2
 3871              	.L492:
 3872 0052 3268     		ldr	r2, [r6]
 3873 0054 5360     		str	r3, [r2, #4]
 3874 0056 FFF7FEFF 		bl	HAL_GetTick
 3875 005a 0746     		mov	r7, r0
 3876 005c 3268     		ldr	r2, [r6]
 3877 005e 9369     		ldr	r3, [r2, #24]
 3878 0060 C3F3401C 		ubfx	ip, r3, #5, #1
 3879 0064 9369     		ldr	r3, [r2, #24]
 3880 0066 C3F30013 		ubfx	r3, r3, #4, #1
 3881 006a 0BE0     		b	.L493
 3882              	.L509:
 3883 006c C9F30902 		ubfx	r2, r9, #0, #10
 3884 0070 3C4B     		ldr	r3, .L513+4
ARM GAS  C:\Users\thewo\AppData\Local\Temp\ccUp1enP.s 			page 68


 3885 0072 1343     		orrs	r3, r3, r2
 3886 0074 EDE7     		b	.L492
 3887              	.L494:
 3888 0076 3368     		ldr	r3, [r6]
 3889 0078 9C69     		ldr	r4, [r3, #24]
 3890 007a C4F3401C 		ubfx	ip, r4, #5, #1
 3891 007e 9B69     		ldr	r3, [r3, #24]
 3892 0080 C3F30013 		ubfx	r3, r3, #4, #1
 3893              	.L493:
 3894 0084 5CEA030C 		orrs	ip, ip, r3
 3895 0088 17D1     		bne	.L510
 3896 008a B5F1FF3F 		cmp	r5, #-1
 3897 008e F2D0     		beq	.L494
 3898 0090 FFF7FEFF 		bl	HAL_GetTick
 3899 0094 C01B     		subs	r0, r0, r7
 3900 0096 A842     		cmp	r0, r5
 3901 0098 01D8     		bhi	.L495
 3902 009a 002D     		cmp	r5, #0
 3903 009c EBD1     		bne	.L494
 3904              	.L495:
 3905 009e 2023     		movs	r3, #32
 3906 00a0 86F84130 		strb	r3, [r6, #65]
 3907 00a4 736C     		ldr	r3, [r6, #68]
 3908 00a6 43F02003 		orr	r3, r3, #32
 3909 00aa 7364     		str	r3, [r6, #68]
 3910 00ac 0023     		movs	r3, #0
 3911 00ae 86F84030 		strb	r3, [r6, #64]
 3912 00b2 0120     		movs	r0, #1
 3913              	.L490:
 3914 00b4 04B0     		add	sp, sp, #16
 3915              		@ sp needed
 3916 00b6 BDE8F087 		pop	{r4, r5, r6, r7, r8, r9, r10, pc}
 3917              	.L510:
 3918 00ba 3368     		ldr	r3, [r6]
 3919 00bc 9A69     		ldr	r2, [r3, #24]
 3920 00be 12F0100F 		tst	r2, #16
 3921 00c2 33D1     		bne	.L497
 3922 00c4 0097     		str	r7, [sp]
 3923 00c6 2B46     		mov	r3, r5
 3924 00c8 0022     		movs	r2, #0
 3925 00ca 2021     		movs	r1, #32
 3926 00cc 3046     		mov	r0, r6
 3927 00ce FFF7FEFF 		bl	I2C_WaitOnFlagUntilTimeout
 3928 00d2 10B3     		cbz	r0, .L498
 3929 00d4 736C     		ldr	r3, [r6, #68]
 3930 00d6 042B     		cmp	r3, #4
 3931 00d8 19D0     		beq	.L511
 3932 00da 4FF0010A 		mov	r10, #1
 3933              	.L499:
 3934 00de 039B     		ldr	r3, [sp, #12]
 3935 00e0 0133     		adds	r3, r3, #1
 3936 00e2 0393     		str	r3, [sp, #12]
 3937 00e4 039B     		ldr	r3, [sp, #12]
 3938 00e6 4345     		cmp	r3, r8
 3939 00e8 02D2     		bcs	.L500
 3940 00ea BAF1000F 		cmp	r10, #0
 3941 00ee 2ED1     		bne	.L512
ARM GAS  C:\Users\thewo\AppData\Local\Temp\ccUp1enP.s 			page 69


 3942              	.L500:
 3943 00f0 039B     		ldr	r3, [sp, #12]
 3944 00f2 4345     		cmp	r3, r8
 3945 00f4 A6D3     		bcc	.L501
 3946 00f6 2023     		movs	r3, #32
 3947 00f8 86F84130 		strb	r3, [r6, #65]
 3948 00fc 736C     		ldr	r3, [r6, #68]
 3949 00fe 43F02003 		orr	r3, r3, #32
 3950 0102 7364     		str	r3, [r6, #68]
 3951 0104 0023     		movs	r3, #0
 3952 0106 86F84030 		strb	r3, [r6, #64]
 3953 010a 0120     		movs	r0, #1
 3954 010c D2E7     		b	.L490
 3955              	.L511:
 3956 010e 3368     		ldr	r3, [r6]
 3957 0110 2022     		movs	r2, #32
 3958 0112 DA61     		str	r2, [r3, #28]
 3959 0114 0023     		movs	r3, #0
 3960 0116 7364     		str	r3, [r6, #68]
 3961 0118 E1E7     		b	.L499
 3962              	.L498:
 3963 011a 3268     		ldr	r2, [r6]
 3964 011c 2023     		movs	r3, #32
 3965 011e D361     		str	r3, [r2, #28]
 3966 0120 86F84130 		strb	r3, [r6, #65]
 3967 0124 0023     		movs	r3, #0
 3968 0126 86F84030 		strb	r3, [r6, #64]
 3969 012a C3E7     		b	.L490
 3970              	.L497:
 3971 012c 1022     		movs	r2, #16
 3972 012e DA61     		str	r2, [r3, #28]
 3973 0130 0097     		str	r7, [sp]
 3974 0132 2B46     		mov	r3, r5
 3975 0134 0022     		movs	r2, #0
 3976 0136 2021     		movs	r1, #32
 3977 0138 3046     		mov	r0, r6
 3978 013a FFF7FEFF 		bl	I2C_WaitOnFlagUntilTimeout
 3979 013e 18B9     		cbnz	r0, .L506
 3980 0140 3368     		ldr	r3, [r6]
 3981 0142 2022     		movs	r2, #32
 3982 0144 DA61     		str	r2, [r3, #28]
 3983 0146 CAE7     		b	.L499
 3984              	.L506:
 3985 0148 4FF0010A 		mov	r10, #1
 3986 014c C7E7     		b	.L499
 3987              	.L512:
 3988 014e 4FF0000A 		mov	r10, #0
 3989 0152 CDE7     		b	.L500
 3990              	.L502:
 3991 0154 0220     		movs	r0, #2
 3992 0156 ADE7     		b	.L490
 3993              	.L503:
 3994 0158 0220     		movs	r0, #2
 3995 015a ABE7     		b	.L490
 3996              	.L504:
 3997 015c 0220     		movs	r0, #2
 3998 015e A9E7     		b	.L490
ARM GAS  C:\Users\thewo\AppData\Local\Temp\ccUp1enP.s 			page 70


 3999              	.L514:
 4000              		.align	2
 4001              	.L513:
 4002 0160 00280002 		.word	33564672
 4003 0164 00200002 		.word	33562624
 4005              		.section	.text.HAL_I2C_Master_Seq_Transmit_IT,"ax",%progbits
 4006              		.align	1
 4007              		.global	HAL_I2C_Master_Seq_Transmit_IT
 4008              		.syntax unified
 4009              		.thumb
 4010              		.thumb_func
 4012              	HAL_I2C_Master_Seq_Transmit_IT:
 4013              		@ args = 4, pretend = 0, frame = 0
 4014              		@ frame_needed = 0, uses_anonymous_args = 0
 4015 0000 2DE9F041 		push	{r4, r5, r6, r7, r8, lr}
 4016 0004 82B0     		sub	sp, sp, #8
 4017 0006 0446     		mov	r4, r0
 4018 0008 0F46     		mov	r7, r1
 4019 000a 1646     		mov	r6, r2
 4020 000c 9846     		mov	r8, r3
 4021 000e 089D     		ldr	r5, [sp, #32]
 4022 0010 291E     		subs	r1, r5, #0
 4023 0012 18BF     		it	ne
 4024 0014 0121     		movne	r1, #1
 4025 0016 B5F18072 		subs	r2, r5, #16777216
 4026 001a 18BF     		it	ne
 4027 001c 0122     		movne	r2, #1
 4028 001e 1142     		tst	r1, r2
 4029 0020 0CD0     		beq	.L516
 4030 0022 B5F10073 		subs	r3, r5, #33554432
 4031 0026 18BF     		it	ne
 4032 0028 0123     		movne	r3, #1
 4033 002a 3AB1     		cbz	r2, .L516
 4034 002c 33B1     		cbz	r3, .L516
 4035 002e 29B1     		cbz	r1, .L516
 4036 0030 23B1     		cbz	r3, .L516
 4037 0032 AA2D     		cmp	r5, #170
 4038 0034 18BF     		it	ne
 4039 0036 B5F52A4F 		cmpne	r5, #43520
 4040 003a 36D1     		bne	.L532
 4041              	.L516:
 4042 003c 94F84120 		ldrb	r2, [r4, #65]	@ zero_extendqisi2
 4043 0040 202A     		cmp	r2, #32
 4044 0042 76D1     		bne	.L525
 4045 0044 94F84030 		ldrb	r3, [r4, #64]	@ zero_extendqisi2
 4046 0048 012B     		cmp	r3, #1
 4047 004a 74D0     		beq	.L526
 4048 004c 0123     		movs	r3, #1
 4049 004e 84F84030 		strb	r3, [r4, #64]
 4050 0052 2123     		movs	r3, #33
 4051 0054 84F84130 		strb	r3, [r4, #65]
 4052 0058 1023     		movs	r3, #16
 4053 005a 84F84230 		strb	r3, [r4, #66]
 4054 005e 0023     		movs	r3, #0
 4055 0060 6364     		str	r3, [r4, #68]
 4056 0062 6662     		str	r6, [r4, #36]
 4057 0064 A4F82A80 		strh	r8, [r4, #42]	@ movhi
ARM GAS  C:\Users\thewo\AppData\Local\Temp\ccUp1enP.s 			page 71


 4058 0068 E562     		str	r5, [r4, #44]
 4059 006a 344B     		ldr	r3, .L533
 4060 006c 6363     		str	r3, [r4, #52]
 4061 006e 638D     		ldrh	r3, [r4, #42]
 4062 0070 9BB2     		uxth	r3, r3
 4063 0072 FF2B     		cmp	r3, #255
 4064 0074 1FD9     		bls	.L518
 4065 0076 FF23     		movs	r3, #255
 4066 0078 2385     		strh	r3, [r4, #40]	@ movhi
 4067 007a 4FF08078 		mov	r8, #16777216
 4068              	.L519:
 4069 007e 238D     		ldrh	r3, [r4, #40]
 4070 0080 F3B1     		cbz	r3, .L527
 4071 0082 B5F1007F 		cmp	r5, #33554432
 4072 0086 18BF     		it	ne
 4073 0088 002D     		cmpne	r5, #0
 4074 008a 43D1     		bne	.L528
 4075 008c 2368     		ldr	r3, [r4]
 4076 008e 3278     		ldrb	r2, [r6]	@ zero_extendqisi2
 4077 0090 9A62     		str	r2, [r3, #40]
 4078 0092 636A     		ldr	r3, [r4, #36]
 4079 0094 0133     		adds	r3, r3, #1
 4080 0096 6362     		str	r3, [r4, #36]
 4081 0098 268D     		ldrh	r6, [r4, #40]
 4082 009a 638D     		ldrh	r3, [r4, #42]
 4083 009c 9BB2     		uxth	r3, r3
 4084 009e 013B     		subs	r3, r3, #1
 4085 00a0 9BB2     		uxth	r3, r3
 4086 00a2 6385     		strh	r3, [r4, #42]	@ movhi
 4087 00a4 731E     		subs	r3, r6, #1
 4088 00a6 2385     		strh	r3, [r4, #40]	@ movhi
 4089 00a8 0BE0     		b	.L520
 4090              	.L532:
 4091 00aa 40F66251 		movw	r1, #3426
 4092 00ae 2448     		ldr	r0, .L533+4
 4093 00b0 FFF7FEFF 		bl	assert_failed
 4094 00b4 C2E7     		b	.L516
 4095              	.L518:
 4096 00b6 638D     		ldrh	r3, [r4, #42]
 4097 00b8 2385     		strh	r3, [r4, #40]	@ movhi
 4098 00ba D4F82C80 		ldr	r8, [r4, #44]
 4099 00be DEE7     		b	.L519
 4100              	.L527:
 4101 00c0 0026     		movs	r6, #0
 4102              	.L520:
 4103 00c2 236B     		ldr	r3, [r4, #48]
 4104 00c4 112B     		cmp	r3, #17
 4105 00c6 04D1     		bne	.L521
 4106 00c8 B5F52A4F 		cmp	r5, #43520
 4107 00cc 18BF     		it	ne
 4108 00ce AA2D     		cmpne	r5, #170
 4109 00d0 22D1     		bne	.L529
 4110              	.L521:
 4111 00d2 2046     		mov	r0, r4
 4112 00d4 FFF7FEFF 		bl	I2C_ConvertOtherXferOptions
 4113 00d8 638D     		ldrh	r3, [r4, #42]
 4114 00da 9BB2     		uxth	r3, r3
ARM GAS  C:\Users\thewo\AppData\Local\Temp\ccUp1enP.s 			page 72


 4115 00dc FF2B     		cmp	r3, #255
 4116 00de 1DD8     		bhi	.L530
 4117 00e0 D4F82C80 		ldr	r8, [r4, #44]
 4118 00e4 174B     		ldr	r3, .L533+8
 4119              	.L522:
 4120 00e6 B5F1007F 		cmp	r5, #33554432
 4121 00ea 18BF     		it	ne
 4122 00ec 002D     		cmpne	r5, #0
 4123 00ee 17D1     		bne	.L523
 4124 00f0 0093     		str	r3, [sp]
 4125 00f2 4346     		mov	r3, r8
 4126 00f4 F2B2     		uxtb	r2, r6
 4127 00f6 3946     		mov	r1, r7
 4128 00f8 2046     		mov	r0, r4
 4129 00fa FFF7FEFF 		bl	I2C_TransferConfig
 4130              	.L524:
 4131 00fe 0025     		movs	r5, #0
 4132 0100 84F84050 		strb	r5, [r4, #64]
 4133 0104 0121     		movs	r1, #1
 4134 0106 2046     		mov	r0, r4
 4135 0108 FFF7FEFF 		bl	I2C_Enable_IRQ
 4136 010c 2846     		mov	r0, r5
 4137              	.L517:
 4138 010e 02B0     		add	sp, sp, #8
 4139              		@ sp needed
 4140 0110 BDE8F081 		pop	{r4, r5, r6, r7, r8, pc}
 4141              	.L528:
 4142 0114 0026     		movs	r6, #0
 4143 0116 D4E7     		b	.L520
 4144              	.L529:
 4145 0118 0023     		movs	r3, #0
 4146 011a E4E7     		b	.L522
 4147              	.L530:
 4148 011c 094B     		ldr	r3, .L533+8
 4149 011e E2E7     		b	.L522
 4150              	.L523:
 4151 0120 0093     		str	r3, [sp]
 4152 0122 4346     		mov	r3, r8
 4153 0124 94F82820 		ldrb	r2, [r4, #40]	@ zero_extendqisi2
 4154 0128 3946     		mov	r1, r7
 4155 012a 2046     		mov	r0, r4
 4156 012c FFF7FEFF 		bl	I2C_TransferConfig
 4157 0130 E5E7     		b	.L524
 4158              	.L525:
 4159 0132 0220     		movs	r0, #2
 4160 0134 EBE7     		b	.L517
 4161              	.L526:
 4162 0136 0220     		movs	r0, #2
 4163 0138 E9E7     		b	.L517
 4164              	.L534:
 4165 013a 00BF     		.align	2
 4166              	.L533:
 4167 013c 00000000 		.word	I2C_Master_ISR_IT
 4168 0140 00000000 		.word	.LC0
 4169 0144 00200080 		.word	-2147475456
 4171              		.section	.text.HAL_I2C_Master_Seq_Transmit_DMA,"ax",%progbits
 4172              		.align	1
ARM GAS  C:\Users\thewo\AppData\Local\Temp\ccUp1enP.s 			page 73


 4173              		.global	HAL_I2C_Master_Seq_Transmit_DMA
 4174              		.syntax unified
 4175              		.thumb
 4176              		.thumb_func
 4178              	HAL_I2C_Master_Seq_Transmit_DMA:
 4179              		@ args = 4, pretend = 0, frame = 0
 4180              		@ frame_needed = 0, uses_anonymous_args = 0
 4181 0000 2DE9F043 		push	{r4, r5, r6, r7, r8, r9, lr}
 4182 0004 83B0     		sub	sp, sp, #12
 4183 0006 0446     		mov	r4, r0
 4184 0008 0F46     		mov	r7, r1
 4185 000a 1646     		mov	r6, r2
 4186 000c 9846     		mov	r8, r3
 4187 000e 0A9D     		ldr	r5, [sp, #40]
 4188 0010 291E     		subs	r1, r5, #0
 4189 0012 18BF     		it	ne
 4190 0014 0121     		movne	r1, #1
 4191 0016 B5F18072 		subs	r2, r5, #16777216
 4192 001a 18BF     		it	ne
 4193 001c 0122     		movne	r2, #1
 4194 001e 1142     		tst	r1, r2
 4195 0020 0CD0     		beq	.L536
 4196 0022 B5F10073 		subs	r3, r5, #33554432
 4197 0026 18BF     		it	ne
 4198 0028 0123     		movne	r3, #1
 4199 002a 3AB1     		cbz	r2, .L536
 4200 002c 33B1     		cbz	r3, .L536
 4201 002e 29B1     		cbz	r1, .L536
 4202 0030 23B1     		cbz	r3, .L536
 4203 0032 AA2D     		cmp	r5, #170
 4204 0034 18BF     		it	ne
 4205 0036 B5F52A4F 		cmpne	r5, #43520
 4206 003a 38D1     		bne	.L560
 4207              	.L536:
 4208 003c 94F84120 		ldrb	r2, [r4, #65]	@ zero_extendqisi2
 4209 0040 202A     		cmp	r2, #32
 4210 0042 40F0D980 		bne	.L552
 4211 0046 94F84030 		ldrb	r3, [r4, #64]	@ zero_extendqisi2
 4212 004a 012B     		cmp	r3, #1
 4213 004c 00F0D880 		beq	.L553
 4214 0050 0123     		movs	r3, #1
 4215 0052 84F84030 		strb	r3, [r4, #64]
 4216 0056 2123     		movs	r3, #33
 4217 0058 84F84130 		strb	r3, [r4, #65]
 4218 005c 1023     		movs	r3, #16
 4219 005e 84F84230 		strb	r3, [r4, #66]
 4220 0062 0023     		movs	r3, #0
 4221 0064 6364     		str	r3, [r4, #68]
 4222 0066 6662     		str	r6, [r4, #36]
 4223 0068 A4F82A80 		strh	r8, [r4, #42]	@ movhi
 4224 006c E562     		str	r5, [r4, #44]
 4225 006e 654B     		ldr	r3, .L561
 4226 0070 6363     		str	r3, [r4, #52]
 4227 0072 638D     		ldrh	r3, [r4, #42]
 4228 0074 9BB2     		uxth	r3, r3
 4229 0076 FF2B     		cmp	r3, #255
 4230 0078 1FD9     		bls	.L538
ARM GAS  C:\Users\thewo\AppData\Local\Temp\ccUp1enP.s 			page 74


 4231 007a FF23     		movs	r3, #255
 4232 007c 2385     		strh	r3, [r4, #40]	@ movhi
 4233 007e 4FF08078 		mov	r8, #16777216
 4234              	.L539:
 4235 0082 238D     		ldrh	r3, [r4, #40]
 4236 0084 F3B1     		cbz	r3, .L554
 4237 0086 B5F1007F 		cmp	r5, #33554432
 4238 008a 18BF     		it	ne
 4239 008c 002D     		cmpne	r5, #0
 4240 008e 2ED1     		bne	.L555
 4241 0090 2368     		ldr	r3, [r4]
 4242 0092 3278     		ldrb	r2, [r6]	@ zero_extendqisi2
 4243 0094 9A62     		str	r2, [r3, #40]
 4244 0096 636A     		ldr	r3, [r4, #36]
 4245 0098 0133     		adds	r3, r3, #1
 4246 009a 6362     		str	r3, [r4, #36]
 4247 009c 268D     		ldrh	r6, [r4, #40]
 4248 009e 638D     		ldrh	r3, [r4, #42]
 4249 00a0 9BB2     		uxth	r3, r3
 4250 00a2 013B     		subs	r3, r3, #1
 4251 00a4 9BB2     		uxth	r3, r3
 4252 00a6 6385     		strh	r3, [r4, #42]	@ movhi
 4253 00a8 731E     		subs	r3, r6, #1
 4254 00aa 2385     		strh	r3, [r4, #40]	@ movhi
 4255 00ac 0BE0     		b	.L540
 4256              	.L560:
 4257 00ae 40F6D551 		movw	r1, #3541
 4258 00b2 5548     		ldr	r0, .L561+4
 4259 00b4 FFF7FEFF 		bl	assert_failed
 4260 00b8 C0E7     		b	.L536
 4261              	.L538:
 4262 00ba 638D     		ldrh	r3, [r4, #42]
 4263 00bc 2385     		strh	r3, [r4, #40]	@ movhi
 4264 00be D4F82C80 		ldr	r8, [r4, #44]
 4265 00c2 DEE7     		b	.L539
 4266              	.L554:
 4267 00c4 0026     		movs	r6, #0
 4268              	.L540:
 4269 00c6 236B     		ldr	r3, [r4, #48]
 4270 00c8 112B     		cmp	r3, #17
 4271 00ca 04D1     		bne	.L541
 4272 00cc B5F52A4F 		cmp	r5, #43520
 4273 00d0 18BF     		it	ne
 4274 00d2 AA2D     		cmpne	r5, #170
 4275 00d4 0DD1     		bne	.L556
 4276              	.L541:
 4277 00d6 2046     		mov	r0, r4
 4278 00d8 FFF7FEFF 		bl	I2C_ConvertOtherXferOptions
 4279 00dc 638D     		ldrh	r3, [r4, #42]
 4280 00de 9BB2     		uxth	r3, r3
 4281 00e0 FF2B     		cmp	r3, #255
 4282 00e2 09D8     		bhi	.L557
 4283 00e4 D4F82C80 		ldr	r8, [r4, #44]
 4284 00e8 DFF82C91 		ldr	r9, .L561+20
 4285 00ec 06E0     		b	.L542
 4286              	.L555:
 4287 00ee 0026     		movs	r6, #0
ARM GAS  C:\Users\thewo\AppData\Local\Temp\ccUp1enP.s 			page 75


 4288 00f0 E9E7     		b	.L540
 4289              	.L556:
 4290 00f2 4FF00009 		mov	r9, #0
 4291 00f6 01E0     		b	.L542
 4292              	.L557:
 4293 00f8 DFF81C91 		ldr	r9, .L561+20
 4294              	.L542:
 4295 00fc 228D     		ldrh	r2, [r4, #40]
 4296 00fe 002A     		cmp	r2, #0
 4297 0100 59D0     		beq	.L543
 4298 0102 A36B     		ldr	r3, [r4, #56]
 4299 0104 FBB1     		cbz	r3, .L544
 4300 0106 414A     		ldr	r2, .L561+8
 4301 0108 DA63     		str	r2, [r3, #60]
 4302 010a A36B     		ldr	r3, [r4, #56]
 4303 010c 404A     		ldr	r2, .L561+12
 4304 010e DA64     		str	r2, [r3, #76]
 4305 0110 A26B     		ldr	r2, [r4, #56]
 4306 0112 0023     		movs	r3, #0
 4307 0114 1364     		str	r3, [r2, #64]
 4308 0116 A26B     		ldr	r2, [r4, #56]
 4309 0118 1365     		str	r3, [r2, #80]
 4310 011a 2268     		ldr	r2, [r4]
 4311 011c 238D     		ldrh	r3, [r4, #40]
 4312 011e 2832     		adds	r2, r2, #40
 4313 0120 616A     		ldr	r1, [r4, #36]
 4314 0122 A06B     		ldr	r0, [r4, #56]
 4315 0124 FFF7FEFF 		bl	HAL_DMA_Start_IT
 4316 0128 D8B1     		cbz	r0, .L545
 4317 012a 2023     		movs	r3, #32
 4318 012c 84F84130 		strb	r3, [r4, #65]
 4319 0130 0022     		movs	r2, #0
 4320 0132 84F84220 		strb	r2, [r4, #66]
 4321 0136 636C     		ldr	r3, [r4, #68]
 4322 0138 43F01003 		orr	r3, r3, #16
 4323 013c 6364     		str	r3, [r4, #68]
 4324 013e 84F84020 		strb	r2, [r4, #64]
 4325 0142 0120     		movs	r0, #1
 4326 0144 59E0     		b	.L537
 4327              	.L544:
 4328 0146 2023     		movs	r3, #32
 4329 0148 84F84130 		strb	r3, [r4, #65]
 4330 014c 0022     		movs	r2, #0
 4331 014e 84F84220 		strb	r2, [r4, #66]
 4332 0152 636C     		ldr	r3, [r4, #68]
 4333 0154 43F08003 		orr	r3, r3, #128
 4334 0158 6364     		str	r3, [r4, #68]
 4335 015a 84F84020 		strb	r2, [r4, #64]
 4336 015e 0120     		movs	r0, #1
 4337 0160 4BE0     		b	.L537
 4338              	.L545:
 4339 0162 B5F1007F 		cmp	r5, #33554432
 4340 0166 18BF     		it	ne
 4341 0168 002D     		cmpne	r5, #0
 4342 016a 1AD1     		bne	.L547
 4343 016c CDF80090 		str	r9, [sp]
 4344 0170 4346     		mov	r3, r8
ARM GAS  C:\Users\thewo\AppData\Local\Temp\ccUp1enP.s 			page 76


 4345 0172 F2B2     		uxtb	r2, r6
 4346 0174 3946     		mov	r1, r7
 4347 0176 2046     		mov	r0, r4
 4348 0178 FFF7FEFF 		bl	I2C_TransferConfig
 4349              	.L548:
 4350 017c 638D     		ldrh	r3, [r4, #42]
 4351 017e 9BB2     		uxth	r3, r3
 4352 0180 228D     		ldrh	r2, [r4, #40]
 4353 0182 9B1A     		subs	r3, r3, r2
 4354 0184 9BB2     		uxth	r3, r3
 4355 0186 6385     		strh	r3, [r4, #42]	@ movhi
 4356 0188 0023     		movs	r3, #0
 4357 018a 84F84030 		strb	r3, [r4, #64]
 4358 018e 1021     		movs	r1, #16
 4359 0190 2046     		mov	r0, r4
 4360 0192 FFF7FEFF 		bl	I2C_Enable_IRQ
 4361 0196 2268     		ldr	r2, [r4]
 4362 0198 1368     		ldr	r3, [r2]
 4363 019a 43F48043 		orr	r3, r3, #16384
 4364 019e 1360     		str	r3, [r2]
 4365 01a0 1FE0     		b	.L549
 4366              	.L547:
 4367 01a2 CDF80090 		str	r9, [sp]
 4368 01a6 4346     		mov	r3, r8
 4369 01a8 94F82820 		ldrb	r2, [r4, #40]	@ zero_extendqisi2
 4370 01ac 3946     		mov	r1, r7
 4371 01ae 2046     		mov	r0, r4
 4372 01b0 FFF7FEFF 		bl	I2C_TransferConfig
 4373 01b4 E2E7     		b	.L548
 4374              	.L543:
 4375 01b6 174B     		ldr	r3, .L561+16
 4376 01b8 6363     		str	r3, [r4, #52]
 4377 01ba B5F1007F 		cmp	r5, #33554432
 4378 01be 18BF     		it	ne
 4379 01c0 002D     		cmpne	r5, #0
 4380 01c2 10D1     		bne	.L550
 4381 01c4 CDF80090 		str	r9, [sp]
 4382 01c8 4346     		mov	r3, r8
 4383 01ca F2B2     		uxtb	r2, r6
 4384 01cc 3946     		mov	r1, r7
 4385 01ce 2046     		mov	r0, r4
 4386 01d0 FFF7FEFF 		bl	I2C_TransferConfig
 4387              	.L551:
 4388 01d4 0023     		movs	r3, #0
 4389 01d6 84F84030 		strb	r3, [r4, #64]
 4390 01da 0121     		movs	r1, #1
 4391 01dc 2046     		mov	r0, r4
 4392 01de FFF7FEFF 		bl	I2C_Enable_IRQ
 4393              	.L549:
 4394 01e2 0020     		movs	r0, #0
 4395 01e4 09E0     		b	.L537
 4396              	.L550:
 4397 01e6 CDF80090 		str	r9, [sp]
 4398 01ea 4346     		mov	r3, r8
 4399 01ec D2B2     		uxtb	r2, r2
 4400 01ee 3946     		mov	r1, r7
 4401 01f0 2046     		mov	r0, r4
ARM GAS  C:\Users\thewo\AppData\Local\Temp\ccUp1enP.s 			page 77


 4402 01f2 FFF7FEFF 		bl	I2C_TransferConfig
 4403 01f6 EDE7     		b	.L551
 4404              	.L552:
 4405 01f8 0220     		movs	r0, #2
 4406              	.L537:
 4407 01fa 03B0     		add	sp, sp, #12
 4408              		@ sp needed
 4409 01fc BDE8F083 		pop	{r4, r5, r6, r7, r8, r9, pc}
 4410              	.L553:
 4411 0200 0220     		movs	r0, #2
 4412 0202 FAE7     		b	.L537
 4413              	.L562:
 4414              		.align	2
 4415              	.L561:
 4416 0204 00000000 		.word	I2C_Master_ISR_DMA
 4417 0208 00000000 		.word	.LC0
 4418 020c 00000000 		.word	I2C_DMAMasterTransmitCplt
 4419 0210 00000000 		.word	I2C_DMAError
 4420 0214 00000000 		.word	I2C_Master_ISR_IT
 4421 0218 00200080 		.word	-2147475456
 4423              		.section	.text.HAL_I2C_Master_Seq_Receive_IT,"ax",%progbits
 4424              		.align	1
 4425              		.global	HAL_I2C_Master_Seq_Receive_IT
 4426              		.syntax unified
 4427              		.thumb
 4428              		.thumb_func
 4430              	HAL_I2C_Master_Seq_Receive_IT:
 4431              		@ args = 4, pretend = 0, frame = 0
 4432              		@ frame_needed = 0, uses_anonymous_args = 0
 4433 0000 2DE9F041 		push	{r4, r5, r6, r7, r8, lr}
 4434 0004 82B0     		sub	sp, sp, #8
 4435 0006 0446     		mov	r4, r0
 4436 0008 0E46     		mov	r6, r1
 4437 000a 1746     		mov	r7, r2
 4438 000c 9846     		mov	r8, r3
 4439 000e 089D     		ldr	r5, [sp, #32]
 4440 0010 281E     		subs	r0, r5, #0
 4441 0012 18BF     		it	ne
 4442 0014 0120     		movne	r0, #1
 4443 0016 B5F18071 		subs	r1, r5, #16777216
 4444 001a 18BF     		it	ne
 4445 001c 0121     		movne	r1, #1
 4446 001e 0842     		tst	r0, r1
 4447 0020 0CD0     		beq	.L564
 4448 0022 B5F10073 		subs	r3, r5, #33554432
 4449 0026 18BF     		it	ne
 4450 0028 0123     		movne	r3, #1
 4451 002a 39B1     		cbz	r1, .L564
 4452 002c 33B1     		cbz	r3, .L564
 4453 002e 28B1     		cbz	r0, .L564
 4454 0030 23B1     		cbz	r3, .L564
 4455 0032 AA2D     		cmp	r5, #170
 4456 0034 18BF     		it	ne
 4457 0036 B5F52A4F 		cmpne	r5, #43520
 4458 003a 44D1     		bne	.L575
 4459              	.L564:
 4460 003c 94F84110 		ldrb	r1, [r4, #65]	@ zero_extendqisi2
ARM GAS  C:\Users\thewo\AppData\Local\Temp\ccUp1enP.s 			page 78


 4461 0040 2029     		cmp	r1, #32
 4462 0042 4ED1     		bne	.L570
 4463 0044 94F84030 		ldrb	r3, [r4, #64]	@ zero_extendqisi2
 4464 0048 012B     		cmp	r3, #1
 4465 004a 4CD0     		beq	.L571
 4466 004c 0123     		movs	r3, #1
 4467 004e 84F84030 		strb	r3, [r4, #64]
 4468 0052 2223     		movs	r3, #34
 4469 0054 84F84130 		strb	r3, [r4, #65]
 4470 0058 1023     		movs	r3, #16
 4471 005a 84F84230 		strb	r3, [r4, #66]
 4472 005e 0023     		movs	r3, #0
 4473 0060 6364     		str	r3, [r4, #68]
 4474 0062 6762     		str	r7, [r4, #36]
 4475 0064 A4F82A80 		strh	r8, [r4, #42]	@ movhi
 4476 0068 E562     		str	r5, [r4, #44]
 4477 006a 204B     		ldr	r3, .L576
 4478 006c 6363     		str	r3, [r4, #52]
 4479 006e 638D     		ldrh	r3, [r4, #42]
 4480 0070 9BB2     		uxth	r3, r3
 4481 0072 FF2B     		cmp	r3, #255
 4482 0074 2DD9     		bls	.L566
 4483 0076 FF23     		movs	r3, #255
 4484 0078 2385     		strh	r3, [r4, #40]	@ movhi
 4485 007a 4FF08077 		mov	r7, #16777216
 4486              	.L567:
 4487 007e 236B     		ldr	r3, [r4, #48]
 4488 0080 122B     		cmp	r3, #18
 4489 0082 04D1     		bne	.L568
 4490 0084 B5F52A4F 		cmp	r5, #43520
 4491 0088 18BF     		it	ne
 4492 008a AA2D     		cmpne	r5, #170
 4493 008c 25D1     		bne	.L572
 4494              	.L568:
 4495 008e 2046     		mov	r0, r4
 4496 0090 FFF7FEFF 		bl	I2C_ConvertOtherXferOptions
 4497 0094 638D     		ldrh	r3, [r4, #42]
 4498 0096 9BB2     		uxth	r3, r3
 4499 0098 FF2B     		cmp	r3, #255
 4500 009a 20D8     		bhi	.L573
 4501 009c E76A     		ldr	r7, [r4, #44]
 4502 009e 144B     		ldr	r3, .L576+4
 4503              	.L569:
 4504 00a0 0093     		str	r3, [sp]
 4505 00a2 3B46     		mov	r3, r7
 4506 00a4 94F82820 		ldrb	r2, [r4, #40]	@ zero_extendqisi2
 4507 00a8 3146     		mov	r1, r6
 4508 00aa 2046     		mov	r0, r4
 4509 00ac FFF7FEFF 		bl	I2C_TransferConfig
 4510 00b0 0025     		movs	r5, #0
 4511 00b2 84F84050 		strb	r5, [r4, #64]
 4512 00b6 0221     		movs	r1, #2
 4513 00b8 2046     		mov	r0, r4
 4514 00ba FFF7FEFF 		bl	I2C_Enable_IRQ
 4515 00be 2846     		mov	r0, r5
 4516              	.L565:
 4517 00c0 02B0     		add	sp, sp, #8
ARM GAS  C:\Users\thewo\AppData\Local\Temp\ccUp1enP.s 			page 79


 4518              		@ sp needed
 4519 00c2 BDE8F081 		pop	{r4, r5, r6, r7, r8, pc}
 4520              	.L575:
 4521 00c6 40F69861 		movw	r1, #3736
 4522 00ca 0A48     		ldr	r0, .L576+8
 4523 00cc FFF7FEFF 		bl	assert_failed
 4524 00d0 B4E7     		b	.L564
 4525              	.L566:
 4526 00d2 638D     		ldrh	r3, [r4, #42]
 4527 00d4 2385     		strh	r3, [r4, #40]	@ movhi
 4528 00d6 E76A     		ldr	r7, [r4, #44]
 4529 00d8 D1E7     		b	.L567
 4530              	.L572:
 4531 00da 0023     		movs	r3, #0
 4532 00dc E0E7     		b	.L569
 4533              	.L573:
 4534 00de 044B     		ldr	r3, .L576+4
 4535 00e0 DEE7     		b	.L569
 4536              	.L570:
 4537 00e2 0220     		movs	r0, #2
 4538 00e4 ECE7     		b	.L565
 4539              	.L571:
 4540 00e6 0220     		movs	r0, #2
 4541 00e8 EAE7     		b	.L565
 4542              	.L577:
 4543 00ea 00BF     		.align	2
 4544              	.L576:
 4545 00ec 00000000 		.word	I2C_Master_ISR_IT
 4546 00f0 00240080 		.word	-2147474432
 4547 00f4 00000000 		.word	.LC0
 4549              		.section	.text.HAL_I2C_Master_Seq_Receive_DMA,"ax",%progbits
 4550              		.align	1
 4551              		.global	HAL_I2C_Master_Seq_Receive_DMA
 4552              		.syntax unified
 4553              		.thumb
 4554              		.thumb_func
 4556              	HAL_I2C_Master_Seq_Receive_DMA:
 4557              		@ args = 4, pretend = 0, frame = 0
 4558              		@ frame_needed = 0, uses_anonymous_args = 0
 4559 0000 2DE9F041 		push	{r4, r5, r6, r7, r8, lr}
 4560 0004 82B0     		sub	sp, sp, #8
 4561 0006 0446     		mov	r4, r0
 4562 0008 0F46     		mov	r7, r1
 4563 000a 1646     		mov	r6, r2
 4564 000c 9846     		mov	r8, r3
 4565 000e 089D     		ldr	r5, [sp, #32]
 4566 0010 291E     		subs	r1, r5, #0
 4567 0012 18BF     		it	ne
 4568 0014 0121     		movne	r1, #1
 4569 0016 B5F18072 		subs	r2, r5, #16777216
 4570 001a 18BF     		it	ne
 4571 001c 0122     		movne	r2, #1
 4572 001e 1142     		tst	r1, r2
 4573 0020 0CD0     		beq	.L579
 4574 0022 B5F10073 		subs	r3, r5, #33554432
 4575 0026 18BF     		it	ne
 4576 0028 0123     		movne	r3, #1
ARM GAS  C:\Users\thewo\AppData\Local\Temp\ccUp1enP.s 			page 80


 4577 002a 3AB1     		cbz	r2, .L579
 4578 002c 33B1     		cbz	r3, .L579
 4579 002e 29B1     		cbz	r1, .L579
 4580 0030 23B1     		cbz	r3, .L579
 4581 0032 AA2D     		cmp	r5, #170
 4582 0034 18BF     		it	ne
 4583 0036 B5F52A4F 		cmpne	r5, #43520
 4584 003a 5AD1     		bne	.L596
 4585              	.L579:
 4586 003c 94F84120 		ldrb	r2, [r4, #65]	@ zero_extendqisi2
 4587 0040 202A     		cmp	r2, #32
 4588 0042 40F0A280 		bne	.L590
 4589 0046 94F84030 		ldrb	r3, [r4, #64]	@ zero_extendqisi2
 4590 004a 012B     		cmp	r3, #1
 4591 004c 00F0A180 		beq	.L591
 4592 0050 0123     		movs	r3, #1
 4593 0052 84F84030 		strb	r3, [r4, #64]
 4594 0056 2223     		movs	r3, #34
 4595 0058 84F84130 		strb	r3, [r4, #65]
 4596 005c 1023     		movs	r3, #16
 4597 005e 84F84230 		strb	r3, [r4, #66]
 4598 0062 0023     		movs	r3, #0
 4599 0064 6364     		str	r3, [r4, #68]
 4600 0066 6662     		str	r6, [r4, #36]
 4601 0068 A4F82A80 		strh	r8, [r4, #42]	@ movhi
 4602 006c E562     		str	r5, [r4, #44]
 4603 006e 4A4B     		ldr	r3, .L598
 4604 0070 6363     		str	r3, [r4, #52]
 4605 0072 638D     		ldrh	r3, [r4, #42]
 4606 0074 9BB2     		uxth	r3, r3
 4607 0076 FF2B     		cmp	r3, #255
 4608 0078 41D9     		bls	.L581
 4609 007a FF23     		movs	r3, #255
 4610 007c 2385     		strh	r3, [r4, #40]	@ movhi
 4611 007e 4FF08078 		mov	r8, #16777216
 4612              	.L582:
 4613 0082 236B     		ldr	r3, [r4, #48]
 4614 0084 122B     		cmp	r3, #18
 4615 0086 04D1     		bne	.L583
 4616 0088 B5F52A4F 		cmp	r5, #43520
 4617 008c 18BF     		it	ne
 4618 008e AA2D     		cmpne	r5, #170
 4619 0090 3AD1     		bne	.L592
 4620              	.L583:
 4621 0092 2046     		mov	r0, r4
 4622 0094 FFF7FEFF 		bl	I2C_ConvertOtherXferOptions
 4623 0098 638D     		ldrh	r3, [r4, #42]
 4624 009a 9BB2     		uxth	r3, r3
 4625 009c FF2B     		cmp	r3, #255
 4626 009e 35D8     		bhi	.L593
 4627 00a0 D4F82C80 		ldr	r8, [r4, #44]
 4628 00a4 3D4D     		ldr	r5, .L598+4
 4629              	.L584:
 4630 00a6 228D     		ldrh	r2, [r4, #40]
 4631 00a8 002A     		cmp	r2, #0
 4632 00aa 5AD0     		beq	.L585
 4633 00ac E36B     		ldr	r3, [r4, #60]
ARM GAS  C:\Users\thewo\AppData\Local\Temp\ccUp1enP.s 			page 81


 4634 00ae 002B     		cmp	r3, #0
 4635 00b0 2ED0     		beq	.L586
 4636 00b2 3B4A     		ldr	r2, .L598+8
 4637 00b4 DA63     		str	r2, [r3, #60]
 4638 00b6 E36B     		ldr	r3, [r4, #60]
 4639 00b8 3A4A     		ldr	r2, .L598+12
 4640 00ba DA64     		str	r2, [r3, #76]
 4641 00bc E26B     		ldr	r2, [r4, #60]
 4642 00be 0023     		movs	r3, #0
 4643 00c0 1364     		str	r3, [r2, #64]
 4644 00c2 E26B     		ldr	r2, [r4, #60]
 4645 00c4 1365     		str	r3, [r2, #80]
 4646 00c6 2168     		ldr	r1, [r4]
 4647 00c8 238D     		ldrh	r3, [r4, #40]
 4648 00ca 3246     		mov	r2, r6
 4649 00cc 2431     		adds	r1, r1, #36
 4650 00ce E06B     		ldr	r0, [r4, #60]
 4651 00d0 FFF7FEFF 		bl	HAL_DMA_Start_IT
 4652 00d4 50B3     		cbz	r0, .L597
 4653 00d6 2023     		movs	r3, #32
 4654 00d8 84F84130 		strb	r3, [r4, #65]
 4655 00dc 0022     		movs	r2, #0
 4656 00de 84F84220 		strb	r2, [r4, #66]
 4657 00e2 636C     		ldr	r3, [r4, #68]
 4658 00e4 43F01003 		orr	r3, r3, #16
 4659 00e8 6364     		str	r3, [r4, #68]
 4660 00ea 84F84020 		strb	r2, [r4, #64]
 4661 00ee 0120     		movs	r0, #1
 4662 00f0 4CE0     		b	.L580
 4663              	.L596:
 4664 00f2 4FF46F61 		mov	r1, #3824
 4665 00f6 2C48     		ldr	r0, .L598+16
 4666 00f8 FFF7FEFF 		bl	assert_failed
 4667 00fc 9EE7     		b	.L579
 4668              	.L581:
 4669 00fe 638D     		ldrh	r3, [r4, #42]
 4670 0100 2385     		strh	r3, [r4, #40]	@ movhi
 4671 0102 D4F82C80 		ldr	r8, [r4, #44]
 4672 0106 BCE7     		b	.L582
 4673              	.L592:
 4674 0108 0025     		movs	r5, #0
 4675 010a CCE7     		b	.L584
 4676              	.L593:
 4677 010c 234D     		ldr	r5, .L598+4
 4678 010e CAE7     		b	.L584
 4679              	.L586:
 4680 0110 2023     		movs	r3, #32
 4681 0112 84F84130 		strb	r3, [r4, #65]
 4682 0116 0022     		movs	r2, #0
 4683 0118 84F84220 		strb	r2, [r4, #66]
 4684 011c 636C     		ldr	r3, [r4, #68]
 4685 011e 43F08003 		orr	r3, r3, #128
 4686 0122 6364     		str	r3, [r4, #68]
 4687 0124 84F84020 		strb	r2, [r4, #64]
 4688 0128 0120     		movs	r0, #1
 4689 012a 2FE0     		b	.L580
 4690              	.L597:
ARM GAS  C:\Users\thewo\AppData\Local\Temp\ccUp1enP.s 			page 82


 4691 012c 0095     		str	r5, [sp]
 4692 012e 4346     		mov	r3, r8
 4693 0130 94F82820 		ldrb	r2, [r4, #40]	@ zero_extendqisi2
 4694 0134 3946     		mov	r1, r7
 4695 0136 2046     		mov	r0, r4
 4696 0138 FFF7FEFF 		bl	I2C_TransferConfig
 4697 013c 638D     		ldrh	r3, [r4, #42]
 4698 013e 9BB2     		uxth	r3, r3
 4699 0140 228D     		ldrh	r2, [r4, #40]
 4700 0142 9B1A     		subs	r3, r3, r2
 4701 0144 9BB2     		uxth	r3, r3
 4702 0146 6385     		strh	r3, [r4, #42]	@ movhi
 4703 0148 0023     		movs	r3, #0
 4704 014a 84F84030 		strb	r3, [r4, #64]
 4705 014e 1021     		movs	r1, #16
 4706 0150 2046     		mov	r0, r4
 4707 0152 FFF7FEFF 		bl	I2C_Enable_IRQ
 4708 0156 2268     		ldr	r2, [r4]
 4709 0158 1368     		ldr	r3, [r2]
 4710 015a 43F40043 		orr	r3, r3, #32768
 4711 015e 1360     		str	r3, [r2]
 4712 0160 11E0     		b	.L589
 4713              	.L585:
 4714 0162 124B     		ldr	r3, .L598+20
 4715 0164 6363     		str	r3, [r4, #52]
 4716 0166 0D4B     		ldr	r3, .L598+4
 4717 0168 0093     		str	r3, [sp]
 4718 016a 4FF00073 		mov	r3, #33554432
 4719 016e D2B2     		uxtb	r2, r2
 4720 0170 3946     		mov	r1, r7
 4721 0172 2046     		mov	r0, r4
 4722 0174 FFF7FEFF 		bl	I2C_TransferConfig
 4723 0178 0023     		movs	r3, #0
 4724 017a 84F84030 		strb	r3, [r4, #64]
 4725 017e 0221     		movs	r1, #2
 4726 0180 2046     		mov	r0, r4
 4727 0182 FFF7FEFF 		bl	I2C_Enable_IRQ
 4728              	.L589:
 4729 0186 0020     		movs	r0, #0
 4730 0188 00E0     		b	.L580
 4731              	.L590:
 4732 018a 0220     		movs	r0, #2
 4733              	.L580:
 4734 018c 02B0     		add	sp, sp, #8
 4735              		@ sp needed
 4736 018e BDE8F081 		pop	{r4, r5, r6, r7, r8, pc}
 4737              	.L591:
 4738 0192 0220     		movs	r0, #2
 4739 0194 FAE7     		b	.L580
 4740              	.L599:
 4741 0196 00BF     		.align	2
 4742              	.L598:
 4743 0198 00000000 		.word	I2C_Master_ISR_DMA
 4744 019c 00240080 		.word	-2147474432
 4745 01a0 00000000 		.word	I2C_DMAMasterReceiveCplt
 4746 01a4 00000000 		.word	I2C_DMAError
 4747 01a8 00000000 		.word	.LC0
ARM GAS  C:\Users\thewo\AppData\Local\Temp\ccUp1enP.s 			page 83


 4748 01ac 00000000 		.word	I2C_Master_ISR_IT
 4750              		.section	.text.HAL_I2C_Slave_Seq_Transmit_IT,"ax",%progbits
 4751              		.align	1
 4752              		.global	HAL_I2C_Slave_Seq_Transmit_IT
 4753              		.syntax unified
 4754              		.thumb
 4755              		.thumb_func
 4757              	HAL_I2C_Slave_Seq_Transmit_IT:
 4758              		@ args = 0, pretend = 0, frame = 0
 4759              		@ frame_needed = 0, uses_anonymous_args = 0
 4760 0000 F8B5     		push	{r3, r4, r5, r6, r7, lr}
 4761 0002 0446     		mov	r4, r0
 4762 0004 0F46     		mov	r7, r1
 4763 0006 1646     		mov	r6, r2
 4764 0008 1D46     		mov	r5, r3
 4765 000a 1A1E     		subs	r2, r3, #0
 4766 000c 18BF     		it	ne
 4767 000e 0122     		movne	r2, #1
 4768 0010 B3F18073 		subs	r3, r3, #16777216
 4769 0014 18BF     		it	ne
 4770 0016 0123     		movne	r3, #1
 4771 0018 1A42     		tst	r2, r3
 4772 001a 0CD0     		beq	.L601
 4773 001c B5F10071 		subs	r1, r5, #33554432
 4774 0020 18BF     		it	ne
 4775 0022 0121     		movne	r1, #1
 4776 0024 3BB1     		cbz	r3, .L601
 4777 0026 31B1     		cbz	r1, .L601
 4778 0028 2AB1     		cbz	r2, .L601
 4779 002a 21B1     		cbz	r1, .L601
 4780 002c AA2D     		cmp	r5, #170
 4781 002e 18BF     		it	ne
 4782 0030 B5F52A4F 		cmpne	r5, #43520
 4783 0034 0ED1     		bne	.L609
 4784              	.L601:
 4785 0036 94F84130 		ldrb	r3, [r4, #65]	@ zero_extendqisi2
 4786 003a 03F02803 		and	r3, r3, #40
 4787 003e 282B     		cmp	r3, #40
 4788 0040 62D1     		bne	.L606
 4789 0042 002E     		cmp	r6, #0
 4790 0044 18BF     		it	ne
 4791 0046 002F     		cmpne	r7, #0
 4792 0048 0AD1     		bne	.L603
 4793 004a 4FF40073 		mov	r3, #512
 4794 004e 6364     		str	r3, [r4, #68]
 4795 0050 0120     		movs	r0, #1
 4796 0052 5AE0     		b	.L602
 4797              	.L609:
 4798 0054 40F69571 		movw	r1, #3989
 4799 0058 2D48     		ldr	r0, .L611
 4800 005a FFF7FEFF 		bl	assert_failed
 4801 005e EAE7     		b	.L601
 4802              	.L603:
 4803 0060 48F20101 		movw	r1, #32769
 4804 0064 2046     		mov	r0, r4
 4805 0066 FFF7FEFF 		bl	I2C_Disable_IRQ
 4806 006a 94F84030 		ldrb	r3, [r4, #64]	@ zero_extendqisi2
ARM GAS  C:\Users\thewo\AppData\Local\Temp\ccUp1enP.s 			page 84


 4807 006e 012B     		cmp	r3, #1
 4808 0070 4CD0     		beq	.L607
 4809 0072 0123     		movs	r3, #1
 4810 0074 84F84030 		strb	r3, [r4, #64]
 4811 0078 94F84130 		ldrb	r3, [r4, #65]	@ zero_extendqisi2
 4812 007c 2A2B     		cmp	r3, #42
 4813 007e 28D0     		beq	.L610
 4814              	.L604:
 4815 0080 2923     		movs	r3, #41
 4816 0082 84F84130 		strb	r3, [r4, #65]
 4817 0086 2023     		movs	r3, #32
 4818 0088 84F84230 		strb	r3, [r4, #66]
 4819 008c 0023     		movs	r3, #0
 4820 008e 6364     		str	r3, [r4, #68]
 4821 0090 2268     		ldr	r2, [r4]
 4822 0092 5368     		ldr	r3, [r2, #4]
 4823 0094 23F40043 		bic	r3, r3, #32768
 4824 0098 5360     		str	r3, [r2, #4]
 4825 009a 6762     		str	r7, [r4, #36]
 4826 009c 6685     		strh	r6, [r4, #42]	@ movhi
 4827 009e 638D     		ldrh	r3, [r4, #42]
 4828 00a0 2385     		strh	r3, [r4, #40]	@ movhi
 4829 00a2 E562     		str	r5, [r4, #44]
 4830 00a4 1B4B     		ldr	r3, .L611+4
 4831 00a6 6363     		str	r3, [r4, #52]
 4832 00a8 2268     		ldr	r2, [r4]
 4833 00aa 9369     		ldr	r3, [r2, #24]
 4834 00ac 03F00803 		and	r3, r3, #8
 4835 00b0 9169     		ldr	r1, [r2, #24]
 4836 00b2 11F4803F 		tst	r1, #65536
 4837 00b6 02D0     		beq	.L605
 4838 00b8 0BB1     		cbz	r3, .L605
 4839 00ba 0823     		movs	r3, #8
 4840 00bc D361     		str	r3, [r2, #28]
 4841              	.L605:
 4842 00be 0025     		movs	r5, #0
 4843 00c0 84F84050 		strb	r5, [r4, #64]
 4844 00c4 48F20101 		movw	r1, #32769
 4845 00c8 2046     		mov	r0, r4
 4846 00ca FFF7FEFF 		bl	I2C_Enable_IRQ
 4847 00ce 2846     		mov	r0, r5
 4848 00d0 1BE0     		b	.L602
 4849              	.L610:
 4850 00d2 0221     		movs	r1, #2
 4851 00d4 2046     		mov	r0, r4
 4852 00d6 FFF7FEFF 		bl	I2C_Disable_IRQ
 4853 00da 2368     		ldr	r3, [r4]
 4854 00dc 1A68     		ldr	r2, [r3]
 4855 00de 12F4004F 		tst	r2, #32768
 4856 00e2 CDD0     		beq	.L604
 4857 00e4 1A68     		ldr	r2, [r3]
 4858 00e6 22F40042 		bic	r2, r2, #32768
 4859 00ea 1A60     		str	r2, [r3]
 4860 00ec E36B     		ldr	r3, [r4, #60]
 4861 00ee 002B     		cmp	r3, #0
 4862 00f0 C6D0     		beq	.L604
 4863 00f2 094A     		ldr	r2, .L611+8
ARM GAS  C:\Users\thewo\AppData\Local\Temp\ccUp1enP.s 			page 85


 4864 00f4 1A65     		str	r2, [r3, #80]
 4865 00f6 E06B     		ldr	r0, [r4, #60]
 4866 00f8 FFF7FEFF 		bl	HAL_DMA_Abort_IT
 4867 00fc 0028     		cmp	r0, #0
 4868 00fe BFD0     		beq	.L604
 4869 0100 E06B     		ldr	r0, [r4, #60]
 4870 0102 036D     		ldr	r3, [r0, #80]
 4871 0104 9847     		blx	r3
 4872 0106 BBE7     		b	.L604
 4873              	.L606:
 4874 0108 0120     		movs	r0, #1
 4875              	.L602:
 4876 010a F8BD     		pop	{r3, r4, r5, r6, r7, pc}
 4877              	.L607:
 4878 010c 0220     		movs	r0, #2
 4879 010e FCE7     		b	.L602
 4880              	.L612:
 4881              		.align	2
 4882              	.L611:
 4883 0110 00000000 		.word	.LC0
 4884 0114 00000000 		.word	I2C_Slave_ISR_IT
 4885 0118 00000000 		.word	I2C_DMAAbort
 4887              		.section	.text.HAL_I2C_Slave_Seq_Transmit_DMA,"ax",%progbits
 4888              		.align	1
 4889              		.global	HAL_I2C_Slave_Seq_Transmit_DMA
 4890              		.syntax unified
 4891              		.thumb
 4892              		.thumb_func
 4894              	HAL_I2C_Slave_Seq_Transmit_DMA:
 4895              		@ args = 0, pretend = 0, frame = 0
 4896              		@ frame_needed = 0, uses_anonymous_args = 0
 4897 0000 F8B5     		push	{r3, r4, r5, r6, r7, lr}
 4898 0002 0446     		mov	r4, r0
 4899 0004 0E46     		mov	r6, r1
 4900 0006 1746     		mov	r7, r2
 4901 0008 1D46     		mov	r5, r3
 4902 000a 1A1E     		subs	r2, r3, #0
 4903 000c 18BF     		it	ne
 4904 000e 0122     		movne	r2, #1
 4905 0010 B3F18073 		subs	r3, r3, #16777216
 4906 0014 18BF     		it	ne
 4907 0016 0123     		movne	r3, #1
 4908 0018 1A42     		tst	r2, r3
 4909 001a 0CD0     		beq	.L614
 4910 001c B5F10071 		subs	r1, r5, #33554432
 4911 0020 18BF     		it	ne
 4912 0022 0121     		movne	r1, #1
 4913 0024 3BB1     		cbz	r3, .L614
 4914 0026 31B1     		cbz	r1, .L614
 4915 0028 2AB1     		cbz	r2, .L614
 4916 002a 21B1     		cbz	r1, .L614
 4917 002c AA2D     		cmp	r5, #170
 4918 002e 18BF     		it	ne
 4919 0030 B5F52A4F 		cmpne	r5, #43520
 4920 0034 58D1     		bne	.L628
 4921              	.L614:
 4922 0036 94F84130 		ldrb	r3, [r4, #65]	@ zero_extendqisi2
ARM GAS  C:\Users\thewo\AppData\Local\Temp\ccUp1enP.s 			page 86


 4923 003a 03F02803 		and	r3, r3, #40
 4924 003e 282B     		cmp	r3, #40
 4925 0040 40F0C180 		bne	.L624
 4926 0044 002F     		cmp	r7, #0
 4927 0046 18BF     		it	ne
 4928 0048 002E     		cmpne	r6, #0
 4929 004a 53D0     		beq	.L629
 4930 004c 94F84030 		ldrb	r3, [r4, #64]	@ zero_extendqisi2
 4931 0050 012B     		cmp	r3, #1
 4932 0052 00F0BB80 		beq	.L625
 4933 0056 0123     		movs	r3, #1
 4934 0058 84F84030 		strb	r3, [r4, #64]
 4935 005c 48F20101 		movw	r1, #32769
 4936 0060 2046     		mov	r0, r4
 4937 0062 FFF7FEFF 		bl	I2C_Disable_IRQ
 4938 0066 94F84130 		ldrb	r3, [r4, #65]	@ zero_extendqisi2
 4939 006a 2A2B     		cmp	r3, #42
 4940 006c 47D0     		beq	.L630
 4941 006e 94F84130 		ldrb	r3, [r4, #65]	@ zero_extendqisi2
 4942 0072 292B     		cmp	r3, #41
 4943 0074 5FD0     		beq	.L631
 4944              	.L618:
 4945 0076 2923     		movs	r3, #41
 4946 0078 84F84130 		strb	r3, [r4, #65]
 4947 007c 2023     		movs	r3, #32
 4948 007e 84F84230 		strb	r3, [r4, #66]
 4949 0082 0023     		movs	r3, #0
 4950 0084 6364     		str	r3, [r4, #68]
 4951 0086 2268     		ldr	r2, [r4]
 4952 0088 5368     		ldr	r3, [r2, #4]
 4953 008a 23F40043 		bic	r3, r3, #32768
 4954 008e 5360     		str	r3, [r2, #4]
 4955 0090 6662     		str	r6, [r4, #36]
 4956 0092 6785     		strh	r7, [r4, #42]	@ movhi
 4957 0094 638D     		ldrh	r3, [r4, #42]
 4958 0096 2385     		strh	r3, [r4, #40]	@ movhi
 4959 0098 E562     		str	r5, [r4, #44]
 4960 009a 4D4B     		ldr	r3, .L632
 4961 009c 6363     		str	r3, [r4, #52]
 4962 009e A36B     		ldr	r3, [r4, #56]
 4963 00a0 002B     		cmp	r3, #0
 4964 00a2 5FD0     		beq	.L619
 4965 00a4 4B4A     		ldr	r2, .L632+4
 4966 00a6 DA63     		str	r2, [r3, #60]
 4967 00a8 A36B     		ldr	r3, [r4, #56]
 4968 00aa 4B4A     		ldr	r2, .L632+8
 4969 00ac DA64     		str	r2, [r3, #76]
 4970 00ae A26B     		ldr	r2, [r4, #56]
 4971 00b0 0023     		movs	r3, #0
 4972 00b2 1364     		str	r3, [r2, #64]
 4973 00b4 A26B     		ldr	r2, [r4, #56]
 4974 00b6 1365     		str	r3, [r2, #80]
 4975 00b8 2268     		ldr	r2, [r4]
 4976 00ba 238D     		ldrh	r3, [r4, #40]
 4977 00bc 2832     		adds	r2, r2, #40
 4978 00be 3146     		mov	r1, r6
 4979 00c0 A06B     		ldr	r0, [r4, #56]
ARM GAS  C:\Users\thewo\AppData\Local\Temp\ccUp1enP.s 			page 87


 4980 00c2 FFF7FEFF 		bl	HAL_DMA_Start_IT
 4981 00c6 0546     		mov	r5, r0
 4982 00c8 0028     		cmp	r0, #0
 4983 00ca 59D0     		beq	.L620
 4984 00cc 2823     		movs	r3, #40
 4985 00ce 84F84130 		strb	r3, [r4, #65]
 4986 00d2 0022     		movs	r2, #0
 4987 00d4 84F84220 		strb	r2, [r4, #66]
 4988 00d8 636C     		ldr	r3, [r4, #68]
 4989 00da 43F01003 		orr	r3, r3, #16
 4990 00de 6364     		str	r3, [r4, #68]
 4991 00e0 84F84020 		strb	r2, [r4, #64]
 4992 00e4 0125     		movs	r5, #1
 4993 00e6 6FE0     		b	.L615
 4994              	.L628:
 4995 00e8 40F6FA71 		movw	r1, #4090
 4996 00ec 3B48     		ldr	r0, .L632+12
 4997 00ee FFF7FEFF 		bl	assert_failed
 4998 00f2 A0E7     		b	.L614
 4999              	.L629:
 5000 00f4 4FF40073 		mov	r3, #512
 5001 00f8 6364     		str	r3, [r4, #68]
 5002 00fa 0125     		movs	r5, #1
 5003 00fc 64E0     		b	.L615
 5004              	.L630:
 5005 00fe 0221     		movs	r1, #2
 5006 0100 2046     		mov	r0, r4
 5007 0102 FFF7FEFF 		bl	I2C_Disable_IRQ
 5008 0106 2368     		ldr	r3, [r4]
 5009 0108 1A68     		ldr	r2, [r3]
 5010 010a 12F4004F 		tst	r2, #32768
 5011 010e B2D0     		beq	.L618
 5012 0110 E26B     		ldr	r2, [r4, #60]
 5013 0112 002A     		cmp	r2, #0
 5014 0114 AFD0     		beq	.L618
 5015 0116 1A68     		ldr	r2, [r3]
 5016 0118 22F40042 		bic	r2, r2, #32768
 5017 011c 1A60     		str	r2, [r3]
 5018 011e E36B     		ldr	r3, [r4, #60]
 5019 0120 2F4A     		ldr	r2, .L632+16
 5020 0122 1A65     		str	r2, [r3, #80]
 5021 0124 E06B     		ldr	r0, [r4, #60]
 5022 0126 FFF7FEFF 		bl	HAL_DMA_Abort_IT
 5023 012a 0028     		cmp	r0, #0
 5024 012c A3D0     		beq	.L618
 5025 012e E06B     		ldr	r0, [r4, #60]
 5026 0130 036D     		ldr	r3, [r0, #80]
 5027 0132 9847     		blx	r3
 5028 0134 9FE7     		b	.L618
 5029              	.L631:
 5030 0136 2368     		ldr	r3, [r4]
 5031 0138 1A68     		ldr	r2, [r3]
 5032 013a 12F4804F 		tst	r2, #16384
 5033 013e 9AD0     		beq	.L618
 5034 0140 1A68     		ldr	r2, [r3]
 5035 0142 22F48042 		bic	r2, r2, #16384
 5036 0146 1A60     		str	r2, [r3]
ARM GAS  C:\Users\thewo\AppData\Local\Temp\ccUp1enP.s 			page 88


 5037 0148 A36B     		ldr	r3, [r4, #56]
 5038 014a 002B     		cmp	r3, #0
 5039 014c 93D0     		beq	.L618
 5040 014e 244A     		ldr	r2, .L632+16
 5041 0150 1A65     		str	r2, [r3, #80]
 5042 0152 A06B     		ldr	r0, [r4, #56]
 5043 0154 FFF7FEFF 		bl	HAL_DMA_Abort_IT
 5044 0158 0028     		cmp	r0, #0
 5045 015a 8CD0     		beq	.L618
 5046 015c A06B     		ldr	r0, [r4, #56]
 5047 015e 036D     		ldr	r3, [r0, #80]
 5048 0160 9847     		blx	r3
 5049 0162 88E7     		b	.L618
 5050              	.L619:
 5051 0164 2823     		movs	r3, #40
 5052 0166 84F84130 		strb	r3, [r4, #65]
 5053 016a 0022     		movs	r2, #0
 5054 016c 84F84220 		strb	r2, [r4, #66]
 5055 0170 636C     		ldr	r3, [r4, #68]
 5056 0172 43F08003 		orr	r3, r3, #128
 5057 0176 6364     		str	r3, [r4, #68]
 5058 0178 84F84020 		strb	r2, [r4, #64]
 5059 017c 0125     		movs	r5, #1
 5060 017e 23E0     		b	.L615
 5061              	.L620:
 5062 0180 638D     		ldrh	r3, [r4, #42]
 5063 0182 9BB2     		uxth	r3, r3
 5064 0184 228D     		ldrh	r2, [r4, #40]
 5065 0186 9B1A     		subs	r3, r3, r2
 5066 0188 9BB2     		uxth	r3, r3
 5067 018a 6385     		strh	r3, [r4, #42]	@ movhi
 5068 018c 0023     		movs	r3, #0
 5069 018e 2385     		strh	r3, [r4, #40]	@ movhi
 5070 0190 2268     		ldr	r2, [r4]
 5071 0192 9369     		ldr	r3, [r2, #24]
 5072 0194 03F00803 		and	r3, r3, #8
 5073 0198 9169     		ldr	r1, [r2, #24]
 5074 019a 11F4803F 		tst	r1, #65536
 5075 019e 0DD1     		bne	.L622
 5076              	.L623:
 5077 01a0 0023     		movs	r3, #0
 5078 01a2 84F84030 		strb	r3, [r4, #64]
 5079 01a6 2268     		ldr	r2, [r4]
 5080 01a8 1368     		ldr	r3, [r2]
 5081 01aa 43F48043 		orr	r3, r3, #16384
 5082 01ae 1360     		str	r3, [r2]
 5083 01b0 4FF40041 		mov	r1, #32768
 5084 01b4 2046     		mov	r0, r4
 5085 01b6 FFF7FEFF 		bl	I2C_Enable_IRQ
 5086 01ba 05E0     		b	.L615
 5087              	.L622:
 5088 01bc 002B     		cmp	r3, #0
 5089 01be EFD0     		beq	.L623
 5090 01c0 0823     		movs	r3, #8
 5091 01c2 D361     		str	r3, [r2, #28]
 5092 01c4 ECE7     		b	.L623
 5093              	.L624:
ARM GAS  C:\Users\thewo\AppData\Local\Temp\ccUp1enP.s 			page 89


 5094 01c6 0125     		movs	r5, #1
 5095              	.L615:
 5096 01c8 2846     		mov	r0, r5
 5097 01ca F8BD     		pop	{r3, r4, r5, r6, r7, pc}
 5098              	.L625:
 5099 01cc 0225     		movs	r5, #2
 5100 01ce FBE7     		b	.L615
 5101              	.L633:
 5102              		.align	2
 5103              	.L632:
 5104 01d0 00000000 		.word	I2C_Slave_ISR_DMA
 5105 01d4 00000000 		.word	I2C_DMASlaveTransmitCplt
 5106 01d8 00000000 		.word	I2C_DMAError
 5107 01dc 00000000 		.word	.LC0
 5108 01e0 00000000 		.word	I2C_DMAAbort
 5110              		.section	.text.HAL_I2C_Slave_Seq_Receive_IT,"ax",%progbits
 5111              		.align	1
 5112              		.global	HAL_I2C_Slave_Seq_Receive_IT
 5113              		.syntax unified
 5114              		.thumb
 5115              		.thumb_func
 5117              	HAL_I2C_Slave_Seq_Receive_IT:
 5118              		@ args = 0, pretend = 0, frame = 0
 5119              		@ frame_needed = 0, uses_anonymous_args = 0
 5120 0000 F8B5     		push	{r3, r4, r5, r6, r7, lr}
 5121 0002 0446     		mov	r4, r0
 5122 0004 0F46     		mov	r7, r1
 5123 0006 1646     		mov	r6, r2
 5124 0008 1D46     		mov	r5, r3
 5125 000a 1A1E     		subs	r2, r3, #0
 5126 000c 18BF     		it	ne
 5127 000e 0122     		movne	r2, #1
 5128 0010 B3F18073 		subs	r3, r3, #16777216
 5129 0014 18BF     		it	ne
 5130 0016 0123     		movne	r3, #1
 5131 0018 1A42     		tst	r2, r3
 5132 001a 0CD0     		beq	.L635
 5133 001c B5F10071 		subs	r1, r5, #33554432
 5134 0020 18BF     		it	ne
 5135 0022 0121     		movne	r1, #1
 5136 0024 3BB1     		cbz	r3, .L635
 5137 0026 31B1     		cbz	r1, .L635
 5138 0028 2AB1     		cbz	r2, .L635
 5139 002a 21B1     		cbz	r1, .L635
 5140 002c AA2D     		cmp	r5, #170
 5141 002e 18BF     		it	ne
 5142 0030 B5F52A4F 		cmpne	r5, #43520
 5143 0034 0ED1     		bne	.L643
 5144              	.L635:
 5145 0036 94F84130 		ldrb	r3, [r4, #65]	@ zero_extendqisi2
 5146 003a 03F02803 		and	r3, r3, #40
 5147 003e 282B     		cmp	r3, #40
 5148 0040 62D1     		bne	.L640
 5149 0042 002E     		cmp	r6, #0
 5150 0044 18BF     		it	ne
 5151 0046 002F     		cmpne	r7, #0
 5152 0048 0AD1     		bne	.L637
ARM GAS  C:\Users\thewo\AppData\Local\Temp\ccUp1enP.s 			page 90


 5153 004a 4FF40073 		mov	r3, #512
 5154 004e 6364     		str	r3, [r4, #68]
 5155 0050 0120     		movs	r0, #1
 5156 0052 5AE0     		b	.L636
 5157              	.L643:
 5158 0054 41F2B101 		movw	r1, #4273
 5159 0058 2D48     		ldr	r0, .L645
 5160 005a FFF7FEFF 		bl	assert_failed
 5161 005e EAE7     		b	.L635
 5162              	.L637:
 5163 0060 48F20201 		movw	r1, #32770
 5164 0064 2046     		mov	r0, r4
 5165 0066 FFF7FEFF 		bl	I2C_Disable_IRQ
 5166 006a 94F84030 		ldrb	r3, [r4, #64]	@ zero_extendqisi2
 5167 006e 012B     		cmp	r3, #1
 5168 0070 4CD0     		beq	.L641
 5169 0072 0123     		movs	r3, #1
 5170 0074 84F84030 		strb	r3, [r4, #64]
 5171 0078 94F84130 		ldrb	r3, [r4, #65]	@ zero_extendqisi2
 5172 007c 292B     		cmp	r3, #41
 5173 007e 28D0     		beq	.L644
 5174              	.L638:
 5175 0080 2A23     		movs	r3, #42
 5176 0082 84F84130 		strb	r3, [r4, #65]
 5177 0086 2023     		movs	r3, #32
 5178 0088 84F84230 		strb	r3, [r4, #66]
 5179 008c 0023     		movs	r3, #0
 5180 008e 6364     		str	r3, [r4, #68]
 5181 0090 2268     		ldr	r2, [r4]
 5182 0092 5368     		ldr	r3, [r2, #4]
 5183 0094 23F40043 		bic	r3, r3, #32768
 5184 0098 5360     		str	r3, [r2, #4]
 5185 009a 6762     		str	r7, [r4, #36]
 5186 009c 6685     		strh	r6, [r4, #42]	@ movhi
 5187 009e 638D     		ldrh	r3, [r4, #42]
 5188 00a0 2385     		strh	r3, [r4, #40]	@ movhi
 5189 00a2 E562     		str	r5, [r4, #44]
 5190 00a4 1B4B     		ldr	r3, .L645+4
 5191 00a6 6363     		str	r3, [r4, #52]
 5192 00a8 2268     		ldr	r2, [r4]
 5193 00aa 9369     		ldr	r3, [r2, #24]
 5194 00ac 03F00803 		and	r3, r3, #8
 5195 00b0 9169     		ldr	r1, [r2, #24]
 5196 00b2 11F4803F 		tst	r1, #65536
 5197 00b6 02D1     		bne	.L639
 5198 00b8 0BB1     		cbz	r3, .L639
 5199 00ba 0823     		movs	r3, #8
 5200 00bc D361     		str	r3, [r2, #28]
 5201              	.L639:
 5202 00be 0025     		movs	r5, #0
 5203 00c0 84F84050 		strb	r5, [r4, #64]
 5204 00c4 48F20201 		movw	r1, #32770
 5205 00c8 2046     		mov	r0, r4
 5206 00ca FFF7FEFF 		bl	I2C_Enable_IRQ
 5207 00ce 2846     		mov	r0, r5
 5208 00d0 1BE0     		b	.L636
 5209              	.L644:
ARM GAS  C:\Users\thewo\AppData\Local\Temp\ccUp1enP.s 			page 91


 5210 00d2 0121     		movs	r1, #1
 5211 00d4 2046     		mov	r0, r4
 5212 00d6 FFF7FEFF 		bl	I2C_Disable_IRQ
 5213 00da 2368     		ldr	r3, [r4]
 5214 00dc 1A68     		ldr	r2, [r3]
 5215 00de 12F4804F 		tst	r2, #16384
 5216 00e2 CDD0     		beq	.L638
 5217 00e4 1A68     		ldr	r2, [r3]
 5218 00e6 22F48042 		bic	r2, r2, #16384
 5219 00ea 1A60     		str	r2, [r3]
 5220 00ec A36B     		ldr	r3, [r4, #56]
 5221 00ee 002B     		cmp	r3, #0
 5222 00f0 C6D0     		beq	.L638
 5223 00f2 094A     		ldr	r2, .L645+8
 5224 00f4 1A65     		str	r2, [r3, #80]
 5225 00f6 A06B     		ldr	r0, [r4, #56]
 5226 00f8 FFF7FEFF 		bl	HAL_DMA_Abort_IT
 5227 00fc 0028     		cmp	r0, #0
 5228 00fe BFD0     		beq	.L638
 5229 0100 A06B     		ldr	r0, [r4, #56]
 5230 0102 036D     		ldr	r3, [r0, #80]
 5231 0104 9847     		blx	r3
 5232 0106 BBE7     		b	.L638
 5233              	.L640:
 5234 0108 0120     		movs	r0, #1
 5235              	.L636:
 5236 010a F8BD     		pop	{r3, r4, r5, r6, r7, pc}
 5237              	.L641:
 5238 010c 0220     		movs	r0, #2
 5239 010e FCE7     		b	.L636
 5240              	.L646:
 5241              		.align	2
 5242              	.L645:
 5243 0110 00000000 		.word	.LC0
 5244 0114 00000000 		.word	I2C_Slave_ISR_IT
 5245 0118 00000000 		.word	I2C_DMAAbort
 5247              		.section	.text.HAL_I2C_Slave_Seq_Receive_DMA,"ax",%progbits
 5248              		.align	1
 5249              		.global	HAL_I2C_Slave_Seq_Receive_DMA
 5250              		.syntax unified
 5251              		.thumb
 5252              		.thumb_func
 5254              	HAL_I2C_Slave_Seq_Receive_DMA:
 5255              		@ args = 0, pretend = 0, frame = 0
 5256              		@ frame_needed = 0, uses_anonymous_args = 0
 5257 0000 F8B5     		push	{r3, r4, r5, r6, r7, lr}
 5258 0002 0446     		mov	r4, r0
 5259 0004 0E46     		mov	r6, r1
 5260 0006 1746     		mov	r7, r2
 5261 0008 1D46     		mov	r5, r3
 5262 000a 1A1E     		subs	r2, r3, #0
 5263 000c 18BF     		it	ne
 5264 000e 0122     		movne	r2, #1
 5265 0010 B3F18073 		subs	r3, r3, #16777216
 5266 0014 18BF     		it	ne
 5267 0016 0123     		movne	r3, #1
 5268 0018 1A42     		tst	r2, r3
ARM GAS  C:\Users\thewo\AppData\Local\Temp\ccUp1enP.s 			page 92


 5269 001a 0CD0     		beq	.L648
 5270 001c B5F10071 		subs	r1, r5, #33554432
 5271 0020 18BF     		it	ne
 5272 0022 0121     		movne	r1, #1
 5273 0024 3BB1     		cbz	r3, .L648
 5274 0026 31B1     		cbz	r1, .L648
 5275 0028 2AB1     		cbz	r2, .L648
 5276 002a 21B1     		cbz	r1, .L648
 5277 002c AA2D     		cmp	r5, #170
 5278 002e 18BF     		it	ne
 5279 0030 B5F52A4F 		cmpne	r5, #43520
 5280 0034 0FD1     		bne	.L662
 5281              	.L648:
 5282 0036 94F84130 		ldrb	r3, [r4, #65]	@ zero_extendqisi2
 5283 003a 03F02803 		and	r3, r3, #40
 5284 003e 282B     		cmp	r3, #40
 5285 0040 40F0C180 		bne	.L658
 5286 0044 002F     		cmp	r7, #0
 5287 0046 18BF     		it	ne
 5288 0048 002E     		cmpne	r6, #0
 5289 004a 0AD1     		bne	.L650
 5290 004c 4FF40073 		mov	r3, #512
 5291 0050 6364     		str	r3, [r4, #68]
 5292 0052 0125     		movs	r5, #1
 5293 0054 B8E0     		b	.L649
 5294              	.L662:
 5295 0056 41F21611 		movw	r1, #4374
 5296 005a 5D48     		ldr	r0, .L665
 5297 005c FFF7FEFF 		bl	assert_failed
 5298 0060 E9E7     		b	.L648
 5299              	.L650:
 5300 0062 48F20201 		movw	r1, #32770
 5301 0066 2046     		mov	r0, r4
 5302 0068 FFF7FEFF 		bl	I2C_Disable_IRQ
 5303 006c 94F84030 		ldrb	r3, [r4, #64]	@ zero_extendqisi2
 5304 0070 012B     		cmp	r3, #1
 5305 0072 00F0AB80 		beq	.L659
 5306 0076 0123     		movs	r3, #1
 5307 0078 84F84030 		strb	r3, [r4, #64]
 5308 007c 94F84130 		ldrb	r3, [r4, #65]	@ zero_extendqisi2
 5309 0080 292B     		cmp	r3, #41
 5310 0082 3CD0     		beq	.L663
 5311 0084 94F84130 		ldrb	r3, [r4, #65]	@ zero_extendqisi2
 5312 0088 2A2B     		cmp	r3, #42
 5313 008a 54D0     		beq	.L664
 5314              	.L652:
 5315 008c 2A23     		movs	r3, #42
 5316 008e 84F84130 		strb	r3, [r4, #65]
 5317 0092 2023     		movs	r3, #32
 5318 0094 84F84230 		strb	r3, [r4, #66]
 5319 0098 0023     		movs	r3, #0
 5320 009a 6364     		str	r3, [r4, #68]
 5321 009c 2268     		ldr	r2, [r4]
 5322 009e 5368     		ldr	r3, [r2, #4]
 5323 00a0 23F40043 		bic	r3, r3, #32768
 5324 00a4 5360     		str	r3, [r2, #4]
 5325 00a6 6662     		str	r6, [r4, #36]
ARM GAS  C:\Users\thewo\AppData\Local\Temp\ccUp1enP.s 			page 93


 5326 00a8 6785     		strh	r7, [r4, #42]	@ movhi
 5327 00aa 638D     		ldrh	r3, [r4, #42]
 5328 00ac 2385     		strh	r3, [r4, #40]	@ movhi
 5329 00ae E562     		str	r5, [r4, #44]
 5330 00b0 484B     		ldr	r3, .L665+4
 5331 00b2 6363     		str	r3, [r4, #52]
 5332 00b4 E36B     		ldr	r3, [r4, #60]
 5333 00b6 002B     		cmp	r3, #0
 5334 00b8 54D0     		beq	.L653
 5335 00ba 474A     		ldr	r2, .L665+8
 5336 00bc DA63     		str	r2, [r3, #60]
 5337 00be E36B     		ldr	r3, [r4, #60]
 5338 00c0 464A     		ldr	r2, .L665+12
 5339 00c2 DA64     		str	r2, [r3, #76]
 5340 00c4 E26B     		ldr	r2, [r4, #60]
 5341 00c6 0023     		movs	r3, #0
 5342 00c8 1364     		str	r3, [r2, #64]
 5343 00ca E26B     		ldr	r2, [r4, #60]
 5344 00cc 1365     		str	r3, [r2, #80]
 5345 00ce 2168     		ldr	r1, [r4]
 5346 00d0 238D     		ldrh	r3, [r4, #40]
 5347 00d2 3246     		mov	r2, r6
 5348 00d4 2431     		adds	r1, r1, #36
 5349 00d6 E06B     		ldr	r0, [r4, #60]
 5350 00d8 FFF7FEFF 		bl	HAL_DMA_Start_IT
 5351 00dc 0546     		mov	r5, r0
 5352 00de 0028     		cmp	r0, #0
 5353 00e0 4ED0     		beq	.L654
 5354 00e2 2823     		movs	r3, #40
 5355 00e4 84F84130 		strb	r3, [r4, #65]
 5356 00e8 0022     		movs	r2, #0
 5357 00ea 84F84220 		strb	r2, [r4, #66]
 5358 00ee 636C     		ldr	r3, [r4, #68]
 5359 00f0 43F01003 		orr	r3, r3, #16
 5360 00f4 6364     		str	r3, [r4, #68]
 5361 00f6 84F84020 		strb	r2, [r4, #64]
 5362 00fa 0125     		movs	r5, #1
 5363 00fc 64E0     		b	.L649
 5364              	.L663:
 5365 00fe 0121     		movs	r1, #1
 5366 0100 2046     		mov	r0, r4
 5367 0102 FFF7FEFF 		bl	I2C_Disable_IRQ
 5368 0106 2368     		ldr	r3, [r4]
 5369 0108 1A68     		ldr	r2, [r3]
 5370 010a 12F4804F 		tst	r2, #16384
 5371 010e BDD0     		beq	.L652
 5372 0110 A26B     		ldr	r2, [r4, #56]
 5373 0112 002A     		cmp	r2, #0
 5374 0114 BAD0     		beq	.L652
 5375 0116 1A68     		ldr	r2, [r3]
 5376 0118 22F48042 		bic	r2, r2, #16384
 5377 011c 1A60     		str	r2, [r3]
 5378 011e A36B     		ldr	r3, [r4, #56]
 5379 0120 2F4A     		ldr	r2, .L665+16
 5380 0122 1A65     		str	r2, [r3, #80]
 5381 0124 A06B     		ldr	r0, [r4, #56]
 5382 0126 FFF7FEFF 		bl	HAL_DMA_Abort_IT
ARM GAS  C:\Users\thewo\AppData\Local\Temp\ccUp1enP.s 			page 94


 5383 012a 0028     		cmp	r0, #0
 5384 012c AED0     		beq	.L652
 5385 012e A06B     		ldr	r0, [r4, #56]
 5386 0130 036D     		ldr	r3, [r0, #80]
 5387 0132 9847     		blx	r3
 5388 0134 AAE7     		b	.L652
 5389              	.L664:
 5390 0136 2368     		ldr	r3, [r4]
 5391 0138 1A68     		ldr	r2, [r3]
 5392 013a 12F4004F 		tst	r2, #32768
 5393 013e A5D0     		beq	.L652
 5394 0140 1A68     		ldr	r2, [r3]
 5395 0142 22F40042 		bic	r2, r2, #32768
 5396 0146 1A60     		str	r2, [r3]
 5397 0148 E36B     		ldr	r3, [r4, #60]
 5398 014a 002B     		cmp	r3, #0
 5399 014c 9ED0     		beq	.L652
 5400 014e 244A     		ldr	r2, .L665+16
 5401 0150 1A65     		str	r2, [r3, #80]
 5402 0152 E06B     		ldr	r0, [r4, #60]
 5403 0154 FFF7FEFF 		bl	HAL_DMA_Abort_IT
 5404 0158 0028     		cmp	r0, #0
 5405 015a 97D0     		beq	.L652
 5406 015c E06B     		ldr	r0, [r4, #60]
 5407 015e 036D     		ldr	r3, [r0, #80]
 5408 0160 9847     		blx	r3
 5409 0162 93E7     		b	.L652
 5410              	.L653:
 5411 0164 2823     		movs	r3, #40
 5412 0166 84F84130 		strb	r3, [r4, #65]
 5413 016a 0022     		movs	r2, #0
 5414 016c 84F84220 		strb	r2, [r4, #66]
 5415 0170 636C     		ldr	r3, [r4, #68]
 5416 0172 43F08003 		orr	r3, r3, #128
 5417 0176 6364     		str	r3, [r4, #68]
 5418 0178 84F84020 		strb	r2, [r4, #64]
 5419 017c 0125     		movs	r5, #1
 5420 017e 23E0     		b	.L649
 5421              	.L654:
 5422 0180 638D     		ldrh	r3, [r4, #42]
 5423 0182 9BB2     		uxth	r3, r3
 5424 0184 228D     		ldrh	r2, [r4, #40]
 5425 0186 9B1A     		subs	r3, r3, r2
 5426 0188 9BB2     		uxth	r3, r3
 5427 018a 6385     		strh	r3, [r4, #42]	@ movhi
 5428 018c 0023     		movs	r3, #0
 5429 018e 2385     		strh	r3, [r4, #40]	@ movhi
 5430 0190 2268     		ldr	r2, [r4]
 5431 0192 9369     		ldr	r3, [r2, #24]
 5432 0194 03F00803 		and	r3, r3, #8
 5433 0198 9169     		ldr	r1, [r2, #24]
 5434 019a 11F4803F 		tst	r1, #65536
 5435 019e 0DD0     		beq	.L656
 5436              	.L657:
 5437 01a0 0023     		movs	r3, #0
 5438 01a2 84F84030 		strb	r3, [r4, #64]
 5439 01a6 2268     		ldr	r2, [r4]
ARM GAS  C:\Users\thewo\AppData\Local\Temp\ccUp1enP.s 			page 95


 5440 01a8 1368     		ldr	r3, [r2]
 5441 01aa 43F40043 		orr	r3, r3, #32768
 5442 01ae 1360     		str	r3, [r2]
 5443 01b0 48F20201 		movw	r1, #32770
 5444 01b4 2046     		mov	r0, r4
 5445 01b6 FFF7FEFF 		bl	I2C_Enable_IRQ
 5446 01ba 05E0     		b	.L649
 5447              	.L656:
 5448 01bc 002B     		cmp	r3, #0
 5449 01be EFD0     		beq	.L657
 5450 01c0 0823     		movs	r3, #8
 5451 01c2 D361     		str	r3, [r2, #28]
 5452 01c4 ECE7     		b	.L657
 5453              	.L658:
 5454 01c6 0125     		movs	r5, #1
 5455              	.L649:
 5456 01c8 2846     		mov	r0, r5
 5457 01ca F8BD     		pop	{r3, r4, r5, r6, r7, pc}
 5458              	.L659:
 5459 01cc 0225     		movs	r5, #2
 5460 01ce FBE7     		b	.L649
 5461              	.L666:
 5462              		.align	2
 5463              	.L665:
 5464 01d0 00000000 		.word	.LC0
 5465 01d4 00000000 		.word	I2C_Slave_ISR_DMA
 5466 01d8 00000000 		.word	I2C_DMASlaveReceiveCplt
 5467 01dc 00000000 		.word	I2C_DMAError
 5468 01e0 00000000 		.word	I2C_DMAAbort
 5470              		.section	.text.HAL_I2C_EnableListen_IT,"ax",%progbits
 5471              		.align	1
 5472              		.global	HAL_I2C_EnableListen_IT
 5473              		.syntax unified
 5474              		.thumb
 5475              		.thumb_func
 5477              	HAL_I2C_EnableListen_IT:
 5478              		@ args = 0, pretend = 0, frame = 0
 5479              		@ frame_needed = 0, uses_anonymous_args = 0
 5480 0000 08B5     		push	{r3, lr}
 5481 0002 90F84130 		ldrb	r3, [r0, #65]	@ zero_extendqisi2
 5482 0006 202B     		cmp	r3, #32
 5483 0008 01D0     		beq	.L671
 5484 000a 0220     		movs	r0, #2
 5485              	.L668:
 5486 000c 08BD     		pop	{r3, pc}
 5487              	.L671:
 5488 000e 2823     		movs	r3, #40
 5489 0010 80F84130 		strb	r3, [r0, #65]
 5490 0014 034B     		ldr	r3, .L672
 5491 0016 4363     		str	r3, [r0, #52]
 5492 0018 4FF40041 		mov	r1, #32768
 5493 001c FFF7FEFF 		bl	I2C_Enable_IRQ
 5494 0020 0020     		movs	r0, #0
 5495 0022 F3E7     		b	.L668
 5496              	.L673:
 5497              		.align	2
 5498              	.L672:
ARM GAS  C:\Users\thewo\AppData\Local\Temp\ccUp1enP.s 			page 96


 5499 0024 00000000 		.word	I2C_Slave_ISR_IT
 5501              		.section	.text.HAL_I2C_DisableListen_IT,"ax",%progbits
 5502              		.align	1
 5503              		.global	HAL_I2C_DisableListen_IT
 5504              		.syntax unified
 5505              		.thumb
 5506              		.thumb_func
 5508              	HAL_I2C_DisableListen_IT:
 5509              		@ args = 0, pretend = 0, frame = 0
 5510              		@ frame_needed = 0, uses_anonymous_args = 0
 5511 0000 90F84130 		ldrb	r3, [r0, #65]	@ zero_extendqisi2
 5512 0004 282B     		cmp	r3, #40
 5513 0006 01D0     		beq	.L681
 5514 0008 0220     		movs	r0, #2
 5515 000a 7047     		bx	lr
 5516              	.L681:
 5517 000c 10B5     		push	{r4, lr}
 5518 000e 90F84120 		ldrb	r2, [r0, #65]	@ zero_extendqisi2
 5519 0012 90F84230 		ldrb	r3, [r0, #66]	@ zero_extendqisi2
 5520 0016 02F00302 		and	r2, r2, #3
 5521 001a 1343     		orrs	r3, r3, r2
 5522 001c 0363     		str	r3, [r0, #48]
 5523 001e 2023     		movs	r3, #32
 5524 0020 80F84130 		strb	r3, [r0, #65]
 5525 0024 0024     		movs	r4, #0
 5526 0026 80F84240 		strb	r4, [r0, #66]
 5527 002a 4463     		str	r4, [r0, #52]
 5528 002c 4FF40041 		mov	r1, #32768
 5529 0030 FFF7FEFF 		bl	I2C_Disable_IRQ
 5530 0034 2046     		mov	r0, r4
 5531 0036 10BD     		pop	{r4, pc}
 5533              		.section	.text.HAL_I2C_Master_Abort_IT,"ax",%progbits
 5534              		.align	1
 5535              		.global	HAL_I2C_Master_Abort_IT
 5536              		.syntax unified
 5537              		.thumb
 5538              		.thumb_func
 5540              	HAL_I2C_Master_Abort_IT:
 5541              		@ args = 0, pretend = 0, frame = 0
 5542              		@ frame_needed = 0, uses_anonymous_args = 0
 5543 0000 90F84230 		ldrb	r3, [r0, #66]	@ zero_extendqisi2
 5544 0004 402B     		cmp	r3, #64
 5545 0006 18BF     		it	ne
 5546 0008 102B     		cmpne	r3, #16
 5547 000a 34D1     		bne	.L686
 5548 000c 30B5     		push	{r4, r5, lr}
 5549 000e 83B0     		sub	sp, sp, #12
 5550 0010 0446     		mov	r4, r0
 5551 0012 0D46     		mov	r5, r1
 5552 0014 90F84030 		ldrb	r3, [r0, #64]	@ zero_extendqisi2
 5553 0018 012B     		cmp	r3, #1
 5554 001a 2ED0     		beq	.L687
 5555 001c 0123     		movs	r3, #1
 5556 001e 80F84030 		strb	r3, [r0, #64]
 5557 0022 90F84130 		ldrb	r3, [r0, #65]	@ zero_extendqisi2
 5558 0026 212B     		cmp	r3, #33
 5559 0028 19D0     		beq	.L692
ARM GAS  C:\Users\thewo\AppData\Local\Temp\ccUp1enP.s 			page 97


 5560 002a 90F84130 		ldrb	r3, [r0, #65]	@ zero_extendqisi2
 5561 002e 222B     		cmp	r3, #34
 5562 0030 1BD0     		beq	.L693
 5563              	.L685:
 5564 0032 6023     		movs	r3, #96
 5565 0034 84F84130 		strb	r3, [r4, #65]
 5566 0038 114B     		ldr	r3, .L694
 5567 003a 0093     		str	r3, [sp]
 5568 003c 4FF00073 		mov	r3, #33554432
 5569 0040 0122     		movs	r2, #1
 5570 0042 2946     		mov	r1, r5
 5571 0044 2046     		mov	r0, r4
 5572 0046 FFF7FEFF 		bl	I2C_TransferConfig
 5573 004a 0025     		movs	r5, #0
 5574 004c 84F84050 		strb	r5, [r4, #64]
 5575 0050 2021     		movs	r1, #32
 5576 0052 2046     		mov	r0, r4
 5577 0054 FFF7FEFF 		bl	I2C_Enable_IRQ
 5578 0058 2846     		mov	r0, r5
 5579              	.L683:
 5580 005a 03B0     		add	sp, sp, #12
 5581              		@ sp needed
 5582 005c 30BD     		pop	{r4, r5, pc}
 5583              	.L692:
 5584 005e 0121     		movs	r1, #1
 5585 0060 FFF7FEFF 		bl	I2C_Disable_IRQ
 5586 0064 1123     		movs	r3, #17
 5587 0066 2363     		str	r3, [r4, #48]
 5588 0068 E3E7     		b	.L685
 5589              	.L693:
 5590 006a 0221     		movs	r1, #2
 5591 006c FFF7FEFF 		bl	I2C_Disable_IRQ
 5592 0070 1223     		movs	r3, #18
 5593 0072 2363     		str	r3, [r4, #48]
 5594 0074 DDE7     		b	.L685
 5595              	.L686:
 5596 0076 0120     		movs	r0, #1
 5597 0078 7047     		bx	lr
 5598              	.L687:
 5599 007a 0220     		movs	r0, #2
 5600 007c EDE7     		b	.L683
 5601              	.L695:
 5602 007e 00BF     		.align	2
 5603              	.L694:
 5604 0080 00400080 		.word	-2147467264
 5606              		.section	.text.HAL_I2C_EV_IRQHandler,"ax",%progbits
 5607              		.align	1
 5608              		.global	HAL_I2C_EV_IRQHandler
 5609              		.syntax unified
 5610              		.thumb
 5611              		.thumb_func
 5613              	HAL_I2C_EV_IRQHandler:
 5614              		@ args = 0, pretend = 0, frame = 0
 5615              		@ frame_needed = 0, uses_anonymous_args = 0
 5616 0000 08B5     		push	{r3, lr}
 5617 0002 0368     		ldr	r3, [r0]
 5618 0004 9969     		ldr	r1, [r3, #24]
ARM GAS  C:\Users\thewo\AppData\Local\Temp\ccUp1enP.s 			page 98


 5619 0006 1A68     		ldr	r2, [r3]
 5620 0008 436B     		ldr	r3, [r0, #52]
 5621 000a 03B1     		cbz	r3, .L696
 5622 000c 9847     		blx	r3
 5623              	.L696:
 5624 000e 08BD     		pop	{r3, pc}
 5626              		.section	.text.HAL_I2C_MasterTxCpltCallback,"ax",%progbits
 5627              		.align	1
 5628              		.weak	HAL_I2C_MasterTxCpltCallback
 5629              		.syntax unified
 5630              		.thumb
 5631              		.thumb_func
 5633              	HAL_I2C_MasterTxCpltCallback:
 5634              		@ args = 0, pretend = 0, frame = 0
 5635              		@ frame_needed = 0, uses_anonymous_args = 0
 5636              		@ link register save eliminated.
 5637 0000 7047     		bx	lr
 5639              		.section	.text.HAL_I2C_MasterRxCpltCallback,"ax",%progbits
 5640              		.align	1
 5641              		.weak	HAL_I2C_MasterRxCpltCallback
 5642              		.syntax unified
 5643              		.thumb
 5644              		.thumb_func
 5646              	HAL_I2C_MasterRxCpltCallback:
 5647              		@ args = 0, pretend = 0, frame = 0
 5648              		@ frame_needed = 0, uses_anonymous_args = 0
 5649              		@ link register save eliminated.
 5650 0000 7047     		bx	lr
 5652              		.section	.text.I2C_ITMasterSeqCplt,"ax",%progbits
 5653              		.align	1
 5654              		.syntax unified
 5655              		.thumb
 5656              		.thumb_func
 5658              	I2C_ITMasterSeqCplt:
 5659              		@ args = 0, pretend = 0, frame = 0
 5660              		@ frame_needed = 0, uses_anonymous_args = 0
 5661 0000 38B5     		push	{r3, r4, r5, lr}
 5662 0002 0446     		mov	r4, r0
 5663 0004 0023     		movs	r3, #0
 5664 0006 80F84230 		strb	r3, [r0, #66]
 5665 000a 90F84130 		ldrb	r3, [r0, #65]	@ zero_extendqisi2
 5666 000e 212B     		cmp	r3, #33
 5667 0010 0FD0     		beq	.L705
 5668 0012 2023     		movs	r3, #32
 5669 0014 80F84130 		strb	r3, [r0, #65]
 5670 0018 1223     		movs	r3, #18
 5671 001a 0363     		str	r3, [r0, #48]
 5672 001c 0025     		movs	r5, #0
 5673 001e 4563     		str	r5, [r0, #52]
 5674 0020 0221     		movs	r1, #2
 5675 0022 FFF7FEFF 		bl	I2C_Disable_IRQ
 5676 0026 84F84050 		strb	r5, [r4, #64]
 5677 002a 2046     		mov	r0, r4
 5678 002c FFF7FEFF 		bl	HAL_I2C_MasterRxCpltCallback
 5679              	.L701:
 5680 0030 38BD     		pop	{r3, r4, r5, pc}
 5681              	.L705:
ARM GAS  C:\Users\thewo\AppData\Local\Temp\ccUp1enP.s 			page 99


 5682 0032 2023     		movs	r3, #32
 5683 0034 80F84130 		strb	r3, [r0, #65]
 5684 0038 1123     		movs	r3, #17
 5685 003a 0363     		str	r3, [r0, #48]
 5686 003c 0025     		movs	r5, #0
 5687 003e 4563     		str	r5, [r0, #52]
 5688 0040 0121     		movs	r1, #1
 5689 0042 FFF7FEFF 		bl	I2C_Disable_IRQ
 5690 0046 84F84050 		strb	r5, [r4, #64]
 5691 004a 2046     		mov	r0, r4
 5692 004c FFF7FEFF 		bl	HAL_I2C_MasterTxCpltCallback
 5693 0050 EEE7     		b	.L701
 5695              		.section	.text.HAL_I2C_SlaveTxCpltCallback,"ax",%progbits
 5696              		.align	1
 5697              		.weak	HAL_I2C_SlaveTxCpltCallback
 5698              		.syntax unified
 5699              		.thumb
 5700              		.thumb_func
 5702              	HAL_I2C_SlaveTxCpltCallback:
 5703              		@ args = 0, pretend = 0, frame = 0
 5704              		@ frame_needed = 0, uses_anonymous_args = 0
 5705              		@ link register save eliminated.
 5706 0000 7047     		bx	lr
 5708              		.section	.text.HAL_I2C_SlaveRxCpltCallback,"ax",%progbits
 5709              		.align	1
 5710              		.weak	HAL_I2C_SlaveRxCpltCallback
 5711              		.syntax unified
 5712              		.thumb
 5713              		.thumb_func
 5715              	HAL_I2C_SlaveRxCpltCallback:
 5716              		@ args = 0, pretend = 0, frame = 0
 5717              		@ frame_needed = 0, uses_anonymous_args = 0
 5718              		@ link register save eliminated.
 5719 0000 7047     		bx	lr
 5721              		.section	.text.I2C_ITSlaveSeqCplt,"ax",%progbits
 5722              		.align	1
 5723              		.syntax unified
 5724              		.thumb
 5725              		.thumb_func
 5727              	I2C_ITSlaveSeqCplt:
 5728              		@ args = 0, pretend = 0, frame = 0
 5729              		@ frame_needed = 0, uses_anonymous_args = 0
 5730 0000 10B5     		push	{r4, lr}
 5731 0002 0446     		mov	r4, r0
 5732 0004 0368     		ldr	r3, [r0]
 5733 0006 1A68     		ldr	r2, [r3]
 5734 0008 0021     		movs	r1, #0
 5735 000a 80F84210 		strb	r1, [r0, #66]
 5736 000e 12F4804F 		tst	r2, #16384
 5737 0012 0CD0     		beq	.L709
 5738 0014 1A68     		ldr	r2, [r3]
 5739 0016 22F48042 		bic	r2, r2, #16384
 5740 001a 1A60     		str	r2, [r3]
 5741              	.L710:
 5742 001c 94F84130 		ldrb	r3, [r4, #65]	@ zero_extendqisi2
 5743 0020 292B     		cmp	r3, #41
 5744 0022 0CD0     		beq	.L714
ARM GAS  C:\Users\thewo\AppData\Local\Temp\ccUp1enP.s 			page 100


 5745 0024 94F84130 		ldrb	r3, [r4, #65]	@ zero_extendqisi2
 5746 0028 2A2B     		cmp	r3, #42
 5747 002a 18D0     		beq	.L715
 5748              	.L708:
 5749 002c 10BD     		pop	{r4, pc}
 5750              	.L709:
 5751 002e 12F4004F 		tst	r2, #32768
 5752 0032 F3D0     		beq	.L710
 5753 0034 1A68     		ldr	r2, [r3]
 5754 0036 22F40042 		bic	r2, r2, #32768
 5755 003a 1A60     		str	r2, [r3]
 5756 003c EEE7     		b	.L710
 5757              	.L714:
 5758 003e 2823     		movs	r3, #40
 5759 0040 84F84130 		strb	r3, [r4, #65]
 5760 0044 2123     		movs	r3, #33
 5761 0046 2363     		str	r3, [r4, #48]
 5762 0048 0121     		movs	r1, #1
 5763 004a 2046     		mov	r0, r4
 5764 004c FFF7FEFF 		bl	I2C_Disable_IRQ
 5765 0050 0023     		movs	r3, #0
 5766 0052 84F84030 		strb	r3, [r4, #64]
 5767 0056 2046     		mov	r0, r4
 5768 0058 FFF7FEFF 		bl	HAL_I2C_SlaveTxCpltCallback
 5769 005c E6E7     		b	.L708
 5770              	.L715:
 5771 005e 2823     		movs	r3, #40
 5772 0060 84F84130 		strb	r3, [r4, #65]
 5773 0064 2223     		movs	r3, #34
 5774 0066 2363     		str	r3, [r4, #48]
 5775 0068 0221     		movs	r1, #2
 5776 006a 2046     		mov	r0, r4
 5777 006c FFF7FEFF 		bl	I2C_Disable_IRQ
 5778 0070 0023     		movs	r3, #0
 5779 0072 84F84030 		strb	r3, [r4, #64]
 5780 0076 2046     		mov	r0, r4
 5781 0078 FFF7FEFF 		bl	HAL_I2C_SlaveRxCpltCallback
 5782 007c D6E7     		b	.L708
 5784              		.section	.text.I2C_DMASlaveTransmitCplt,"ax",%progbits
 5785              		.align	1
 5786              		.syntax unified
 5787              		.thumb
 5788              		.thumb_func
 5790              	I2C_DMASlaveTransmitCplt:
 5791              		@ args = 0, pretend = 0, frame = 0
 5792              		@ frame_needed = 0, uses_anonymous_args = 0
 5793 0000 08B5     		push	{r3, lr}
 5794 0002 806B     		ldr	r0, [r0, #56]
 5795 0004 C36A     		ldr	r3, [r0, #44]
 5796 0006 002B     		cmp	r3, #0
 5797 0008 18BF     		it	ne
 5798 000a B3F1807F 		cmpne	r3, #16777216
 5799 000e 00D0     		beq	.L719
 5800              	.L716:
 5801 0010 08BD     		pop	{r3, pc}
 5802              	.L719:
 5803 0012 0268     		ldr	r2, [r0]
ARM GAS  C:\Users\thewo\AppData\Local\Temp\ccUp1enP.s 			page 101


 5804 0014 1368     		ldr	r3, [r2]
 5805 0016 23F48043 		bic	r3, r3, #16384
 5806 001a 1360     		str	r3, [r2]
 5807 001c FFF7FEFF 		bl	I2C_ITSlaveSeqCplt
 5808 0020 F6E7     		b	.L716
 5810              		.section	.text.I2C_DMASlaveReceiveCplt,"ax",%progbits
 5811              		.align	1
 5812              		.syntax unified
 5813              		.thumb
 5814              		.thumb_func
 5816              	I2C_DMASlaveReceiveCplt:
 5817              		@ args = 0, pretend = 0, frame = 0
 5818              		@ frame_needed = 0, uses_anonymous_args = 0
 5819 0000 10B5     		push	{r4, lr}
 5820 0002 806B     		ldr	r0, [r0, #56]
 5821 0004 C46A     		ldr	r4, [r0, #44]
 5822 0006 C36B     		ldr	r3, [r0, #60]
 5823 0008 1B68     		ldr	r3, [r3]
 5824 000a 2349     		ldr	r1, .L727
 5825 000c 234A     		ldr	r2, .L727+4
 5826 000e 9342     		cmp	r3, r2
 5827 0010 18BF     		it	ne
 5828 0012 8B42     		cmpne	r3, r1
 5829 0014 2FD0     		beq	.L721
 5830 0016 1832     		adds	r2, r2, #24
 5831 0018 9342     		cmp	r3, r2
 5832 001a 2CD0     		beq	.L721
 5833 001c 1832     		adds	r2, r2, #24
 5834 001e 9342     		cmp	r3, r2
 5835 0020 29D0     		beq	.L721
 5836 0022 1832     		adds	r2, r2, #24
 5837 0024 9342     		cmp	r3, r2
 5838 0026 26D0     		beq	.L721
 5839 0028 1832     		adds	r2, r2, #24
 5840 002a 9342     		cmp	r3, r2
 5841 002c 23D0     		beq	.L721
 5842 002e 1832     		adds	r2, r2, #24
 5843 0030 9342     		cmp	r3, r2
 5844 0032 20D0     		beq	.L721
 5845 0034 1832     		adds	r2, r2, #24
 5846 0036 9342     		cmp	r3, r2
 5847 0038 1DD0     		beq	.L721
 5848 003a 02F55672 		add	r2, r2, #856
 5849 003e 9342     		cmp	r3, r2
 5850 0040 19D0     		beq	.L721
 5851 0042 1832     		adds	r2, r2, #24
 5852 0044 9342     		cmp	r3, r2
 5853 0046 16D0     		beq	.L721
 5854 0048 1832     		adds	r2, r2, #24
 5855 004a 9342     		cmp	r3, r2
 5856 004c 13D0     		beq	.L721
 5857 004e 1832     		adds	r2, r2, #24
 5858 0050 9342     		cmp	r3, r2
 5859 0052 10D0     		beq	.L721
 5860 0054 1832     		adds	r2, r2, #24
 5861 0056 9342     		cmp	r3, r2
 5862 0058 0DD0     		beq	.L721
ARM GAS  C:\Users\thewo\AppData\Local\Temp\ccUp1enP.s 			page 102


 5863 005a 1832     		adds	r2, r2, #24
 5864 005c 9342     		cmp	r3, r2
 5865 005e 0AD0     		beq	.L721
 5866 0060 1832     		adds	r2, r2, #24
 5867 0062 9342     		cmp	r3, r2
 5868 0064 07D0     		beq	.L721
 5869 0066 1832     		adds	r2, r2, #24
 5870 0068 9342     		cmp	r3, r2
 5871 006a 04D0     		beq	.L721
 5872 006c 5B68     		ldr	r3, [r3, #4]
 5873 006e B3FA83F3 		clz	r3, r3
 5874 0072 5B09     		lsrs	r3, r3, #5
 5875 0074 03E0     		b	.L723
 5876              	.L721:
 5877 0076 5B68     		ldr	r3, [r3, #4]
 5878 0078 B3FA83F3 		clz	r3, r3
 5879 007c 5B09     		lsrs	r3, r3, #5
 5880              	.L723:
 5881 007e 13B1     		cbz	r3, .L720
 5882 0080 14F5803F 		cmn	r4, #65536
 5883 0084 00D1     		bne	.L726
 5884              	.L720:
 5885 0086 10BD     		pop	{r4, pc}
 5886              	.L726:
 5887 0088 0268     		ldr	r2, [r0]
 5888 008a 1368     		ldr	r3, [r2]
 5889 008c 23F40043 		bic	r3, r3, #32768
 5890 0090 1360     		str	r3, [r2]
 5891 0092 FFF7FEFF 		bl	I2C_ITSlaveSeqCplt
 5892 0096 F6E7     		b	.L720
 5893              	.L728:
 5894              		.align	2
 5895              	.L727:
 5896 0098 10000240 		.word	1073872912
 5897 009c 28000240 		.word	1073872936
 5899              		.section	.text.HAL_I2C_AddrCallback,"ax",%progbits
 5900              		.align	1
 5901              		.weak	HAL_I2C_AddrCallback
 5902              		.syntax unified
 5903              		.thumb
 5904              		.thumb_func
 5906              	HAL_I2C_AddrCallback:
 5907              		@ args = 0, pretend = 0, frame = 0
 5908              		@ frame_needed = 0, uses_anonymous_args = 0
 5909              		@ link register save eliminated.
 5910 0000 7047     		bx	lr
 5912              		.section	.text.I2C_ITAddrCplt,"ax",%progbits
 5913              		.align	1
 5914              		.syntax unified
 5915              		.thumb
 5916              		.thumb_func
 5918              	I2C_ITAddrCplt:
 5919              		@ args = 0, pretend = 0, frame = 0
 5920              		@ frame_needed = 0, uses_anonymous_args = 0
 5921 0000 F8B5     		push	{r3, r4, r5, r6, r7, lr}
 5922 0002 0446     		mov	r4, r0
 5923 0004 90F84130 		ldrb	r3, [r0, #65]	@ zero_extendqisi2
ARM GAS  C:\Users\thewo\AppData\Local\Temp\ccUp1enP.s 			page 103


 5924 0008 03F02803 		and	r3, r3, #40
 5925 000c 282B     		cmp	r3, #40
 5926 000e 06D0     		beq	.L736
 5927 0010 0368     		ldr	r3, [r0]
 5928 0012 0822     		movs	r2, #8
 5929 0014 DA61     		str	r2, [r3, #28]
 5930 0016 0023     		movs	r3, #0
 5931 0018 80F84030 		strb	r3, [r0, #64]
 5932              	.L730:
 5933 001c F8BD     		pop	{r3, r4, r5, r6, r7, pc}
 5934              	.L736:
 5935 001e 0368     		ldr	r3, [r0]
 5936 0020 9E69     		ldr	r6, [r3, #24]
 5937 0022 C6F30046 		ubfx	r6, r6, #16, #1
 5938 0026 9A69     		ldr	r2, [r3, #24]
 5939 0028 120C     		lsrs	r2, r2, #16
 5940 002a 02F0FE05 		and	r5, r2, #254
 5941 002e 9A68     		ldr	r2, [r3, #8]
 5942 0030 C2F30902 		ubfx	r2, r2, #0, #10
 5943 0034 DF68     		ldr	r7, [r3, #12]
 5944 0036 07F0FE07 		and	r7, r7, #254
 5945 003a C168     		ldr	r1, [r0, #12]
 5946 003c 0229     		cmp	r1, #2
 5947 003e 22D1     		bne	.L732
 5948 0040 85EAD215 		eor	r5, r5, r2, lsr #7
 5949 0044 15F0060F 		tst	r5, #6
 5950 0048 10D1     		bne	.L733
 5951 004a 816C     		ldr	r1, [r0, #72]
 5952 004c 0131     		adds	r1, r1, #1
 5953 004e 8164     		str	r1, [r0, #72]
 5954 0050 816C     		ldr	r1, [r0, #72]
 5955 0052 0229     		cmp	r1, #2
 5956 0054 E2D1     		bne	.L730
 5957 0056 0021     		movs	r1, #0
 5958 0058 8164     		str	r1, [r0, #72]
 5959 005a 0820     		movs	r0, #8
 5960 005c D861     		str	r0, [r3, #28]
 5961 005e 84F84010 		strb	r1, [r4, #64]
 5962 0062 3146     		mov	r1, r6
 5963 0064 2046     		mov	r0, r4
 5964 0066 FFF7FEFF 		bl	HAL_I2C_AddrCallback
 5965 006a D7E7     		b	.L730
 5966              	.L733:
 5967 006c 4FF40041 		mov	r1, #32768
 5968 0070 FFF7FEFF 		bl	I2C_Disable_IRQ
 5969 0074 0023     		movs	r3, #0
 5970 0076 84F84030 		strb	r3, [r4, #64]
 5971 007a 3A46     		mov	r2, r7
 5972 007c 3146     		mov	r1, r6
 5973 007e 2046     		mov	r0, r4
 5974 0080 FFF7FEFF 		bl	HAL_I2C_AddrCallback
 5975 0084 CAE7     		b	.L730
 5976              	.L732:
 5977 0086 4FF40041 		mov	r1, #32768
 5978 008a FFF7FEFF 		bl	I2C_Disable_IRQ
 5979 008e 0023     		movs	r3, #0
 5980 0090 84F84030 		strb	r3, [r4, #64]
ARM GAS  C:\Users\thewo\AppData\Local\Temp\ccUp1enP.s 			page 104


 5981 0094 2A46     		mov	r2, r5
 5982 0096 3146     		mov	r1, r6
 5983 0098 2046     		mov	r0, r4
 5984 009a FFF7FEFF 		bl	HAL_I2C_AddrCallback
 5985 009e BDE7     		b	.L730
 5987              		.section	.text.HAL_I2C_ListenCpltCallback,"ax",%progbits
 5988              		.align	1
 5989              		.weak	HAL_I2C_ListenCpltCallback
 5990              		.syntax unified
 5991              		.thumb
 5992              		.thumb_func
 5994              	HAL_I2C_ListenCpltCallback:
 5995              		@ args = 0, pretend = 0, frame = 0
 5996              		@ frame_needed = 0, uses_anonymous_args = 0
 5997              		@ link register save eliminated.
 5998 0000 7047     		bx	lr
 6000              		.section	.text.I2C_ITListenCplt,"ax",%progbits
 6001              		.align	1
 6002              		.syntax unified
 6003              		.thumb
 6004              		.thumb_func
 6006              	I2C_ITListenCplt:
 6007              		@ args = 0, pretend = 0, frame = 0
 6008              		@ frame_needed = 0, uses_anonymous_args = 0
 6009 0000 10B5     		push	{r4, lr}
 6010 0002 0446     		mov	r4, r0
 6011 0004 174B     		ldr	r3, .L741
 6012 0006 C362     		str	r3, [r0, #44]
 6013 0008 0023     		movs	r3, #0
 6014 000a 0363     		str	r3, [r0, #48]
 6015 000c 2022     		movs	r2, #32
 6016 000e 80F84120 		strb	r2, [r0, #65]
 6017 0012 80F84230 		strb	r3, [r0, #66]
 6018 0016 4363     		str	r3, [r0, #52]
 6019 0018 11F0040F 		tst	r1, #4
 6020 001c 13D0     		beq	.L739
 6021 001e 0368     		ldr	r3, [r0]
 6022 0020 5A6A     		ldr	r2, [r3, #36]
 6023 0022 436A     		ldr	r3, [r0, #36]
 6024 0024 1A70     		strb	r2, [r3]
 6025 0026 436A     		ldr	r3, [r0, #36]
 6026 0028 0133     		adds	r3, r3, #1
 6027 002a 4362     		str	r3, [r0, #36]
 6028 002c 038D     		ldrh	r3, [r0, #40]
 6029 002e 53B1     		cbz	r3, .L739
 6030 0030 013B     		subs	r3, r3, #1
 6031 0032 0385     		strh	r3, [r0, #40]	@ movhi
 6032 0034 438D     		ldrh	r3, [r0, #42]
 6033 0036 9BB2     		uxth	r3, r3
 6034 0038 013B     		subs	r3, r3, #1
 6035 003a 9BB2     		uxth	r3, r3
 6036 003c 4385     		strh	r3, [r0, #42]	@ movhi
 6037 003e 436C     		ldr	r3, [r0, #68]
 6038 0040 43F00403 		orr	r3, r3, #4
 6039 0044 4364     		str	r3, [r0, #68]
 6040              	.L739:
 6041 0046 48F20301 		movw	r1, #32771
ARM GAS  C:\Users\thewo\AppData\Local\Temp\ccUp1enP.s 			page 105


 6042 004a 2046     		mov	r0, r4
 6043 004c FFF7FEFF 		bl	I2C_Disable_IRQ
 6044 0050 2368     		ldr	r3, [r4]
 6045 0052 1022     		movs	r2, #16
 6046 0054 DA61     		str	r2, [r3, #28]
 6047 0056 0023     		movs	r3, #0
 6048 0058 84F84030 		strb	r3, [r4, #64]
 6049 005c 2046     		mov	r0, r4
 6050 005e FFF7FEFF 		bl	HAL_I2C_ListenCpltCallback
 6051 0062 10BD     		pop	{r4, pc}
 6052              	.L742:
 6053              		.align	2
 6054              	.L741:
 6055 0064 0000FFFF 		.word	-65536
 6057              		.section	.text.HAL_I2C_MemTxCpltCallback,"ax",%progbits
 6058              		.align	1
 6059              		.weak	HAL_I2C_MemTxCpltCallback
 6060              		.syntax unified
 6061              		.thumb
 6062              		.thumb_func
 6064              	HAL_I2C_MemTxCpltCallback:
 6065              		@ args = 0, pretend = 0, frame = 0
 6066              		@ frame_needed = 0, uses_anonymous_args = 0
 6067              		@ link register save eliminated.
 6068 0000 7047     		bx	lr
 6070              		.section	.text.HAL_I2C_MemRxCpltCallback,"ax",%progbits
 6071              		.align	1
 6072              		.weak	HAL_I2C_MemRxCpltCallback
 6073              		.syntax unified
 6074              		.thumb
 6075              		.thumb_func
 6077              	HAL_I2C_MemRxCpltCallback:
 6078              		@ args = 0, pretend = 0, frame = 0
 6079              		@ frame_needed = 0, uses_anonymous_args = 0
 6080              		@ link register save eliminated.
 6081 0000 7047     		bx	lr
 6083              		.section	.text.HAL_I2C_ErrorCallback,"ax",%progbits
 6084              		.align	1
 6085              		.weak	HAL_I2C_ErrorCallback
 6086              		.syntax unified
 6087              		.thumb
 6088              		.thumb_func
 6090              	HAL_I2C_ErrorCallback:
 6091              		@ args = 0, pretend = 0, frame = 0
 6092              		@ frame_needed = 0, uses_anonymous_args = 0
 6093              		@ link register save eliminated.
 6094 0000 7047     		bx	lr
 6096              		.section	.text.HAL_I2C_AbortCpltCallback,"ax",%progbits
 6097              		.align	1
 6098              		.weak	HAL_I2C_AbortCpltCallback
 6099              		.syntax unified
 6100              		.thumb
 6101              		.thumb_func
 6103              	HAL_I2C_AbortCpltCallback:
 6104              		@ args = 0, pretend = 0, frame = 0
 6105              		@ frame_needed = 0, uses_anonymous_args = 0
 6106              		@ link register save eliminated.
ARM GAS  C:\Users\thewo\AppData\Local\Temp\ccUp1enP.s 			page 106


 6107 0000 7047     		bx	lr
 6109              		.section	.text.I2C_TreatErrorCallback,"ax",%progbits
 6110              		.align	1
 6111              		.syntax unified
 6112              		.thumb
 6113              		.thumb_func
 6115              	I2C_TreatErrorCallback:
 6116              		@ args = 0, pretend = 0, frame = 0
 6117              		@ frame_needed = 0, uses_anonymous_args = 0
 6118 0000 08B5     		push	{r3, lr}
 6119 0002 90F84130 		ldrb	r3, [r0, #65]	@ zero_extendqisi2
 6120 0006 602B     		cmp	r3, #96
 6121 0008 06D0     		beq	.L751
 6122 000a 0023     		movs	r3, #0
 6123 000c 0363     		str	r3, [r0, #48]
 6124 000e 80F84030 		strb	r3, [r0, #64]
 6125 0012 FFF7FEFF 		bl	HAL_I2C_ErrorCallback
 6126              	.L747:
 6127 0016 08BD     		pop	{r3, pc}
 6128              	.L751:
 6129 0018 2023     		movs	r3, #32
 6130 001a 80F84130 		strb	r3, [r0, #65]
 6131 001e 0023     		movs	r3, #0
 6132 0020 0363     		str	r3, [r0, #48]
 6133 0022 80F84030 		strb	r3, [r0, #64]
 6134 0026 FFF7FEFF 		bl	HAL_I2C_AbortCpltCallback
 6135 002a F4E7     		b	.L747
 6137              		.section	.text.I2C_ITError,"ax",%progbits
 6138              		.align	1
 6139              		.syntax unified
 6140              		.thumb
 6141              		.thumb_func
 6143              	I2C_ITError:
 6144              		@ args = 0, pretend = 0, frame = 0
 6145              		@ frame_needed = 0, uses_anonymous_args = 0
 6146 0000 10B5     		push	{r4, lr}
 6147 0002 0446     		mov	r4, r0
 6148 0004 90F84130 		ldrb	r3, [r0, #65]	@ zero_extendqisi2
 6149 0008 0022     		movs	r2, #0
 6150 000a 80F84220 		strb	r2, [r0, #66]
 6151 000e 4548     		ldr	r0, .L765
 6152 0010 E062     		str	r0, [r4, #44]
 6153 0012 6285     		strh	r2, [r4, #42]	@ movhi
 6154 0014 626C     		ldr	r2, [r4, #68]
 6155 0016 0A43     		orrs	r2, r2, r1
 6156 0018 6264     		str	r2, [r4, #68]
 6157 001a 283B     		subs	r3, r3, #40
 6158 001c DBB2     		uxtb	r3, r3
 6159 001e 022B     		cmp	r3, #2
 6160 0020 2DD8     		bhi	.L753
 6161 0022 0321     		movs	r1, #3
 6162 0024 2046     		mov	r0, r4
 6163 0026 FFF7FEFF 		bl	I2C_Disable_IRQ
 6164 002a 2823     		movs	r3, #40
 6165 002c 84F84130 		strb	r3, [r4, #65]
 6166 0030 3D4B     		ldr	r3, .L765+4
 6167 0032 6363     		str	r3, [r4, #52]
ARM GAS  C:\Users\thewo\AppData\Local\Temp\ccUp1enP.s 			page 107


 6168              	.L754:
 6169 0034 236B     		ldr	r3, [r4, #48]
 6170 0036 A26B     		ldr	r2, [r4, #56]
 6171 0038 002A     		cmp	r2, #0
 6172 003a 48D0     		beq	.L757
 6173 003c 212B     		cmp	r3, #33
 6174 003e 18BF     		it	ne
 6175 0040 112B     		cmpne	r3, #17
 6176 0042 44D1     		bne	.L757
 6177 0044 2368     		ldr	r3, [r4]
 6178 0046 1A68     		ldr	r2, [r3]
 6179 0048 12F4804F 		tst	r2, #16384
 6180 004c 03D0     		beq	.L758
 6181 004e 1A68     		ldr	r2, [r3]
 6182 0050 22F48042 		bic	r2, r2, #16384
 6183 0054 1A60     		str	r2, [r3]
 6184              	.L758:
 6185 0056 A06B     		ldr	r0, [r4, #56]
 6186 0058 FFF7FEFF 		bl	HAL_DMA_GetState
 6187 005c 0128     		cmp	r0, #1
 6188 005e 32D0     		beq	.L759
 6189 0060 A36B     		ldr	r3, [r4, #56]
 6190 0062 324A     		ldr	r2, .L765+8
 6191 0064 1A65     		str	r2, [r3, #80]
 6192 0066 0023     		movs	r3, #0
 6193 0068 84F84030 		strb	r3, [r4, #64]
 6194 006c A06B     		ldr	r0, [r4, #56]
 6195 006e FFF7FEFF 		bl	HAL_DMA_Abort_IT
 6196 0072 0028     		cmp	r0, #0
 6197 0074 54D0     		beq	.L752
 6198 0076 A06B     		ldr	r0, [r4, #56]
 6199 0078 036D     		ldr	r3, [r0, #80]
 6200 007a 9847     		blx	r3
 6201 007c 50E0     		b	.L752
 6202              	.L753:
 6203 007e 48F20301 		movw	r1, #32771
 6204 0082 2046     		mov	r0, r4
 6205 0084 FFF7FEFF 		bl	I2C_Disable_IRQ
 6206 0088 2046     		mov	r0, r4
 6207 008a FFF7FEFF 		bl	I2C_Flush_TXDR
 6208 008e 94F84130 		ldrb	r3, [r4, #65]	@ zero_extendqisi2
 6209 0092 602B     		cmp	r3, #96
 6210 0094 14D0     		beq	.L755
 6211 0096 2023     		movs	r3, #32
 6212 0098 84F84130 		strb	r3, [r4, #65]
 6213 009c 2368     		ldr	r3, [r4]
 6214 009e 9A69     		ldr	r2, [r3, #24]
 6215 00a0 12F0200F 		tst	r2, #32
 6216 00a4 0CD0     		beq	.L755
 6217 00a6 9A69     		ldr	r2, [r3, #24]
 6218 00a8 12F0100F 		tst	r2, #16
 6219 00ac 05D0     		beq	.L756
 6220 00ae 1022     		movs	r2, #16
 6221 00b0 DA61     		str	r2, [r3, #28]
 6222 00b2 636C     		ldr	r3, [r4, #68]
 6223 00b4 43F00403 		orr	r3, r3, #4
 6224 00b8 6364     		str	r3, [r4, #68]
ARM GAS  C:\Users\thewo\AppData\Local\Temp\ccUp1enP.s 			page 108


 6225              	.L756:
 6226 00ba 2368     		ldr	r3, [r4]
 6227 00bc 2022     		movs	r2, #32
 6228 00be DA61     		str	r2, [r3, #28]
 6229              	.L755:
 6230 00c0 0023     		movs	r3, #0
 6231 00c2 6363     		str	r3, [r4, #52]
 6232 00c4 B6E7     		b	.L754
 6233              	.L759:
 6234 00c6 2046     		mov	r0, r4
 6235 00c8 FFF7FEFF 		bl	I2C_TreatErrorCallback
 6236 00cc 28E0     		b	.L752
 6237              	.L757:
 6238 00ce E26B     		ldr	r2, [r4, #60]
 6239 00d0 1AB3     		cbz	r2, .L761
 6240 00d2 222B     		cmp	r3, #34
 6241 00d4 18BF     		it	ne
 6242 00d6 122B     		cmpne	r3, #18
 6243 00d8 1FD1     		bne	.L761
 6244 00da 2368     		ldr	r3, [r4]
 6245 00dc 1A68     		ldr	r2, [r3]
 6246 00de 12F4004F 		tst	r2, #32768
 6247 00e2 03D0     		beq	.L762
 6248 00e4 1A68     		ldr	r2, [r3]
 6249 00e6 22F40042 		bic	r2, r2, #32768
 6250 00ea 1A60     		str	r2, [r3]
 6251              	.L762:
 6252 00ec E06B     		ldr	r0, [r4, #60]
 6253 00ee FFF7FEFF 		bl	HAL_DMA_GetState
 6254 00f2 0128     		cmp	r0, #1
 6255 00f4 0DD0     		beq	.L763
 6256 00f6 E36B     		ldr	r3, [r4, #60]
 6257 00f8 0C4A     		ldr	r2, .L765+8
 6258 00fa 1A65     		str	r2, [r3, #80]
 6259 00fc 0023     		movs	r3, #0
 6260 00fe 84F84030 		strb	r3, [r4, #64]
 6261 0102 E06B     		ldr	r0, [r4, #60]
 6262 0104 FFF7FEFF 		bl	HAL_DMA_Abort_IT
 6263 0108 50B1     		cbz	r0, .L752
 6264 010a E06B     		ldr	r0, [r4, #60]
 6265 010c 036D     		ldr	r3, [r0, #80]
 6266 010e 9847     		blx	r3
 6267 0110 06E0     		b	.L752
 6268              	.L763:
 6269 0112 2046     		mov	r0, r4
 6270 0114 FFF7FEFF 		bl	I2C_TreatErrorCallback
 6271 0118 02E0     		b	.L752
 6272              	.L761:
 6273 011a 2046     		mov	r0, r4
 6274 011c FFF7FEFF 		bl	I2C_TreatErrorCallback
 6275              	.L752:
 6276 0120 10BD     		pop	{r4, pc}
 6277              	.L766:
 6278 0122 00BF     		.align	2
 6279              	.L765:
 6280 0124 0000FFFF 		.word	-65536
 6281 0128 00000000 		.word	I2C_Slave_ISR_IT
ARM GAS  C:\Users\thewo\AppData\Local\Temp\ccUp1enP.s 			page 109


 6282 012c 00000000 		.word	I2C_DMAAbort
 6284              		.section	.text.I2C_ITSlaveCplt,"ax",%progbits
 6285              		.align	1
 6286              		.syntax unified
 6287              		.thumb
 6288              		.thumb_func
 6290              	I2C_ITSlaveCplt:
 6291              		@ args = 0, pretend = 0, frame = 0
 6292              		@ frame_needed = 0, uses_anonymous_args = 0
 6293 0000 F8B5     		push	{r3, r4, r5, r6, r7, lr}
 6294 0002 0446     		mov	r4, r0
 6295 0004 0D46     		mov	r5, r1
 6296 0006 0268     		ldr	r2, [r0]
 6297 0008 1668     		ldr	r6, [r2]
 6298 000a C76A     		ldr	r7, [r0, #44]
 6299 000c 90F84130 		ldrb	r3, [r0, #65]	@ zero_extendqisi2
 6300 0010 2021     		movs	r1, #32
 6301 0012 D161     		str	r1, [r2, #28]
 6302 0014 213B     		subs	r3, r3, #33
 6303 0016 092B     		cmp	r3, #9
 6304 0018 0CD8     		bhi	.L768
 6305 001a DFE803F0 		tbb	[pc, r3]
 6306              	.L770:
 6307 001e 05       		.byte	(.L771-.L770)/2
 6308 001f 5F       		.byte	(.L769-.L770)/2
 6309 0020 0B       		.byte	(.L768-.L770)/2
 6310 0021 0B       		.byte	(.L768-.L770)/2
 6311 0022 0B       		.byte	(.L768-.L770)/2
 6312 0023 0B       		.byte	(.L768-.L770)/2
 6313 0024 0B       		.byte	(.L768-.L770)/2
 6314 0025 66       		.byte	(.L772-.L770)/2
 6315 0026 05       		.byte	(.L771-.L770)/2
 6316 0027 5F       		.byte	(.L769-.L770)/2
 6317              		.p2align 1
 6318              	.L771:
 6319 0028 48F20101 		movw	r1, #32769
 6320 002c FFF7FEFF 		bl	I2C_Disable_IRQ
 6321 0030 2123     		movs	r3, #33
 6322 0032 2363     		str	r3, [r4, #48]
 6323              	.L768:
 6324 0034 2268     		ldr	r2, [r4]
 6325 0036 5368     		ldr	r3, [r2, #4]
 6326 0038 43F40043 		orr	r3, r3, #32768
 6327 003c 5360     		str	r3, [r2, #4]
 6328 003e 2268     		ldr	r2, [r4]
 6329 0040 5368     		ldr	r3, [r2, #4]
 6330 0042 23F0FF73 		bic	r3, r3, #33423360
 6331 0046 23F48B33 		bic	r3, r3, #71168
 6332 004a 23F4FF73 		bic	r3, r3, #510
 6333 004e 23F00103 		bic	r3, r3, #1
 6334 0052 5360     		str	r3, [r2, #4]
 6335 0054 2046     		mov	r0, r4
 6336 0056 FFF7FEFF 		bl	I2C_Flush_TXDR
 6337 005a 16F4804F 		tst	r6, #16384
 6338 005e 00F09B80 		beq	.L773
 6339 0062 2268     		ldr	r2, [r4]
 6340 0064 1368     		ldr	r3, [r2]
ARM GAS  C:\Users\thewo\AppData\Local\Temp\ccUp1enP.s 			page 110


 6341 0066 23F48043 		bic	r3, r3, #16384
 6342 006a 1360     		str	r3, [r2]
 6343 006c A36B     		ldr	r3, [r4, #56]
 6344 006e 002B     		cmp	r3, #0
 6345 0070 45D0     		beq	.L774
 6346 0072 1B68     		ldr	r3, [r3]
 6347 0074 9249     		ldr	r1, .L798
 6348 0076 934A     		ldr	r2, .L798+4
 6349 0078 9342     		cmp	r3, r2
 6350 007a 18BF     		it	ne
 6351 007c 8B42     		cmpne	r3, r1
 6352 007e 3BD0     		beq	.L775
 6353 0080 1832     		adds	r2, r2, #24
 6354 0082 9342     		cmp	r3, r2
 6355 0084 38D0     		beq	.L775
 6356 0086 1832     		adds	r2, r2, #24
 6357 0088 9342     		cmp	r3, r2
 6358 008a 35D0     		beq	.L775
 6359 008c 1832     		adds	r2, r2, #24
 6360 008e 9342     		cmp	r3, r2
 6361 0090 32D0     		beq	.L775
 6362 0092 1832     		adds	r2, r2, #24
 6363 0094 9342     		cmp	r3, r2
 6364 0096 2FD0     		beq	.L775
 6365 0098 1832     		adds	r2, r2, #24
 6366 009a 9342     		cmp	r3, r2
 6367 009c 2CD0     		beq	.L775
 6368 009e 1832     		adds	r2, r2, #24
 6369 00a0 9342     		cmp	r3, r2
 6370 00a2 29D0     		beq	.L775
 6371 00a4 02F55672 		add	r2, r2, #856
 6372 00a8 9342     		cmp	r3, r2
 6373 00aa 25D0     		beq	.L775
 6374 00ac 1832     		adds	r2, r2, #24
 6375 00ae 9342     		cmp	r3, r2
 6376 00b0 22D0     		beq	.L775
 6377 00b2 1832     		adds	r2, r2, #24
 6378 00b4 9342     		cmp	r3, r2
 6379 00b6 1FD0     		beq	.L775
 6380 00b8 1832     		adds	r2, r2, #24
 6381 00ba 9342     		cmp	r3, r2
 6382 00bc 1CD0     		beq	.L775
 6383 00be 1832     		adds	r2, r2, #24
 6384 00c0 9342     		cmp	r3, r2
 6385 00c2 19D0     		beq	.L775
 6386 00c4 1832     		adds	r2, r2, #24
 6387 00c6 9342     		cmp	r3, r2
 6388 00c8 16D0     		beq	.L775
 6389 00ca 1832     		adds	r2, r2, #24
 6390 00cc 9342     		cmp	r3, r2
 6391 00ce 13D0     		beq	.L775
 6392 00d0 1832     		adds	r2, r2, #24
 6393 00d2 9342     		cmp	r3, r2
 6394 00d4 10D0     		beq	.L775
 6395 00d6 5B68     		ldr	r3, [r3, #4]
 6396 00d8 9BB2     		uxth	r3, r3
 6397 00da 0FE0     		b	.L777
ARM GAS  C:\Users\thewo\AppData\Local\Temp\ccUp1enP.s 			page 111


 6398              	.L769:
 6399 00dc 48F20201 		movw	r1, #32770
 6400 00e0 FFF7FEFF 		bl	I2C_Disable_IRQ
 6401 00e4 2223     		movs	r3, #34
 6402 00e6 2363     		str	r3, [r4, #48]
 6403 00e8 A4E7     		b	.L768
 6404              	.L772:
 6405 00ea 48F20301 		movw	r1, #32771
 6406 00ee FFF7FEFF 		bl	I2C_Disable_IRQ
 6407 00f2 0023     		movs	r3, #0
 6408 00f4 2363     		str	r3, [r4, #48]
 6409 00f6 9DE7     		b	.L768
 6410              	.L775:
 6411 00f8 5B68     		ldr	r3, [r3, #4]
 6412 00fa 9BB2     		uxth	r3, r3
 6413              	.L777:
 6414 00fc 6385     		strh	r3, [r4, #42]	@ movhi
 6415              	.L774:
 6416 00fe 15F0040F 		tst	r5, #4
 6417 0102 11D0     		beq	.L781
 6418 0104 25F00405 		bic	r5, r5, #4
 6419 0108 2368     		ldr	r3, [r4]
 6420 010a 5A6A     		ldr	r2, [r3, #36]
 6421 010c 636A     		ldr	r3, [r4, #36]
 6422 010e 1A70     		strb	r2, [r3]
 6423 0110 636A     		ldr	r3, [r4, #36]
 6424 0112 0133     		adds	r3, r3, #1
 6425 0114 6362     		str	r3, [r4, #36]
 6426 0116 238D     		ldrh	r3, [r4, #40]
 6427 0118 33B1     		cbz	r3, .L781
 6428 011a 013B     		subs	r3, r3, #1
 6429 011c 2385     		strh	r3, [r4, #40]	@ movhi
 6430 011e 638D     		ldrh	r3, [r4, #42]
 6431 0120 9BB2     		uxth	r3, r3
 6432 0122 013B     		subs	r3, r3, #1
 6433 0124 9BB2     		uxth	r3, r3
 6434 0126 6385     		strh	r3, [r4, #42]	@ movhi
 6435              	.L781:
 6436 0128 638D     		ldrh	r3, [r4, #42]
 6437 012a 9BB2     		uxth	r3, r3
 6438 012c 1BB1     		cbz	r3, .L782
 6439 012e 636C     		ldr	r3, [r4, #68]
 6440 0130 43F00403 		orr	r3, r3, #4
 6441 0134 6364     		str	r3, [r4, #68]
 6442              	.L782:
 6443 0136 15F0100F 		tst	r5, #16
 6444 013a 11D0     		beq	.L783
 6445 013c 16F0100F 		tst	r6, #16
 6446 0140 0ED0     		beq	.L783
 6447 0142 638D     		ldrh	r3, [r4, #42]
 6448 0144 9BB2     		uxth	r3, r3
 6449 0146 002B     		cmp	r3, #0
 6450 0148 7FD1     		bne	.L784
 6451 014a 94F84130 		ldrb	r3, [r4, #65]	@ zero_extendqisi2
 6452 014e 282B     		cmp	r3, #40
 6453 0150 66D0     		beq	.L793
 6454              	.L785:
ARM GAS  C:\Users\thewo\AppData\Local\Temp\ccUp1enP.s 			page 112


 6455 0152 94F84130 		ldrb	r3, [r4, #65]	@ zero_extendqisi2
 6456 0156 292B     		cmp	r3, #41
 6457 0158 6AD0     		beq	.L794
 6458              	.L786:
 6459 015a 2368     		ldr	r3, [r4]
 6460 015c 1022     		movs	r2, #16
 6461 015e DA61     		str	r2, [r3, #28]
 6462              	.L783:
 6463 0160 0023     		movs	r3, #0
 6464 0162 84F84230 		strb	r3, [r4, #66]
 6465 0166 6363     		str	r3, [r4, #52]
 6466 0168 636C     		ldr	r3, [r4, #68]
 6467 016a 002B     		cmp	r3, #0
 6468 016c 7FD1     		bne	.L795
 6469 016e E36A     		ldr	r3, [r4, #44]
 6470 0170 13F5803F 		cmn	r3, #65536
 6471 0174 40F08880 		bne	.L796
 6472 0178 94F84130 		ldrb	r3, [r4, #65]	@ zero_extendqisi2
 6473 017c 222B     		cmp	r3, #34
 6474 017e 00F09380 		beq	.L797
 6475 0182 2023     		movs	r3, #32
 6476 0184 84F84130 		strb	r3, [r4, #65]
 6477 0188 0023     		movs	r3, #0
 6478 018a 2363     		str	r3, [r4, #48]
 6479 018c 84F84030 		strb	r3, [r4, #64]
 6480 0190 2046     		mov	r0, r4
 6481 0192 FFF7FEFF 		bl	HAL_I2C_SlaveTxCpltCallback
 6482 0196 86E0     		b	.L767
 6483              	.L773:
 6484 0198 16F4004F 		tst	r6, #32768
 6485 019c AFD0     		beq	.L774
 6486 019e 2268     		ldr	r2, [r4]
 6487 01a0 1368     		ldr	r3, [r2]
 6488 01a2 23F40043 		bic	r3, r3, #32768
 6489 01a6 1360     		str	r3, [r2]
 6490 01a8 E36B     		ldr	r3, [r4, #60]
 6491 01aa 002B     		cmp	r3, #0
 6492 01ac A7D0     		beq	.L774
 6493 01ae 1B68     		ldr	r3, [r3]
 6494 01b0 4349     		ldr	r1, .L798
 6495 01b2 444A     		ldr	r2, .L798+4
 6496 01b4 9342     		cmp	r3, r2
 6497 01b6 18BF     		it	ne
 6498 01b8 8B42     		cmpne	r3, r1
 6499 01ba 2DD0     		beq	.L778
 6500 01bc 1832     		adds	r2, r2, #24
 6501 01be 9342     		cmp	r3, r2
 6502 01c0 2AD0     		beq	.L778
 6503 01c2 1832     		adds	r2, r2, #24
 6504 01c4 9342     		cmp	r3, r2
 6505 01c6 27D0     		beq	.L778
 6506 01c8 1832     		adds	r2, r2, #24
 6507 01ca 9342     		cmp	r3, r2
 6508 01cc 24D0     		beq	.L778
 6509 01ce 1832     		adds	r2, r2, #24
 6510 01d0 9342     		cmp	r3, r2
 6511 01d2 21D0     		beq	.L778
ARM GAS  C:\Users\thewo\AppData\Local\Temp\ccUp1enP.s 			page 113


 6512 01d4 1832     		adds	r2, r2, #24
 6513 01d6 9342     		cmp	r3, r2
 6514 01d8 1ED0     		beq	.L778
 6515 01da 1832     		adds	r2, r2, #24
 6516 01dc 9342     		cmp	r3, r2
 6517 01de 1BD0     		beq	.L778
 6518 01e0 02F55672 		add	r2, r2, #856
 6519 01e4 9342     		cmp	r3, r2
 6520 01e6 17D0     		beq	.L778
 6521 01e8 1832     		adds	r2, r2, #24
 6522 01ea 9342     		cmp	r3, r2
 6523 01ec 14D0     		beq	.L778
 6524 01ee 1832     		adds	r2, r2, #24
 6525 01f0 9342     		cmp	r3, r2
 6526 01f2 11D0     		beq	.L778
 6527 01f4 1832     		adds	r2, r2, #24
 6528 01f6 9342     		cmp	r3, r2
 6529 01f8 0ED0     		beq	.L778
 6530 01fa 1832     		adds	r2, r2, #24
 6531 01fc 9342     		cmp	r3, r2
 6532 01fe 0BD0     		beq	.L778
 6533 0200 1832     		adds	r2, r2, #24
 6534 0202 9342     		cmp	r3, r2
 6535 0204 08D0     		beq	.L778
 6536 0206 1832     		adds	r2, r2, #24
 6537 0208 9342     		cmp	r3, r2
 6538 020a 05D0     		beq	.L778
 6539 020c 1832     		adds	r2, r2, #24
 6540 020e 9342     		cmp	r3, r2
 6541 0210 02D0     		beq	.L778
 6542 0212 5B68     		ldr	r3, [r3, #4]
 6543 0214 9BB2     		uxth	r3, r3
 6544 0216 01E0     		b	.L780
 6545              	.L778:
 6546 0218 5B68     		ldr	r3, [r3, #4]
 6547 021a 9BB2     		uxth	r3, r3
 6548              	.L780:
 6549 021c 6385     		strh	r3, [r4, #42]	@ movhi
 6550 021e 6EE7     		b	.L774
 6551              	.L793:
 6552 0220 B7F1007F 		cmp	r7, #33554432
 6553 0224 95D1     		bne	.L785
 6554 0226 2946     		mov	r1, r5
 6555 0228 2046     		mov	r0, r4
 6556 022a FFF7FEFF 		bl	I2C_ITListenCplt
 6557 022e 97E7     		b	.L783
 6558              	.L794:
 6559 0230 17F5803F 		cmn	r7, #65536
 6560 0234 91D0     		beq	.L786
 6561 0236 2368     		ldr	r3, [r4]
 6562 0238 1022     		movs	r2, #16
 6563 023a DA61     		str	r2, [r3, #28]
 6564 023c 2046     		mov	r0, r4
 6565 023e FFF7FEFF 		bl	I2C_Flush_TXDR
 6566 0242 2046     		mov	r0, r4
 6567 0244 FFF7FEFF 		bl	I2C_ITSlaveSeqCplt
 6568 0248 8AE7     		b	.L783
ARM GAS  C:\Users\thewo\AppData\Local\Temp\ccUp1enP.s 			page 114


 6569              	.L784:
 6570 024a 2368     		ldr	r3, [r4]
 6571 024c 1022     		movs	r2, #16
 6572 024e DA61     		str	r2, [r3, #28]
 6573 0250 636C     		ldr	r3, [r4, #68]
 6574 0252 43F00403 		orr	r3, r3, #4
 6575 0256 6364     		str	r3, [r4, #68]
 6576 0258 B7F1807F 		cmp	r7, #16777216
 6577 025c 18BF     		it	ne
 6578 025e 002F     		cmpne	r7, #0
 6579 0260 7FF47EAF 		bne	.L783
 6580 0264 616C     		ldr	r1, [r4, #68]
 6581 0266 2046     		mov	r0, r4
 6582 0268 FFF7FEFF 		bl	I2C_ITError
 6583 026c 78E7     		b	.L783
 6584              	.L795:
 6585 026e 616C     		ldr	r1, [r4, #68]
 6586 0270 2046     		mov	r0, r4
 6587 0272 FFF7FEFF 		bl	I2C_ITError
 6588 0276 94F84130 		ldrb	r3, [r4, #65]	@ zero_extendqisi2
 6589 027a 282B     		cmp	r3, #40
 6590 027c 13D1     		bne	.L767
 6591 027e 2946     		mov	r1, r5
 6592 0280 2046     		mov	r0, r4
 6593 0282 FFF7FEFF 		bl	I2C_ITListenCplt
 6594 0286 0EE0     		b	.L767
 6595              	.L796:
 6596 0288 2046     		mov	r0, r4
 6597 028a FFF7FEFF 		bl	I2C_ITSlaveSeqCplt
 6598 028e 0E4B     		ldr	r3, .L798+8
 6599 0290 E362     		str	r3, [r4, #44]
 6600 0292 2023     		movs	r3, #32
 6601 0294 84F84130 		strb	r3, [r4, #65]
 6602 0298 0023     		movs	r3, #0
 6603 029a 2363     		str	r3, [r4, #48]
 6604 029c 84F84030 		strb	r3, [r4, #64]
 6605 02a0 2046     		mov	r0, r4
 6606 02a2 FFF7FEFF 		bl	HAL_I2C_ListenCpltCallback
 6607              	.L767:
 6608 02a6 F8BD     		pop	{r3, r4, r5, r6, r7, pc}
 6609              	.L797:
 6610 02a8 2023     		movs	r3, #32
 6611 02aa 84F84130 		strb	r3, [r4, #65]
 6612 02ae 0023     		movs	r3, #0
 6613 02b0 2363     		str	r3, [r4, #48]
 6614 02b2 84F84030 		strb	r3, [r4, #64]
 6615 02b6 2046     		mov	r0, r4
 6616 02b8 FFF7FEFF 		bl	HAL_I2C_SlaveRxCpltCallback
 6617 02bc F3E7     		b	.L767
 6618              	.L799:
 6619 02be 00BF     		.align	2
 6620              	.L798:
 6621 02c0 10000240 		.word	1073872912
 6622 02c4 28000240 		.word	1073872936
 6623 02c8 0000FFFF 		.word	-65536
 6625              		.section	.text.I2C_Slave_ISR_IT,"ax",%progbits
 6626              		.align	1
ARM GAS  C:\Users\thewo\AppData\Local\Temp\ccUp1enP.s 			page 115


 6627              		.syntax unified
 6628              		.thumb
 6629              		.thumb_func
 6631              	I2C_Slave_ISR_IT:
 6632              		@ args = 0, pretend = 0, frame = 0
 6633              		@ frame_needed = 0, uses_anonymous_args = 0
 6634 0000 10B5     		push	{r4, lr}
 6635 0002 0446     		mov	r4, r0
 6636 0004 C06A     		ldr	r0, [r0, #44]
 6637 0006 94F84030 		ldrb	r3, [r4, #64]	@ zero_extendqisi2
 6638 000a 012B     		cmp	r3, #1
 6639 000c 00F09980 		beq	.L812
 6640 0010 0123     		movs	r3, #1
 6641 0012 84F84030 		strb	r3, [r4, #64]
 6642 0016 11F0200F 		tst	r1, #32
 6643 001a 02D0     		beq	.L802
 6644 001c 12F0200F 		tst	r2, #32
 6645 0020 14D1     		bne	.L814
 6646              	.L802:
 6647 0022 11F0100F 		tst	r1, #16
 6648 0026 3DD0     		beq	.L804
 6649 0028 12F0100F 		tst	r2, #16
 6650 002c 3AD0     		beq	.L804
 6651 002e 638D     		ldrh	r3, [r4, #42]
 6652 0030 9BB2     		uxth	r3, r3
 6653 0032 33BB     		cbnz	r3, .L805
 6654 0034 94F84130 		ldrb	r3, [r4, #65]	@ zero_extendqisi2
 6655 0038 282B     		cmp	r3, #40
 6656 003a 0ED0     		beq	.L815
 6657              	.L806:
 6658 003c 94F84130 		ldrb	r3, [r4, #65]	@ zero_extendqisi2
 6659 0040 292B     		cmp	r3, #41
 6660 0042 11D0     		beq	.L816
 6661              	.L807:
 6662 0044 2368     		ldr	r3, [r4]
 6663 0046 1022     		movs	r2, #16
 6664 0048 DA61     		str	r2, [r3, #28]
 6665 004a 02E0     		b	.L803
 6666              	.L814:
 6667 004c 2046     		mov	r0, r4
 6668 004e FFF7FEFF 		bl	I2C_ITSlaveCplt
 6669              	.L803:
 6670 0052 0020     		movs	r0, #0
 6671 0054 84F84000 		strb	r0, [r4, #64]
 6672              	.L801:
 6673 0058 10BD     		pop	{r4, pc}
 6674              	.L815:
 6675 005a B0F1007F 		cmp	r0, #33554432
 6676 005e EDD1     		bne	.L806
 6677 0060 2046     		mov	r0, r4
 6678 0062 FFF7FEFF 		bl	I2C_ITListenCplt
 6679 0066 F4E7     		b	.L803
 6680              	.L816:
 6681 0068 10F5803F 		cmn	r0, #65536
 6682 006c EAD0     		beq	.L807
 6683 006e 2368     		ldr	r3, [r4]
 6684 0070 1022     		movs	r2, #16
ARM GAS  C:\Users\thewo\AppData\Local\Temp\ccUp1enP.s 			page 116


 6685 0072 DA61     		str	r2, [r3, #28]
