ARM GAS  C:\Users\thewo\AppData\Local\Temp\ccRWmotf.s 			page 1


   1              		.cpu cortex-m7
   2              		.arch armv7e-m
   3              		.fpu fpv5-d16
   4              		.eabi_attribute 28, 1
   5              		.eabi_attribute 20, 1
   6              		.eabi_attribute 21, 1
   7              		.eabi_attribute 23, 3
   8              		.eabi_attribute 24, 1
   9              		.eabi_attribute 25, 1
  10              		.eabi_attribute 26, 1
  11              		.eabi_attribute 30, 1
  12              		.eabi_attribute 34, 1
  13              		.eabi_attribute 18, 4
  14              		.file	"stm32h7xx_hal_adc.c"
  15              		.text
  16              		.section	.text.LL_ADC_SetOffset,"ax",%progbits
  17              		.align	1
  18              		.syntax unified
  19              		.thumb
  20              		.thumb_func
  22              	LL_ADC_SetOffset:
  23              		@ args = 0, pretend = 0, frame = 0
  24              		@ frame_needed = 0, uses_anonymous_args = 0
  25              		@ link register save eliminated.
  26 0000 10B4     		push	{r4}
  27 0002 00F1600C 		add	ip, r0, #96
  28 0006 0D4C     		ldr	r4, .L6
  29 0008 A042     		cmp	r0, r4
  30 000a 0CD0     		beq	.L5
  31 000c 5CF82100 		ldr	r0, [ip, r1, lsl #2]
  32 0010 00F00040 		and	r0, r0, #-2147483648
  33 0014 02F0F842 		and	r2, r2, #2080374784
  34 0018 1343     		orrs	r3, r3, r2
  35 001a 0343     		orrs	r3, r3, r0
  36 001c 4CF82130 		str	r3, [ip, r1, lsl #2]
  37              	.L1:
  38 0020 5DF8044B 		ldr	r4, [sp], #4
  39 0024 7047     		bx	lr
  40              	.L5:
  41 0026 5CF82100 		ldr	r0, [ip, r1, lsl #2]
  42 002a 02F0F842 		and	r2, r2, #2080374784
  43 002e 1343     		orrs	r3, r3, r2
  44 0030 43F00043 		orr	r3, r3, #-2147483648
  45 0034 4CF82130 		str	r3, [ip, r1, lsl #2]
  46 0038 F2E7     		b	.L1
  47              	.L7:
  48 003a 00BF     		.align	2
  49              	.L6:
  50 003c 00600258 		.word	1476550656
  52              		.section	.text.LL_ADC_SetOffsetState,"ax",%progbits
  53              		.align	1
  54              		.syntax unified
  55              		.thumb
  56              		.thumb_func
  58              	LL_ADC_SetOffsetState:
  59              		@ args = 0, pretend = 0, frame = 0
  60              		@ frame_needed = 0, uses_anonymous_args = 0
ARM GAS  C:\Users\thewo\AppData\Local\Temp\ccRWmotf.s 			page 2


  61              		@ link register save eliminated.
  62 0000 00F1600C 		add	ip, r0, #96
  63 0004 094B     		ldr	r3, .L12
  64 0006 9842     		cmp	r0, r3
  65 0008 07D0     		beq	.L11
  66 000a 5CF82130 		ldr	r3, [ip, r1, lsl #2]
  67 000e 23F00043 		bic	r3, r3, #-2147483648
  68 0012 1A43     		orrs	r2, r2, r3
  69 0014 4CF82120 		str	r2, [ip, r1, lsl #2]
  70 0018 7047     		bx	lr
  71              	.L11:
  72 001a 5CF82130 		ldr	r3, [ip, r1, lsl #2]
  73 001e 23F00043 		bic	r3, r3, #-2147483648
  74 0022 1343     		orrs	r3, r3, r2
  75 0024 4CF82130 		str	r3, [ip, r1, lsl #2]
  76 0028 7047     		bx	lr
  77              	.L13:
  78 002a 00BF     		.align	2
  79              	.L12:
  80 002c 00600258 		.word	1476550656
  82              		.section	.text.LL_ADC_REG_SetSequencerRanks,"ax",%progbits
  83              		.align	1
  84              		.syntax unified
  85              		.thumb
  86              		.thumb_func
  88              	LL_ADC_REG_SetSequencerRanks:
  89              		@ args = 0, pretend = 0, frame = 0
  90              		@ frame_needed = 0, uses_anonymous_args = 0
  91              		@ link register save eliminated.
  92 0000 10B4     		push	{r4}
  93 0002 3030     		adds	r0, r0, #48
  94 0004 0B0A     		lsrs	r3, r1, #8
  95 0006 9B00     		lsls	r3, r3, #2
  96 0008 03F00C03 		and	r3, r3, #12
  97 000c C458     		ldr	r4, [r0, r3]
  98 000e 01F01F01 		and	r1, r1, #31
  99 0012 4FF01F0C 		mov	ip, #31
 100 0016 0CFA01FC 		lsl	ip, ip, r1
 101 001a 24EA0C0C 		bic	ip, r4, ip
 102 001e C2F38462 		ubfx	r2, r2, #26, #5
 103 0022 8A40     		lsls	r2, r2, r1
 104 0024 4CEA0202 		orr	r2, ip, r2
 105 0028 C250     		str	r2, [r0, r3]
 106 002a 5DF8044B 		ldr	r4, [sp], #4
 107 002e 7047     		bx	lr
 109              		.section	.text.LL_ADC_SetChannelSamplingTime,"ax",%progbits
 110              		.align	1
 111              		.syntax unified
 112              		.thumb
 113              		.thumb_func
 115              	LL_ADC_SetChannelSamplingTime:
 116              		@ args = 0, pretend = 0, frame = 0
 117              		@ frame_needed = 0, uses_anonymous_args = 0
 118              		@ link register save eliminated.
 119 0000 10B4     		push	{r4}
 120 0002 1430     		adds	r0, r0, #20
 121 0004 4B0E     		lsrs	r3, r1, #25
ARM GAS  C:\Users\thewo\AppData\Local\Temp\ccRWmotf.s 			page 3


 122 0006 9B00     		lsls	r3, r3, #2
 123 0008 03F00403 		and	r3, r3, #4
 124 000c C458     		ldr	r4, [r0, r3]
 125 000e C1F30451 		ubfx	r1, r1, #20, #5
 126 0012 4FF0070C 		mov	ip, #7
 127 0016 0CFA01FC 		lsl	ip, ip, r1
 128 001a 24EA0C0C 		bic	ip, r4, ip
 129 001e 8A40     		lsls	r2, r2, r1
 130 0020 4CEA0202 		orr	r2, ip, r2
 131 0024 C250     		str	r2, [r0, r3]
 132 0026 5DF8044B 		ldr	r4, [sp], #4
 133 002a 7047     		bx	lr
 135              		.section	.text.LL_ADC_SetChannelSingleDiff,"ax",%progbits
 136              		.align	1
 137              		.syntax unified
 138              		.thumb
 139              		.thumb_func
 141              	LL_ADC_SetChannelSingleDiff:
 142              		@ args = 0, pretend = 0, frame = 0
 143              		@ frame_needed = 0, uses_anonymous_args = 0
 144              		@ link register save eliminated.
 145 0000 134B     		ldr	r3, .L22
 146 0002 9842     		cmp	r0, r3
 147 0004 11D0     		beq	.L21
 148 0006 D0F8C030 		ldr	r3, [r0, #192]
 149 000a C1F3130C 		ubfx	ip, r1, #0, #20
 150 000e 23EA0C0C 		bic	ip, r3, ip
 151 0012 02F01802 		and	r2, r2, #24
 152 0016 0F4B     		ldr	r3, .L22+4
 153 0018 D340     		lsrs	r3, r3, r2
 154 001a 1940     		ands	r1, r1, r3
 155 001c C1F31301 		ubfx	r1, r1, #0, #20
 156 0020 4CEA0101 		orr	r1, ip, r1
 157 0024 C0F8C010 		str	r1, [r0, #192]
 158 0028 7047     		bx	lr
 159              	.L21:
 160 002a D0F8B030 		ldr	r3, [r0, #176]
 161 002e C1F3130C 		ubfx	ip, r1, #0, #20
 162 0032 23EA0C0C 		bic	ip, r3, ip
 163 0036 02F01802 		and	r2, r2, #24
 164 003a 064B     		ldr	r3, .L22+4
 165 003c D340     		lsrs	r3, r3, r2
 166 003e 0B40     		ands	r3, r3, r1
 167 0040 C3F31303 		ubfx	r3, r3, #0, #20
 168 0044 4CEA0303 		orr	r3, ip, r3
 169 0048 C0F8B030 		str	r3, [r0, #176]
 170 004c 7047     		bx	lr
 171              	.L23:
 172 004e 00BF     		.align	2
 173              	.L22:
 174 0050 00600258 		.word	1476550656
 175 0054 FFFF0F00 		.word	1048575
 177              		.section	.text.LL_ADC_SetAnalogWDMonitChannels,"ax",%progbits
 178              		.align	1
 179              		.syntax unified
 180              		.thumb
 181              		.thumb_func
ARM GAS  C:\Users\thewo\AppData\Local\Temp\ccRWmotf.s 			page 4


 183              	LL_ADC_SetAnalogWDMonitChannels:
 184              		@ args = 0, pretend = 0, frame = 0
 185              		@ frame_needed = 0, uses_anonymous_args = 0
 186              		@ link register save eliminated.
 187 0000 10B4     		push	{r4}
 188 0002 0C30     		adds	r0, r0, #12
 189 0004 C1F3015C 		ubfx	ip, r1, #20, #2
 190 0008 41F30003 		sbfx	r3, r1, #0, #1
 191 000c 03F02403 		and	r3, r3, #36
 192 0010 9C44     		add	ip, ip, r3
 193 0012 50F82C30 		ldr	r3, [r0, ip, lsl #2]
 194 0016 054C     		ldr	r4, .L26
 195 0018 0C40     		ands	r4, r4, r1
 196 001a 23EA0403 		bic	r3, r3, r4
 197 001e 1140     		ands	r1, r1, r2
 198 0020 0B43     		orrs	r3, r3, r1
 199 0022 40F82C30 		str	r3, [r0, ip, lsl #2]
 200 0026 5DF8044B 		ldr	r4, [sp], #4
 201 002a 7047     		bx	lr
 202              	.L27:
 203              		.align	2
 204              	.L26:
 205 002c FFFFCF7D 		.word	2110783487
 207              		.section	.text.LL_ADC_ConfigAnalogWDThresholds,"ax",%progbits
 208              		.align	1
 209              		.syntax unified
 210              		.thumb
 211              		.thumb_func
 213              	LL_ADC_ConfigAnalogWDThresholds:
 214              		@ args = 0, pretend = 0, frame = 0
 215              		@ frame_needed = 0, uses_anonymous_args = 0
 216 0000 10B5     		push	{r4, lr}
 217 0002 164C     		ldr	r4, .L33
 218 0004 A042     		cmp	r0, r4
 219 0006 1BD0     		beq	.L32
 220 0008 2030     		adds	r0, r0, #32
 221 000a C1F30154 		ubfx	r4, r1, #20, #2
 222 000e 01F00101 		and	r1, r1, #1
 223 0012 01EB0111 		add	r1, r1, r1, lsl #4
 224 0016 2144     		add	r1, r1, r4
 225 0018 4FEA410E 		lsl	lr, r1, #1
 226 001c 0EF1010E 		add	lr, lr, #1
 227 0020 50F83140 		ldr	r4, [r0, r1, lsl #3]
 228 0024 04F07C4C 		and	ip, r4, #-67108864
 229 0028 4CEA0303 		orr	r3, ip, r3
 230 002c 40F83130 		str	r3, [r0, r1, lsl #3]
 231 0030 50F82E10 		ldr	r1, [r0, lr, lsl #2]
 232 0034 01F07C41 		and	r1, r1, #-67108864
 233 0038 0A43     		orrs	r2, r2, r1
 234 003a 40F82E20 		str	r2, [r0, lr, lsl #2]
 235              	.L28:
 236 003e 10BD     		pop	{r4, pc}
 237              	.L32:
 238 0040 2030     		adds	r0, r0, #32
 239 0042 090D     		lsrs	r1, r1, #20
 240 0044 8900     		lsls	r1, r1, #2
 241 0046 01F00C01 		and	r1, r1, #12
ARM GAS  C:\Users\thewo\AppData\Local\Temp\ccRWmotf.s 			page 5


 242 004a 4458     		ldr	r4, [r0, r1]
 243 004c 04F0F024 		and	r4, r4, #-268374016
 244 0050 43EA0243 		orr	r3, r3, r2, lsl #16
 245 0054 2343     		orrs	r3, r3, r4
 246 0056 4350     		str	r3, [r0, r1]
 247 0058 F1E7     		b	.L28
 248              	.L34:
 249 005a 00BF     		.align	2
 250              	.L33:
 251 005c 00600258 		.word	1476550656
 253              		.section	.text.LL_ADC_SetChannelPreselection,"ax",%progbits
 254              		.align	1
 255              		.syntax unified
 256              		.thumb
 257              		.thumb_func
 259              	LL_ADC_SetChannelPreselection:
 260              		@ args = 0, pretend = 0, frame = 0
 261              		@ frame_needed = 0, uses_anonymous_args = 0
 262              		@ link register save eliminated.
 263 0000 0C4B     		ldr	r3, .L41
 264 0002 9842     		cmp	r0, r3
 265 0004 09D0     		beq	.L35
 266 0006 C1F31303 		ubfx	r3, r1, #0, #20
 267 000a 3BB9     		cbnz	r3, .L37
 268 000c C1F38461 		ubfx	r1, r1, #26, #5
 269 0010 0122     		movs	r2, #1
 270 0012 8A40     		lsls	r2, r2, r1
 271              	.L38:
 272 0014 C369     		ldr	r3, [r0, #28]
 273 0016 1343     		orrs	r3, r3, r2
 274 0018 C361     		str	r3, [r0, #28]
 275              	.L35:
 276 001a 7047     		bx	lr
 277              	.L37:
 278              		.syntax unified
 279              	@ 1055 "Drivers/CMSIS/Include/cmsis_gcc.h" 1
 280 001c 91FAA1F1 		rbit r1, r1
 281              	@ 0 "" 2
 282              		.thumb
 283              		.syntax unified
 284 0020 31B1     		cbz	r1, .L40
 285 0022 B1FA81F1 		clz	r1, r1
 286              	.L39:
 287 0026 01F01F01 		and	r1, r1, #31
 288 002a 0122     		movs	r2, #1
 289 002c 8A40     		lsls	r2, r2, r1
 290 002e F1E7     		b	.L38
 291              	.L40:
 292 0030 2021     		movs	r1, #32
 293 0032 F8E7     		b	.L39
 294              	.L42:
 295              		.align	2
 296              	.L41:
 297 0034 00600258 		.word	1476550656
 299              		.section	.text.HAL_ADC_MspInit,"ax",%progbits
 300              		.align	1
 301              		.weak	HAL_ADC_MspInit
ARM GAS  C:\Users\thewo\AppData\Local\Temp\ccRWmotf.s 			page 6


 302              		.syntax unified
 303              		.thumb
 304              		.thumb_func
 306              	HAL_ADC_MspInit:
 307              		@ args = 0, pretend = 0, frame = 0
 308              		@ frame_needed = 0, uses_anonymous_args = 0
 309              		@ link register save eliminated.
 310 0000 7047     		bx	lr
 312              		.section	.text.HAL_ADC_MspDeInit,"ax",%progbits
 313              		.align	1
 314              		.weak	HAL_ADC_MspDeInit
 315              		.syntax unified
 316              		.thumb
 317              		.thumb_func
 319              	HAL_ADC_MspDeInit:
 320              		@ args = 0, pretend = 0, frame = 0
 321              		@ frame_needed = 0, uses_anonymous_args = 0
 322              		@ link register save eliminated.
 323 0000 7047     		bx	lr
 325              		.section	.rodata.HAL_ADC_PollForConversion.str1.4,"aMS",%progbits,1
 326              		.align	2
 327              	.LC0:
 328 0000 44726976 		.ascii	"Drivers/STM32H7xx_HAL_Driver/Src/stm32h7xx_hal_adc."
 328      6572732F 
 328      53544D33 
 328      32483778 
 328      785F4841 
 329 0033 6300     		.ascii	"c\000"
 330              		.section	.text.HAL_ADC_PollForConversion,"ax",%progbits
 331              		.align	1
 332              		.global	HAL_ADC_PollForConversion
 333              		.syntax unified
 334              		.thumb
 335              		.thumb_func
 337              	HAL_ADC_PollForConversion:
 338              		@ args = 0, pretend = 0, frame = 0
 339              		@ frame_needed = 0, uses_anonymous_args = 0
 340 0000 2DE9F041 		push	{r4, r5, r6, r7, r8, lr}
 341 0004 0446     		mov	r4, r0
 342 0006 0E46     		mov	r6, r1
 343 0008 0368     		ldr	r3, [r0]
 344 000a 5249     		ldr	r1, .L74
 345 000c 524A     		ldr	r2, .L74+4
 346 000e 9342     		cmp	r3, r2
 347 0010 18BF     		it	ne
 348 0012 8B42     		cmpne	r3, r1
 349 0014 42D1     		bne	.L62
 350 0016 02F50072 		add	r2, r2, #512
 351              	.L46:
 352 001a 9768     		ldr	r7, [r2, #8]
 353 001c 07F01F07 		and	r7, r7, #31
 354 0020 4C49     		ldr	r1, .L74
 355 0022 4D4A     		ldr	r2, .L74+4
 356 0024 8B42     		cmp	r3, r1
 357 0026 18BF     		it	ne
 358 0028 9342     		cmpne	r3, r2
 359 002a 07D0     		beq	.L47
ARM GAS  C:\Users\thewo\AppData\Local\Temp\ccRWmotf.s 			page 7


 360 002c 4B4A     		ldr	r2, .L74+8
 361 002e 9342     		cmp	r3, r2
 362 0030 04D0     		beq	.L47
 363 0032 40F22D61 		movw	r1, #1581
 364 0036 4A48     		ldr	r0, .L74+12
 365 0038 FFF7FEFF 		bl	assert_failed
 366              	.L47:
 367 003c 6569     		ldr	r5, [r4, #20]
 368 003e 082D     		cmp	r5, #8
 369 0040 0DD0     		beq	.L48
 370 0042 092F     		cmp	r7, #9
 371 0044 32D8     		bhi	.L49
 372 0046 40F22123 		movw	r3, #545
 373 004a FB40     		lsrs	r3, r3, r7
 374 004c 13F0010F 		tst	r3, #1
 375 0050 2CD0     		beq	.L49
 376 0052 2368     		ldr	r3, [r4]
 377 0054 DB68     		ldr	r3, [r3, #12]
 378 0056 13F0010F 		tst	r3, #1
 379 005a 21D1     		bne	.L69
 380 005c 0425     		movs	r5, #4
 381              	.L48:
 382 005e FFF7FEFF 		bl	HAL_GetTick
 383 0062 8046     		mov	r8, r0
 384              	.L53:
 385 0064 2368     		ldr	r3, [r4]
 386 0066 1A68     		ldr	r2, [r3]
 387 0068 2A42     		tst	r2, r5
 388 006a 35D1     		bne	.L70
 389 006c B6F1FF3F 		cmp	r6, #-1
 390 0070 F8D0     		beq	.L53
 391 0072 FFF7FEFF 		bl	HAL_GetTick
 392 0076 A0EB0800 		sub	r0, r0, r8
 393 007a B042     		cmp	r0, r6
 394 007c 01D8     		bhi	.L54
 395 007e 002E     		cmp	r6, #0
 396 0080 F0D1     		bne	.L53
 397              	.L54:
 398 0082 2368     		ldr	r3, [r4]
 399 0084 1B68     		ldr	r3, [r3]
 400 0086 2B42     		tst	r3, r5
 401 0088 ECD1     		bne	.L53
 402 008a 236E     		ldr	r3, [r4, #96]
 403 008c 43F00403 		orr	r3, r3, #4
 404 0090 2366     		str	r3, [r4, #96]
 405 0092 0023     		movs	r3, #0
 406 0094 84F85C30 		strb	r3, [r4, #92]
 407 0098 0320     		movs	r0, #3
 408 009a 57E0     		b	.L50
 409              	.L62:
 410 009c 314A     		ldr	r2, .L74+16
 411 009e BCE7     		b	.L46
 412              	.L69:
 413 00a0 236E     		ldr	r3, [r4, #96]
 414 00a2 43F02003 		orr	r3, r3, #32
 415 00a6 2366     		str	r3, [r4, #96]
 416 00a8 0120     		movs	r0, #1
ARM GAS  C:\Users\thewo\AppData\Local\Temp\ccRWmotf.s 			page 8


 417 00aa 4FE0     		b	.L50
 418              	.L49:
 419 00ac 2368     		ldr	r3, [r4]
 420 00ae 2949     		ldr	r1, .L74
 421 00b0 294A     		ldr	r2, .L74+4
 422 00b2 9342     		cmp	r3, r2
 423 00b4 18BF     		it	ne
 424 00b6 8B42     		cmpne	r3, r1
 425 00b8 06D1     		bne	.L64
 426 00ba 2B4B     		ldr	r3, .L74+20
 427              	.L51:
 428 00bc 9B68     		ldr	r3, [r3, #8]
 429 00be 13F4404F 		tst	r3, #49152
 430 00c2 03D1     		bne	.L71
 431 00c4 0425     		movs	r5, #4
 432 00c6 CAE7     		b	.L48
 433              	.L64:
 434 00c8 264B     		ldr	r3, .L74+16
 435 00ca F7E7     		b	.L51
 436              	.L71:
 437 00cc 236E     		ldr	r3, [r4, #96]
 438 00ce 43F02003 		orr	r3, r3, #32
 439 00d2 2366     		str	r3, [r4, #96]
 440 00d4 0120     		movs	r0, #1
 441 00d6 39E0     		b	.L50
 442              	.L70:
 443 00d8 226E     		ldr	r2, [r4, #96]
 444 00da 42F40072 		orr	r2, r2, #512
 445 00de 2266     		str	r2, [r4, #96]
 446 00e0 DA68     		ldr	r2, [r3, #12]
 447 00e2 12F4406F 		tst	r2, #3072
 448 00e6 11D1     		bne	.L56
 449 00e8 627E     		ldrb	r2, [r4, #25]	@ zero_extendqisi2
 450 00ea 7AB9     		cbnz	r2, .L56
 451 00ec 1A68     		ldr	r2, [r3]
 452 00ee 12F0080F 		tst	r2, #8
 453 00f2 0BD0     		beq	.L56
 454 00f4 226E     		ldr	r2, [r4, #96]
 455 00f6 22F48072 		bic	r2, r2, #256
 456 00fa 2266     		str	r2, [r4, #96]
 457 00fc 226E     		ldr	r2, [r4, #96]
 458 00fe 12F4805F 		tst	r2, #4096
 459 0102 03D1     		bne	.L56
 460 0104 226E     		ldr	r2, [r4, #96]
 461 0106 42F00102 		orr	r2, r2, #1
 462 010a 2266     		str	r2, [r4, #96]
 463              	.L56:
 464 010c 124A     		ldr	r2, .L74+4
 465 010e 9342     		cmp	r3, r2
 466 0110 14D0     		beq	.L72
 467 0112 1A46     		mov	r2, r3
 468              	.L57:
 469 0114 9342     		cmp	r3, r2
 470 0116 07D0     		beq	.L58
 471 0118 092F     		cmp	r7, #9
 472 011a 12D8     		bhi	.L59
 473 011c 40F22121 		movw	r1, #545
ARM GAS  C:\Users\thewo\AppData\Local\Temp\ccRWmotf.s 			page 9


 474 0120 F940     		lsrs	r1, r1, r7
 475 0122 11F0010F 		tst	r1, #1
 476 0126 0CD0     		beq	.L59
 477              	.L58:
 478 0128 DA68     		ldr	r2, [r3, #12]
 479              	.L60:
 480 012a 082D     		cmp	r5, #8
 481 012c 0BD0     		beq	.L73
 482 012e 12F4804F 		tst	r2, #16384
 483 0132 0DD1     		bne	.L67
 484 0134 0C22     		movs	r2, #12
 485 0136 1A60     		str	r2, [r3]
 486 0138 0020     		movs	r0, #0
 487 013a 07E0     		b	.L50
 488              	.L72:
 489 013c A2F58072 		sub	r2, r2, #256
 490 0140 E8E7     		b	.L57
 491              	.L59:
 492 0142 D268     		ldr	r2, [r2, #12]
 493 0144 F1E7     		b	.L60
 494              	.L73:
 495 0146 0822     		movs	r2, #8
 496 0148 1A60     		str	r2, [r3]
 497 014a 0020     		movs	r0, #0
 498              	.L50:
 499 014c BDE8F081 		pop	{r4, r5, r6, r7, r8, pc}
 500              	.L67:
 501 0150 0020     		movs	r0, #0
 502 0152 FBE7     		b	.L50
 503              	.L75:
 504              		.align	2
 505              	.L74:
 506 0154 00200240 		.word	1073881088
 507 0158 00210240 		.word	1073881344
 508 015c 00600258 		.word	1476550656
 509 0160 00000000 		.word	.LC0
 510 0164 00630258 		.word	1476551424
 511 0168 00230240 		.word	1073881856
 513              		.section	.text.HAL_ADC_PollForEvent,"ax",%progbits
 514              		.align	1
 515              		.global	HAL_ADC_PollForEvent
 516              		.syntax unified
 517              		.thumb
 518              		.thumb_func
 520              	HAL_ADC_PollForEvent:
 521              		@ args = 0, pretend = 0, frame = 0
 522              		@ frame_needed = 0, uses_anonymous_args = 0
 523 0000 2DE9F041 		push	{r4, r5, r6, r7, r8, lr}
 524 0004 0646     		mov	r6, r0
 525 0006 0D46     		mov	r5, r1
 526 0008 1746     		mov	r7, r2
 527 000a 0368     		ldr	r3, [r0]
 528 000c 4A49     		ldr	r1, .L96
 529 000e 4B4A     		ldr	r2, .L96+4
 530 0010 8B42     		cmp	r3, r1
 531 0012 18BF     		it	ne
 532 0014 9342     		cmpne	r3, r2
ARM GAS  C:\Users\thewo\AppData\Local\Temp\ccRWmotf.s 			page 10


 533 0016 07D0     		beq	.L77
 534 0018 494A     		ldr	r2, .L96+8
 535 001a 9342     		cmp	r3, r2
 536 001c 04D0     		beq	.L77
 537 001e 40F2CC61 		movw	r1, #1740
 538 0022 4848     		ldr	r0, .L96+12
 539 0024 FFF7FEFF 		bl	assert_failed
 540              	.L77:
 541 0028 022D     		cmp	r5, #2
 542 002a 18BF     		it	ne
 543 002c 802D     		cmpne	r5, #128
 544 002e 0ED0     		beq	.L78
 545 0030 B5F50073 		subs	r3, r5, #512
 546 0034 18BF     		it	ne
 547 0036 0123     		movne	r3, #1
 548 0038 B5F5807F 		cmp	r5, #256
 549 003c 07D0     		beq	.L78
 550 003e 33B1     		cbz	r3, .L78
 551 0040 B5F58063 		subs	r3, r5, #1024
 552 0044 18BF     		it	ne
 553 0046 0123     		movne	r3, #1
 554 0048 102D     		cmp	r5, #16
 555 004a 00D0     		beq	.L78
 556 004c 03BB     		cbnz	r3, .L93
 557              	.L78:
 558 004e FFF7FEFF 		bl	HAL_GetTick
 559 0052 8046     		mov	r8, r0
 560              	.L80:
 561 0054 3468     		ldr	r4, [r6]
 562 0056 2368     		ldr	r3, [r4]
 563 0058 35EA0303 		bics	r3, r5, r3
 564 005c 1ED0     		beq	.L94
 565 005e B7F1FF3F 		cmp	r7, #-1
 566 0062 F7D0     		beq	.L80
 567 0064 FFF7FEFF 		bl	HAL_GetTick
 568 0068 A0EB0800 		sub	r0, r0, r8
 569 006c B842     		cmp	r0, r7
 570 006e 01D8     		bhi	.L81
 571 0070 002F     		cmp	r7, #0
 572 0072 EFD1     		bne	.L80
 573              	.L81:
 574 0074 3368     		ldr	r3, [r6]
 575 0076 1B68     		ldr	r3, [r3]
 576 0078 35EA0303 		bics	r3, r5, r3
 577 007c EAD0     		beq	.L80
 578 007e 336E     		ldr	r3, [r6, #96]
 579 0080 43F00403 		orr	r3, r3, #4
 580 0084 3366     		str	r3, [r6, #96]
 581 0086 0023     		movs	r3, #0
 582 0088 86F85C30 		strb	r3, [r6, #92]
 583 008c 0320     		movs	r0, #3
 584 008e 2FE0     		b	.L82
 585              	.L93:
 586 0090 40F2CD61 		movw	r1, #1741
 587 0094 2B48     		ldr	r0, .L96+12
 588 0096 FFF7FEFF 		bl	assert_failed
 589 009a D8E7     		b	.L78
ARM GAS  C:\Users\thewo\AppData\Local\Temp\ccRWmotf.s 			page 11


 590              	.L94:
 591 009c B5F5807F 		cmp	r5, #256
 592 00a0 28D0     		beq	.L84
 593 00a2 12D9     		bls	.L95
 594 00a4 B5F5007F 		cmp	r5, #512
 595 00a8 2DD0     		beq	.L89
 596 00aa B5F5806F 		cmp	r5, #1024
 597 00ae 33D1     		bne	.L88
 598 00b0 336E     		ldr	r3, [r6, #96]
 599 00b2 43F48043 		orr	r3, r3, #16384
 600 00b6 3366     		str	r3, [r6, #96]
 601 00b8 736E     		ldr	r3, [r6, #100]
 602 00ba 43F00803 		orr	r3, r3, #8
 603 00be 7366     		str	r3, [r6, #100]
 604 00c0 4FF48063 		mov	r3, #1024
 605 00c4 2360     		str	r3, [r4]
 606 00c6 0020     		movs	r0, #0
 607 00c8 12E0     		b	.L82
 608              	.L95:
 609 00ca 022D     		cmp	r5, #2
 610 00cc 09D0     		beq	.L86
 611 00ce 802D     		cmp	r5, #128
 612 00d0 22D1     		bne	.L88
 613 00d2 336E     		ldr	r3, [r6, #96]
 614 00d4 43F48033 		orr	r3, r3, #65536
 615 00d8 3366     		str	r3, [r6, #96]
 616 00da 8023     		movs	r3, #128
 617 00dc 2360     		str	r3, [r4]
 618 00de 0020     		movs	r0, #0
 619 00e0 06E0     		b	.L82
 620              	.L86:
 621 00e2 336E     		ldr	r3, [r6, #96]
 622 00e4 43F40063 		orr	r3, r3, #2048
 623 00e8 3366     		str	r3, [r6, #96]
 624 00ea 0223     		movs	r3, #2
 625 00ec 2360     		str	r3, [r4]
 626 00ee 0020     		movs	r0, #0
 627              	.L82:
 628 00f0 BDE8F081 		pop	{r4, r5, r6, r7, r8, pc}
 629              	.L84:
 630 00f4 336E     		ldr	r3, [r6, #96]
 631 00f6 43F40033 		orr	r3, r3, #131072
 632 00fa 3366     		str	r3, [r6, #96]
 633 00fc 4FF48073 		mov	r3, #256
 634 0100 2360     		str	r3, [r4]
 635 0102 0020     		movs	r0, #0
 636 0104 F4E7     		b	.L82
 637              	.L89:
 638 0106 336E     		ldr	r3, [r6, #96]
 639 0108 43F48023 		orr	r3, r3, #262144
 640 010c 3366     		str	r3, [r6, #96]
 641 010e 4FF40073 		mov	r3, #512
 642 0112 2360     		str	r3, [r4]
 643 0114 0020     		movs	r0, #0
 644 0116 EBE7     		b	.L82
 645              	.L88:
 646 0118 F36B     		ldr	r3, [r6, #60]
ARM GAS  C:\Users\thewo\AppData\Local\Temp\ccRWmotf.s 			page 12


 647 011a 4BB9     		cbnz	r3, .L91
 648 011c 336E     		ldr	r3, [r6, #96]
 649 011e 43F48063 		orr	r3, r3, #1024
 650 0122 3366     		str	r3, [r6, #96]
 651 0124 736E     		ldr	r3, [r6, #100]
 652 0126 43F00203 		orr	r3, r3, #2
 653 012a 7366     		str	r3, [r6, #100]
 654 012c 0020     		movs	r0, #0
 655 012e DFE7     		b	.L82
 656              	.L91:
 657 0130 1023     		movs	r3, #16
 658 0132 2360     		str	r3, [r4]
 659 0134 0020     		movs	r0, #0
 660 0136 DBE7     		b	.L82
 661              	.L97:
 662              		.align	2
 663              	.L96:
 664 0138 00200240 		.word	1073881088
 665 013c 00210240 		.word	1073881344
 666 0140 00600258 		.word	1476550656
 667 0144 00000000 		.word	.LC0
 669              		.section	.text.HAL_ADC_GetValue,"ax",%progbits
 670              		.align	1
 671              		.global	HAL_ADC_GetValue
 672              		.syntax unified
 673              		.thumb
 674              		.thumb_func
 676              	HAL_ADC_GetValue:
 677              		@ args = 0, pretend = 0, frame = 0
 678              		@ frame_needed = 0, uses_anonymous_args = 0
 679 0000 10B5     		push	{r4, lr}
 680 0002 0446     		mov	r4, r0
 681 0004 0368     		ldr	r3, [r0]
 682 0006 0849     		ldr	r1, .L101
 683 0008 084A     		ldr	r2, .L101+4
 684 000a 8B42     		cmp	r3, r1
 685 000c 18BF     		it	ne
 686 000e 9342     		cmpne	r3, r2
 687 0010 07D0     		beq	.L99
 688 0012 074A     		ldr	r2, .L101+8
 689 0014 9342     		cmp	r3, r2
 690 0016 04D0     		beq	.L99
 691 0018 40F62B11 		movw	r1, #2347
 692 001c 0548     		ldr	r0, .L101+12
 693 001e FFF7FEFF 		bl	assert_failed
 694              	.L99:
 695 0022 2368     		ldr	r3, [r4]
 696 0024 186C     		ldr	r0, [r3, #64]
 697 0026 10BD     		pop	{r4, pc}
 698              	.L102:
 699              		.align	2
 700              	.L101:
 701 0028 00200240 		.word	1073881088
 702 002c 00210240 		.word	1073881344
 703 0030 00600258 		.word	1476550656
 704 0034 00000000 		.word	.LC0
 706              		.section	.text.HAL_ADC_ConvCpltCallback,"ax",%progbits
ARM GAS  C:\Users\thewo\AppData\Local\Temp\ccRWmotf.s 			page 13


 707              		.align	1
 708              		.weak	HAL_ADC_ConvCpltCallback
 709              		.syntax unified
 710              		.thumb
 711              		.thumb_func
 713              	HAL_ADC_ConvCpltCallback:
 714              		@ args = 0, pretend = 0, frame = 0
 715              		@ frame_needed = 0, uses_anonymous_args = 0
 716              		@ link register save eliminated.
 717 0000 7047     		bx	lr
 719              		.section	.text.HAL_ADC_ConvHalfCpltCallback,"ax",%progbits
 720              		.align	1
 721              		.weak	HAL_ADC_ConvHalfCpltCallback
 722              		.syntax unified
 723              		.thumb
 724              		.thumb_func
 726              	HAL_ADC_ConvHalfCpltCallback:
 727              		@ args = 0, pretend = 0, frame = 0
 728              		@ frame_needed = 0, uses_anonymous_args = 0
 729              		@ link register save eliminated.
 730 0000 7047     		bx	lr
 732              		.section	.text.ADC_DMAHalfConvCplt,"ax",%progbits
 733              		.align	1
 734              		.global	ADC_DMAHalfConvCplt
 735              		.syntax unified
 736              		.thumb
 737              		.thumb_func
 739              	ADC_DMAHalfConvCplt:
 740              		@ args = 0, pretend = 0, frame = 0
 741              		@ frame_needed = 0, uses_anonymous_args = 0
 742 0000 08B5     		push	{r3, lr}
 743 0002 806B     		ldr	r0, [r0, #56]
 744 0004 FFF7FEFF 		bl	HAL_ADC_ConvHalfCpltCallback
 745 0008 08BD     		pop	{r3, pc}
 747              		.section	.text.HAL_ADC_LevelOutOfWindowCallback,"ax",%progbits
 748              		.align	1
 749              		.weak	HAL_ADC_LevelOutOfWindowCallback
 750              		.syntax unified
 751              		.thumb
 752              		.thumb_func
 754              	HAL_ADC_LevelOutOfWindowCallback:
 755              		@ args = 0, pretend = 0, frame = 0
 756              		@ frame_needed = 0, uses_anonymous_args = 0
 757              		@ link register save eliminated.
 758 0000 7047     		bx	lr
 760              		.section	.text.HAL_ADC_ErrorCallback,"ax",%progbits
 761              		.align	1
 762              		.weak	HAL_ADC_ErrorCallback
 763              		.syntax unified
 764              		.thumb
 765              		.thumb_func
 767              	HAL_ADC_ErrorCallback:
 768              		@ args = 0, pretend = 0, frame = 0
 769              		@ frame_needed = 0, uses_anonymous_args = 0
 770              		@ link register save eliminated.
 771 0000 7047     		bx	lr
 773              		.section	.text.HAL_ADC_IRQHandler,"ax",%progbits
ARM GAS  C:\Users\thewo\AppData\Local\Temp\ccRWmotf.s 			page 14


 774              		.align	1
 775              		.global	HAL_ADC_IRQHandler
 776              		.syntax unified
 777              		.thumb
 778              		.thumb_func
 780              	HAL_ADC_IRQHandler:
 781              		@ args = 0, pretend = 0, frame = 0
 782              		@ frame_needed = 0, uses_anonymous_args = 0
 783 0000 F8B5     		push	{r3, r4, r5, r6, r7, lr}
 784 0002 0446     		mov	r4, r0
 785 0004 0368     		ldr	r3, [r0]
 786 0006 1D68     		ldr	r5, [r3]
 787 0008 5E68     		ldr	r6, [r3, #4]
 788 000a 7949     		ldr	r1, .L163
 789 000c 794A     		ldr	r2, .L163+4
 790 000e 9342     		cmp	r3, r2
 791 0010 18BF     		it	ne
 792 0012 8B42     		cmpne	r3, r1
 793 0014 6FD1     		bne	.L149
 794 0016 02F50072 		add	r2, r2, #512
 795              	.L110:
 796 001a 9768     		ldr	r7, [r2, #8]
 797 001c 07F01F07 		and	r7, r7, #31
 798 0020 7349     		ldr	r1, .L163
 799 0022 744A     		ldr	r2, .L163+4
 800 0024 8B42     		cmp	r3, r1
 801 0026 18BF     		it	ne
 802 0028 9342     		cmpne	r3, r2
 803 002a 07D0     		beq	.L111
 804 002c 724A     		ldr	r2, .L163+8
 805 002e 9342     		cmp	r3, r2
 806 0030 04D0     		beq	.L111
 807 0032 40F64511 		movw	r1, #2373
 808 0036 7148     		ldr	r0, .L163+12
 809 0038 FFF7FEFF 		bl	assert_failed
 810              	.L111:
 811 003c 6369     		ldr	r3, [r4, #20]
 812 003e 042B     		cmp	r3, #4
 813 0040 18BF     		it	ne
 814 0042 082B     		cmpne	r3, #8
 815 0044 59D1     		bne	.L156
 816              	.L112:
 817 0046 15F0020F 		tst	r5, #2
 818 004a 10D0     		beq	.L113
 819 004c 16F0020F 		tst	r6, #2
 820 0050 0DD0     		beq	.L113
 821 0052 236E     		ldr	r3, [r4, #96]
 822 0054 13F0100F 		tst	r3, #16
 823 0058 03D1     		bne	.L114
 824 005a 236E     		ldr	r3, [r4, #96]
 825 005c 43F40063 		orr	r3, r3, #2048
 826 0060 2366     		str	r3, [r4, #96]
 827              	.L114:
 828 0062 2046     		mov	r0, r4
 829 0064 FFF7FEFF 		bl	HAL_ADCEx_EndOfSamplingCallback
 830 0068 2368     		ldr	r3, [r4]
 831 006a 0222     		movs	r2, #2
ARM GAS  C:\Users\thewo\AppData\Local\Temp\ccRWmotf.s 			page 15


 832 006c 1A60     		str	r2, [r3]
 833              	.L113:
 834 006e 15F0040F 		tst	r5, #4
 835 0072 02D0     		beq	.L115
 836 0074 16F0040F 		tst	r6, #4
 837 0078 05D1     		bne	.L116
 838              	.L115:
 839 007a 15F0080F 		tst	r5, #8
 840 007e 55D0     		beq	.L117
 841 0080 16F0080F 		tst	r6, #8
 842 0084 52D0     		beq	.L117
 843              	.L116:
 844 0086 236E     		ldr	r3, [r4, #96]
 845 0088 13F0100F 		tst	r3, #16
 846 008c 03D1     		bne	.L118
 847 008e 236E     		ldr	r3, [r4, #96]
 848 0090 43F40073 		orr	r3, r3, #512
 849 0094 2366     		str	r3, [r4, #96]
 850              	.L118:
 851 0096 2368     		ldr	r3, [r4]
 852 0098 DA68     		ldr	r2, [r3, #12]
 853 009a 12F4406F 		tst	r2, #3072
 854 009e 3FD1     		bne	.L119
 855 00a0 544A     		ldr	r2, .L163+4
 856 00a2 9342     		cmp	r3, r2
 857 00a4 2FD0     		beq	.L157
 858 00a6 1A46     		mov	r2, r3
 859              	.L120:
 860 00a8 9342     		cmp	r3, r2
 861 00aa 07D0     		beq	.L121
 862 00ac 092F     		cmp	r7, #9
 863 00ae 2DD8     		bhi	.L122
 864 00b0 40F22121 		movw	r1, #545
 865 00b4 F940     		lsrs	r1, r1, r7
 866 00b6 11F0010F 		tst	r1, #1
 867 00ba 27D0     		beq	.L122
 868              	.L121:
 869 00bc DA68     		ldr	r2, [r3, #12]
 870              	.L123:
 871 00be 12F4005F 		tst	r2, #8192
 872 00c2 2DD1     		bne	.L119
 873 00c4 1A68     		ldr	r2, [r3]
 874 00c6 12F0080F 		tst	r2, #8
 875 00ca 29D0     		beq	.L119
 876 00cc 9A68     		ldr	r2, [r3, #8]
 877 00ce 12F0040F 		tst	r2, #4
 878 00d2 1DD1     		bne	.L124
 879 00d4 5A68     		ldr	r2, [r3, #4]
 880 00d6 22F00C02 		bic	r2, r2, #12
 881 00da 5A60     		str	r2, [r3, #4]
 882 00dc 236E     		ldr	r3, [r4, #96]
 883 00de 23F48073 		bic	r3, r3, #256
 884 00e2 2366     		str	r3, [r4, #96]
 885 00e4 236E     		ldr	r3, [r4, #96]
 886 00e6 13F4805F 		tst	r3, #4096
 887 00ea 19D1     		bne	.L119
 888 00ec 236E     		ldr	r3, [r4, #96]
ARM GAS  C:\Users\thewo\AppData\Local\Temp\ccRWmotf.s 			page 16


 889 00ee 43F00103 		orr	r3, r3, #1
 890 00f2 2366     		str	r3, [r4, #96]
 891 00f4 14E0     		b	.L119
 892              	.L149:
 893 00f6 424A     		ldr	r2, .L163+16
 894 00f8 8FE7     		b	.L110
 895              	.L156:
 896 00fa 40F64611 		movw	r1, #2374
 897 00fe 3F48     		ldr	r0, .L163+12
 898 0100 FFF7FEFF 		bl	assert_failed
 899 0104 9FE7     		b	.L112
 900              	.L157:
 901 0106 A2F58072 		sub	r2, r2, #256
 902 010a CDE7     		b	.L120
 903              	.L122:
 904 010c D268     		ldr	r2, [r2, #12]
 905 010e D6E7     		b	.L123
 906              	.L124:
 907 0110 236E     		ldr	r3, [r4, #96]
 908 0112 43F01003 		orr	r3, r3, #16
 909 0116 2366     		str	r3, [r4, #96]
 910 0118 636E     		ldr	r3, [r4, #100]
 911 011a 43F00103 		orr	r3, r3, #1
 912 011e 6366     		str	r3, [r4, #100]
 913              	.L119:
 914 0120 2046     		mov	r0, r4
 915 0122 FFF7FEFF 		bl	HAL_ADC_ConvCpltCallback
 916 0126 2368     		ldr	r3, [r4]
 917 0128 0C22     		movs	r2, #12
 918 012a 1A60     		str	r2, [r3]
 919              	.L117:
 920 012c 15F0200F 		tst	r5, #32
 921 0130 02D0     		beq	.L126
 922 0132 16F0200F 		tst	r6, #32
 923 0136 05D1     		bne	.L127
 924              	.L126:
 925 0138 15F0400F 		tst	r5, #64
 926 013c 70D0     		beq	.L128
 927 013e 16F0400F 		tst	r6, #64
 928 0142 6DD0     		beq	.L128
 929              	.L127:
 930 0144 236E     		ldr	r3, [r4, #96]
 931 0146 13F0100F 		tst	r3, #16
 932 014a 03D1     		bne	.L129
 933 014c 236E     		ldr	r3, [r4, #96]
 934 014e 43F40053 		orr	r3, r3, #8192
 935 0152 2366     		str	r3, [r4, #96]
 936              	.L129:
 937 0154 2368     		ldr	r3, [r4]
 938 0156 DA6C     		ldr	r2, [r3, #76]
 939 0158 12F4C07F 		tst	r2, #384
 940 015c 19D1     		bne	.L151
 941 015e 0121     		movs	r1, #1
 942              	.L130:
 943 0160 DA68     		ldr	r2, [r3, #12]
 944 0162 12F4406F 		tst	r2, #3072
 945 0166 16D1     		bne	.L152
ARM GAS  C:\Users\thewo\AppData\Local\Temp\ccRWmotf.s 			page 17


 946 0168 0120     		movs	r0, #1
 947              	.L131:
 948 016a 224A     		ldr	r2, .L163+4
 949 016c 9342     		cmp	r3, r2
 950 016e 14D0     		beq	.L158
 951 0170 1A46     		mov	r2, r3
 952              	.L132:
 953 0172 9342     		cmp	r3, r2
 954 0174 14D0     		beq	.L133
 955 0176 062F     		cmp	r7, #6
 956 0178 14BF     		ite	ne
 957 017a 4FF0000C 		movne	ip, #0
 958 017e 4FF0010C 		moveq	ip, #1
 959 0182 6FB1     		cbz	r7, .L133
 960 0184 BCF1000F 		cmp	ip, #0
 961 0188 0AD1     		bne	.L133
 962 018a 072F     		cmp	r7, #7
 963 018c 08D0     		beq	.L133
 964 018e D268     		ldr	r2, [r2, #12]
 965 0190 07E0     		b	.L135
 966              	.L151:
 967 0192 0021     		movs	r1, #0
 968 0194 E4E7     		b	.L130
 969              	.L152:
 970 0196 0020     		movs	r0, #0
 971 0198 E7E7     		b	.L131
 972              	.L158:
 973 019a A2F58072 		sub	r2, r2, #256
 974 019e E8E7     		b	.L132
 975              	.L133:
 976 01a0 DA68     		ldr	r2, [r3, #12]
 977              	.L135:
 978 01a2 0029     		cmp	r1, #0
 979 01a4 36D0     		beq	.L136
 980 01a6 12F0007F 		tst	r2, #33554432
 981 01aa 04D0     		beq	.L137
 982 01ac 0028     		cmp	r0, #0
 983 01ae 31D0     		beq	.L136
 984 01b0 12F4005F 		tst	r2, #8192
 985 01b4 2ED1     		bne	.L136
 986              	.L137:
 987 01b6 1968     		ldr	r1, [r3]
 988 01b8 11F0400F 		tst	r1, #64
 989 01bc 2AD0     		beq	.L136
 990 01be 12F4001F 		tst	r2, #2097152
 991 01c2 27D1     		bne	.L136
 992 01c4 9A68     		ldr	r2, [r3, #8]
 993 01c6 12F0080F 		tst	r2, #8
 994 01ca 1BD1     		bne	.L138
 995 01cc 5A68     		ldr	r2, [r3, #4]
 996 01ce 22F06002 		bic	r2, r2, #96
 997 01d2 5A60     		str	r2, [r3, #4]
 998 01d4 236E     		ldr	r3, [r4, #96]
 999 01d6 23F48053 		bic	r3, r3, #4096
 1000 01da 2366     		str	r3, [r4, #96]
 1001 01dc 236E     		ldr	r3, [r4, #96]
 1002 01de 13F4807F 		tst	r3, #256
ARM GAS  C:\Users\thewo\AppData\Local\Temp\ccRWmotf.s 			page 18


 1003 01e2 17D1     		bne	.L136
 1004 01e4 236E     		ldr	r3, [r4, #96]
 1005 01e6 43F00103 		orr	r3, r3, #1
 1006 01ea 2366     		str	r3, [r4, #96]
 1007 01ec 12E0     		b	.L136
 1008              	.L164:
 1009 01ee 00BF     		.align	2
 1010              	.L163:
 1011 01f0 00200240 		.word	1073881088
 1012 01f4 00210240 		.word	1073881344
 1013 01f8 00600258 		.word	1476550656
 1014 01fc 00000000 		.word	.LC0
 1015 0200 00630258 		.word	1476551424
 1016              	.L138:
 1017 0204 236E     		ldr	r3, [r4, #96]
 1018 0206 43F01003 		orr	r3, r3, #16
 1019 020a 2366     		str	r3, [r4, #96]
 1020 020c 636E     		ldr	r3, [r4, #100]
 1021 020e 43F00103 		orr	r3, r3, #1
 1022 0212 6366     		str	r3, [r4, #100]
 1023              	.L136:
 1024 0214 2046     		mov	r0, r4
 1025 0216 FFF7FEFF 		bl	HAL_ADCEx_InjectedConvCpltCallback
 1026 021a 2368     		ldr	r3, [r4]
 1027 021c 6022     		movs	r2, #96
 1028 021e 1A60     		str	r2, [r3]
 1029              	.L128:
 1030 0220 15F0800F 		tst	r5, #128
 1031 0224 02D0     		beq	.L140
 1032 0226 16F0800F 		tst	r6, #128
 1033 022a 36D1     		bne	.L159
 1034              	.L140:
 1035 022c 15F4807F 		tst	r5, #256
 1036 0230 02D0     		beq	.L141
 1037 0232 16F4807F 		tst	r6, #256
 1038 0236 3BD1     		bne	.L160
 1039              	.L141:
 1040 0238 15F4007F 		tst	r5, #512
 1041 023c 02D0     		beq	.L142
 1042 023e 16F4007F 		tst	r6, #512
 1043 0242 41D1     		bne	.L161
 1044              	.L142:
 1045 0244 15F0100F 		tst	r5, #16
 1046 0248 20D0     		beq	.L143
 1047 024a 16F0100F 		tst	r6, #16
 1048 024e 1DD0     		beq	.L143
 1049 0250 E36B     		ldr	r3, [r4, #60]
 1050 0252 6BB1     		cbz	r3, .L144
 1051 0254 002F     		cmp	r7, #0
 1052 0256 45D0     		beq	.L145
 1053 0258 2368     		ldr	r3, [r4]
 1054 025a 2D49     		ldr	r1, .L165
 1055 025c 2D4A     		ldr	r2, .L165+4
 1056 025e 9342     		cmp	r3, r2
 1057 0260 18BF     		it	ne
 1058 0262 8B42     		cmpne	r3, r1
 1059 0264 3CD1     		bne	.L154
ARM GAS  C:\Users\thewo\AppData\Local\Temp\ccRWmotf.s 			page 19


 1060 0266 2C4B     		ldr	r3, .L165+8
 1061              	.L146:
 1062 0268 9B68     		ldr	r3, [r3, #8]
 1063 026a 13F4404F 		tst	r3, #49152
 1064 026e 0AD0     		beq	.L147
 1065              	.L144:
 1066 0270 236E     		ldr	r3, [r4, #96]
 1067 0272 43F48063 		orr	r3, r3, #1024
 1068 0276 2366     		str	r3, [r4, #96]
 1069 0278 636E     		ldr	r3, [r4, #100]
 1070 027a 43F00203 		orr	r3, r3, #2
 1071 027e 6366     		str	r3, [r4, #100]
 1072 0280 2046     		mov	r0, r4
 1073 0282 FFF7FEFF 		bl	HAL_ADC_ErrorCallback
 1074              	.L147:
 1075 0286 2368     		ldr	r3, [r4]
 1076 0288 1022     		movs	r2, #16
 1077 028a 1A60     		str	r2, [r3]
 1078              	.L143:
 1079 028c 15F4806F 		tst	r5, #1024
 1080 0290 02D0     		beq	.L109
 1081 0292 16F4806F 		tst	r6, #1024
 1082 0296 2BD1     		bne	.L162
 1083              	.L109:
 1084 0298 F8BD     		pop	{r3, r4, r5, r6, r7, pc}
 1085              	.L159:
 1086 029a 236E     		ldr	r3, [r4, #96]
 1087 029c 43F48033 		orr	r3, r3, #65536
 1088 02a0 2366     		str	r3, [r4, #96]
 1089 02a2 2046     		mov	r0, r4
 1090 02a4 FFF7FEFF 		bl	HAL_ADC_LevelOutOfWindowCallback
 1091 02a8 2368     		ldr	r3, [r4]
 1092 02aa 8022     		movs	r2, #128
 1093 02ac 1A60     		str	r2, [r3]
 1094 02ae BDE7     		b	.L140
 1095              	.L160:
 1096 02b0 236E     		ldr	r3, [r4, #96]
 1097 02b2 43F40033 		orr	r3, r3, #131072
 1098 02b6 2366     		str	r3, [r4, #96]
 1099 02b8 2046     		mov	r0, r4
 1100 02ba FFF7FEFF 		bl	HAL_ADCEx_LevelOutOfWindow2Callback
 1101 02be 2368     		ldr	r3, [r4]
 1102 02c0 4FF48072 		mov	r2, #256
 1103 02c4 1A60     		str	r2, [r3]
 1104 02c6 B7E7     		b	.L141
 1105              	.L161:
 1106 02c8 236E     		ldr	r3, [r4, #96]
 1107 02ca 43F48023 		orr	r3, r3, #262144
 1108 02ce 2366     		str	r3, [r4, #96]
 1109 02d0 2046     		mov	r0, r4
 1110 02d2 FFF7FEFF 		bl	HAL_ADCEx_LevelOutOfWindow3Callback
 1111 02d6 2368     		ldr	r3, [r4]
 1112 02d8 4FF40072 		mov	r2, #512
 1113 02dc 1A60     		str	r2, [r3]
 1114 02de B1E7     		b	.L142
 1115              	.L154:
 1116 02e0 0E4B     		ldr	r3, .L165+12
ARM GAS  C:\Users\thewo\AppData\Local\Temp\ccRWmotf.s 			page 20


 1117 02e2 C1E7     		b	.L146
 1118              	.L145:
 1119 02e4 2368     		ldr	r3, [r4]
 1120 02e6 DB68     		ldr	r3, [r3, #12]
 1121 02e8 13F0030F 		tst	r3, #3
 1122 02ec CBD0     		beq	.L147
 1123 02ee BFE7     		b	.L144
 1124              	.L162:
 1125 02f0 236E     		ldr	r3, [r4, #96]
 1126 02f2 43F48043 		orr	r3, r3, #16384
 1127 02f6 2366     		str	r3, [r4, #96]
 1128 02f8 636E     		ldr	r3, [r4, #100]
 1129 02fa 43F00803 		orr	r3, r3, #8
 1130 02fe 6366     		str	r3, [r4, #100]
 1131 0300 2368     		ldr	r3, [r4]
 1132 0302 4FF48062 		mov	r2, #1024
 1133 0306 1A60     		str	r2, [r3]
 1134 0308 2046     		mov	r0, r4
 1135 030a FFF7FEFF 		bl	HAL_ADCEx_InjectedQueueOverflowCallback
 1136 030e C3E7     		b	.L109
 1137              	.L166:
 1138              		.align	2
 1139              	.L165:
 1140 0310 00200240 		.word	1073881088
 1141 0314 00210240 		.word	1073881344
 1142 0318 00230240 		.word	1073881856
 1143 031c 00630258 		.word	1476551424
 1145              		.section	.text.ADC_DMAConvCplt,"ax",%progbits
 1146              		.align	1
 1147              		.global	ADC_DMAConvCplt
 1148              		.syntax unified
 1149              		.thumb
 1150              		.thumb_func
 1152              	ADC_DMAConvCplt:
 1153              		@ args = 0, pretend = 0, frame = 0
 1154              		@ frame_needed = 0, uses_anonymous_args = 0
 1155 0000 08B5     		push	{r3, lr}
 1156 0002 0346     		mov	r3, r0
 1157 0004 806B     		ldr	r0, [r0, #56]
 1158 0006 026E     		ldr	r2, [r0, #96]
 1159 0008 12F0500F 		tst	r2, #80
 1160 000c 30D1     		bne	.L168
 1161 000e 036E     		ldr	r3, [r0, #96]
 1162 0010 43F40073 		orr	r3, r3, #512
 1163 0014 0366     		str	r3, [r0, #96]
 1164 0016 0368     		ldr	r3, [r0]
 1165 0018 1A68     		ldr	r2, [r3]
 1166 001a 12F0080F 		tst	r2, #8
 1167 001e 14D0     		beq	.L169
 1168 0020 DA68     		ldr	r2, [r3, #12]
 1169 0022 12F4406F 		tst	r2, #3072
 1170 0026 20D1     		bne	.L170
 1171 0028 DB68     		ldr	r3, [r3, #12]
 1172 002a 13F4005F 		tst	r3, #8192
 1173 002e 1CD1     		bne	.L170
 1174 0030 036E     		ldr	r3, [r0, #96]
 1175 0032 23F48073 		bic	r3, r3, #256
ARM GAS  C:\Users\thewo\AppData\Local\Temp\ccRWmotf.s 			page 21


 1176 0036 0366     		str	r3, [r0, #96]
 1177 0038 036E     		ldr	r3, [r0, #96]
 1178 003a 13F4805F 		tst	r3, #4096
 1179 003e 14D1     		bne	.L170
 1180 0040 036E     		ldr	r3, [r0, #96]
 1181 0042 43F00103 		orr	r3, r3, #1
 1182 0046 0366     		str	r3, [r0, #96]
 1183 0048 0FE0     		b	.L170
 1184              	.L169:
 1185 004a DB68     		ldr	r3, [r3, #12]
 1186 004c 13F0030F 		tst	r3, #3
 1187 0050 0BD1     		bne	.L170
 1188 0052 036E     		ldr	r3, [r0, #96]
 1189 0054 23F48073 		bic	r3, r3, #256
 1190 0058 0366     		str	r3, [r0, #96]
 1191 005a 036E     		ldr	r3, [r0, #96]
 1192 005c 13F4805F 		tst	r3, #4096
 1193 0060 03D1     		bne	.L170
 1194 0062 036E     		ldr	r3, [r0, #96]
 1195 0064 43F00103 		orr	r3, r3, #1
 1196 0068 0366     		str	r3, [r0, #96]
 1197              	.L170:
 1198 006a FFF7FEFF 		bl	HAL_ADC_ConvCpltCallback
 1199              	.L167:
 1200 006e 08BD     		pop	{r3, pc}
 1201              	.L168:
 1202 0070 026E     		ldr	r2, [r0, #96]
 1203 0072 12F0100F 		tst	r2, #16
 1204 0076 04D1     		bne	.L174
 1205 0078 826D     		ldr	r2, [r0, #88]
 1206 007a D26C     		ldr	r2, [r2, #76]
 1207 007c 1846     		mov	r0, r3
 1208 007e 9047     		blx	r2
 1209 0080 F5E7     		b	.L167
 1210              	.L174:
 1211 0082 FFF7FEFF 		bl	HAL_ADC_ErrorCallback
 1212 0086 F2E7     		b	.L167
 1214              		.section	.text.ADC_DMAError,"ax",%progbits
 1215              		.align	1
 1216              		.global	ADC_DMAError
 1217              		.syntax unified
 1218              		.thumb
 1219              		.thumb_func
 1221              	ADC_DMAError:
 1222              		@ args = 0, pretend = 0, frame = 0
 1223              		@ frame_needed = 0, uses_anonymous_args = 0
 1224 0000 08B5     		push	{r3, lr}
 1225 0002 806B     		ldr	r0, [r0, #56]
 1226 0004 036E     		ldr	r3, [r0, #96]
 1227 0006 43F04003 		orr	r3, r3, #64
 1228 000a 0366     		str	r3, [r0, #96]
 1229 000c 436E     		ldr	r3, [r0, #100]
 1230 000e 43F00403 		orr	r3, r3, #4
 1231 0012 4366     		str	r3, [r0, #100]
 1232 0014 FFF7FEFF 		bl	HAL_ADC_ErrorCallback
 1233 0018 08BD     		pop	{r3, pc}
 1235              		.section	.text.HAL_ADC_ConfigChannel,"ax",%progbits
ARM GAS  C:\Users\thewo\AppData\Local\Temp\ccRWmotf.s 			page 22


 1236              		.align	1
 1237              		.global	HAL_ADC_ConfigChannel
 1238              		.syntax unified
 1239              		.thumb
 1240              		.thumb_func
 1242              	HAL_ADC_ConfigChannel:
 1243              		@ args = 0, pretend = 0, frame = 8
 1244              		@ frame_needed = 0, uses_anonymous_args = 0
 1245 0000 70B5     		push	{r4, r5, r6, lr}
 1246 0002 82B0     		sub	sp, sp, #8
 1247 0004 0446     		mov	r4, r0
 1248 0006 0D46     		mov	r5, r1
 1249 0008 0023     		movs	r3, #0
 1250 000a 0193     		str	r3, [sp, #4]
 1251 000c 0368     		ldr	r3, [r0]
 1252 000e A249     		ldr	r1, .L339
 1253 0010 A24A     		ldr	r2, .L339+4
 1254 0012 8B42     		cmp	r3, r1
 1255 0014 18BF     		it	ne
 1256 0016 9342     		cmpne	r3, r2
 1257 0018 07D0     		beq	.L178
 1258 001a A14A     		ldr	r2, .L339+8
 1259 001c 9342     		cmp	r3, r2
 1260 001e 04D0     		beq	.L178
 1261 0020 40F60D31 		movw	r1, #2829
 1262 0024 9F48     		ldr	r0, .L339+12
 1263 0026 FFF7FEFF 		bl	assert_failed
 1264              	.L178:
 1265 002a 6B68     		ldr	r3, [r5, #4]
 1266 002c 062B     		cmp	r3, #6
 1267 002e 18BF     		it	ne
 1268 0030 0C2B     		cmpne	r3, #12
 1269 0032 27D0     		beq	.L179
 1270 0034 B3F5067F 		cmp	r3, #536
 1271 0038 00F2D080 		bhi	.L180
 1272 003c B3F5007F 		cmp	r3, #512
 1273 0040 13D2     		bcs	.L181
 1274 0042 B3F58C7F 		cmp	r3, #280
 1275 0046 18D8     		bhi	.L182
 1276 0048 B3F5807F 		cmp	r3, #256
 1277 004c 08D3     		bcc	.L296
 1278 004e A3F58073 		sub	r3, r3, #256
 1279 0052 954A     		ldr	r2, .L339+16
 1280 0054 22FA03F3 		lsr	r3, r2, r3
 1281 0058 13F0010F 		tst	r3, #1
 1282 005c 12D1     		bne	.L179
 1283 005e 0CE0     		b	.L182
 1284              	.L296:
 1285 0060 122B     		cmp	r3, #18
 1286 0062 0FD0     		beq	.L179
 1287 0064 182B     		cmp	r3, #24
 1288 0066 0DD0     		beq	.L179
 1289 0068 07E0     		b	.L182
 1290              	.L181:
 1291 006a A3F50073 		sub	r3, r3, #512
 1292 006e 8E4A     		ldr	r2, .L339+16
 1293 0070 22FA03F3 		lsr	r3, r2, r3
ARM GAS  C:\Users\thewo\AppData\Local\Temp\ccRWmotf.s 			page 23


 1294 0074 13F0010F 		tst	r3, #1
 1295 0078 04D1     		bne	.L179
 1296              	.L182:
 1297 007a 40F60E31 		movw	r1, #2830
 1298 007e 8948     		ldr	r0, .L339+12
 1299 0080 FFF7FEFF 		bl	assert_failed
 1300              	.L179:
 1301 0084 AB68     		ldr	r3, [r5, #8]
 1302 0086 072B     		cmp	r3, #7
 1303 0088 00F2B280 		bhi	.L297
 1304              	.L184:
 1305 008c EB68     		ldr	r3, [r5, #12]
 1306 008e 40F2FF71 		movw	r1, #2047
 1307 0092 864A     		ldr	r2, .L339+20
 1308 0094 8B42     		cmp	r3, r1
 1309 0096 18BF     		it	ne
 1310 0098 9342     		cmpne	r3, r2
 1311 009a 40F0AF80 		bne	.L298
 1312              	.L185:
 1313 009e 2B69     		ldr	r3, [r5, #16]
 1314 00a0 042B     		cmp	r3, #4
 1315 00a2 18BF     		it	ne
 1316 00a4 002B     		cmpne	r3, #0
 1317 00a6 03D0     		beq	.L186
 1318 00a8 013B     		subs	r3, r3, #1
 1319 00aa 022B     		cmp	r3, #2
 1320 00ac 00F2AC80 		bhi	.L299
 1321              	.L186:
 1322 00b0 94F84430 		ldrb	r3, [r4, #68]	@ zero_extendqisi2
 1323 00b4 012B     		cmp	r3, #1
 1324 00b6 00F0AD80 		beq	.L300
 1325 00ba 2268     		ldr	r2, [r4]
 1326 00bc 784B     		ldr	r3, .L339+8
 1327 00be 9A42     		cmp	r2, r3
 1328 00c0 00F0CB80 		beq	.L301
 1329 00c4 6969     		ldr	r1, [r5, #20]
 1330 00c6 D368     		ldr	r3, [r2, #12]
 1331 00c8 03F01C03 		and	r3, r3, #28
 1332 00cc 1C2B     		cmp	r3, #28
 1333 00ce 02D0     		beq	.L192
 1334 00d0 D368     		ldr	r3, [r2, #12]
 1335 00d2 03F01C03 		and	r3, r3, #28
 1336              	.L192:
 1337 00d6 5B08     		lsrs	r3, r3, #1
 1338 00d8 4FF6FF72 		movw	r2, #65535
 1339 00dc 22FA03F3 		lsr	r3, r2, r3
 1340 00e0 9942     		cmp	r1, r3
 1341 00e2 00F2CC80 		bhi	.L302
 1342              	.L190:
 1343 00e6 2B69     		ldr	r3, [r5, #16]
 1344 00e8 042B     		cmp	r3, #4
 1345 00ea 04D0     		beq	.L193
 1346 00ec 94F84430 		ldrb	r3, [r4, #68]	@ zero_extendqisi2
 1347 00f0 012B     		cmp	r3, #1
 1348 00f2 00F0CA80 		beq	.L303
 1349              	.L193:
 1350 00f6 EA68     		ldr	r2, [r5, #12]
ARM GAS  C:\Users\thewo\AppData\Local\Temp\ccRWmotf.s 			page 24


 1351 00f8 6C4B     		ldr	r3, .L339+20
 1352 00fa 9A42     		cmp	r2, r3
 1353 00fc 00F0FA80 		beq	.L194
 1354 0100 2B68     		ldr	r3, [r5]
 1355 0102 6B4A     		ldr	r2, .L339+24
 1356 0104 012B     		cmp	r3, #1
 1357 0106 18BF     		it	ne
 1358 0108 9342     		cmpne	r3, r2
 1359 010a 00F0FF80 		beq	.L195
 1360 010e 694A     		ldr	r2, .L339+28
 1361 0110 9342     		cmp	r3, r2
 1362 0112 00F0FB80 		beq	.L195
 1363 0116 684A     		ldr	r2, .L339+32
 1364 0118 9342     		cmp	r3, r2
 1365 011a 00F0F780 		beq	.L195
 1366 011e 674A     		ldr	r2, .L339+36
 1367 0120 9342     		cmp	r3, r2
 1368 0122 00F0F380 		beq	.L195
 1369 0126 02F18662 		add	r2, r2, #70254592
 1370 012a 1032     		adds	r2, r2, #16
 1371 012c 9342     		cmp	r3, r2
 1372 012e 00F0ED80 		beq	.L195
 1373 0132 634A     		ldr	r2, .L339+40
 1374 0134 9342     		cmp	r3, r2
 1375 0136 00F0E980 		beq	.L195
 1376 013a 02F18662 		add	r2, r2, #70254592
 1377 013e 4032     		adds	r2, r2, #64
 1378 0140 9342     		cmp	r3, r2
 1379 0142 00F0E380 		beq	.L195
 1380 0146 5F4A     		ldr	r2, .L339+44
 1381 0148 9342     		cmp	r3, r2
 1382 014a 00F0DF80 		beq	.L195
 1383 014e 02F18662 		add	r2, r2, #70254592
 1384 0152 02F58072 		add	r2, r2, #256
 1385 0156 9342     		cmp	r3, r2
 1386 0158 00F0D880 		beq	.L195
 1387 015c 5A4A     		ldr	r2, .L339+48
 1388 015e 9342     		cmp	r3, r2
 1389 0160 00F0D480 		beq	.L195
 1390 0164 02F10422 		add	r2, r2, #67109888
 1391 0168 02F54012 		add	r2, r2, #3145728
 1392 016c 9342     		cmp	r3, r2
 1393 016e 00F0CD80 		beq	.L195
 1394 0172 02F18662 		add	r2, r2, #70254592
 1395 0176 02F50062 		add	r2, r2, #2048
 1396 017a 9342     		cmp	r3, r2
 1397 017c 00F0C680 		beq	.L195
 1398 0180 524A     		ldr	r2, .L339+52
 1399 0182 9342     		cmp	r3, r2
 1400 0184 00F0C280 		beq	.L195
 1401 0188 514A     		ldr	r2, .L339+56
 1402 018a 9342     		cmp	r3, r2
 1403 018c 00F0BE80 		beq	.L195
 1404 0190 504A     		ldr	r2, .L339+60
 1405 0192 9342     		cmp	r3, r2
 1406 0194 00F0BA80 		beq	.L195
 1407 0198 4F4A     		ldr	r2, .L339+64
ARM GAS  C:\Users\thewo\AppData\Local\Temp\ccRWmotf.s 			page 25


 1408 019a 9342     		cmp	r3, r2
 1409 019c 00F0B680 		beq	.L195
 1410 01a0 4E4A     		ldr	r2, .L339+68
 1411 01a2 9342     		cmp	r3, r2
 1412 01a4 00F0B280 		beq	.L195
 1413 01a8 4D4A     		ldr	r2, .L339+72
 1414 01aa 9342     		cmp	r3, r2
 1415 01ac 00F0AE80 		beq	.L195
 1416 01b0 4C4A     		ldr	r2, .L339+76
 1417 01b2 9342     		cmp	r3, r2
 1418 01b4 00F0AA80 		beq	.L195
 1419 01b8 4B4A     		ldr	r2, .L339+80
 1420 01ba 9342     		cmp	r3, r2
 1421 01bc 00F0A680 		beq	.L195
 1422 01c0 4A4A     		ldr	r2, .L339+84
 1423 01c2 9342     		cmp	r3, r2
 1424 01c4 00F0A280 		beq	.L195
 1425 01c8 494A     		ldr	r2, .L339+88
 1426 01ca 9342     		cmp	r3, r2
 1427 01cc 00F09E80 		beq	.L195
 1428 01d0 40F62C31 		movw	r1, #2860
 1429 01d4 3348     		ldr	r0, .L339+12
 1430 01d6 FFF7FEFF 		bl	assert_failed
 1431 01da 97E0     		b	.L195
 1432              	.L180:
 1433 01dc B3F5407F 		cmp	r3, #768
 1434 01e0 3FF450AF 		beq	.L179
 1435 01e4 40F20632 		movw	r2, #774
 1436 01e8 9342     		cmp	r3, r2
 1437 01ea 7FF446AF 		bne	.L182
 1438 01ee 49E7     		b	.L179
 1439              	.L297:
 1440 01f0 40F60F31 		movw	r1, #2831
 1441 01f4 2B48     		ldr	r0, .L339+12
 1442 01f6 FFF7FEFF 		bl	assert_failed
 1443 01fa 47E7     		b	.L184
 1444              	.L298:
 1445 01fc 4FF43161 		mov	r1, #2832
 1446 0200 2848     		ldr	r0, .L339+12
 1447 0202 FFF7FEFF 		bl	assert_failed
 1448 0206 4AE7     		b	.L185
 1449              	.L299:
 1450 0208 40F61131 		movw	r1, #2833
 1451 020c 2548     		ldr	r0, .L339+12
 1452 020e FFF7FEFF 		bl	assert_failed
 1453 0212 4DE7     		b	.L186
 1454              	.L300:
 1455 0214 6B69     		ldr	r3, [r5, #20]
 1456 0216 A26C     		ldr	r2, [r4, #72]
 1457 0218 0132     		adds	r2, r2, #1
 1458 021a B3FBF2F1 		udiv	r1, r3, r2
 1459 021e 2268     		ldr	r2, [r4]
 1460 0220 1F4B     		ldr	r3, .L339+8
 1461 0222 9A42     		cmp	r2, r3
 1462 0224 15D0     		beq	.L304
 1463 0226 D368     		ldr	r3, [r2, #12]
 1464 0228 03F01C03 		and	r3, r3, #28
ARM GAS  C:\Users\thewo\AppData\Local\Temp\ccRWmotf.s 			page 26


 1465 022c 1C2B     		cmp	r3, #28
 1466 022e 02D0     		beq	.L189
 1467 0230 D368     		ldr	r3, [r2, #12]
 1468 0232 03F01C03 		and	r3, r3, #28
 1469              	.L189:
 1470 0236 5B08     		lsrs	r3, r3, #1
 1471 0238 4FF6FF72 		movw	r2, #65535
 1472 023c 22FA03F3 		lsr	r3, r2, r3
 1473 0240 9942     		cmp	r1, r3
 1474 0242 7FF650AF 		bls	.L190
 1475 0246 40F61531 		movw	r1, #2837
 1476 024a 1648     		ldr	r0, .L339+12
 1477 024c FFF7FEFF 		bl	assert_failed
 1478 0250 49E7     		b	.L190
 1479              	.L304:
 1480 0252 D368     		ldr	r3, [r2, #12]
 1481 0254 03F01803 		and	r3, r3, #24
 1482 0258 EDE7     		b	.L189
 1483              	.L301:
 1484 025a 6969     		ldr	r1, [r5, #20]
 1485 025c D368     		ldr	r3, [r2, #12]
 1486 025e 03F01803 		and	r3, r3, #24
 1487 0262 9B08     		lsrs	r3, r3, #2
 1488 0264 40F6FF72 		movw	r2, #4095
 1489 0268 22FA03F3 		lsr	r3, r2, r3
 1490 026c 9942     		cmp	r1, r3
 1491 026e 7FF63AAF 		bls	.L190
 1492 0272 40F61C31 		movw	r1, #2844
 1493 0276 0B48     		ldr	r0, .L339+12
 1494 0278 FFF7FEFF 		bl	assert_failed
 1495 027c 33E7     		b	.L190
 1496              	.L302:
 1497 027e 40F62131 		movw	r1, #2849
 1498 0282 0848     		ldr	r0, .L339+12
 1499 0284 FFF7FEFF 		bl	assert_failed
 1500 0288 2DE7     		b	.L190
 1501              	.L303:
 1502 028a 40F62731 		movw	r1, #2855
 1503 028e 0548     		ldr	r0, .L339+12
 1504 0290 FFF7FEFF 		bl	assert_failed
 1505 0294 2FE7     		b	.L193
 1506              	.L340:
 1507 0296 00BF     		.align	2
 1508              	.L339:
 1509 0298 00200240 		.word	1073881088
 1510 029c 00210240 		.word	1073881344
 1511 02a0 00600258 		.word	1476550656
 1512 02a4 00000000 		.word	.LC0
 1513 02a8 41100401 		.word	17043521
 1514 02ac 0000FF47 		.word	1207894016
 1515 02b0 02003004 		.word	70254594
 1516 02b4 04006008 		.word	140509188
 1517 02b8 0800900C 		.word	210763784
 1518 02bc 1000C010 		.word	281018384
 1519 02c0 40002019 		.word	421527616
 1520 02c4 00018021 		.word	562036992
 1521 02c8 0004002A 		.word	704644096
ARM GAS  C:\Users\thewo\AppData\Local\Temp\ccRWmotf.s 			page 27


 1522 02cc 00209036 		.word	915415040
 1523 02d0 0040C03A 		.word	985677824
 1524 02d4 0080F03E 		.word	1055948800
 1525 02d8 00002143 		.word	1126236160
 1526 02dc 00005247 		.word	1196556288
 1527 02e0 0000844B 		.word	1266941952
 1528 02e4 0000B84F 		.word	1337458688
 1529 02e8 000052C7 		.word	-950927360
 1530 02ec 000021C3 		.word	-1021247488
 1531 02f0 000084CB 		.word	-880541696
 1532              	.L194:
 1533 02f4 2268     		ldr	r2, [r4]
 1534 02f6 A04B     		ldr	r3, .L341
 1535 02f8 9A42     		cmp	r2, r3
 1536 02fa 1FD0     		beq	.L305
 1537              	.L196:
 1538 02fc 2268     		ldr	r2, [r4]
 1539 02fe 9F4B     		ldr	r3, .L341+4
 1540 0300 9A42     		cmp	r2, r3
 1541 0302 48D0     		beq	.L306
 1542              	.L197:
 1543 0304 2268     		ldr	r2, [r4]
 1544 0306 9E4B     		ldr	r3, .L341+8
 1545 0308 9A42     		cmp	r2, r3
 1546 030a 6ED0     		beq	.L307
 1547              	.L195:
 1548 030c 94F85C30 		ldrb	r3, [r4, #92]	@ zero_extendqisi2
 1549 0310 012B     		cmp	r3, #1
 1550 0312 00F09A83 		beq	.L255
 1551 0316 0123     		movs	r3, #1
 1552 0318 84F85C30 		strb	r3, [r4, #92]
 1553 031c 2368     		ldr	r3, [r4]
 1554 031e 9A68     		ldr	r2, [r3, #8]
 1555 0320 12F0040F 		tst	r2, #4
 1556 0324 00F09180 		beq	.L199
 1557 0328 236E     		ldr	r3, [r4, #96]
 1558 032a 43F02003 		orr	r3, r3, #32
 1559 032e 2366     		str	r3, [r4, #96]
 1560 0330 0120     		movs	r0, #1
 1561              	.L200:
 1562 0332 0023     		movs	r3, #0
 1563 0334 84F85C30 		strb	r3, [r4, #92]
 1564              	.L198:
 1565 0338 02B0     		add	sp, sp, #8
 1566              		@ sp needed
 1567 033a 70BD     		pop	{r4, r5, r6, pc}
 1568              	.L305:
 1569 033c 2B68     		ldr	r3, [r5]
 1570 033e 9149     		ldr	r1, .L341+12
 1571 0340 914A     		ldr	r2, .L341+16
 1572 0342 8B42     		cmp	r3, r1
 1573 0344 18BF     		it	ne
 1574 0346 9342     		cmpne	r3, r2
 1575 0348 D8D0     		beq	.L196
 1576 034a 904A     		ldr	r2, .L341+20
 1577 034c 9342     		cmp	r3, r2
 1578 034e D5D0     		beq	.L196
ARM GAS  C:\Users\thewo\AppData\Local\Temp\ccRWmotf.s 			page 28


 1579 0350 8F4A     		ldr	r2, .L341+24
 1580 0352 9342     		cmp	r3, r2
 1581 0354 D2D0     		beq	.L196
 1582 0356 02F18662 		add	r2, r2, #70254592
 1583 035a 1032     		adds	r2, r2, #16
 1584 035c 9342     		cmp	r3, r2
 1585 035e CDD0     		beq	.L196
 1586 0360 8C4A     		ldr	r2, .L341+28
 1587 0362 9342     		cmp	r3, r2
 1588 0364 CAD0     		beq	.L196
 1589 0366 02F10422 		add	r2, r2, #67109888
 1590 036a 02F54012 		add	r2, r2, #3145728
 1591 036e 9342     		cmp	r3, r2
 1592 0370 C4D0     		beq	.L196
 1593 0372 02F18662 		add	r2, r2, #70254592
 1594 0376 02F50062 		add	r2, r2, #2048
 1595 037a 9342     		cmp	r3, r2
 1596 037c BED0     		beq	.L196
 1597 037e 864A     		ldr	r2, .L341+32
 1598 0380 9342     		cmp	r3, r2
 1599 0382 BBD0     		beq	.L196
 1600 0384 854A     		ldr	r2, .L341+36
 1601 0386 9342     		cmp	r3, r2
 1602 0388 B8D0     		beq	.L196
 1603 038a 40F63231 		movw	r1, #2866
 1604 038e 8448     		ldr	r0, .L341+40
 1605 0390 FFF7FEFF 		bl	assert_failed
 1606 0394 B2E7     		b	.L196
 1607              	.L306:
 1608 0396 2B68     		ldr	r3, [r5]
 1609 0398 7A49     		ldr	r1, .L341+12
 1610 039a 7B4A     		ldr	r2, .L341+16
 1611 039c 8B42     		cmp	r3, r1
 1612 039e 18BF     		it	ne
 1613 03a0 9342     		cmpne	r3, r2
 1614 03a2 AFD0     		beq	.L197
 1615 03a4 794A     		ldr	r2, .L341+20
 1616 03a6 9342     		cmp	r3, r2
 1617 03a8 ACD0     		beq	.L197
 1618 03aa 794A     		ldr	r2, .L341+24
 1619 03ac 9342     		cmp	r3, r2
 1620 03ae A9D0     		beq	.L197
 1621 03b0 02F18662 		add	r2, r2, #70254592
 1622 03b4 1032     		adds	r2, r2, #16
 1623 03b6 9342     		cmp	r3, r2
 1624 03b8 A4D0     		beq	.L197
 1625 03ba 764A     		ldr	r2, .L341+28
 1626 03bc 9342     		cmp	r3, r2
 1627 03be A1D0     		beq	.L197
 1628 03c0 02F10422 		add	r2, r2, #67109888
 1629 03c4 02F54012 		add	r2, r2, #3145728
 1630 03c8 9342     		cmp	r3, r2
 1631 03ca 9BD0     		beq	.L197
 1632 03cc 02F18662 		add	r2, r2, #70254592
 1633 03d0 02F50062 		add	r2, r2, #2048
 1634 03d4 9342     		cmp	r3, r2
 1635 03d6 95D0     		beq	.L197
ARM GAS  C:\Users\thewo\AppData\Local\Temp\ccRWmotf.s 			page 29


 1636 03d8 704A     		ldr	r2, .L341+36
 1637 03da 9342     		cmp	r3, r2
 1638 03dc 92D0     		beq	.L197
 1639 03de 40F63631 		movw	r1, #2870
 1640 03e2 6F48     		ldr	r0, .L341+40
 1641 03e4 FFF7FEFF 		bl	assert_failed
 1642 03e8 8CE7     		b	.L197
 1643              	.L307:
 1644 03ea 2B68     		ldr	r3, [r5]
 1645 03ec 6549     		ldr	r1, .L341+12
 1646 03ee 664A     		ldr	r2, .L341+16
 1647 03f0 8B42     		cmp	r3, r1
 1648 03f2 18BF     		it	ne
 1649 03f4 9342     		cmpne	r3, r2
 1650 03f6 89D0     		beq	.L195
 1651 03f8 644A     		ldr	r2, .L341+20
 1652 03fa 9342     		cmp	r3, r2
 1653 03fc 86D0     		beq	.L195
 1654 03fe 644A     		ldr	r2, .L341+24
 1655 0400 9342     		cmp	r3, r2
 1656 0402 83D0     		beq	.L195
 1657 0404 02F18662 		add	r2, r2, #70254592
 1658 0408 1032     		adds	r2, r2, #16
 1659 040a 9342     		cmp	r3, r2
 1660 040c 3FF47EAF 		beq	.L195
 1661 0410 604A     		ldr	r2, .L341+28
 1662 0412 9342     		cmp	r3, r2
 1663 0414 3FF47AAF 		beq	.L195
 1664 0418 02F10422 		add	r2, r2, #67109888
 1665 041c 02F54012 		add	r2, r2, #3145728
 1666 0420 9342     		cmp	r3, r2
 1667 0422 3FF473AF 		beq	.L195
 1668 0426 5F4A     		ldr	r2, .L341+44
 1669 0428 9342     		cmp	r3, r2
 1670 042a 3FF46FAF 		beq	.L195
 1671 042e 5E4A     		ldr	r2, .L341+48
 1672 0430 9342     		cmp	r3, r2
 1673 0432 3FF46BAF 		beq	.L195
 1674 0436 5D4A     		ldr	r2, .L341+52
 1675 0438 9342     		cmp	r3, r2
 1676 043a 3FF467AF 		beq	.L195
 1677 043e 40F63C31 		movw	r1, #2876
 1678 0442 5748     		ldr	r0, .L341+40
 1679 0444 FFF7FEFF 		bl	assert_failed
 1680 0448 60E7     		b	.L195
 1681              	.L199:
 1682 044a 2A68     		ldr	r2, [r5]
 1683 044c 002A     		cmp	r2, #0
 1684 044e 0CDB     		blt	.L201
 1685 0450 4B49     		ldr	r1, .L341+8
 1686 0452 8B42     		cmp	r3, r1
 1687 0454 09D0     		beq	.L201
 1688 0456 C2F31301 		ubfx	r1, r2, #0, #20
 1689 045a 59BB     		cbnz	r1, .L202
 1690 045c C2F38462 		ubfx	r2, r2, #26, #5
 1691 0460 0121     		movs	r1, #1
 1692 0462 9140     		lsls	r1, r1, r2
ARM GAS  C:\Users\thewo\AppData\Local\Temp\ccRWmotf.s 			page 30


 1693              	.L203:
 1694 0464 DA69     		ldr	r2, [r3, #28]
 1695 0466 0A43     		orrs	r2, r2, r1
 1696 0468 DA61     		str	r2, [r3, #28]
 1697              	.L201:
 1698 046a 2A68     		ldr	r2, [r5]
 1699 046c 6968     		ldr	r1, [r5, #4]
 1700 046e 2068     		ldr	r0, [r4]
 1701 0470 FFF7FEFF 		bl	LL_ADC_REG_SetSequencerRanks
 1702 0474 2068     		ldr	r0, [r4]
 1703 0476 8668     		ldr	r6, [r0, #8]
 1704 0478 16F00406 		ands	r6, r6, #4
 1705 047c 00D0     		beq	.L205
 1706 047e 0126     		movs	r6, #1
 1707              	.L205:
 1708 0480 8368     		ldr	r3, [r0, #8]
 1709 0482 13F0080F 		tst	r3, #8
 1710 0486 00D1     		bne	.L206
 1711 0488 06B3     		cbz	r6, .L308
 1712              	.L206:
 1713 048a 2068     		ldr	r0, [r4]
 1714 048c 8668     		ldr	r6, [r0, #8]
 1715 048e 16F00106 		ands	r6, r6, #1
 1716 0492 40F0D682 		bne	.L262
 1717 0496 EA68     		ldr	r2, [r5, #12]
 1718 0498 2968     		ldr	r1, [r5]
 1719 049a FFF7FEFF 		bl	LL_ADC_SetChannelSingleDiff
 1720 049e EA68     		ldr	r2, [r5, #12]
 1721 04a0 434B     		ldr	r3, .L341+56
 1722 04a2 9A42     		cmp	r2, r3
 1723 04a4 00F08381 		beq	.L309
 1724              	.L241:
 1725 04a8 2B68     		ldr	r3, [r5]
 1726 04aa 002B     		cmp	r3, #0
 1727 04ac C0F25082 		blt	.L310
 1728 04b0 0020     		movs	r0, #0
 1729 04b2 3EE7     		b	.L200
 1730              	.L202:
 1731              		.syntax unified
 1732              	@ 1055 "Drivers/CMSIS/Include/cmsis_gcc.h" 1
 1733 04b4 92FAA2F2 		rbit r2, r2
 1734              	@ 0 "" 2
 1735              		.thumb
 1736              		.syntax unified
 1737 04b8 32B1     		cbz	r2, .L256
 1738 04ba B2FA82F2 		clz	r2, r2
 1739              	.L204:
 1740 04be 02F01F02 		and	r2, r2, #31
 1741 04c2 0121     		movs	r1, #1
 1742 04c4 9140     		lsls	r1, r1, r2
 1743 04c6 CDE7     		b	.L203
 1744              	.L256:
 1745 04c8 2022     		movs	r2, #32
 1746 04ca F8E7     		b	.L204
 1747              	.L308:
 1748 04cc AA68     		ldr	r2, [r5, #8]
 1749 04ce 2968     		ldr	r1, [r5]
ARM GAS  C:\Users\thewo\AppData\Local\Temp\ccRWmotf.s 			page 31


 1750 04d0 FFF7FEFF 		bl	LL_ADC_SetChannelSamplingTime
 1751 04d4 2068     		ldr	r0, [r4]
 1752 04d6 2A4B     		ldr	r3, .L341+8
 1753 04d8 9842     		cmp	r0, r3
 1754 04da 11D0     		beq	.L311
 1755 04dc 354B     		ldr	r3, .L341+60
 1756 04de 1B68     		ldr	r3, [r3]
 1757 04e0 03F07043 		and	r3, r3, #-268435456
 1758 04e4 B3F1805F 		cmp	r3, #268435456
 1759 04e8 3ED0     		beq	.L312
 1760 04ea C368     		ldr	r3, [r0, #12]
 1761 04ec 13F0100F 		tst	r3, #16
 1762 04f0 62D1     		bne	.L210
 1763 04f2 6B69     		ldr	r3, [r5, #20]
 1764 04f4 C268     		ldr	r2, [r0, #12]
 1765 04f6 C2F38202 		ubfx	r2, r2, #2, #3
 1766 04fa 5200     		lsls	r2, r2, #1
 1767 04fc 9340     		lsls	r3, r3, r2
 1768 04fe 05E0     		b	.L208
 1769              	.L311:
 1770 0500 6B69     		ldr	r3, [r5, #20]
 1771 0502 C268     		ldr	r2, [r0, #12]
 1772 0504 C2F3C102 		ubfx	r2, r2, #3, #2
 1773 0508 5200     		lsls	r2, r2, #1
 1774 050a 9340     		lsls	r3, r3, r2
 1775              	.L208:
 1776 050c 2969     		ldr	r1, [r5, #16]
 1777 050e 0429     		cmp	r1, #4
 1778 0510 5AD1     		bne	.L313
 1779 0512 1B4B     		ldr	r3, .L341+8
 1780 0514 9842     		cmp	r0, r3
 1781 0516 00F0D380 		beq	.L314
 1782 051a 036E     		ldr	r3, [r0, #96]
 1783 051c 03F0F843 		and	r3, r3, #2080374784
 1784 0520 2A68     		ldr	r2, [r5]
 1785 0522 B3EB826F 		cmp	r3, r2, lsl #26
 1786 0526 00F03381 		beq	.L315
 1787              	.L238:
 1788 052a 2268     		ldr	r2, [r4]
 1789 052c 536E     		ldr	r3, [r2, #100]
 1790 052e 03F0F843 		and	r3, r3, #2080374784
 1791 0532 2968     		ldr	r1, [r5]
 1792 0534 B3EB816F 		cmp	r3, r1, lsl #26
 1793 0538 00F02F81 		beq	.L316
 1794              	.L239:
 1795 053c 2268     		ldr	r2, [r4]
 1796 053e 936E     		ldr	r3, [r2, #104]
 1797 0540 03F0F843 		and	r3, r3, #2080374784
 1798 0544 2968     		ldr	r1, [r5]
 1799 0546 B3EB816F 		cmp	r3, r1, lsl #26
 1800 054a 00F02B81 		beq	.L317
 1801              	.L240:
 1802 054e 2268     		ldr	r2, [r4]
 1803 0550 D36E     		ldr	r3, [r2, #108]
 1804 0552 03F0F843 		and	r3, r3, #2080374784
 1805 0556 2968     		ldr	r1, [r5]
 1806 0558 B3EB816F 		cmp	r3, r1, lsl #26
ARM GAS  C:\Users\thewo\AppData\Local\Temp\ccRWmotf.s 			page 32


 1807 055c 95D1     		bne	.L206
 1808 055e D36E     		ldr	r3, [r2, #108]
 1809 0560 23F00043 		bic	r3, r3, #-2147483648
 1810 0564 D366     		str	r3, [r2, #108]
 1811 0566 90E7     		b	.L206
 1812              	.L312:
 1813 0568 6B69     		ldr	r3, [r5, #20]
 1814 056a C268     		ldr	r2, [r0, #12]
 1815 056c C2F38202 		ubfx	r2, r2, #2, #3
 1816 0570 5200     		lsls	r2, r2, #1
 1817 0572 9340     		lsls	r3, r3, r2
 1818 0574 CAE7     		b	.L208
 1819              	.L342:
 1820 0576 00BF     		.align	2
 1821              	.L341:
 1822 0578 00200240 		.word	1073881088
 1823 057c 00210240 		.word	1073881344
 1824 0580 00600258 		.word	1476550656
 1825 0584 02003004 		.word	70254594
 1826 0588 04006008 		.word	140509188
 1827 058c 0800900C 		.word	210763784
 1828 0590 1000C010 		.word	281018384
 1829 0594 0004002A 		.word	704644096
 1830 0598 00002143 		.word	1126236160
 1831 059c 0000844B 		.word	1266941952
 1832 05a0 00000000 		.word	.LC0
 1833 05a4 00209036 		.word	915415040
 1834 05a8 0040C03A 		.word	985677824
 1835 05ac 0080F03E 		.word	1055948800
 1836 05b0 0000FF47 		.word	1207894016
 1837 05b4 0010005C 		.word	1543507968
 1838              	.L210:
 1839 05b8 6B69     		ldr	r3, [r5, #20]
 1840 05ba C268     		ldr	r2, [r0, #12]
 1841 05bc 9208     		lsrs	r2, r2, #2
 1842 05be 02F00402 		and	r2, r2, #4
 1843 05c2 5200     		lsls	r2, r2, #1
 1844 05c4 9340     		lsls	r3, r3, r2
 1845 05c6 A1E7     		b	.L208
 1846              	.L313:
 1847 05c8 2A68     		ldr	r2, [r5]
 1848 05ca FFF7FEFF 		bl	LL_ADC_SetOffset
 1849 05ce 2268     		ldr	r2, [r4]
 1850 05d0 954B     		ldr	r3, .L343
 1851 05d2 9A42     		cmp	r2, r3
 1852 05d4 27D0     		beq	.L318
 1853 05d6 95F82130 		ldrb	r3, [r5, #33]	@ zero_extendqisi2
 1854 05da 012B     		cmp	r3, #1
 1855 05dc 5ED8     		bhi	.L319
 1856              	.L217:
 1857 05de 2368     		ldr	r3, [r4]
 1858 05e0 2869     		ldr	r0, [r5, #16]
 1859 05e2 95F82120 		ldrb	r2, [r5, #33]	@ zero_extendqisi2
 1860 05e6 012A     		cmp	r2, #1
 1861 05e8 5ED0     		beq	.L320
 1862 05ea 3246     		mov	r2, r6
 1863              	.L218:
ARM GAS  C:\Users\thewo\AppData\Local\Temp\ccRWmotf.s 			page 33


 1864 05ec 8E49     		ldr	r1, .L343
 1865 05ee 8B42     		cmp	r3, r1
 1866 05f0 07D0     		beq	.L219
 1867 05f2 6033     		adds	r3, r3, #96
 1868 05f4 53F82010 		ldr	r1, [r3, r0, lsl #2]
 1869 05f8 21F00041 		bic	r1, r1, #-2147483648
 1870 05fc 0A43     		orrs	r2, r2, r1
 1871 05fe 43F82020 		str	r2, [r3, r0, lsl #2]
 1872              	.L219:
 1873 0602 2B7E     		ldrb	r3, [r5, #24]	@ zero_extendqisi2
 1874 0604 012B     		cmp	r3, #1
 1875 0606 52D8     		bhi	.L321
 1876              	.L220:
 1877 0608 2068     		ldr	r0, [r4]
 1878 060a 2969     		ldr	r1, [r5, #16]
 1879 060c 2B7E     		ldrb	r3, [r5, #24]	@ zero_extendqisi2
 1880 060e 012B     		cmp	r3, #1
 1881 0610 53D0     		beq	.L322
 1882              	.L221:
 1883 0612 0269     		ldr	r2, [r0, #16]
 1884 0614 22F4F042 		bic	r2, r2, #30720
 1885 0618 01F01F03 		and	r3, r1, #31
 1886 061c 06FA03F3 		lsl	r3, r6, r3
 1887 0620 1343     		orrs	r3, r3, r2
 1888 0622 0361     		str	r3, [r0, #16]
 1889 0624 31E7     		b	.L206
 1890              	.L318:
 1891 0626 EB69     		ldr	r3, [r5, #28]
 1892 0628 002B     		cmp	r3, #0
 1893 062a 18BF     		it	ne
 1894 062c B3F1807F 		cmpne	r3, #16777216
 1895 0630 1CD1     		bne	.L323
 1896              	.L213:
 1897 0632 95F82030 		ldrb	r3, [r5, #32]	@ zero_extendqisi2
 1898 0636 012B     		cmp	r3, #1
 1899 0638 1ED8     		bhi	.L324
 1900              	.L214:
 1901 063a 2368     		ldr	r3, [r4]
 1902 063c 2869     		ldr	r0, [r5, #16]
 1903 063e E969     		ldr	r1, [r5, #28]
 1904 0640 794A     		ldr	r2, .L343
 1905 0642 9342     		cmp	r3, r2
 1906 0644 1ED0     		beq	.L325
 1907              	.L215:
 1908 0646 2368     		ldr	r3, [r4]
 1909 0648 2969     		ldr	r1, [r5, #16]
 1910 064a 95F82020 		ldrb	r2, [r5, #32]	@ zero_extendqisi2
 1911 064e 012A     		cmp	r2, #1
 1912 0650 21D0     		beq	.L326
 1913              	.L216:
 1914 0652 754A     		ldr	r2, .L343
 1915 0654 9342     		cmp	r3, r2
 1916 0656 7FF418AF 		bne	.L206
 1917 065a 6033     		adds	r3, r3, #96
 1918 065c 53F82120 		ldr	r2, [r3, r1, lsl #2]
 1919 0660 22F00072 		bic	r2, r2, #33554432
 1920 0664 3243     		orrs	r2, r2, r6
ARM GAS  C:\Users\thewo\AppData\Local\Temp\ccRWmotf.s 			page 34


 1921 0666 43F82120 		str	r2, [r3, r1, lsl #2]
 1922 066a 0EE7     		b	.L206
 1923              	.L323:
 1924 066c 40F68131 		movw	r1, #2945
 1925 0670 6E48     		ldr	r0, .L343+4
 1926 0672 FFF7FEFF 		bl	assert_failed
 1927 0676 DCE7     		b	.L213
 1928              	.L324:
 1929 0678 40F68231 		movw	r1, #2946
 1930 067c 6B48     		ldr	r0, .L343+4
 1931 067e FFF7FEFF 		bl	assert_failed
 1932 0682 DAE7     		b	.L214
 1933              	.L325:
 1934 0684 6033     		adds	r3, r3, #96
 1935 0686 53F82020 		ldr	r2, [r3, r0, lsl #2]
 1936 068a 22F08072 		bic	r2, r2, #16777216
 1937 068e 1143     		orrs	r1, r1, r2
 1938 0690 43F82010 		str	r1, [r3, r0, lsl #2]
 1939 0694 D7E7     		b	.L215
 1940              	.L326:
 1941 0696 4FF00076 		mov	r6, #33554432
 1942 069a DAE7     		b	.L216
 1943              	.L319:
 1944 069c 40F68A31 		movw	r1, #2954
 1945 06a0 6248     		ldr	r0, .L343+4
 1946 06a2 FFF7FEFF 		bl	assert_failed
 1947 06a6 9AE7     		b	.L217
 1948              	.L320:
 1949 06a8 4FF00042 		mov	r2, #-2147483648
 1950 06ac 9EE7     		b	.L218
 1951              	.L321:
 1952 06ae 40F68E31 		movw	r1, #2958
 1953 06b2 5E48     		ldr	r0, .L343+4
 1954 06b4 FFF7FEFF 		bl	assert_failed
 1955 06b8 A6E7     		b	.L220
 1956              	.L322:
 1957 06ba 4FF40066 		mov	r6, #2048
 1958 06be A8E7     		b	.L221
 1959              	.L314:
 1960 06c0 036E     		ldr	r3, [r0, #96]
 1961 06c2 026E     		ldr	r2, [r0, #96]
 1962 06c4 C2F38462 		ubfx	r2, r2, #26, #5
 1963 06c8 2B68     		ldr	r3, [r5]
 1964 06ca C3F31301 		ubfx	r1, r3, #0, #20
 1965 06ce 81BB     		cbnz	r1, .L223
 1966 06d0 C3F38463 		ubfx	r3, r3, #26, #5
 1967              	.L224:
 1968 06d4 9A42     		cmp	r2, r3
 1969 06d6 34D0     		beq	.L327
 1970              	.L226:
 1971 06d8 2068     		ldr	r0, [r4]
 1972 06da 436E     		ldr	r3, [r0, #100]
 1973 06dc 426E     		ldr	r2, [r0, #100]
 1974 06de C2F38462 		ubfx	r2, r2, #26, #5
 1975 06e2 2B68     		ldr	r3, [r5]
 1976 06e4 C3F31301 		ubfx	r1, r3, #0, #20
 1977 06e8 81BB     		cbnz	r1, .L227
ARM GAS  C:\Users\thewo\AppData\Local\Temp\ccRWmotf.s 			page 35


 1978 06ea C3F38463 		ubfx	r3, r3, #26, #5
 1979              	.L228:
 1980 06ee 9A42     		cmp	r2, r3
 1981 06f0 34D0     		beq	.L328
 1982              	.L230:
 1983 06f2 2068     		ldr	r0, [r4]
 1984 06f4 836E     		ldr	r3, [r0, #104]
 1985 06f6 826E     		ldr	r2, [r0, #104]
 1986 06f8 C2F38462 		ubfx	r2, r2, #26, #5
 1987 06fc 2B68     		ldr	r3, [r5]
 1988 06fe C3F31301 		ubfx	r1, r3, #0, #20
 1989 0702 81BB     		cbnz	r1, .L231
 1990 0704 C3F38463 		ubfx	r3, r3, #26, #5
 1991              	.L232:
 1992 0708 9A42     		cmp	r2, r3
 1993 070a 34D0     		beq	.L329
 1994              	.L234:
 1995 070c 2068     		ldr	r0, [r4]
 1996 070e C36E     		ldr	r3, [r0, #108]
 1997 0710 C26E     		ldr	r2, [r0, #108]
 1998 0712 C2F38462 		ubfx	r2, r2, #26, #5
 1999 0716 2B68     		ldr	r3, [r5]
 2000 0718 C3F31301 		ubfx	r1, r3, #0, #20
 2001 071c 81BB     		cbnz	r1, .L235
 2002 071e C3F38463 		ubfx	r3, r3, #26, #5
 2003              	.L236:
 2004 0722 9A42     		cmp	r2, r3
 2005 0724 7FF4B1AE 		bne	.L206
 2006 0728 0022     		movs	r2, #0
 2007 072a 0321     		movs	r1, #3
 2008 072c FFF7FEFF 		bl	LL_ADC_SetOffsetState
 2009 0730 ABE6     		b	.L206
 2010              	.L223:
 2011              		.syntax unified
 2012              	@ 1055 "Drivers/CMSIS/Include/cmsis_gcc.h" 1
 2013 0732 93FAA3F3 		rbit r3, r3
 2014              	@ 0 "" 2
 2015              		.thumb
 2016              		.syntax unified
 2017 0736 13B1     		cbz	r3, .L258
 2018 0738 B3FA83F3 		clz	r3, r3
 2019 073c CAE7     		b	.L224
 2020              	.L258:
 2021 073e 2023     		movs	r3, #32
 2022 0740 C8E7     		b	.L224
 2023              	.L327:
 2024 0742 0022     		movs	r2, #0
 2025 0744 1146     		mov	r1, r2
 2026 0746 FFF7FEFF 		bl	LL_ADC_SetOffsetState
 2027 074a C5E7     		b	.L226
 2028              	.L227:
 2029              		.syntax unified
 2030              	@ 1055 "Drivers/CMSIS/Include/cmsis_gcc.h" 1
 2031 074c 93FAA3F3 		rbit r3, r3
 2032              	@ 0 "" 2
 2033              		.thumb
 2034              		.syntax unified
ARM GAS  C:\Users\thewo\AppData\Local\Temp\ccRWmotf.s 			page 36


 2035 0750 13B1     		cbz	r3, .L259
 2036 0752 B3FA83F3 		clz	r3, r3
 2037 0756 CAE7     		b	.L228
 2038              	.L259:
 2039 0758 2023     		movs	r3, #32
 2040 075a C8E7     		b	.L228
 2041              	.L328:
 2042 075c 0022     		movs	r2, #0
 2043 075e 0121     		movs	r1, #1
 2044 0760 FFF7FEFF 		bl	LL_ADC_SetOffsetState
 2045 0764 C5E7     		b	.L230
 2046              	.L231:
 2047              		.syntax unified
 2048              	@ 1055 "Drivers/CMSIS/Include/cmsis_gcc.h" 1
 2049 0766 93FAA3F3 		rbit r3, r3
 2050              	@ 0 "" 2
 2051              		.thumb
 2052              		.syntax unified
 2053 076a 13B1     		cbz	r3, .L260
 2054 076c B3FA83F3 		clz	r3, r3
 2055 0770 CAE7     		b	.L232
 2056              	.L260:
 2057 0772 2023     		movs	r3, #32
 2058 0774 C8E7     		b	.L232
 2059              	.L329:
 2060 0776 0022     		movs	r2, #0
 2061 0778 0221     		movs	r1, #2
 2062 077a FFF7FEFF 		bl	LL_ADC_SetOffsetState
 2063 077e C5E7     		b	.L234
 2064              	.L235:
 2065              		.syntax unified
 2066              	@ 1055 "Drivers/CMSIS/Include/cmsis_gcc.h" 1
 2067 0780 93FAA3F3 		rbit r3, r3
 2068              	@ 0 "" 2
 2069              		.thumb
 2070              		.syntax unified
 2071 0784 13B1     		cbz	r3, .L261
 2072 0786 B3FA83F3 		clz	r3, r3
 2073 078a CAE7     		b	.L236
 2074              	.L261:
 2075 078c 2023     		movs	r3, #32
 2076 078e C8E7     		b	.L236
 2077              	.L315:
 2078 0790 036E     		ldr	r3, [r0, #96]
 2079 0792 23F00043 		bic	r3, r3, #-2147483648
 2080 0796 0366     		str	r3, [r0, #96]
 2081 0798 C7E6     		b	.L238
 2082              	.L316:
 2083 079a 536E     		ldr	r3, [r2, #100]
 2084 079c 23F00043 		bic	r3, r3, #-2147483648
 2085 07a0 5366     		str	r3, [r2, #100]
 2086 07a2 CBE6     		b	.L239
 2087              	.L317:
 2088 07a4 936E     		ldr	r3, [r2, #104]
 2089 07a6 23F00043 		bic	r3, r3, #-2147483648
 2090 07aa 9366     		str	r3, [r2, #104]
 2091 07ac CFE6     		b	.L240
ARM GAS  C:\Users\thewo\AppData\Local\Temp\ccRWmotf.s 			page 37


 2092              	.L309:
 2093 07ae 2068     		ldr	r0, [r4]
 2094 07b0 1F4B     		ldr	r3, .L343+8
 2095 07b2 9842     		cmp	r0, r3
 2096 07b4 09D0     		beq	.L330
 2097 07b6 1F4B     		ldr	r3, .L343+12
 2098 07b8 9842     		cmp	r0, r3
 2099 07ba 4DD0     		beq	.L331
 2100 07bc 1A4B     		ldr	r3, .L343
 2101 07be 9842     		cmp	r0, r3
 2102 07c0 70D0     		beq	.L332
 2103              	.L243:
 2104 07c2 3146     		mov	r1, r6
 2105 07c4 FFF7FEFF 		bl	LL_ADC_SetChannelPreselection
 2106 07c8 6EE6     		b	.L241
 2107              	.L330:
 2108 07ca 2B68     		ldr	r3, [r5]
 2109 07cc 1A4A     		ldr	r2, .L343+16
 2110 07ce 9342     		cmp	r3, r2
 2111 07d0 00F08C80 		beq	.L263
 2112 07d4 194A     		ldr	r2, .L343+20
 2113 07d6 9342     		cmp	r3, r2
 2114 07d8 00F08A80 		beq	.L264
 2115 07dc 184A     		ldr	r2, .L343+24
 2116 07de 9342     		cmp	r3, r2
 2117 07e0 00F08880 		beq	.L265
 2118 07e4 174A     		ldr	r2, .L343+28
 2119 07e6 9342     		cmp	r3, r2
 2120 07e8 00F08680 		beq	.L266
 2121 07ec 02F18662 		add	r2, r2, #70254592
 2122 07f0 1032     		adds	r2, r2, #16
 2123 07f2 9342     		cmp	r3, r2
 2124 07f4 00F08280 		beq	.L267
 2125 07f8 134A     		ldr	r2, .L343+32
 2126 07fa 9342     		cmp	r3, r2
 2127 07fc 00F08080 		beq	.L268
 2128 0800 02F10422 		add	r2, r2, #67109888
 2129 0804 02F54012 		add	r2, r2, #3145728
 2130 0808 9342     		cmp	r3, r2
 2131 080a 7BD0     		beq	.L269
 2132 080c 02F18662 		add	r2, r2, #70254592
 2133 0810 02F50062 		add	r2, r2, #2048
 2134 0814 9342     		cmp	r3, r2
 2135 0816 77D0     		beq	.L270
 2136 0818 0C4A     		ldr	r2, .L343+36
 2137 081a 9342     		cmp	r3, r2
 2138 081c 76D0     		beq	.L271
 2139 081e 0C4A     		ldr	r2, .L343+40
 2140 0820 9342     		cmp	r3, r2
 2141 0822 CED1     		bne	.L243
 2142 0824 0B4E     		ldr	r6, .L343+44
 2143 0826 CCE7     		b	.L243
 2144              	.L344:
 2145              		.align	2
 2146              	.L343:
 2147 0828 00600258 		.word	1476550656
 2148 082c 00000000 		.word	.LC0
ARM GAS  C:\Users\thewo\AppData\Local\Temp\ccRWmotf.s 			page 38


 2149 0830 00200240 		.word	1073881088
 2150 0834 00210240 		.word	1073881344
 2151 0838 02003004 		.word	70254594
 2152 083c 04006008 		.word	140509188
 2153 0840 0800900C 		.word	210763784
 2154 0844 1000C010 		.word	281018384
 2155 0848 0004002A 		.word	704644096
 2156 084c 00002143 		.word	1126236160
 2157 0850 0000844B 		.word	1266941952
 2158 0854 0000B84F 		.word	1337458688
 2159              	.L331:
 2160 0858 2B68     		ldr	r3, [r5]
 2161 085a 7D4A     		ldr	r2, .L345
 2162 085c 9342     		cmp	r3, r2
 2163 085e 57D0     		beq	.L272
 2164 0860 7C4A     		ldr	r2, .L345+4
 2165 0862 9342     		cmp	r3, r2
 2166 0864 56D0     		beq	.L273
 2167 0866 7C4A     		ldr	r2, .L345+8
 2168 0868 9342     		cmp	r3, r2
 2169 086a 55D0     		beq	.L274
 2170 086c 7B4A     		ldr	r2, .L345+12
 2171 086e 9342     		cmp	r3, r2
 2172 0870 54D0     		beq	.L275
 2173 0872 02F18662 		add	r2, r2, #70254592
 2174 0876 1032     		adds	r2, r2, #16
 2175 0878 9342     		cmp	r3, r2
 2176 087a 51D0     		beq	.L276
 2177 087c 784A     		ldr	r2, .L345+16
 2178 087e 9342     		cmp	r3, r2
 2179 0880 50D0     		beq	.L277
 2180 0882 02F10422 		add	r2, r2, #67109888
 2181 0886 02F54012 		add	r2, r2, #3145728
 2182 088a 9342     		cmp	r3, r2
 2183 088c 4CD0     		beq	.L278
 2184 088e 02F18662 		add	r2, r2, #70254592
 2185 0892 02F50062 		add	r2, r2, #2048
 2186 0896 9342     		cmp	r3, r2
 2187 0898 48D0     		beq	.L279
 2188 089a 724A     		ldr	r2, .L345+20
 2189 089c 9342     		cmp	r3, r2
 2190 089e 90D1     		bne	.L243
 2191 08a0 714E     		ldr	r6, .L345+24
 2192 08a2 8EE7     		b	.L243
 2193              	.L332:
 2194 08a4 2B68     		ldr	r3, [r5]
 2195 08a6 6A4A     		ldr	r2, .L345
 2196 08a8 9342     		cmp	r3, r2
 2197 08aa 41D0     		beq	.L280
 2198 08ac 694A     		ldr	r2, .L345+4
 2199 08ae 9342     		cmp	r3, r2
 2200 08b0 40D0     		beq	.L281
 2201 08b2 694A     		ldr	r2, .L345+8
 2202 08b4 9342     		cmp	r3, r2
 2203 08b6 3FD0     		beq	.L282
 2204 08b8 684A     		ldr	r2, .L345+12
 2205 08ba 9342     		cmp	r3, r2
ARM GAS  C:\Users\thewo\AppData\Local\Temp\ccRWmotf.s 			page 39


 2206 08bc 3ED0     		beq	.L283
 2207 08be 02F18662 		add	r2, r2, #70254592
 2208 08c2 1032     		adds	r2, r2, #16
 2209 08c4 9342     		cmp	r3, r2
 2210 08c6 3BD0     		beq	.L284
 2211 08c8 654A     		ldr	r2, .L345+16
 2212 08ca 9342     		cmp	r3, r2
 2213 08cc 3AD0     		beq	.L285
 2214 08ce 02F10422 		add	r2, r2, #67109888
 2215 08d2 02F54012 		add	r2, r2, #3145728
 2216 08d6 9342     		cmp	r3, r2
 2217 08d8 36D0     		beq	.L286
 2218 08da 644A     		ldr	r2, .L345+28
 2219 08dc 9342     		cmp	r3, r2
 2220 08de 35D0     		beq	.L287
 2221 08e0 634A     		ldr	r2, .L345+32
 2222 08e2 9342     		cmp	r3, r2
 2223 08e4 7FF46DAF 		bne	.L243
 2224 08e8 624E     		ldr	r6, .L345+36
 2225 08ea 6AE7     		b	.L243
 2226              	.L263:
 2227 08ec 0126     		movs	r6, #1
 2228 08ee 68E7     		b	.L243
 2229              	.L264:
 2230 08f0 614E     		ldr	r6, .L345+40
 2231 08f2 66E7     		b	.L243
 2232              	.L265:
 2233 08f4 614E     		ldr	r6, .L345+44
 2234 08f6 64E7     		b	.L243
 2235              	.L266:
 2236 08f8 614E     		ldr	r6, .L345+48
 2237 08fa 62E7     		b	.L243
 2238              	.L267:
 2239 08fc 614E     		ldr	r6, .L345+52
 2240 08fe 60E7     		b	.L243
 2241              	.L268:
 2242 0900 614E     		ldr	r6, .L345+56
 2243 0902 5EE7     		b	.L243
 2244              	.L269:
 2245 0904 614E     		ldr	r6, .L345+60
 2246 0906 5CE7     		b	.L243
 2247              	.L270:
 2248 0908 584E     		ldr	r6, .L345+28
 2249 090a 5AE7     		b	.L243
 2250              	.L271:
 2251 090c 604E     		ldr	r6, .L345+64
 2252 090e 58E7     		b	.L243
 2253              	.L272:
 2254 0910 0126     		movs	r6, #1
 2255 0912 56E7     		b	.L243
 2256              	.L273:
 2257 0914 584E     		ldr	r6, .L345+40
 2258 0916 54E7     		b	.L243
 2259              	.L274:
 2260 0918 584E     		ldr	r6, .L345+44
 2261 091a 52E7     		b	.L243
 2262              	.L275:
ARM GAS  C:\Users\thewo\AppData\Local\Temp\ccRWmotf.s 			page 40


 2263 091c 584E     		ldr	r6, .L345+48
 2264 091e 50E7     		b	.L243
 2265              	.L276:
 2266 0920 584E     		ldr	r6, .L345+52
 2267 0922 4EE7     		b	.L243
 2268              	.L277:
 2269 0924 584E     		ldr	r6, .L345+56
 2270 0926 4CE7     		b	.L243
 2271              	.L278:
 2272 0928 584E     		ldr	r6, .L345+60
 2273 092a 4AE7     		b	.L243
 2274              	.L279:
 2275 092c 4F4E     		ldr	r6, .L345+28
 2276 092e 48E7     		b	.L243
 2277              	.L280:
 2278 0930 0126     		movs	r6, #1
 2279 0932 46E7     		b	.L243
 2280              	.L281:
 2281 0934 504E     		ldr	r6, .L345+40
 2282 0936 44E7     		b	.L243
 2283              	.L282:
 2284 0938 504E     		ldr	r6, .L345+44
 2285 093a 42E7     		b	.L243
 2286              	.L283:
 2287 093c 504E     		ldr	r6, .L345+48
 2288 093e 40E7     		b	.L243
 2289              	.L284:
 2290 0940 504E     		ldr	r6, .L345+52
 2291 0942 3EE7     		b	.L243
 2292              	.L285:
 2293 0944 504E     		ldr	r6, .L345+56
 2294 0946 3CE7     		b	.L243
 2295              	.L286:
 2296 0948 504E     		ldr	r6, .L345+60
 2297 094a 3AE7     		b	.L243
 2298              	.L287:
 2299 094c 484E     		ldr	r6, .L345+32
 2300 094e 38E7     		b	.L243
 2301              	.L310:
 2302 0950 2268     		ldr	r2, [r4]
 2303 0952 5049     		ldr	r1, .L345+68
 2304 0954 5048     		ldr	r0, .L345+72
 2305 0956 8242     		cmp	r2, r0
 2306 0958 18BF     		it	ne
 2307 095a 8A42     		cmpne	r2, r1
 2308 095c 0CBF     		ite	eq
 2309 095e 0121     		moveq	r1, #1
 2310 0960 0021     		movne	r1, #0
 2311 0962 18D1     		bne	.L289
 2312 0964 4D4E     		ldr	r6, .L345+76
 2313              	.L245:
 2314 0966 B568     		ldr	r5, [r6, #8]
 2315 0968 05F0E07C 		and	ip, r5, #29360128
 2316 096c A9B1     		cbz	r1, .L246
 2317 096e 4949     		ldr	r1, .L345+68
 2318 0970 8868     		ldr	r0, [r1, #8]
 2319 0972 10F00100 		ands	r0, r0, #1
ARM GAS  C:\Users\thewo\AppData\Local\Temp\ccRWmotf.s 			page 41


 2320 0976 00D0     		beq	.L247
 2321 0978 0120     		movs	r0, #1
 2322              	.L247:
 2323 097a 4749     		ldr	r1, .L345+72
 2324 097c 8968     		ldr	r1, [r1, #8]
 2325 097e 11F00101 		ands	r1, r1, #1
 2326 0982 00D0     		beq	.L248
 2327 0984 0121     		movs	r1, #1
 2328              	.L248:
 2329 0986 0143     		orrs	r1, r1, r0
 2330 0988 0CD0     		beq	.L249
 2331              	.L250:
 2332 098a 236E     		ldr	r3, [r4, #96]
 2333 098c 43F02003 		orr	r3, r3, #32
 2334 0990 2366     		str	r3, [r4, #96]
 2335 0992 0120     		movs	r0, #1
 2336 0994 CDE4     		b	.L200
 2337              	.L289:
 2338 0996 424E     		ldr	r6, .L345+80
 2339 0998 E5E7     		b	.L245
 2340              	.L246:
 2341 099a 4249     		ldr	r1, .L345+84
 2342 099c 8968     		ldr	r1, [r1, #8]
 2343 099e 11F0010F 		tst	r1, #1
 2344 09a2 F2D1     		bne	.L250
 2345              	.L249:
 2346 09a4 4049     		ldr	r1, .L345+88
 2347 09a6 8B42     		cmp	r3, r1
 2348 09a8 07D0     		beq	.L333
 2349              	.L251:
 2350 09aa 4049     		ldr	r1, .L345+92
 2351 09ac 8B42     		cmp	r3, r1
 2352 09ae 26D0     		beq	.L334
 2353              	.L254:
 2354 09b0 3F49     		ldr	r1, .L345+96
 2355 09b2 8B42     		cmp	r3, r1
 2356 09b4 34D0     		beq	.L335
 2357 09b6 0020     		movs	r0, #0
 2358 09b8 BBE4     		b	.L200
 2359              	.L333:
 2360 09ba 15F4000F 		tst	r5, #8388608
 2361 09be F4D1     		bne	.L251
 2362 09c0 384B     		ldr	r3, .L345+84
 2363 09c2 9A42     		cmp	r2, r3
 2364 09c4 01D0     		beq	.L336
 2365 09c6 0020     		movs	r0, #0
 2366 09c8 B3E4     		b	.L200
 2367              	.L336:
 2368 09ca 4CF40003 		orr	r3, ip, #8388608
 2369 09ce B268     		ldr	r2, [r6, #8]
 2370 09d0 22F0E072 		bic	r2, r2, #29360128
 2371 09d4 1343     		orrs	r3, r3, r2
 2372 09d6 B360     		str	r3, [r6, #8]
 2373 09d8 364B     		ldr	r3, .L345+100
 2374 09da 1B68     		ldr	r3, [r3]
 2375 09dc 9B09     		lsrs	r3, r3, #6
 2376 09de 364A     		ldr	r2, .L345+104
ARM GAS  C:\Users\thewo\AppData\Local\Temp\ccRWmotf.s 			page 42


 2377 09e0 A2FB0323 		umull	r2, r3, r2, r3
 2378 09e4 9B09     		lsrs	r3, r3, #6
 2379 09e6 0133     		adds	r3, r3, #1
 2380 09e8 5B00     		lsls	r3, r3, #1
 2381 09ea 0193     		str	r3, [sp, #4]
 2382 09ec 02E0     		b	.L252
 2383              	.L253:
 2384 09ee 019B     		ldr	r3, [sp, #4]
 2385 09f0 013B     		subs	r3, r3, #1
 2386 09f2 0193     		str	r3, [sp, #4]
 2387              	.L252:
 2388 09f4 019B     		ldr	r3, [sp, #4]
 2389 09f6 002B     		cmp	r3, #0
 2390 09f8 F9D1     		bne	.L253
 2391 09fa 0020     		movs	r0, #0
 2392 09fc 99E4     		b	.L200
 2393              	.L334:
 2394 09fe 15F0807F 		tst	r5, #16777216
 2395 0a02 D5D1     		bne	.L254
 2396 0a04 274B     		ldr	r3, .L345+84
 2397 0a06 9A42     		cmp	r2, r3
 2398 0a08 01D0     		beq	.L337
 2399 0a0a 0020     		movs	r0, #0
 2400 0a0c 91E4     		b	.L200
 2401              	.L337:
 2402 0a0e 4CF08073 		orr	r3, ip, #16777216
 2403 0a12 B268     		ldr	r2, [r6, #8]
 2404 0a14 22F0E072 		bic	r2, r2, #29360128
 2405 0a18 1343     		orrs	r3, r3, r2
 2406 0a1a B360     		str	r3, [r6, #8]
 2407 0a1c 0020     		movs	r0, #0
 2408 0a1e 88E4     		b	.L200
 2409              	.L335:
 2410 0a20 15F4800F 		tst	r5, #4194304
 2411 0a24 0FD1     		bne	.L293
 2412 0a26 1F4B     		ldr	r3, .L345+84
 2413 0a28 9A42     		cmp	r2, r3
 2414 0a2a 01D0     		beq	.L338
 2415 0a2c 0020     		movs	r0, #0
 2416 0a2e 80E4     		b	.L200
 2417              	.L338:
 2418 0a30 4CF48003 		orr	r3, ip, #4194304
 2419 0a34 B268     		ldr	r2, [r6, #8]
 2420 0a36 22F0E072 		bic	r2, r2, #29360128
 2421 0a3a 1343     		orrs	r3, r3, r2
 2422 0a3c B360     		str	r3, [r6, #8]
 2423 0a3e 0020     		movs	r0, #0
 2424 0a40 77E4     		b	.L200
 2425              	.L262:
 2426 0a42 0020     		movs	r0, #0
 2427 0a44 75E4     		b	.L200
 2428              	.L293:
 2429 0a46 0020     		movs	r0, #0
 2430 0a48 73E4     		b	.L200
 2431              	.L255:
 2432 0a4a 0220     		movs	r0, #2
 2433 0a4c 74E4     		b	.L198
ARM GAS  C:\Users\thewo\AppData\Local\Temp\ccRWmotf.s 			page 43


 2434              	.L346:
 2435 0a4e 00BF     		.align	2
 2436              	.L345:
 2437 0a50 02003004 		.word	70254594
 2438 0a54 04006008 		.word	140509188
 2439 0a58 0800900C 		.word	210763784
 2440 0a5c 1000C010 		.word	281018384
 2441 0a60 0004002A 		.word	704644096
 2442 0a64 0000844B 		.word	1266941952
 2443 0a68 0000B84F 		.word	1337458688
 2444 0a6c 00209036 		.word	915415040
 2445 0a70 0040C03A 		.word	985677824
 2446 0a74 0080F03E 		.word	1055948800
 2447 0a78 40002019 		.word	421527616
 2448 0a7c 8000501D 		.word	491782272
 2449 0a80 00018021 		.word	562036992
 2450 0a84 0002B025 		.word	632291840
 2451 0a88 0008302E 		.word	774899712
 2452 0a8c 00106032 		.word	845156352
 2453 0a90 00005247 		.word	1196556288
 2454 0a94 00200240 		.word	1073881088
 2455 0a98 00210240 		.word	1073881344
 2456 0a9c 00230240 		.word	1073881856
 2457 0aa0 00630258 		.word	1476551424
 2458 0aa4 00600258 		.word	1476550656
 2459 0aa8 000052C7 		.word	-950927360
 2460 0aac 000021C3 		.word	-1021247488
 2461 0ab0 000084CB 		.word	-880541696
 2462 0ab4 00000000 		.word	SystemCoreClock
 2463 0ab8 632D3E05 		.word	87960931
 2465              		.section	.text.HAL_ADC_AnalogWDGConfig,"ax",%progbits
 2466              		.align	1
 2467              		.global	HAL_ADC_AnalogWDGConfig
 2468              		.syntax unified
 2469              		.thumb
 2470              		.thumb_func
 2472              	HAL_ADC_AnalogWDGConfig:
 2473              		@ args = 0, pretend = 0, frame = 0
 2474              		@ frame_needed = 0, uses_anonymous_args = 0
 2475 0000 70B5     		push	{r4, r5, r6, lr}
 2476 0002 0446     		mov	r4, r0
 2477 0004 0D46     		mov	r5, r1
 2478 0006 0368     		ldr	r3, [r0]
 2479 0008 B049     		ldr	r1, .L463
 2480 000a B14A     		ldr	r2, .L463+4
 2481 000c 8B42     		cmp	r3, r1
 2482 000e 18BF     		it	ne
 2483 0010 9342     		cmpne	r3, r2
 2484 0012 07D0     		beq	.L348
 2485 0014 AF4A     		ldr	r2, .L463+8
 2486 0016 9342     		cmp	r3, r2
 2487 0018 04D0     		beq	.L348
 2488 001a 40F64541 		movw	r1, #3141
 2489 001e AE48     		ldr	r0, .L463+12
 2490 0020 FFF7FEFF 		bl	assert_failed
 2491              	.L348:
 2492 0024 2B68     		ldr	r3, [r5]
ARM GAS  C:\Users\thewo\AppData\Local\Temp\ccRWmotf.s 			page 44


 2493 0026 AD49     		ldr	r1, .L463+16
 2494 0028 AD4A     		ldr	r2, .L463+20
 2495 002a 8B42     		cmp	r3, r1
 2496 002c 18BF     		it	ne
 2497 002e 9342     		cmpne	r3, r2
 2498 0030 04D0     		beq	.L349
 2499 0032 02F58012 		add	r2, r2, #1048576
 2500 0036 9342     		cmp	r3, r2
 2501 0038 40F09C80 		bne	.L435
 2502              	.L349:
 2503 003c 6B68     		ldr	r3, [r5, #4]
 2504 003e 002B     		cmp	r3, #0
 2505 0040 18BF     		it	ne
 2506 0042 B3F5400F 		cmpne	r3, #12582912
 2507 0046 0FD0     		beq	.L350
 2508 0048 B3F1A07F 		cmp	r3, #20971520
 2509 004c 0CD0     		beq	.L350
 2510 004e B3F1E07F 		cmp	r3, #29360128
 2511 0052 09D0     		beq	.L350
 2512 0054 B3F5000F 		cmp	r3, #8388608
 2513 0058 06D0     		beq	.L350
 2514 005a B3F1807F 		cmp	r3, #16777216
 2515 005e 03D0     		beq	.L350
 2516 0060 B3F1C07F 		cmp	r3, #25165824
 2517 0064 40F08C80 		bne	.L436
 2518              	.L350:
 2519 0068 2B7B     		ldrb	r3, [r5, #12]	@ zero_extendqisi2
 2520 006a 012B     		cmp	r3, #1
 2521 006c 00F28E80 		bhi	.L437
 2522              	.L351:
 2523 0070 6B68     		ldr	r3, [r5, #4]
 2524 0072 B3F1A07F 		cmp	r3, #20971520
 2525 0076 18BF     		it	ne
 2526 0078 B3F5400F 		cmpne	r3, #12582912
 2527 007c 00F08C80 		beq	.L352
 2528 0080 B3F1E07F 		cmp	r3, #29360128
 2529 0084 00F08880 		beq	.L352
 2530              	.L353:
 2531 0088 2268     		ldr	r2, [r4]
 2532 008a 924B     		ldr	r3, .L463+8
 2533 008c 9A42     		cmp	r2, r3
 2534 008e 00F0F180 		beq	.L438
 2535 0092 94F84430 		ldrb	r3, [r4, #68]	@ zero_extendqisi2
 2536 0096 012B     		cmp	r3, #1
 2537 0098 00F08881 		beq	.L439
 2538 009c 2969     		ldr	r1, [r5, #16]
 2539 009e D368     		ldr	r3, [r2, #12]
 2540 00a0 03F01C03 		and	r3, r3, #28
 2541 00a4 1C2B     		cmp	r3, #28
 2542 00a6 02D0     		beq	.L368
 2543 00a8 D368     		ldr	r3, [r2, #12]
 2544 00aa 03F01C03 		and	r3, r3, #28
 2545              	.L368:
 2546 00ae 5B08     		lsrs	r3, r3, #1
 2547 00b0 4FF6FF72 		movw	r2, #65535
 2548 00b4 22FA03F3 		lsr	r3, r2, r3
 2549 00b8 9942     		cmp	r1, r3
ARM GAS  C:\Users\thewo\AppData\Local\Temp\ccRWmotf.s 			page 45


 2550 00ba 00F2B481 		bhi	.L440
 2551              	.L369:
 2552 00be 6969     		ldr	r1, [r5, #20]
 2553 00c0 2268     		ldr	r2, [r4]
 2554 00c2 844B     		ldr	r3, .L463+8
 2555 00c4 9A42     		cmp	r2, r3
 2556 00c6 00F0B481 		beq	.L441
 2557 00ca D368     		ldr	r3, [r2, #12]
 2558 00cc 03F01C03 		and	r3, r3, #28
 2559 00d0 1C2B     		cmp	r3, #28
 2560 00d2 02D0     		beq	.L371
 2561 00d4 D368     		ldr	r3, [r2, #12]
 2562 00d6 03F01C03 		and	r3, r3, #28
 2563              	.L371:
 2564 00da 5B08     		lsrs	r3, r3, #1
 2565 00dc 4FF6FF72 		movw	r2, #65535
 2566 00e0 22FA03F3 		lsr	r3, r2, r3
 2567 00e4 9942     		cmp	r1, r3
 2568 00e6 00F2A881 		bhi	.L442
 2569              	.L359:
 2570 00ea 94F85C30 		ldrb	r3, [r4, #92]	@ zero_extendqisi2
 2571 00ee 012B     		cmp	r3, #1
 2572 00f0 00F0A983 		beq	.L429
 2573 00f4 0123     		movs	r3, #1
 2574 00f6 84F85C30 		strb	r3, [r4, #92]
 2575 00fa 2068     		ldr	r0, [r4]
 2576 00fc 8368     		ldr	r3, [r0, #8]
 2577 00fe 13F00403 		ands	r3, r3, #4
 2578 0102 00D0     		beq	.L373
 2579 0104 0123     		movs	r3, #1
 2580              	.L373:
 2581 0106 8268     		ldr	r2, [r0, #8]
 2582 0108 12F0080F 		tst	r2, #8
 2583 010c 40F09283 		bne	.L374
 2584 0110 002B     		cmp	r3, #0
 2585 0112 40F08F83 		bne	.L374
 2586 0116 2968     		ldr	r1, [r5]
 2587 0118 704B     		ldr	r3, .L463+16
 2588 011a 9942     		cmp	r1, r3
 2589 011c 00F09381 		beq	.L443
 2590 0120 6B68     		ldr	r3, [r5, #4]
 2591 0122 B3F1A07F 		cmp	r3, #20971520
 2592 0126 00F0B682 		beq	.L395
 2593 012a 00F26382 		bhi	.L396
 2594 012e B3F5400F 		cmp	r3, #12582912
 2595 0132 00F0B082 		beq	.L395
 2596 0136 B3F1807F 		cmp	r3, #16777216
 2597 013a 03D0     		beq	.L397
 2598 013c B3F5000F 		cmp	r3, #8388608
 2599 0140 40F05F82 		bne	.L398
 2600              	.L397:
 2601 0144 634B     		ldr	r3, .L463+8
 2602 0146 9842     		cmp	r0, r3
 2603 0148 00F0DC82 		beq	.L444
 2604 014c 644B     		ldr	r3, .L463+20
 2605 014e 9942     		cmp	r1, r3
 2606 0150 00F0DC82 		beq	.L445
ARM GAS  C:\Users\thewo\AppData\Local\Temp\ccRWmotf.s 			page 46


 2607 0154 AB68     		ldr	r3, [r5, #8]
 2608 0156 C3F31302 		ubfx	r2, r3, #0, #20
 2609 015a 002A     		cmp	r2, #0
 2610 015c 40F0F082 		bne	.L412
 2611 0160 C3F38463 		ubfx	r3, r3, #26, #5
 2612 0164 0122     		movs	r2, #1
 2613 0166 9A40     		lsls	r2, r2, r3
 2614              	.L413:
 2615 0168 D0F8A430 		ldr	r3, [r0, #164]
 2616 016c 1343     		orrs	r3, r3, r2
 2617 016e C0F8A430 		str	r3, [r0, #164]
 2618 0172 49E2     		b	.L403
 2619              	.L435:
 2620 0174 40F64641 		movw	r1, #3142
 2621 0178 5748     		ldr	r0, .L463+12
 2622 017a FFF7FEFF 		bl	assert_failed
 2623 017e 5DE7     		b	.L349
 2624              	.L436:
 2625 0180 40F64741 		movw	r1, #3143
 2626 0184 5448     		ldr	r0, .L463+12
 2627 0186 FFF7FEFF 		bl	assert_failed
 2628 018a 6DE7     		b	.L350
 2629              	.L437:
 2630 018c 40F64841 		movw	r1, #3144
 2631 0190 5148     		ldr	r0, .L463+12
 2632 0192 FFF7FEFF 		bl	assert_failed
 2633 0196 6BE7     		b	.L351
 2634              	.L352:
 2635 0198 AB68     		ldr	r3, [r5, #8]
 2636 019a 524A     		ldr	r2, .L463+24
 2637 019c 012B     		cmp	r3, #1
 2638 019e 18BF     		it	ne
 2639 01a0 9342     		cmpne	r3, r2
 2640 01a2 3FF471AF 		beq	.L353
 2641 01a6 504A     		ldr	r2, .L463+28
 2642 01a8 9342     		cmp	r3, r2
 2643 01aa 3FF46DAF 		beq	.L353
 2644 01ae 4F4A     		ldr	r2, .L463+32
 2645 01b0 9342     		cmp	r3, r2
 2646 01b2 3FF469AF 		beq	.L353
 2647 01b6 4E4A     		ldr	r2, .L463+36
 2648 01b8 9342     		cmp	r3, r2
 2649 01ba 3FF465AF 		beq	.L353
 2650 01be 02F18662 		add	r2, r2, #70254592
 2651 01c2 1032     		adds	r2, r2, #16
 2652 01c4 9342     		cmp	r3, r2
 2653 01c6 3FF45FAF 		beq	.L353
 2654 01ca 4A4A     		ldr	r2, .L463+40
 2655 01cc 9342     		cmp	r3, r2
 2656 01ce 3FF45BAF 		beq	.L353
 2657 01d2 02F18662 		add	r2, r2, #70254592
 2658 01d6 4032     		adds	r2, r2, #64
 2659 01d8 9342     		cmp	r3, r2
 2660 01da 3FF455AF 		beq	.L353
 2661 01de 464A     		ldr	r2, .L463+44
 2662 01e0 9342     		cmp	r3, r2
 2663 01e2 3FF451AF 		beq	.L353
ARM GAS  C:\Users\thewo\AppData\Local\Temp\ccRWmotf.s 			page 47


 2664 01e6 02F18662 		add	r2, r2, #70254592
 2665 01ea 02F58072 		add	r2, r2, #256
 2666 01ee 9342     		cmp	r3, r2
 2667 01f0 3FF44AAF 		beq	.L353
 2668 01f4 414A     		ldr	r2, .L463+48
 2669 01f6 9342     		cmp	r3, r2
 2670 01f8 3FF446AF 		beq	.L353
 2671 01fc 02F10422 		add	r2, r2, #67109888
 2672 0200 02F54012 		add	r2, r2, #3145728
 2673 0204 9342     		cmp	r3, r2
 2674 0206 3FF43FAF 		beq	.L353
 2675 020a 02F18662 		add	r2, r2, #70254592
 2676 020e 02F50062 		add	r2, r2, #2048
 2677 0212 9342     		cmp	r3, r2
 2678 0214 3FF438AF 		beq	.L353
 2679 0218 394A     		ldr	r2, .L463+52
 2680 021a 9342     		cmp	r3, r2
 2681 021c 3FF434AF 		beq	.L353
 2682 0220 384A     		ldr	r2, .L463+56
 2683 0222 9342     		cmp	r3, r2
 2684 0224 3FF430AF 		beq	.L353
 2685 0228 374A     		ldr	r2, .L463+60
 2686 022a 9342     		cmp	r3, r2
 2687 022c 3FF42CAF 		beq	.L353
 2688 0230 364A     		ldr	r2, .L463+64
 2689 0232 9342     		cmp	r3, r2
 2690 0234 3FF428AF 		beq	.L353
 2691 0238 354A     		ldr	r2, .L463+68
 2692 023a 9342     		cmp	r3, r2
 2693 023c 3FF424AF 		beq	.L353
 2694 0240 344A     		ldr	r2, .L463+72
 2695 0242 9342     		cmp	r3, r2
 2696 0244 3FF420AF 		beq	.L353
 2697 0248 334A     		ldr	r2, .L463+76
 2698 024a 9342     		cmp	r3, r2
 2699 024c 3FF41CAF 		beq	.L353
 2700 0250 324A     		ldr	r2, .L463+80
 2701 0252 9342     		cmp	r3, r2
 2702 0254 3FF418AF 		beq	.L353
 2703 0258 314A     		ldr	r2, .L463+84
 2704 025a 9342     		cmp	r3, r2
 2705 025c 3FF414AF 		beq	.L353
 2706 0260 304A     		ldr	r2, .L463+88
 2707 0262 9342     		cmp	r3, r2
 2708 0264 3FF410AF 		beq	.L353
 2709 0268 40F64E41 		movw	r1, #3150
 2710 026c 1A48     		ldr	r0, .L463+12
 2711 026e FFF7FEFF 		bl	assert_failed
 2712 0272 09E7     		b	.L353
 2713              	.L438:
 2714 0274 94F84430 		ldrb	r3, [r4, #68]	@ zero_extendqisi2
 2715 0278 012B     		cmp	r3, #1
 2716 027a 55D0     		beq	.L446
 2717 027c 2969     		ldr	r1, [r5, #16]
 2718 027e D368     		ldr	r3, [r2, #12]
 2719 0280 03F01803 		and	r3, r3, #24
 2720 0284 9B08     		lsrs	r3, r3, #2
ARM GAS  C:\Users\thewo\AppData\Local\Temp\ccRWmotf.s 			page 48


 2721 0286 40F6FF72 		movw	r2, #4095
 2722 028a 22FA03F3 		lsr	r3, r2, r3
 2723 028e 9942     		cmp	r1, r3
 2724 0290 00F28280 		bhi	.L447
 2725              	.L360:
 2726 0294 6969     		ldr	r1, [r5, #20]
 2727 0296 2268     		ldr	r2, [r4]
 2728 0298 0E4B     		ldr	r3, .L463+8
 2729 029a 9A42     		cmp	r2, r3
 2730 029c 00F08280 		beq	.L448
 2731 02a0 D368     		ldr	r3, [r2, #12]
 2732 02a2 03F01C03 		and	r3, r3, #28
 2733 02a6 1C2B     		cmp	r3, #28
 2734 02a8 02D0     		beq	.L362
 2735 02aa D368     		ldr	r3, [r2, #12]
 2736 02ac 03F01C03 		and	r3, r3, #28
 2737              	.L362:
 2738 02b0 9B08     		lsrs	r3, r3, #2
 2739 02b2 40F6FF72 		movw	r2, #4095
 2740 02b6 22FA03F3 		lsr	r3, r2, r3
 2741 02ba 9942     		cmp	r1, r3
 2742 02bc 7FF615AF 		bls	.L359
 2743 02c0 40F66141 		movw	r1, #3169
 2744 02c4 0448     		ldr	r0, .L463+12
 2745 02c6 FFF7FEFF 		bl	assert_failed
 2746 02ca 0EE7     		b	.L359
 2747              	.L464:
 2748              		.align	2
 2749              	.L463:
 2750 02cc 00200240 		.word	1073881088
 2751 02d0 00210240 		.word	1073881344
 2752 02d4 00600258 		.word	1476550656
 2753 02d8 00000000 		.word	.LC0
 2754 02dc 0000C07D 		.word	2109734912
 2755 02e0 FFFF1F00 		.word	2097151
 2756 02e4 02003004 		.word	70254594
 2757 02e8 04006008 		.word	140509188
 2758 02ec 0800900C 		.word	210763784
 2759 02f0 1000C010 		.word	281018384
 2760 02f4 40002019 		.word	421527616
 2761 02f8 00018021 		.word	562036992
 2762 02fc 0004002A 		.word	704644096
 2763 0300 00209036 		.word	915415040
 2764 0304 0040C03A 		.word	985677824
 2765 0308 0080F03E 		.word	1055948800
 2766 030c 00002143 		.word	1126236160
 2767 0310 00005247 		.word	1196556288
 2768 0314 0000844B 		.word	1266941952
 2769 0318 0000B84F 		.word	1337458688
 2770 031c 000052C7 		.word	-950927360
 2771 0320 000021C3 		.word	-1021247488
 2772 0324 000084CB 		.word	-880541696
 2773              	.L446:
 2774 0328 2B69     		ldr	r3, [r5, #16]
 2775 032a A16C     		ldr	r1, [r4, #72]
 2776 032c 0131     		adds	r1, r1, #1
 2777 032e B3FBF1F1 		udiv	r1, r3, r1
ARM GAS  C:\Users\thewo\AppData\Local\Temp\ccRWmotf.s 			page 49


 2778 0332 D368     		ldr	r3, [r2, #12]
 2779 0334 03F01803 		and	r3, r3, #24
 2780 0338 9B08     		lsrs	r3, r3, #2
 2781 033a 40F6FF72 		movw	r2, #4095
 2782 033e 22FA03F3 		lsr	r3, r2, r3
 2783 0342 9942     		cmp	r1, r3
 2784 0344 1ED8     		bhi	.L449
 2785              	.L356:
 2786 0346 6B69     		ldr	r3, [r5, #20]
 2787 0348 A26C     		ldr	r2, [r4, #72]
 2788 034a 0132     		adds	r2, r2, #1
 2789 034c B3FBF2F1 		udiv	r1, r3, r2
 2790 0350 2268     		ldr	r2, [r4]
 2791 0352 A44B     		ldr	r3, .L465
 2792 0354 9A42     		cmp	r2, r3
 2793 0356 1BD0     		beq	.L450
 2794 0358 D368     		ldr	r3, [r2, #12]
 2795 035a 03F01C03 		and	r3, r3, #28
 2796 035e 1C2B     		cmp	r3, #28
 2797 0360 02D0     		beq	.L358
 2798 0362 D368     		ldr	r3, [r2, #12]
 2799 0364 03F01C03 		and	r3, r3, #28
 2800              	.L358:
 2801 0368 9B08     		lsrs	r3, r3, #2
 2802 036a 40F6FF72 		movw	r2, #4095
 2803 036e 22FA03F3 		lsr	r3, r2, r3
 2804 0372 9942     		cmp	r1, r3
 2805 0374 7FF6B9AE 		bls	.L359
 2806 0378 40F65B41 		movw	r1, #3163
 2807 037c 9A48     		ldr	r0, .L465+4
 2808 037e FFF7FEFF 		bl	assert_failed
 2809 0382 B2E6     		b	.L359
 2810              	.L449:
 2811 0384 40F65A41 		movw	r1, #3162
 2812 0388 9748     		ldr	r0, .L465+4
 2813 038a FFF7FEFF 		bl	assert_failed
 2814 038e DAE7     		b	.L356
 2815              	.L450:
 2816 0390 D368     		ldr	r3, [r2, #12]
 2817 0392 03F01803 		and	r3, r3, #24
 2818 0396 E7E7     		b	.L358
 2819              	.L447:
 2820 0398 4FF44661 		mov	r1, #3168
 2821 039c 9248     		ldr	r0, .L465+4
 2822 039e FFF7FEFF 		bl	assert_failed
 2823 03a2 77E7     		b	.L360
 2824              	.L448:
 2825 03a4 D368     		ldr	r3, [r2, #12]
 2826 03a6 03F01803 		and	r3, r3, #24
 2827 03aa 81E7     		b	.L362
 2828              	.L439:
 2829 03ac 2B69     		ldr	r3, [r5, #16]
 2830 03ae A16C     		ldr	r1, [r4, #72]
 2831 03b0 0131     		adds	r1, r1, #1
 2832 03b2 B3FBF1F1 		udiv	r1, r3, r1
 2833 03b6 D368     		ldr	r3, [r2, #12]
 2834 03b8 03F01C03 		and	r3, r3, #28
ARM GAS  C:\Users\thewo\AppData\Local\Temp\ccRWmotf.s 			page 50


 2835 03bc 1C2B     		cmp	r3, #28
 2836 03be 02D0     		beq	.L364
 2837 03c0 D368     		ldr	r3, [r2, #12]
 2838 03c2 03F01C03 		and	r3, r3, #28
 2839              	.L364:
 2840 03c6 5B08     		lsrs	r3, r3, #1
 2841 03c8 4FF6FF72 		movw	r2, #65535
 2842 03cc 22FA03F3 		lsr	r3, r2, r3
 2843 03d0 9942     		cmp	r1, r3
 2844 03d2 1ED8     		bhi	.L451
 2845              	.L365:
 2846 03d4 6B69     		ldr	r3, [r5, #20]
 2847 03d6 A26C     		ldr	r2, [r4, #72]
 2848 03d8 0132     		adds	r2, r2, #1
 2849 03da B3FBF2F1 		udiv	r1, r3, r2
 2850 03de 2268     		ldr	r2, [r4]
 2851 03e0 804B     		ldr	r3, .L465
 2852 03e2 9A42     		cmp	r2, r3
 2853 03e4 1BD0     		beq	.L452
 2854 03e6 D368     		ldr	r3, [r2, #12]
 2855 03e8 03F01C03 		and	r3, r3, #28
 2856 03ec 1C2B     		cmp	r3, #28
 2857 03ee 02D0     		beq	.L367
 2858 03f0 D368     		ldr	r3, [r2, #12]
 2859 03f2 03F01C03 		and	r3, r3, #28
 2860              	.L367:
 2861 03f6 5B08     		lsrs	r3, r3, #1
 2862 03f8 4FF6FF72 		movw	r2, #65535
 2863 03fc 22FA03F3 		lsr	r3, r2, r3
 2864 0400 9942     		cmp	r1, r3
 2865 0402 7FF672AE 		bls	.L359
 2866 0406 40F66D41 		movw	r1, #3181
 2867 040a 7748     		ldr	r0, .L465+4
 2868 040c FFF7FEFF 		bl	assert_failed
 2869 0410 6BE6     		b	.L359
 2870              	.L451:
 2871 0412 40F66C41 		movw	r1, #3180
 2872 0416 7448     		ldr	r0, .L465+4
 2873 0418 FFF7FEFF 		bl	assert_failed
 2874 041c DAE7     		b	.L365
 2875              	.L452:
 2876 041e D368     		ldr	r3, [r2, #12]
 2877 0420 03F01803 		and	r3, r3, #24
 2878 0424 E7E7     		b	.L367
 2879              	.L440:
 2880 0426 40F67241 		movw	r1, #3186
 2881 042a 6F48     		ldr	r0, .L465+4
 2882 042c FFF7FEFF 		bl	assert_failed
 2883 0430 45E6     		b	.L369
 2884              	.L441:
 2885 0432 D368     		ldr	r3, [r2, #12]
 2886 0434 03F01803 		and	r3, r3, #24
 2887 0438 4FE6     		b	.L371
 2888              	.L442:
 2889 043a 40F67341 		movw	r1, #3187
 2890 043e 6A48     		ldr	r0, .L465+4
 2891 0440 FFF7FEFF 		bl	assert_failed
ARM GAS  C:\Users\thewo\AppData\Local\Temp\ccRWmotf.s 			page 51


 2892 0444 51E6     		b	.L359
 2893              	.L443:
 2894 0446 6B68     		ldr	r3, [r5, #4]
 2895 0448 B3F1A07F 		cmp	r3, #20971520
 2896 044c 3ED0     		beq	.L376
 2897 044e 0FD8     		bhi	.L377
 2898 0450 B3F5400F 		cmp	r3, #12582912
 2899 0454 1DD0     		beq	.L378
 2900 0456 B3F1807F 		cmp	r3, #16777216
 2901 045a 42D0     		beq	.L379
 2902 045c B3F5000F 		cmp	r3, #8388608
 2903 0460 4DD1     		bne	.L381
 2904 0462 C268     		ldr	r2, [r0, #12]
 2905 0464 614B     		ldr	r3, .L465+8
 2906 0466 1340     		ands	r3, r3, r2
 2907 0468 43F40003 		orr	r3, r3, #8388608
 2908 046c C360     		str	r3, [r0, #12]
 2909 046e 1AE0     		b	.L384
 2910              	.L377:
 2911 0470 B3F1C07F 		cmp	r3, #25165824
 2912 0474 3CD0     		beq	.L382
 2913 0476 B3F1E07F 		cmp	r3, #29360128
 2914 047a 40D1     		bne	.L381
 2915 047c AA68     		ldr	r2, [r5, #8]
 2916 047e C168     		ldr	r1, [r0, #12]
 2917 0480 5A4B     		ldr	r3, .L465+8
 2918 0482 0B40     		ands	r3, r3, r1
 2919 0484 02F0F842 		and	r2, r2, #2080374784
 2920 0488 42F0E072 		orr	r2, r2, #29360128
 2921 048c 1343     		orrs	r3, r3, r2
 2922 048e C360     		str	r3, [r0, #12]
 2923 0490 09E0     		b	.L384
 2924              	.L378:
 2925 0492 AA68     		ldr	r2, [r5, #8]
 2926 0494 C168     		ldr	r1, [r0, #12]
 2927 0496 554B     		ldr	r3, .L465+8
 2928 0498 0B40     		ands	r3, r3, r1
 2929 049a 02F0F842 		and	r2, r2, #2080374784
 2930 049e 42F44002 		orr	r2, r2, #12582912
 2931 04a2 1343     		orrs	r3, r3, r2
 2932 04a4 C360     		str	r3, [r0, #12]
 2933              	.L384:
 2934 04a6 524B     		ldr	r3, .L465+12
 2935 04a8 1B68     		ldr	r3, [r3]
 2936 04aa 03F07043 		and	r3, r3, #-268435456
 2937 04ae B3F1805F 		cmp	r3, #268435456
 2938 04b2 29D0     		beq	.L453
 2939 04b4 2368     		ldr	r3, [r4]
 2940 04b6 DA68     		ldr	r2, [r3, #12]
 2941 04b8 12F0100F 		tst	r2, #16
 2942 04bc 3ED1     		bne	.L387
 2943 04be 2869     		ldr	r0, [r5, #16]
 2944 04c0 DB68     		ldr	r3, [r3, #12]
 2945 04c2 C3F38203 		ubfx	r3, r3, #2, #3
 2946 04c6 5B00     		lsls	r3, r3, #1
 2947 04c8 9840     		lsls	r0, r0, r3
 2948 04ca 24E0     		b	.L386
ARM GAS  C:\Users\thewo\AppData\Local\Temp\ccRWmotf.s 			page 52


 2949              	.L376:
 2950 04cc AA68     		ldr	r2, [r5, #8]
 2951 04ce C168     		ldr	r1, [r0, #12]
 2952 04d0 464B     		ldr	r3, .L465+8
 2953 04d2 0B40     		ands	r3, r3, r1
 2954 04d4 02F0F842 		and	r2, r2, #2080374784
 2955 04d8 42F0A072 		orr	r2, r2, #20971520
 2956 04dc 1343     		orrs	r3, r3, r2
 2957 04de C360     		str	r3, [r0, #12]
 2958 04e0 E1E7     		b	.L384
 2959              	.L379:
 2960 04e2 C268     		ldr	r2, [r0, #12]
 2961 04e4 414B     		ldr	r3, .L465+8
 2962 04e6 1340     		ands	r3, r3, r2
 2963 04e8 43F08073 		orr	r3, r3, #16777216
 2964 04ec C360     		str	r3, [r0, #12]
 2965 04ee DAE7     		b	.L384
 2966              	.L382:
 2967 04f0 C268     		ldr	r2, [r0, #12]
 2968 04f2 3E4B     		ldr	r3, .L465+8
 2969 04f4 1340     		ands	r3, r3, r2
 2970 04f6 43F0C073 		orr	r3, r3, #25165824
 2971 04fa C360     		str	r3, [r0, #12]
 2972 04fc D3E7     		b	.L384
 2973              	.L381:
 2974 04fe C268     		ldr	r2, [r0, #12]
 2975 0500 3A4B     		ldr	r3, .L465+8
 2976 0502 1340     		ands	r3, r3, r2
 2977 0504 C360     		str	r3, [r0, #12]
 2978 0506 CEE7     		b	.L384
 2979              	.L453:
 2980 0508 2869     		ldr	r0, [r5, #16]
 2981 050a 2368     		ldr	r3, [r4]
 2982 050c DB68     		ldr	r3, [r3, #12]
 2983 050e C3F38203 		ubfx	r3, r3, #2, #3
 2984 0512 5B00     		lsls	r3, r3, #1
 2985 0514 9840     		lsls	r0, r0, r3
 2986              	.L386:
 2987 0516 364B     		ldr	r3, .L465+12
 2988 0518 1B68     		ldr	r3, [r3]
 2989 051a 03F07043 		and	r3, r3, #-268435456
 2990 051e B3F1805F 		cmp	r3, #268435456
 2991 0522 13D0     		beq	.L454
 2992 0524 2168     		ldr	r1, [r4]
 2993 0526 CB68     		ldr	r3, [r1, #12]
 2994 0528 13F0100F 		tst	r3, #16
 2995 052c 35D1     		bne	.L390
 2996 052e 6B69     		ldr	r3, [r5, #20]
 2997 0530 CA68     		ldr	r2, [r1, #12]
 2998 0532 C2F38202 		ubfx	r2, r2, #2, #3
 2999 0536 5200     		lsls	r2, r2, #1
 3000 0538 9340     		lsls	r3, r3, r2
 3001 053a 0EE0     		b	.L389
 3002              	.L387:
 3003 053c 2869     		ldr	r0, [r5, #16]
 3004 053e DB68     		ldr	r3, [r3, #12]
 3005 0540 9B08     		lsrs	r3, r3, #2
ARM GAS  C:\Users\thewo\AppData\Local\Temp\ccRWmotf.s 			page 53


 3006 0542 03F00403 		and	r3, r3, #4
 3007 0546 5B00     		lsls	r3, r3, #1
 3008 0548 9840     		lsls	r0, r0, r3
 3009 054a E4E7     		b	.L386
 3010              	.L454:
 3011 054c 6B69     		ldr	r3, [r5, #20]
 3012 054e 2268     		ldr	r2, [r4]
 3013 0550 D268     		ldr	r2, [r2, #12]
 3014 0552 C2F38202 		ubfx	r2, r2, #2, #3
 3015 0556 5200     		lsls	r2, r2, #1
 3016 0558 9340     		lsls	r3, r3, r2
 3017              	.L389:
 3018 055a 2168     		ldr	r1, [r4]
 3019 055c 214A     		ldr	r2, .L465
 3020 055e 9142     		cmp	r1, r2
 3021 0560 24D0     		beq	.L455
 3022 0562 0A6A     		ldr	r2, [r1, #32]
 3023 0564 02F07C42 		and	r2, r2, #-67108864
 3024 0568 1343     		orrs	r3, r3, r2
 3025 056a 0B62     		str	r3, [r1, #32]
 3026 056c 2268     		ldr	r2, [r4]
 3027 056e 536A     		ldr	r3, [r2, #36]
 3028 0570 03F07C43 		and	r3, r3, #-67108864
 3029 0574 0343     		orrs	r3, r3, r0
 3030 0576 5362     		str	r3, [r2, #36]
 3031              	.L392:
 3032 0578 236E     		ldr	r3, [r4, #96]
 3033 057a 23F48033 		bic	r3, r3, #65536
 3034 057e 2366     		str	r3, [r4, #96]
 3035 0580 2368     		ldr	r3, [r4]
 3036 0582 8022     		movs	r2, #128
 3037 0584 1A60     		str	r2, [r3]
 3038 0586 2B7B     		ldrb	r3, [r5, #12]	@ zero_extendqisi2
 3039 0588 012B     		cmp	r3, #1
 3040 058a 23D0     		beq	.L456
 3041 058c 2268     		ldr	r2, [r4]
 3042 058e 5368     		ldr	r3, [r2, #4]
 3043 0590 23F08003 		bic	r3, r3, #128
 3044 0594 5360     		str	r3, [r2, #4]
 3045 0596 0020     		movs	r0, #0
 3046 0598 51E1     		b	.L394
 3047              	.L390:
 3048 059a 6A69     		ldr	r2, [r5, #20]
 3049 059c CB68     		ldr	r3, [r1, #12]
 3050 059e 9B08     		lsrs	r3, r3, #2
 3051 05a0 03F00403 		and	r3, r3, #4
 3052 05a4 5B00     		lsls	r3, r3, #1
 3053 05a6 02FA03F3 		lsl	r3, r2, r3
 3054 05aa D6E7     		b	.L389
 3055              	.L455:
 3056 05ac 0A6A     		ldr	r2, [r1, #32]
 3057 05ae 22F4E042 		bic	r2, r2, #28672
 3058 05b2 AE69     		ldr	r6, [r5, #24]
 3059 05b4 3243     		orrs	r2, r2, r6
 3060 05b6 0A62     		str	r2, [r1, #32]
 3061 05b8 2168     		ldr	r1, [r4]
 3062 05ba 0A6A     		ldr	r2, [r1, #32]
ARM GAS  C:\Users\thewo\AppData\Local\Temp\ccRWmotf.s 			page 54


 3063 05bc 6FF30B02 		bfc	r2, #0, #12
 3064 05c0 1343     		orrs	r3, r3, r2
 3065 05c2 0B62     		str	r3, [r1, #32]
 3066 05c4 2268     		ldr	r2, [r4]
 3067 05c6 136A     		ldr	r3, [r2, #32]
 3068 05c8 6FF31B43 		bfc	r3, #16, #12
 3069 05cc 43EA0043 		orr	r3, r3, r0, lsl #16
 3070 05d0 1362     		str	r3, [r2, #32]
 3071 05d2 D1E7     		b	.L392
 3072              	.L456:
 3073 05d4 2268     		ldr	r2, [r4]
 3074 05d6 5368     		ldr	r3, [r2, #4]
 3075 05d8 43F08003 		orr	r3, r3, #128
 3076 05dc 5360     		str	r3, [r2, #4]
 3077 05de 0020     		movs	r0, #0
 3078 05e0 2DE1     		b	.L394
 3079              	.L466:
 3080 05e2 00BF     		.align	2
 3081              	.L465:
 3082 05e4 00600258 		.word	1476550656
 3083 05e8 00000000 		.word	.LC0
 3084 05ec FFFF3F82 		.word	-2109734913
 3085 05f0 0010005C 		.word	1543507968
 3086              	.L396:
 3087 05f4 B3F1C07F 		cmp	r3, #25165824
 3088 05f8 3FF4A4AD 		beq	.L397
 3089 05fc B3F1E07F 		cmp	r3, #29360128
 3090 0600 49D0     		beq	.L395
 3091              	.L398:
 3092 0602 0022     		movs	r2, #0
 3093 0604 FFF7FEFF 		bl	LL_ADC_SetAnalogWDMonitChannels
 3094              	.L403:
 3095 0608 2068     		ldr	r0, [r4]
 3096 060a C368     		ldr	r3, [r0, #12]
 3097 060c 13F0100F 		tst	r3, #16
 3098 0610 40F0A280 		bne	.L415
 3099 0614 2A69     		ldr	r2, [r5, #16]
 3100 0616 C368     		ldr	r3, [r0, #12]
 3101 0618 C3F38203 		ubfx	r3, r3, #2, #3
 3102 061c 5B00     		lsls	r3, r3, #1
 3103 061e 9A40     		lsls	r2, r2, r3
 3104              	.L416:
 3105 0620 C368     		ldr	r3, [r0, #12]
 3106 0622 13F0100F 		tst	r3, #16
 3107 0626 40F09F80 		bne	.L417
 3108 062a 6B69     		ldr	r3, [r5, #20]
 3109 062c C168     		ldr	r1, [r0, #12]
 3110 062e C1F38201 		ubfx	r1, r1, #2, #3
 3111 0632 4900     		lsls	r1, r1, #1
 3112 0634 8B40     		lsls	r3, r3, r1
 3113              	.L418:
 3114 0636 8549     		ldr	r1, .L467
 3115 0638 8842     		cmp	r0, r1
 3116 063a 00F09D80 		beq	.L457
 3117 063e 8449     		ldr	r1, .L467+4
 3118 0640 2E68     		ldr	r6, [r5]
 3119 0642 8E42     		cmp	r6, r1
ARM GAS  C:\Users\thewo\AppData\Local\Temp\ccRWmotf.s 			page 55


 3120 0644 00F0C680 		beq	.L458
 3121 0648 D0F8B810 		ldr	r1, [r0, #184]
 3122 064c 01F07C41 		and	r1, r1, #-67108864
 3123 0650 1943     		orrs	r1, r1, r3
 3124 0652 C0F8B810 		str	r1, [r0, #184]
 3125 0656 2168     		ldr	r1, [r4]
 3126 0658 D1F8BC30 		ldr	r3, [r1, #188]
 3127 065c 03F07C43 		and	r3, r3, #-67108864
 3128 0660 1343     		orrs	r3, r3, r2
 3129 0662 C1F8BC30 		str	r3, [r1, #188]
 3130              	.L424:
 3131 0666 2A68     		ldr	r2, [r5]
 3132 0668 794B     		ldr	r3, .L467+4
 3133 066a 9A42     		cmp	r2, r3
 3134 066c 00F0C280 		beq	.L459
 3135 0670 236E     		ldr	r3, [r4, #96]
 3136 0672 23F48023 		bic	r3, r3, #262144
 3137 0676 2366     		str	r3, [r4, #96]
 3138 0678 2368     		ldr	r3, [r4]
 3139 067a 4FF40072 		mov	r2, #512
 3140 067e 1A60     		str	r2, [r3]
 3141 0680 2B7B     		ldrb	r3, [r5, #12]	@ zero_extendqisi2
 3142 0682 012B     		cmp	r3, #1
 3143 0684 00F0CF80 		beq	.L460
 3144 0688 2268     		ldr	r2, [r4]
 3145 068a 5368     		ldr	r3, [r2, #4]
 3146 068c 23F40073 		bic	r3, r3, #512
 3147 0690 5360     		str	r3, [r2, #4]
 3148 0692 0020     		movs	r0, #0
 3149 0694 D3E0     		b	.L394
 3150              	.L395:
 3151 0696 6E4B     		ldr	r3, .L467+4
 3152 0698 9942     		cmp	r1, r3
 3153 069a 0DD0     		beq	.L461
 3154 069c AB68     		ldr	r3, [r5, #8]
 3155 069e C3F31302 		ubfx	r2, r3, #0, #20
 3156 06a2 1ABB     		cbnz	r2, .L404
 3157 06a4 C3F38463 		ubfx	r3, r3, #26, #5
 3158 06a8 0122     		movs	r2, #1
 3159 06aa 9A40     		lsls	r2, r2, r3
 3160              	.L405:
 3161 06ac D0F8A430 		ldr	r3, [r0, #164]
 3162 06b0 1343     		orrs	r3, r3, r2
 3163 06b2 C0F8A430 		str	r3, [r0, #164]
 3164 06b6 A7E7     		b	.L403
 3165              	.L461:
 3166 06b8 AB68     		ldr	r3, [r5, #8]
 3167 06ba C3F31302 		ubfx	r2, r3, #0, #20
 3168 06be 4AB9     		cbnz	r2, .L400
 3169 06c0 C3F38463 		ubfx	r3, r3, #26, #5
 3170 06c4 0122     		movs	r2, #1
 3171 06c6 9A40     		lsls	r2, r2, r3
 3172              	.L401:
 3173 06c8 D0F8A030 		ldr	r3, [r0, #160]
 3174 06cc 1343     		orrs	r3, r3, r2
 3175 06ce C0F8A030 		str	r3, [r0, #160]
 3176 06d2 99E7     		b	.L403
ARM GAS  C:\Users\thewo\AppData\Local\Temp\ccRWmotf.s 			page 56


 3177              	.L400:
 3178              		.syntax unified
 3179              	@ 1055 "Drivers/CMSIS/Include/cmsis_gcc.h" 1
 3180 06d4 93FAA3F3 		rbit r3, r3
 3181              	@ 0 "" 2
 3182              		.thumb
 3183              		.syntax unified
 3184 06d8 33B1     		cbz	r3, .L430
 3185 06da B3FA83F3 		clz	r3, r3
 3186              	.L402:
 3187 06de 03F01F03 		and	r3, r3, #31
 3188 06e2 0122     		movs	r2, #1
 3189 06e4 9A40     		lsls	r2, r2, r3
 3190 06e6 EFE7     		b	.L401
 3191              	.L430:
 3192 06e8 2023     		movs	r3, #32
 3193 06ea F8E7     		b	.L402
 3194              	.L404:
 3195              		.syntax unified
 3196              	@ 1055 "Drivers/CMSIS/Include/cmsis_gcc.h" 1
 3197 06ec 93FAA3F3 		rbit r3, r3
 3198              	@ 0 "" 2
 3199              		.thumb
 3200              		.syntax unified
 3201 06f0 33B1     		cbz	r3, .L431
 3202 06f2 B3FA83F3 		clz	r3, r3
 3203              	.L406:
 3204 06f6 03F01F03 		and	r3, r3, #31
 3205 06fa 0122     		movs	r2, #1
 3206 06fc 9A40     		lsls	r2, r2, r3
 3207 06fe D5E7     		b	.L405
 3208              	.L431:
 3209 0700 2023     		movs	r3, #32
 3210 0702 F8E7     		b	.L406
 3211              	.L444:
 3212 0704 534A     		ldr	r2, .L467+8
 3213 0706 FFF7FEFF 		bl	LL_ADC_SetAnalogWDMonitChannels
 3214 070a 7DE7     		b	.L403
 3215              	.L445:
 3216 070c AB68     		ldr	r3, [r5, #8]
 3217 070e C3F31302 		ubfx	r2, r3, #0, #20
 3218 0712 4AB9     		cbnz	r2, .L409
 3219 0714 C3F38463 		ubfx	r3, r3, #26, #5
 3220 0718 0122     		movs	r2, #1
 3221 071a 9A40     		lsls	r2, r2, r3
 3222              	.L410:
 3223 071c D0F8A030 		ldr	r3, [r0, #160]
 3224 0720 1343     		orrs	r3, r3, r2
 3225 0722 C0F8A030 		str	r3, [r0, #160]
 3226 0726 6FE7     		b	.L403
 3227              	.L409:
 3228              		.syntax unified
 3229              	@ 1055 "Drivers/CMSIS/Include/cmsis_gcc.h" 1
 3230 0728 93FAA3F3 		rbit r3, r3
 3231              	@ 0 "" 2
 3232              		.thumb
 3233              		.syntax unified
ARM GAS  C:\Users\thewo\AppData\Local\Temp\ccRWmotf.s 			page 57


 3234 072c 33B1     		cbz	r3, .L432
 3235 072e B3FA83F3 		clz	r3, r3
 3236              	.L411:
 3237 0732 03F01F03 		and	r3, r3, #31
 3238 0736 0122     		movs	r2, #1
 3239 0738 9A40     		lsls	r2, r2, r3
 3240 073a EFE7     		b	.L410
 3241              	.L432:
 3242 073c 2023     		movs	r3, #32
 3243 073e F8E7     		b	.L411
 3244              	.L412:
 3245              		.syntax unified
 3246              	@ 1055 "Drivers/CMSIS/Include/cmsis_gcc.h" 1
 3247 0740 93FAA3F3 		rbit r3, r3
 3248              	@ 0 "" 2
 3249              		.thumb
 3250              		.syntax unified
 3251 0744 33B1     		cbz	r3, .L433
 3252 0746 B3FA83F3 		clz	r3, r3
 3253              	.L414:
 3254 074a 03F01F03 		and	r3, r3, #31
 3255 074e 0122     		movs	r2, #1
 3256 0750 9A40     		lsls	r2, r2, r3
 3257 0752 09E5     		b	.L413
 3258              	.L433:
 3259 0754 2023     		movs	r3, #32
 3260 0756 F8E7     		b	.L414
 3261              	.L415:
 3262 0758 2A69     		ldr	r2, [r5, #16]
 3263 075a C368     		ldr	r3, [r0, #12]
 3264 075c 9B08     		lsrs	r3, r3, #2
 3265 075e 03F00403 		and	r3, r3, #4
 3266 0762 5B00     		lsls	r3, r3, #1
 3267 0764 9A40     		lsls	r2, r2, r3
 3268 0766 5BE7     		b	.L416
 3269              	.L417:
 3270 0768 6B69     		ldr	r3, [r5, #20]
 3271 076a C168     		ldr	r1, [r0, #12]
 3272 076c 8908     		lsrs	r1, r1, #2
 3273 076e 01F00401 		and	r1, r1, #4
 3274 0772 4900     		lsls	r1, r1, #1
 3275 0774 8B40     		lsls	r3, r3, r1
 3276 0776 5EE7     		b	.L418
 3277              	.L457:
 3278 0778 2968     		ldr	r1, [r5]
 3279 077a 374E     		ldr	r6, .L467+12
 3280 077c B142     		cmp	r1, r6
 3281 077e 13D0     		beq	.L420
 3282 0780 C368     		ldr	r3, [r0, #12]
 3283 0782 13F0100F 		tst	r3, #16
 3284 0786 12D1     		bne	.L421
 3285 0788 2A69     		ldr	r2, [r5, #16]
 3286 078a C368     		ldr	r3, [r0, #12]
 3287 078c C3F38203 		ubfx	r3, r3, #2, #3
 3288 0790 5B00     		lsls	r3, r3, #1
 3289 0792 9A40     		lsls	r2, r2, r3
 3290              	.L422:
ARM GAS  C:\Users\thewo\AppData\Local\Temp\ccRWmotf.s 			page 58


 3291 0794 C368     		ldr	r3, [r0, #12]
 3292 0796 13F0100F 		tst	r3, #16
 3293 079a 10D1     		bne	.L423
 3294 079c 6B69     		ldr	r3, [r5, #20]
 3295 079e C668     		ldr	r6, [r0, #12]
 3296 07a0 C6F38206 		ubfx	r6, r6, #2, #3
 3297 07a4 7600     		lsls	r6, r6, #1
 3298 07a6 B340     		lsls	r3, r3, r6
 3299              	.L420:
 3300 07a8 FFF7FEFF 		bl	LL_ADC_ConfigAnalogWDThresholds
 3301 07ac 5BE7     		b	.L424
 3302              	.L421:
 3303 07ae 2A69     		ldr	r2, [r5, #16]
 3304 07b0 C368     		ldr	r3, [r0, #12]
 3305 07b2 9B08     		lsrs	r3, r3, #2
 3306 07b4 03F00403 		and	r3, r3, #4
 3307 07b8 5B00     		lsls	r3, r3, #1
 3308 07ba 9A40     		lsls	r2, r2, r3
 3309 07bc EAE7     		b	.L422
 3310              	.L423:
 3311 07be 6B69     		ldr	r3, [r5, #20]
 3312 07c0 C668     		ldr	r6, [r0, #12]
 3313 07c2 4FEA960C 		lsr	ip, r6, #2
 3314 07c6 0CF0040C 		and	ip, ip, #4
 3315 07ca 4FEA4C0C 		lsl	ip, ip, #1
 3316 07ce 03FA0CF3 		lsl	r3, r3, ip
 3317 07d2 E9E7     		b	.L420
 3318              	.L458:
 3319 07d4 D0F8B010 		ldr	r1, [r0, #176]
 3320 07d8 01F07C41 		and	r1, r1, #-67108864
 3321 07dc 1943     		orrs	r1, r1, r3
 3322 07de C0F8B010 		str	r1, [r0, #176]
 3323 07e2 2168     		ldr	r1, [r4]
 3324 07e4 D1F8B430 		ldr	r3, [r1, #180]
 3325 07e8 03F07C43 		and	r3, r3, #-67108864
 3326 07ec 1343     		orrs	r3, r3, r2
 3327 07ee C1F8B430 		str	r3, [r1, #180]
 3328 07f2 38E7     		b	.L424
 3329              	.L459:
 3330 07f4 236E     		ldr	r3, [r4, #96]
 3331 07f6 23F40033 		bic	r3, r3, #131072
 3332 07fa 2366     		str	r3, [r4, #96]
 3333 07fc 2368     		ldr	r3, [r4]
 3334 07fe 4FF48072 		mov	r2, #256
 3335 0802 1A60     		str	r2, [r3]
 3336 0804 2B7B     		ldrb	r3, [r5, #12]	@ zero_extendqisi2
 3337 0806 012B     		cmp	r3, #1
 3338 0808 06D0     		beq	.L462
 3339 080a 2268     		ldr	r2, [r4]
 3340 080c 5368     		ldr	r3, [r2, #4]
 3341 080e 23F48073 		bic	r3, r3, #256
 3342 0812 5360     		str	r3, [r2, #4]
 3343 0814 0020     		movs	r0, #0
 3344 0816 12E0     		b	.L394
 3345              	.L462:
 3346 0818 2268     		ldr	r2, [r4]
 3347 081a 5368     		ldr	r3, [r2, #4]
ARM GAS  C:\Users\thewo\AppData\Local\Temp\ccRWmotf.s 			page 59


 3348 081c 43F48073 		orr	r3, r3, #256
 3349 0820 5360     		str	r3, [r2, #4]
 3350 0822 0020     		movs	r0, #0
 3351 0824 0BE0     		b	.L394
 3352              	.L460:
 3353 0826 2268     		ldr	r2, [r4]
 3354 0828 5368     		ldr	r3, [r2, #4]
 3355 082a 43F40073 		orr	r3, r3, #512
 3356 082e 5360     		str	r3, [r2, #4]
 3357 0830 0020     		movs	r0, #0
 3358 0832 04E0     		b	.L394
 3359              	.L374:
 3360 0834 236E     		ldr	r3, [r4, #96]
 3361 0836 43F02003 		orr	r3, r3, #32
 3362 083a 2366     		str	r3, [r4, #96]
 3363 083c 0120     		movs	r0, #1
 3364              	.L394:
 3365 083e 0023     		movs	r3, #0
 3366 0840 84F85C30 		strb	r3, [r4, #92]
 3367              	.L372:
 3368 0844 70BD     		pop	{r4, r5, r6, pc}
 3369              	.L429:
 3370 0846 0220     		movs	r0, #2
 3371 0848 FCE7     		b	.L372
 3372              	.L468:
 3373 084a 00BF     		.align	2
 3374              	.L467:
 3375 084c 00600258 		.word	1476550656
 3376 0850 FFFF1F00 		.word	2097151
 3377 0854 FFFF8F01 		.word	26214399
 3378 0858 0000C07D 		.word	2109734912
 3380              		.section	.text.HAL_ADC_GetState,"ax",%progbits
 3381              		.align	1
 3382              		.global	HAL_ADC_GetState
 3383              		.syntax unified
 3384              		.thumb
 3385              		.thumb_func
 3387              	HAL_ADC_GetState:
 3388              		@ args = 0, pretend = 0, frame = 0
 3389              		@ frame_needed = 0, uses_anonymous_args = 0
 3390 0000 10B5     		push	{r4, lr}
 3391 0002 0446     		mov	r4, r0
 3392 0004 0368     		ldr	r3, [r0]
 3393 0006 0849     		ldr	r1, .L472
 3394 0008 084A     		ldr	r2, .L472+4
 3395 000a 8B42     		cmp	r3, r1
 3396 000c 18BF     		it	ne
 3397 000e 9342     		cmpne	r3, r2
 3398 0010 07D0     		beq	.L470
 3399 0012 074A     		ldr	r2, .L472+8
 3400 0014 9342     		cmp	r3, r2
 3401 0016 04D0     		beq	.L470
 3402 0018 40F6A951 		movw	r1, #3497
 3403 001c 0548     		ldr	r0, .L472+12
 3404 001e FFF7FEFF 		bl	assert_failed
 3405              	.L470:
 3406 0022 206E     		ldr	r0, [r4, #96]
ARM GAS  C:\Users\thewo\AppData\Local\Temp\ccRWmotf.s 			page 60


 3407 0024 10BD     		pop	{r4, pc}
 3408              	.L473:
 3409 0026 00BF     		.align	2
 3410              	.L472:
 3411 0028 00200240 		.word	1073881088
 3412 002c 00210240 		.word	1073881344
 3413 0030 00600258 		.word	1476550656
 3414 0034 00000000 		.word	.LC0
 3416              		.section	.text.HAL_ADC_GetError,"ax",%progbits
 3417              		.align	1
 3418              		.global	HAL_ADC_GetError
 3419              		.syntax unified
 3420              		.thumb
 3421              		.thumb_func
 3423              	HAL_ADC_GetError:
 3424              		@ args = 0, pretend = 0, frame = 0
 3425              		@ frame_needed = 0, uses_anonymous_args = 0
 3426 0000 10B5     		push	{r4, lr}
 3427 0002 0446     		mov	r4, r0
 3428 0004 0368     		ldr	r3, [r0]
 3429 0006 0849     		ldr	r1, .L477
 3430 0008 084A     		ldr	r2, .L477+4
 3431 000a 8B42     		cmp	r3, r1
 3432 000c 18BF     		it	ne
 3433 000e 9342     		cmpne	r3, r2
 3434 0010 07D0     		beq	.L475
 3435 0012 074A     		ldr	r2, .L477+8
 3436 0014 9342     		cmp	r3, r2
 3437 0016 04D0     		beq	.L475
 3438 0018 40F6B751 		movw	r1, #3511
 3439 001c 0548     		ldr	r0, .L477+12
 3440 001e FFF7FEFF 		bl	assert_failed
 3441              	.L475:
 3442 0022 606E     		ldr	r0, [r4, #100]
 3443 0024 10BD     		pop	{r4, pc}
 3444              	.L478:
 3445 0026 00BF     		.align	2
 3446              	.L477:
 3447 0028 00200240 		.word	1073881088
 3448 002c 00210240 		.word	1073881344
 3449 0030 00600258 		.word	1476550656
 3450 0034 00000000 		.word	.LC0
 3452              		.section	.text.ADC_ConversionStop,"ax",%progbits
 3453              		.align	1
 3454              		.global	ADC_ConversionStop
 3455              		.syntax unified
 3456              		.thumb
 3457              		.thumb_func
 3459              	ADC_ConversionStop:
 3460              		@ args = 0, pretend = 0, frame = 0
 3461              		@ frame_needed = 0, uses_anonymous_args = 0
 3462 0000 70B5     		push	{r4, r5, r6, lr}
 3463 0002 0446     		mov	r4, r0
 3464 0004 0D46     		mov	r5, r1
 3465 0006 0368     		ldr	r3, [r0]
 3466 0008 4749     		ldr	r1, .L507
 3467 000a 484A     		ldr	r2, .L507+4
ARM GAS  C:\Users\thewo\AppData\Local\Temp\ccRWmotf.s 			page 61


 3468 000c 8B42     		cmp	r3, r1
 3469 000e 18BF     		it	ne
 3470 0010 9342     		cmpne	r3, r2
 3471 0012 07D0     		beq	.L480
 3472 0014 464A     		ldr	r2, .L507+8
 3473 0016 9342     		cmp	r3, r2
 3474 0018 04D0     		beq	.L480
 3475 001a 40F6DC51 		movw	r1, #3548
 3476 001e 4548     		ldr	r0, .L507+12
 3477 0020 FFF7FEFF 		bl	assert_failed
 3478              	.L480:
 3479 0024 6B1E     		subs	r3, r5, #1
 3480 0026 022B     		cmp	r3, #2
 3481 0028 55D8     		bhi	.L502
 3482              	.L481:
 3483 002a 2368     		ldr	r3, [r4]
 3484 002c 9A68     		ldr	r2, [r3, #8]
 3485 002e 12F00402 		ands	r2, r2, #4
 3486 0032 00D0     		beq	.L482
 3487 0034 0122     		movs	r2, #1
 3488              	.L482:
 3489 0036 9968     		ldr	r1, [r3, #8]
 3490 0038 11F0080F 		tst	r1, #8
 3491 003c 01D1     		bne	.L483
 3492 003e 002A     		cmp	r2, #0
 3493 0040 6FD0     		beq	.L496
 3494              	.L483:
 3495 0042 DA68     		ldr	r2, [r3, #12]
 3496 0044 12F0007F 		tst	r2, #33554432
 3497 0048 04D0     		beq	.L485
 3498 004a 218B     		ldrh	r1, [r4, #24]
 3499 004c 40F20112 		movw	r2, #257
 3500 0050 9142     		cmp	r1, r2
 3501 0052 50D0     		beq	.L503
 3502              	.L485:
 3503 0054 022D     		cmp	r5, #2
 3504 0056 10D0     		beq	.L490
 3505              	.L489:
 3506 0058 2368     		ldr	r3, [r4]
 3507 005a 9A68     		ldr	r2, [r3, #8]
 3508 005c 12F0040F 		tst	r2, #4
 3509 0060 09D0     		beq	.L491
 3510 0062 9A68     		ldr	r2, [r3, #8]
 3511 0064 12F0020F 		tst	r2, #2
 3512 0068 05D1     		bne	.L491
 3513 006a 9968     		ldr	r1, [r3, #8]
 3514 006c 324A     		ldr	r2, .L507+16
 3515 006e 0A40     		ands	r2, r2, r1
 3516 0070 42F01002 		orr	r2, r2, #16
 3517 0074 9A60     		str	r2, [r3, #8]
 3518              	.L491:
 3519 0076 012D     		cmp	r5, #1
 3520 0078 4BD0     		beq	.L498
 3521              	.L490:
 3522 007a 2368     		ldr	r3, [r4]
 3523 007c 9A68     		ldr	r2, [r3, #8]
 3524 007e 12F0080F 		tst	r2, #8
ARM GAS  C:\Users\thewo\AppData\Local\Temp\ccRWmotf.s 			page 62


 3525 0082 09D0     		beq	.L493
 3526 0084 9A68     		ldr	r2, [r3, #8]
 3527 0086 12F0020F 		tst	r2, #2
 3528 008a 05D1     		bne	.L493
 3529 008c 9968     		ldr	r1, [r3, #8]
 3530 008e 2A4A     		ldr	r2, .L507+16
 3531 0090 0A40     		ands	r2, r2, r1
 3532 0092 42F02002 		orr	r2, r2, #32
 3533 0096 9A60     		str	r2, [r3, #8]
 3534              	.L493:
 3535 0098 022D     		cmp	r5, #2
 3536 009a 3CD0     		beq	.L499
 3537 009c 032D     		cmp	r5, #3
 3538 009e 3CD1     		bne	.L500
 3539 00a0 0C25     		movs	r5, #12
 3540              	.L492:
 3541 00a2 FFF7FEFF 		bl	HAL_GetTick
 3542 00a6 0646     		mov	r6, r0
 3543              	.L494:
 3544 00a8 2368     		ldr	r3, [r4]
 3545 00aa 9B68     		ldr	r3, [r3, #8]
 3546 00ac 2B42     		tst	r3, r5
 3547 00ae 36D0     		beq	.L504
 3548 00b0 FFF7FEFF 		bl	HAL_GetTick
 3549 00b4 801B     		subs	r0, r0, r6
 3550 00b6 0528     		cmp	r0, #5
 3551 00b8 F6D9     		bls	.L494
 3552 00ba 2368     		ldr	r3, [r4]
 3553 00bc 9B68     		ldr	r3, [r3, #8]
 3554 00be 2B42     		tst	r3, r5
 3555 00c0 F2D0     		beq	.L494
 3556 00c2 236E     		ldr	r3, [r4, #96]
 3557 00c4 43F01003 		orr	r3, r3, #16
 3558 00c8 2366     		str	r3, [r4, #96]
 3559 00ca 636E     		ldr	r3, [r4, #100]
 3560 00cc 43F00103 		orr	r3, r3, #1
 3561 00d0 6366     		str	r3, [r4, #100]
 3562 00d2 0120     		movs	r0, #1
 3563 00d4 24E0     		b	.L484
 3564              	.L502:
 3565 00d6 40F6DD51 		movw	r1, #3549
 3566 00da 1648     		ldr	r0, .L507+12
 3567 00dc FFF7FEFF 		bl	assert_failed
 3568 00e0 A3E7     		b	.L481
 3569              	.L506:
 3570 00e2 236E     		ldr	r3, [r4, #96]
 3571 00e4 43F01003 		orr	r3, r3, #16
 3572 00e8 2366     		str	r3, [r4, #96]
 3573 00ea 636E     		ldr	r3, [r4, #100]
 3574 00ec 43F00103 		orr	r3, r3, #1
 3575 00f0 6366     		str	r3, [r4, #100]
 3576 00f2 0120     		movs	r0, #1
 3577 00f4 14E0     		b	.L484
 3578              	.L503:
 3579 00f6 0022     		movs	r2, #0
 3580              	.L486:
 3581 00f8 1968     		ldr	r1, [r3]
ARM GAS  C:\Users\thewo\AppData\Local\Temp\ccRWmotf.s 			page 63


 3582 00fa 11F0400F 		tst	r1, #64
 3583 00fe 04D1     		bne	.L505
 3584 0100 0E49     		ldr	r1, .L507+20
 3585 0102 8A42     		cmp	r2, r1
 3586 0104 EDD8     		bhi	.L506
 3587 0106 0132     		adds	r2, r2, #1
 3588 0108 F6E7     		b	.L486
 3589              	.L505:
 3590 010a 4022     		movs	r2, #64
 3591 010c 1A60     		str	r2, [r3]
 3592 010e 0125     		movs	r5, #1
 3593 0110 A2E7     		b	.L489
 3594              	.L498:
 3595 0112 0425     		movs	r5, #4
 3596 0114 C5E7     		b	.L492
 3597              	.L499:
 3598 0116 0825     		movs	r5, #8
 3599 0118 C3E7     		b	.L492
 3600              	.L500:
 3601 011a 0425     		movs	r5, #4
 3602 011c C1E7     		b	.L492
 3603              	.L504:
 3604 011e 0020     		movs	r0, #0
 3605              	.L484:
 3606 0120 70BD     		pop	{r4, r5, r6, pc}
 3607              	.L496:
 3608 0122 0020     		movs	r0, #0
 3609 0124 FCE7     		b	.L484
 3610              	.L508:
 3611 0126 00BF     		.align	2
 3612              	.L507:
 3613 0128 00200240 		.word	1073881088
 3614 012c 00210240 		.word	1073881344
 3615 0130 00600258 		.word	1476550656
 3616 0134 00000000 		.word	.LC0
 3617 0138 C0FFFF7F 		.word	2147483584
 3618 013c FFDB0C00 		.word	842751
 3620              		.section	.text.ADC_Enable,"ax",%progbits
 3621              		.align	1
 3622              		.global	ADC_Enable
 3623              		.syntax unified
 3624              		.thumb
 3625              		.thumb_func
 3627              	ADC_Enable:
 3628              		@ args = 0, pretend = 0, frame = 0
 3629              		@ frame_needed = 0, uses_anonymous_args = 0
 3630 0000 38B5     		push	{r3, r4, r5, lr}
 3631 0002 0368     		ldr	r3, [r0]
 3632 0004 9A68     		ldr	r2, [r3, #8]
 3633 0006 12F0010F 		tst	r2, #1
 3634 000a 56D1     		bne	.L518
 3635 000c 0446     		mov	r4, r0
 3636 000e 9968     		ldr	r1, [r3, #8]
 3637 0010 2B4A     		ldr	r2, .L524
 3638 0012 1142     		tst	r1, r2
 3639 0014 09D0     		beq	.L511
 3640 0016 036E     		ldr	r3, [r0, #96]
ARM GAS  C:\Users\thewo\AppData\Local\Temp\ccRWmotf.s 			page 64


 3641 0018 43F01003 		orr	r3, r3, #16
 3642 001c 0366     		str	r3, [r0, #96]
 3643 001e 436E     		ldr	r3, [r0, #100]
 3644 0020 43F00103 		orr	r3, r3, #1
 3645 0024 4366     		str	r3, [r0, #100]
 3646 0026 0120     		movs	r0, #1
 3647 0028 48E0     		b	.L510
 3648              	.L511:
 3649 002a 9968     		ldr	r1, [r3, #8]
 3650 002c 254A     		ldr	r2, .L524+4
 3651 002e 0A40     		ands	r2, r2, r1
 3652 0030 42F00102 		orr	r2, r2, #1
 3653 0034 9A60     		str	r2, [r3, #8]
 3654 0036 FFF7FEFF 		bl	HAL_GetTick
 3655 003a 0546     		mov	r5, r0
 3656 003c 2368     		ldr	r3, [r4]
 3657 003e 2249     		ldr	r1, .L524+8
 3658 0040 224A     		ldr	r2, .L524+12
 3659 0042 9342     		cmp	r3, r2
 3660 0044 18BF     		it	ne
 3661 0046 8B42     		cmpne	r3, r1
 3662 0048 0DD1     		bne	.L519
 3663 004a 02F50072 		add	r2, r2, #512
 3664              	.L512:
 3665 004e 9268     		ldr	r2, [r2, #8]
 3666 0050 02F01F02 		and	r2, r2, #31
 3667 0054 1D49     		ldr	r1, .L524+12
 3668 0056 8B42     		cmp	r3, r1
 3669 0058 07D0     		beq	.L522
 3670 005a 1946     		mov	r1, r3
 3671              	.L513:
 3672 005c 9942     		cmp	r1, r3
 3673 005e 07D0     		beq	.L516
 3674 0060 32B1     		cbz	r2, .L516
 3675 0062 0020     		movs	r0, #0
 3676 0064 2AE0     		b	.L510
 3677              	.L519:
 3678 0066 1A4A     		ldr	r2, .L524+16
 3679 0068 F1E7     		b	.L512
 3680              	.L522:
 3681 006a A1F58071 		sub	r1, r1, #256
 3682 006e F5E7     		b	.L513
 3683              	.L516:
 3684 0070 2368     		ldr	r3, [r4]
 3685 0072 1A68     		ldr	r2, [r3]
 3686 0074 12F0010F 		tst	r2, #1
 3687 0078 1DD1     		bne	.L523
 3688 007a 9A68     		ldr	r2, [r3, #8]
 3689 007c 12F0010F 		tst	r2, #1
 3690 0080 05D1     		bne	.L515
 3691 0082 9968     		ldr	r1, [r3, #8]
 3692 0084 0F4A     		ldr	r2, .L524+4
 3693 0086 0A40     		ands	r2, r2, r1
 3694 0088 42F00102 		orr	r2, r2, #1
 3695 008c 9A60     		str	r2, [r3, #8]
 3696              	.L515:
 3697 008e FFF7FEFF 		bl	HAL_GetTick
ARM GAS  C:\Users\thewo\AppData\Local\Temp\ccRWmotf.s 			page 65


 3698 0092 401B     		subs	r0, r0, r5
 3699 0094 0228     		cmp	r0, #2
 3700 0096 EBD9     		bls	.L516
 3701 0098 2368     		ldr	r3, [r4]
 3702 009a 1B68     		ldr	r3, [r3]
 3703 009c 13F0010F 		tst	r3, #1
 3704 00a0 E6D1     		bne	.L516
 3705 00a2 236E     		ldr	r3, [r4, #96]
 3706 00a4 43F01003 		orr	r3, r3, #16
 3707 00a8 2366     		str	r3, [r4, #96]
 3708 00aa 636E     		ldr	r3, [r4, #100]
 3709 00ac 43F00103 		orr	r3, r3, #1
 3710 00b0 6366     		str	r3, [r4, #100]
 3711 00b2 0120     		movs	r0, #1
 3712 00b4 02E0     		b	.L510
 3713              	.L523:
 3714 00b6 0020     		movs	r0, #0
 3715 00b8 00E0     		b	.L510
 3716              	.L518:
 3717 00ba 0020     		movs	r0, #0
 3718              	.L510:
 3719 00bc 38BD     		pop	{r3, r4, r5, pc}
 3720              	.L525:
 3721 00be 00BF     		.align	2
 3722              	.L524:
 3723 00c0 3F000080 		.word	-2147483585
 3724 00c4 C0FFFF7F 		.word	2147483584
 3725 00c8 00200240 		.word	1073881088
 3726 00cc 00210240 		.word	1073881344
 3727 00d0 00630258 		.word	1476551424
 3729              		.section	.text.HAL_ADC_Start,"ax",%progbits
 3730              		.align	1
 3731              		.global	HAL_ADC_Start
 3732              		.syntax unified
 3733              		.thumb
 3734              		.thumb_func
 3736              	HAL_ADC_Start:
 3737              		@ args = 0, pretend = 0, frame = 0
 3738              		@ frame_needed = 0, uses_anonymous_args = 0
 3739 0000 38B5     		push	{r3, r4, r5, lr}
 3740 0002 0446     		mov	r4, r0
 3741 0004 0368     		ldr	r3, [r0]
 3742 0006 4649     		ldr	r1, .L548
 3743 0008 464A     		ldr	r2, .L548+4
 3744 000a 9342     		cmp	r3, r2
 3745 000c 18BF     		it	ne
 3746 000e 8B42     		cmpne	r3, r1
 3747 0010 63D1     		bne	.L540
 3748 0012 02F50072 		add	r2, r2, #512
 3749              	.L527:
 3750 0016 9568     		ldr	r5, [r2, #8]
 3751 0018 05F01F05 		and	r5, r5, #31
 3752 001c 4049     		ldr	r1, .L548
 3753 001e 414A     		ldr	r2, .L548+4
 3754 0020 8B42     		cmp	r3, r1
 3755 0022 18BF     		it	ne
 3756 0024 9342     		cmpne	r3, r2
ARM GAS  C:\Users\thewo\AppData\Local\Temp\ccRWmotf.s 			page 66


 3757 0026 07D0     		beq	.L528
 3758 0028 3F4A     		ldr	r2, .L548+8
 3759 002a 9342     		cmp	r3, r2
 3760 002c 04D0     		beq	.L528
 3761 002e 40F27C51 		movw	r1, #1404
 3762 0032 3E48     		ldr	r0, .L548+12
 3763 0034 FFF7FEFF 		bl	assert_failed
 3764              	.L528:
 3765 0038 2368     		ldr	r3, [r4]
 3766 003a 9B68     		ldr	r3, [r3, #8]
 3767 003c 13F0040F 		tst	r3, #4
 3768 0040 69D1     		bne	.L541
 3769 0042 94F85C30 		ldrb	r3, [r4, #92]	@ zero_extendqisi2
 3770 0046 012B     		cmp	r3, #1
 3771 0048 67D0     		beq	.L542
 3772 004a 0123     		movs	r3, #1
 3773 004c 84F85C30 		strb	r3, [r4, #92]
 3774 0050 2046     		mov	r0, r4
 3775 0052 FFF7FEFF 		bl	ADC_Enable
 3776 0056 0028     		cmp	r0, #0
 3777 0058 59D1     		bne	.L530
 3778 005a 226E     		ldr	r2, [r4, #96]
 3779 005c A0F60273 		subw	r3, r0, #3842
 3780 0060 1340     		ands	r3, r3, r2
 3781 0062 43F48073 		orr	r3, r3, #256
 3782 0066 2366     		str	r3, [r4, #96]
 3783 0068 2368     		ldr	r3, [r4]
 3784 006a 2E4A     		ldr	r2, .L548+4
 3785 006c 9342     		cmp	r3, r2
 3786 006e 36D0     		beq	.L546
 3787 0070 1A46     		mov	r2, r3
 3788              	.L531:
 3789 0072 9342     		cmp	r3, r2
 3790 0074 00D0     		beq	.L532
 3791 0076 1DB9     		cbnz	r5, .L533
 3792              	.L532:
 3793 0078 226E     		ldr	r2, [r4, #96]
 3794 007a 22F48012 		bic	r2, r2, #1048576
 3795 007e 2266     		str	r2, [r4, #96]
 3796              	.L533:
 3797 0080 226E     		ldr	r2, [r4, #96]
 3798 0082 12F4805F 		tst	r2, #4096
 3799 0086 2DD0     		beq	.L534
 3800 0088 626E     		ldr	r2, [r4, #100]
 3801 008a 22F00602 		bic	r2, r2, #6
 3802 008e 6266     		str	r2, [r4, #100]
 3803              	.L535:
 3804 0090 1C22     		movs	r2, #28
 3805 0092 1A60     		str	r2, [r3]
 3806 0094 0023     		movs	r3, #0
 3807 0096 84F85C30 		strb	r3, [r4, #92]
 3808 009a 2368     		ldr	r3, [r4]
 3809 009c 214A     		ldr	r2, .L548+4
 3810 009e 9342     		cmp	r3, r2
 3811 00a0 23D0     		beq	.L547
 3812 00a2 1A46     		mov	r2, r3
 3813              	.L536:
ARM GAS  C:\Users\thewo\AppData\Local\Temp\ccRWmotf.s 			page 67


 3814 00a4 9342     		cmp	r3, r2
 3815 00a6 07D0     		beq	.L537
 3816 00a8 092D     		cmp	r5, #9
 3817 00aa 21D8     		bhi	.L538
 3818 00ac 40F22121 		movw	r1, #545
 3819 00b0 E940     		lsrs	r1, r1, r5
 3820 00b2 11F0010F 		tst	r1, #1
 3821 00b6 1BD0     		beq	.L538
 3822              	.L537:
 3823 00b8 DA68     		ldr	r2, [r3, #12]
 3824 00ba 12F0007F 		tst	r2, #33554432
 3825 00be 05D0     		beq	.L539
 3826 00c0 226E     		ldr	r2, [r4, #96]
 3827 00c2 22F44052 		bic	r2, r2, #12288
 3828 00c6 42F48052 		orr	r2, r2, #4096
 3829 00ca 2266     		str	r2, [r4, #96]
 3830              	.L539:
 3831 00cc 9968     		ldr	r1, [r3, #8]
 3832 00ce 184A     		ldr	r2, .L548+16
 3833 00d0 0A40     		ands	r2, r2, r1
 3834 00d2 42F00402 		orr	r2, r2, #4
 3835 00d6 9A60     		str	r2, [r3, #8]
 3836 00d8 1EE0     		b	.L529
 3837              	.L540:
 3838 00da 164A     		ldr	r2, .L548+20
 3839 00dc 9BE7     		b	.L527
 3840              	.L546:
 3841 00de A2F58072 		sub	r2, r2, #256
 3842 00e2 C6E7     		b	.L531
 3843              	.L534:
 3844 00e4 0022     		movs	r2, #0
 3845 00e6 6266     		str	r2, [r4, #100]
 3846 00e8 D2E7     		b	.L535
 3847              	.L547:
 3848 00ea A2F58072 		sub	r2, r2, #256
 3849 00ee D9E7     		b	.L536
 3850              	.L538:
 3851 00f0 236E     		ldr	r3, [r4, #96]
 3852 00f2 43F48013 		orr	r3, r3, #1048576
 3853 00f6 2366     		str	r3, [r4, #96]
 3854 00f8 D368     		ldr	r3, [r2, #12]
 3855 00fa 13F0007F 		tst	r3, #33554432
 3856 00fe 0BD0     		beq	.L529
 3857 0100 236E     		ldr	r3, [r4, #96]
 3858 0102 23F44053 		bic	r3, r3, #12288
 3859 0106 43F48053 		orr	r3, r3, #4096
 3860 010a 2366     		str	r3, [r4, #96]
 3861 010c 04E0     		b	.L529
 3862              	.L530:
 3863 010e 0023     		movs	r3, #0
 3864 0110 84F85C30 		strb	r3, [r4, #92]
 3865 0114 00E0     		b	.L529
 3866              	.L541:
 3867 0116 0220     		movs	r0, #2
 3868              	.L529:
 3869 0118 38BD     		pop	{r3, r4, r5, pc}
 3870              	.L542:
ARM GAS  C:\Users\thewo\AppData\Local\Temp\ccRWmotf.s 			page 68


 3871 011a 0220     		movs	r0, #2
 3872 011c FCE7     		b	.L529
 3873              	.L549:
 3874 011e 00BF     		.align	2
 3875              	.L548:
 3876 0120 00200240 		.word	1073881088
 3877 0124 00210240 		.word	1073881344
 3878 0128 00600258 		.word	1476550656
 3879 012c 00000000 		.word	.LC0
 3880 0130 C0FFFF7F 		.word	2147483584
 3881 0134 00630258 		.word	1476551424
 3883              		.section	.text.HAL_ADC_Start_IT,"ax",%progbits
 3884              		.align	1
 3885              		.global	HAL_ADC_Start_IT
 3886              		.syntax unified
 3887              		.thumb
 3888              		.thumb_func
 3890              	HAL_ADC_Start_IT:
 3891              		@ args = 0, pretend = 0, frame = 0
 3892              		@ frame_needed = 0, uses_anonymous_args = 0
 3893 0000 38B5     		push	{r3, r4, r5, lr}
 3894 0002 0446     		mov	r4, r0
 3895 0004 0368     		ldr	r3, [r0]
 3896 0006 6B49     		ldr	r1, .L580
 3897 0008 6B4A     		ldr	r2, .L580+4
 3898 000a 9342     		cmp	r3, r2
 3899 000c 18BF     		it	ne
 3900 000e 8B42     		cmpne	r3, r1
 3901 0010 40F08880 		bne	.L569
 3902 0014 02F50072 		add	r2, r2, #512
 3903              	.L551:
 3904 0018 9568     		ldr	r5, [r2, #8]
 3905 001a 05F01F05 		and	r5, r5, #31
 3906 001e 6549     		ldr	r1, .L580
 3907 0020 654A     		ldr	r2, .L580+4
 3908 0022 8B42     		cmp	r3, r1
 3909 0024 18BF     		it	ne
 3910 0026 9342     		cmpne	r3, r2
 3911 0028 07D0     		beq	.L552
 3912 002a 644A     		ldr	r2, .L580+8
 3913 002c 9342     		cmp	r3, r2
 3914 002e 04D0     		beq	.L552
 3915 0030 40F26371 		movw	r1, #1891
 3916 0034 6248     		ldr	r0, .L580+12
 3917 0036 FFF7FEFF 		bl	assert_failed
 3918              	.L552:
 3919 003a 2368     		ldr	r3, [r4]
 3920 003c 9B68     		ldr	r3, [r3, #8]
 3921 003e 13F0040F 		tst	r3, #4
 3922 0042 40F0B380 		bne	.L570
 3923 0046 94F85C30 		ldrb	r3, [r4, #92]	@ zero_extendqisi2
 3924 004a 012B     		cmp	r3, #1
 3925 004c 00F0B080 		beq	.L571
 3926 0050 0123     		movs	r3, #1
 3927 0052 84F85C30 		strb	r3, [r4, #92]
 3928 0056 2046     		mov	r0, r4
 3929 0058 FFF7FEFF 		bl	ADC_Enable
ARM GAS  C:\Users\thewo\AppData\Local\Temp\ccRWmotf.s 			page 69


 3930 005c 0028     		cmp	r0, #0
 3931 005e 40F0A180 		bne	.L554
 3932 0062 226E     		ldr	r2, [r4, #96]
 3933 0064 A0F60273 		subw	r3, r0, #3842
 3934 0068 1340     		ands	r3, r3, r2
 3935 006a 43F48073 		orr	r3, r3, #256
 3936 006e 2366     		str	r3, [r4, #96]
 3937 0070 2368     		ldr	r3, [r4]
 3938 0072 514A     		ldr	r2, .L580+4
 3939 0074 9342     		cmp	r3, r2
 3940 0076 57D0     		beq	.L575
 3941 0078 1A46     		mov	r2, r3
 3942              	.L555:
 3943 007a 9342     		cmp	r3, r2
 3944 007c 00D0     		beq	.L556
 3945 007e 1DB9     		cbnz	r5, .L557
 3946              	.L556:
 3947 0080 226E     		ldr	r2, [r4, #96]
 3948 0082 22F48012 		bic	r2, r2, #1048576
 3949 0086 2266     		str	r2, [r4, #96]
 3950              	.L557:
 3951 0088 226E     		ldr	r2, [r4, #96]
 3952 008a 12F4805F 		tst	r2, #4096
 3953 008e 4ED0     		beq	.L558
 3954 0090 626E     		ldr	r2, [r4, #100]
 3955 0092 22F00602 		bic	r2, r2, #6
 3956 0096 6266     		str	r2, [r4, #100]
 3957              	.L559:
 3958 0098 1C22     		movs	r2, #28
 3959 009a 1A60     		str	r2, [r3]
 3960 009c 0023     		movs	r3, #0
 3961 009e 84F85C30 		strb	r3, [r4, #92]
 3962 00a2 2268     		ldr	r2, [r4]
 3963 00a4 5368     		ldr	r3, [r2, #4]
 3964 00a6 23F01C03 		bic	r3, r3, #28
 3965 00aa 5360     		str	r3, [r2, #4]
 3966 00ac 6369     		ldr	r3, [r4, #20]
 3967 00ae 082B     		cmp	r3, #8
 3968 00b0 40D0     		beq	.L576
 3969 00b2 2268     		ldr	r2, [r4]
 3970 00b4 5368     		ldr	r3, [r2, #4]
 3971 00b6 43F00403 		orr	r3, r3, #4
 3972 00ba 5360     		str	r3, [r2, #4]
 3973              	.L561:
 3974 00bc E36B     		ldr	r3, [r4, #60]
 3975 00be 23B9     		cbnz	r3, .L562
 3976 00c0 2268     		ldr	r2, [r4]
 3977 00c2 5368     		ldr	r3, [r2, #4]
 3978 00c4 43F01003 		orr	r3, r3, #16
 3979 00c8 5360     		str	r3, [r2, #4]
 3980              	.L562:
 3981 00ca 2368     		ldr	r3, [r4]
 3982 00cc 3A4A     		ldr	r2, .L580+4
 3983 00ce 9342     		cmp	r3, r2
 3984 00d0 36D0     		beq	.L577
 3985 00d2 1A46     		mov	r2, r3
 3986              	.L563:
ARM GAS  C:\Users\thewo\AppData\Local\Temp\ccRWmotf.s 			page 70


 3987 00d4 9342     		cmp	r3, r2
 3988 00d6 07D0     		beq	.L564
 3989 00d8 092D     		cmp	r5, #9
 3990 00da 3ED8     		bhi	.L565
 3991 00dc 40F22121 		movw	r1, #545
 3992 00e0 E940     		lsrs	r1, r1, r5
 3993 00e2 11F0010F 		tst	r1, #1
 3994 00e6 38D0     		beq	.L565
 3995              	.L564:
 3996 00e8 DA68     		ldr	r2, [r3, #12]
 3997 00ea 12F0007F 		tst	r2, #33554432
 3998 00ee 11D0     		beq	.L566
 3999 00f0 226E     		ldr	r2, [r4, #96]
 4000 00f2 22F44052 		bic	r2, r2, #12288
 4001 00f6 42F48052 		orr	r2, r2, #4096
 4002 00fa 2266     		str	r2, [r4, #96]
 4003 00fc 6269     		ldr	r2, [r4, #20]
 4004 00fe 082A     		cmp	r2, #8
 4005 0100 21D0     		beq	.L578
 4006 0102 5A68     		ldr	r2, [r3, #4]
 4007 0104 22F04002 		bic	r2, r2, #64
 4008 0108 5A60     		str	r2, [r3, #4]
 4009 010a 2268     		ldr	r2, [r4]
 4010 010c 5368     		ldr	r3, [r2, #4]
 4011 010e 43F02003 		orr	r3, r3, #32
 4012 0112 5360     		str	r3, [r2, #4]
 4013              	.L566:
 4014 0114 2268     		ldr	r2, [r4]
 4015 0116 9168     		ldr	r1, [r2, #8]
 4016 0118 2A4B     		ldr	r3, .L580+16
 4017 011a 0B40     		ands	r3, r3, r1
 4018 011c 43F00403 		orr	r3, r3, #4
 4019 0120 9360     		str	r3, [r2, #8]
 4020 0122 44E0     		b	.L553
 4021              	.L569:
 4022 0124 284A     		ldr	r2, .L580+20
 4023 0126 77E7     		b	.L551
 4024              	.L575:
 4025 0128 A2F58072 		sub	r2, r2, #256
 4026 012c A5E7     		b	.L555
 4027              	.L558:
 4028 012e 0022     		movs	r2, #0
 4029 0130 6266     		str	r2, [r4, #100]
 4030 0132 B1E7     		b	.L559
 4031              	.L576:
 4032 0134 2268     		ldr	r2, [r4]
 4033 0136 5368     		ldr	r3, [r2, #4]
 4034 0138 43F00803 		orr	r3, r3, #8
 4035 013c 5360     		str	r3, [r2, #4]
 4036 013e BDE7     		b	.L561
 4037              	.L577:
 4038 0140 A2F58072 		sub	r2, r2, #256
 4039 0144 C6E7     		b	.L563
 4040              	.L578:
 4041 0146 5A68     		ldr	r2, [r3, #4]
 4042 0148 22F02002 		bic	r2, r2, #32
 4043 014c 5A60     		str	r2, [r3, #4]
ARM GAS  C:\Users\thewo\AppData\Local\Temp\ccRWmotf.s 			page 71


 4044 014e 2268     		ldr	r2, [r4]
 4045 0150 5368     		ldr	r3, [r2, #4]
 4046 0152 43F04003 		orr	r3, r3, #64
 4047 0156 5360     		str	r3, [r2, #4]
 4048 0158 DCE7     		b	.L566
 4049              	.L565:
 4050 015a 216E     		ldr	r1, [r4, #96]
 4051 015c 41F48011 		orr	r1, r1, #1048576
 4052 0160 2166     		str	r1, [r4, #96]
 4053 0162 D268     		ldr	r2, [r2, #12]
 4054 0164 12F0007F 		tst	r2, #33554432
 4055 0168 21D0     		beq	.L553
 4056 016a 226E     		ldr	r2, [r4, #96]
 4057 016c 22F44052 		bic	r2, r2, #12288
 4058 0170 42F48052 		orr	r2, r2, #4096
 4059 0174 2266     		str	r2, [r4, #96]
 4060 0176 6269     		ldr	r2, [r4, #20]
 4061 0178 082A     		cmp	r2, #8
 4062 017a 09D0     		beq	.L579
 4063 017c 5A68     		ldr	r2, [r3, #4]
 4064 017e 22F04002 		bic	r2, r2, #64
 4065 0182 5A60     		str	r2, [r3, #4]
 4066 0184 2268     		ldr	r2, [r4]
 4067 0186 5368     		ldr	r3, [r2, #4]
 4068 0188 43F02003 		orr	r3, r3, #32
 4069 018c 5360     		str	r3, [r2, #4]
 4070 018e 0EE0     		b	.L553
 4071              	.L579:
 4072 0190 5A68     		ldr	r2, [r3, #4]
 4073 0192 22F02002 		bic	r2, r2, #32
 4074 0196 5A60     		str	r2, [r3, #4]
 4075 0198 2268     		ldr	r2, [r4]
 4076 019a 5368     		ldr	r3, [r2, #4]
 4077 019c 43F04003 		orr	r3, r3, #64
 4078 01a0 5360     		str	r3, [r2, #4]
 4079 01a2 04E0     		b	.L553
 4080              	.L554:
 4081 01a4 0023     		movs	r3, #0
 4082 01a6 84F85C30 		strb	r3, [r4, #92]
 4083 01aa 00E0     		b	.L553
 4084              	.L570:
 4085 01ac 0220     		movs	r0, #2
 4086              	.L553:
 4087 01ae 38BD     		pop	{r3, r4, r5, pc}
 4088              	.L571:
 4089 01b0 0220     		movs	r0, #2
 4090 01b2 FCE7     		b	.L553
 4091              	.L581:
 4092              		.align	2
 4093              	.L580:
 4094 01b4 00200240 		.word	1073881088
 4095 01b8 00210240 		.word	1073881344
 4096 01bc 00600258 		.word	1476550656
 4097 01c0 00000000 		.word	.LC0
 4098 01c4 C0FFFF7F 		.word	2147483584
 4099 01c8 00630258 		.word	1476551424
 4101              		.section	.text.HAL_ADC_Start_DMA,"ax",%progbits
ARM GAS  C:\Users\thewo\AppData\Local\Temp\ccRWmotf.s 			page 72


 4102              		.align	1
 4103              		.global	HAL_ADC_Start_DMA
 4104              		.syntax unified
 4105              		.thumb
 4106              		.thumb_func
 4108              	HAL_ADC_Start_DMA:
 4109              		@ args = 0, pretend = 0, frame = 0
 4110              		@ frame_needed = 0, uses_anonymous_args = 0
 4111 0000 F8B5     		push	{r3, r4, r5, r6, r7, lr}
 4112 0002 0446     		mov	r4, r0
 4113 0004 0E46     		mov	r6, r1
 4114 0006 1746     		mov	r7, r2
 4115 0008 0068     		ldr	r0, [r0]
 4116 000a 4E4A     		ldr	r2, .L603
 4117 000c 4E4B     		ldr	r3, .L603+4
 4118 000e 9842     		cmp	r0, r3
 4119 0010 18BF     		it	ne
 4120 0012 9042     		cmpne	r0, r2
 4121 0014 2BD1     		bne	.L595
 4122 0016 03F50073 		add	r3, r3, #512
 4123              	.L583:
 4124 001a 9D68     		ldr	r5, [r3, #8]
 4125 001c 05F01F05 		and	r5, r5, #31
 4126 0020 484A     		ldr	r2, .L603
 4127 0022 494B     		ldr	r3, .L603+4
 4128 0024 9042     		cmp	r0, r2
 4129 0026 18BF     		it	ne
 4130 0028 9842     		cmpne	r0, r3
 4131 002a 07D0     		beq	.L584
 4132 002c 474B     		ldr	r3, .L603+8
 4133 002e 9842     		cmp	r0, r3
 4134 0030 04D0     		beq	.L584
 4135 0032 40F64601 		movw	r1, #2118
 4136 0036 4648     		ldr	r0, .L603+12
 4137 0038 FFF7FEFF 		bl	assert_failed
 4138              	.L584:
 4139 003c 2368     		ldr	r3, [r4]
 4140 003e 9B68     		ldr	r3, [r3, #8]
 4141 0040 13F0040F 		tst	r3, #4
 4142 0044 7AD1     		bne	.L596
 4143 0046 94F85C30 		ldrb	r3, [r4, #92]	@ zero_extendqisi2
 4144 004a 012B     		cmp	r3, #1
 4145 004c 78D0     		beq	.L597
 4146 004e 0123     		movs	r3, #1
 4147 0050 84F85C30 		strb	r3, [r4, #92]
 4148 0054 092D     		cmp	r5, #9
 4149 0056 05D8     		bhi	.L586
 4150 0058 40F22123 		movw	r3, #545
 4151 005c EB40     		lsrs	r3, r3, r5
 4152 005e 13F0010F 		tst	r3, #1
 4153 0062 06D1     		bne	.L600
 4154              	.L586:
 4155 0064 0023     		movs	r3, #0
 4156 0066 84F85C30 		strb	r3, [r4, #92]
 4157 006a 0120     		movs	r0, #1
 4158 006c 67E0     		b	.L585
 4159              	.L595:
ARM GAS  C:\Users\thewo\AppData\Local\Temp\ccRWmotf.s 			page 73


 4160 006e 394B     		ldr	r3, .L603+16
 4161 0070 D3E7     		b	.L583
 4162              	.L600:
 4163 0072 2046     		mov	r0, r4
 4164 0074 FFF7FEFF 		bl	ADC_Enable
 4165 0078 0028     		cmp	r0, #0
 4166 007a 5BD1     		bne	.L587
 4167 007c 226E     		ldr	r2, [r4, #96]
 4168 007e A0F60273 		subw	r3, r0, #3842
 4169 0082 1340     		ands	r3, r3, r2
 4170 0084 43F48073 		orr	r3, r3, #256
 4171 0088 2366     		str	r3, [r4, #96]
 4172 008a 2368     		ldr	r3, [r4]
 4173 008c 2E4A     		ldr	r2, .L603+4
 4174 008e 9342     		cmp	r3, r2
 4175 0090 3CD0     		beq	.L601
 4176 0092 1A46     		mov	r2, r3
 4177              	.L588:
 4178 0094 9342     		cmp	r3, r2
 4179 0096 00D0     		beq	.L589
 4180 0098 1DB9     		cbnz	r5, .L590
 4181              	.L589:
 4182 009a 236E     		ldr	r3, [r4, #96]
 4183 009c 23F48013 		bic	r3, r3, #1048576
 4184 00a0 2366     		str	r3, [r4, #96]
 4185              	.L590:
 4186 00a2 236E     		ldr	r3, [r4, #96]
 4187 00a4 13F4805F 		tst	r3, #4096
 4188 00a8 33D0     		beq	.L591
 4189 00aa 636E     		ldr	r3, [r4, #100]
 4190 00ac 23F00603 		bic	r3, r3, #6
 4191 00b0 6366     		str	r3, [r4, #100]
 4192              	.L592:
 4193 00b2 A36D     		ldr	r3, [r4, #88]
 4194 00b4 284A     		ldr	r2, .L603+20
 4195 00b6 DA63     		str	r2, [r3, #60]
 4196 00b8 A36D     		ldr	r3, [r4, #88]
 4197 00ba 284A     		ldr	r2, .L603+24
 4198 00bc 1A64     		str	r2, [r3, #64]
 4199 00be A36D     		ldr	r3, [r4, #88]
 4200 00c0 274A     		ldr	r2, .L603+28
 4201 00c2 DA64     		str	r2, [r3, #76]
 4202 00c4 2368     		ldr	r3, [r4]
 4203 00c6 1C22     		movs	r2, #28
 4204 00c8 1A60     		str	r2, [r3]
 4205 00ca 0023     		movs	r3, #0
 4206 00cc 84F85C30 		strb	r3, [r4, #92]
 4207 00d0 2268     		ldr	r2, [r4]
 4208 00d2 5368     		ldr	r3, [r2, #4]
 4209 00d4 43F01003 		orr	r3, r3, #16
 4210 00d8 5360     		str	r3, [r2, #4]
 4211 00da 2368     		ldr	r3, [r4]
 4212 00dc 1B4A     		ldr	r2, .L603+8
 4213 00de 9342     		cmp	r3, r2
 4214 00e0 1AD0     		beq	.L602
 4215 00e2 226B     		ldr	r2, [r4, #48]
 4216 00e4 D968     		ldr	r1, [r3, #12]
ARM GAS  C:\Users\thewo\AppData\Local\Temp\ccRWmotf.s 			page 74


 4217 00e6 21F00301 		bic	r1, r1, #3
 4218 00ea 0A43     		orrs	r2, r2, r1
 4219 00ec DA60     		str	r2, [r3, #12]
 4220              	.L594:
 4221 00ee 2168     		ldr	r1, [r4]
 4222 00f0 3B46     		mov	r3, r7
 4223 00f2 3246     		mov	r2, r6
 4224 00f4 4031     		adds	r1, r1, #64
 4225 00f6 A06D     		ldr	r0, [r4, #88]
 4226 00f8 FFF7FEFF 		bl	HAL_DMA_Start_IT
 4227 00fc 2268     		ldr	r2, [r4]
 4228 00fe 9168     		ldr	r1, [r2, #8]
 4229 0100 184B     		ldr	r3, .L603+32
 4230 0102 0B40     		ands	r3, r3, r1
 4231 0104 43F00403 		orr	r3, r3, #4
 4232 0108 9360     		str	r3, [r2, #8]
 4233 010a 18E0     		b	.L585
 4234              	.L601:
 4235 010c A2F58072 		sub	r2, r2, #256
 4236 0110 C0E7     		b	.L588
 4237              	.L591:
 4238 0112 0023     		movs	r3, #0
 4239 0114 6366     		str	r3, [r4, #100]
 4240 0116 CCE7     		b	.L592
 4241              	.L602:
 4242 0118 94F83810 		ldrb	r1, [r4, #56]	@ zero_extendqisi2
 4243 011c DA68     		ldr	r2, [r3, #12]
 4244 011e 22F00302 		bic	r2, r2, #3
 4245 0122 42EA4102 		orr	r2, r2, r1, lsl #1
 4246 0126 DA60     		str	r2, [r3, #12]
 4247 0128 2268     		ldr	r2, [r4]
 4248 012a D368     		ldr	r3, [r2, #12]
 4249 012c 43F00103 		orr	r3, r3, #1
 4250 0130 D360     		str	r3, [r2, #12]
 4251 0132 DCE7     		b	.L594
 4252              	.L587:
 4253 0134 0023     		movs	r3, #0
 4254 0136 84F85C30 		strb	r3, [r4, #92]
 4255 013a 00E0     		b	.L585
 4256              	.L596:
 4257 013c 0220     		movs	r0, #2
 4258              	.L585:
 4259 013e F8BD     		pop	{r3, r4, r5, r6, r7, pc}
 4260              	.L597:
 4261 0140 0220     		movs	r0, #2
 4262 0142 FCE7     		b	.L585
 4263              	.L604:
 4264              		.align	2
 4265              	.L603:
 4266 0144 00200240 		.word	1073881088
 4267 0148 00210240 		.word	1073881344
 4268 014c 00600258 		.word	1476550656
 4269 0150 00000000 		.word	.LC0
 4270 0154 00630258 		.word	1476551424
 4271 0158 00000000 		.word	ADC_DMAConvCplt
 4272 015c 00000000 		.word	ADC_DMAHalfConvCplt
 4273 0160 00000000 		.word	ADC_DMAError
ARM GAS  C:\Users\thewo\AppData\Local\Temp\ccRWmotf.s 			page 75


 4274 0164 C0FFFF7F 		.word	2147483584
 4276              		.section	.text.ADC_Disable,"ax",%progbits
 4277              		.align	1
 4278              		.global	ADC_Disable
 4279              		.syntax unified
 4280              		.thumb
 4281              		.thumb_func
 4283              	ADC_Disable:
 4284              		@ args = 0, pretend = 0, frame = 0
 4285              		@ frame_needed = 0, uses_anonymous_args = 0
 4286 0000 38B5     		push	{r3, r4, r5, lr}
 4287 0002 0446     		mov	r4, r0
 4288 0004 0268     		ldr	r2, [r0]
 4289 0006 9368     		ldr	r3, [r2, #8]
 4290 0008 13F00203 		ands	r3, r3, #2
 4291 000c 00D0     		beq	.L606
 4292 000e 0123     		movs	r3, #1
 4293              	.L606:
 4294 0010 9168     		ldr	r1, [r2, #8]
 4295 0012 11F0010F 		tst	r1, #1
 4296 0016 37D0     		beq	.L611
 4297 0018 002B     		cmp	r3, #0
 4298 001a 37D1     		bne	.L612
 4299 001c 9368     		ldr	r3, [r2, #8]
 4300 001e 03F00D03 		and	r3, r3, #13
 4301 0022 012B     		cmp	r3, #1
 4302 0024 09D0     		beq	.L614
 4303 0026 236E     		ldr	r3, [r4, #96]
 4304 0028 43F01003 		orr	r3, r3, #16
 4305 002c 2366     		str	r3, [r4, #96]
 4306 002e 636E     		ldr	r3, [r4, #100]
 4307 0030 43F00103 		orr	r3, r3, #1
 4308 0034 6366     		str	r3, [r4, #100]
 4309 0036 0120     		movs	r0, #1
 4310 0038 27E0     		b	.L607
 4311              	.L614:
 4312 003a 9168     		ldr	r1, [r2, #8]
 4313 003c 144B     		ldr	r3, .L616
 4314 003e 0B40     		ands	r3, r3, r1
 4315 0040 43F00203 		orr	r3, r3, #2
 4316 0044 9360     		str	r3, [r2, #8]
 4317 0046 2368     		ldr	r3, [r4]
 4318 0048 0322     		movs	r2, #3
 4319 004a 1A60     		str	r2, [r3]
 4320 004c FFF7FEFF 		bl	HAL_GetTick
 4321 0050 0546     		mov	r5, r0
 4322              	.L609:
 4323 0052 2368     		ldr	r3, [r4]
 4324 0054 9B68     		ldr	r3, [r3, #8]
 4325 0056 13F0010F 		tst	r3, #1
 4326 005a 13D0     		beq	.L615
 4327 005c FFF7FEFF 		bl	HAL_GetTick
 4328 0060 401B     		subs	r0, r0, r5
 4329 0062 0228     		cmp	r0, #2
 4330 0064 F5D9     		bls	.L609
 4331 0066 2368     		ldr	r3, [r4]
 4332 0068 9B68     		ldr	r3, [r3, #8]
ARM GAS  C:\Users\thewo\AppData\Local\Temp\ccRWmotf.s 			page 76


 4333 006a 13F0010F 		tst	r3, #1
 4334 006e F0D0     		beq	.L609
 4335 0070 236E     		ldr	r3, [r4, #96]
 4336 0072 43F01003 		orr	r3, r3, #16
 4337 0076 2366     		str	r3, [r4, #96]
 4338 0078 636E     		ldr	r3, [r4, #100]
 4339 007a 43F00103 		orr	r3, r3, #1
 4340 007e 6366     		str	r3, [r4, #100]
 4341 0080 0120     		movs	r0, #1
 4342 0082 02E0     		b	.L607
 4343              	.L615:
 4344 0084 0020     		movs	r0, #0
 4345 0086 00E0     		b	.L607
 4346              	.L611:
 4347 0088 0020     		movs	r0, #0
 4348              	.L607:
 4349 008a 38BD     		pop	{r3, r4, r5, pc}
 4350              	.L612:
 4351 008c 0020     		movs	r0, #0
 4352 008e FCE7     		b	.L607
 4353              	.L617:
 4354              		.align	2
 4355              	.L616:
 4356 0090 C0FFFF7F 		.word	2147483584
 4358              		.section	.text.HAL_ADC_DeInit,"ax",%progbits
 4359              		.align	1
 4360              		.global	HAL_ADC_DeInit
 4361              		.syntax unified
 4362              		.thumb
 4363              		.thumb_func
 4365              	HAL_ADC_DeInit:
 4366              		@ args = 0, pretend = 0, frame = 0
 4367              		@ frame_needed = 0, uses_anonymous_args = 0
 4368 0000 38B5     		push	{r3, r4, r5, lr}
 4369 0002 0028     		cmp	r0, #0
 4370 0004 00F00D81 		beq	.L632
 4371 0008 0446     		mov	r4, r0
 4372 000a 0368     		ldr	r3, [r0]
 4373 000c 8649     		ldr	r1, .L638
 4374 000e 874A     		ldr	r2, .L638+4
 4375 0010 8B42     		cmp	r3, r1
 4376 0012 18BF     		it	ne
 4377 0014 9342     		cmpne	r3, r2
 4378 0016 07D0     		beq	.L620
 4379 0018 854A     		ldr	r2, .L638+8
 4380 001a 9342     		cmp	r3, r2
 4381 001c 04D0     		beq	.L620
 4382 001e 40F25531 		movw	r1, #853
 4383 0022 8448     		ldr	r0, .L638+12
 4384 0024 FFF7FEFF 		bl	assert_failed
 4385              	.L620:
 4386 0028 236E     		ldr	r3, [r4, #96]
 4387 002a 43F00203 		orr	r3, r3, #2
 4388 002e 2366     		str	r3, [r4, #96]
 4389 0030 0321     		movs	r1, #3
 4390 0032 2046     		mov	r0, r4
 4391 0034 FFF7FEFF 		bl	ADC_ConversionStop
ARM GAS  C:\Users\thewo\AppData\Local\Temp\ccRWmotf.s 			page 77


 4392 0038 2268     		ldr	r2, [r4]
 4393 003a D368     		ldr	r3, [r2, #12]
 4394 003c 43F40013 		orr	r3, r3, #2097152
 4395 0040 D360     		str	r3, [r2, #12]
 4396 0042 0546     		mov	r5, r0
 4397 0044 0028     		cmp	r0, #0
 4398 0046 00F0BE80 		beq	.L635
 4399              	.L621:
 4400 004a 2268     		ldr	r2, [r4]
 4401 004c 5368     		ldr	r3, [r2, #4]
 4402 004e 6FF30A03 		bfc	r3, #0, #11
 4403 0052 5360     		str	r3, [r2, #4]
 4404 0054 2368     		ldr	r3, [r4]
 4405 0056 40F2FF72 		movw	r2, #2047
 4406 005a 1A60     		str	r2, [r3]
 4407 005c 2268     		ldr	r2, [r4]
 4408 005e 9368     		ldr	r3, [r2, #8]
 4409 0060 23F0A043 		bic	r3, r3, #1342177280
 4410 0064 9360     		str	r3, [r2, #8]
 4411 0066 2268     		ldr	r2, [r4]
 4412 0068 9368     		ldr	r3, [r2, #8]
 4413 006a 43F00053 		orr	r3, r3, #536870912
 4414 006e 9360     		str	r3, [r2, #8]
 4415 0070 2268     		ldr	r2, [r4]
 4416 0072 D368     		ldr	r3, [r2, #12]
 4417 0074 03F08023 		and	r3, r3, #-2147450880
 4418 0078 D360     		str	r3, [r2, #12]
 4419 007a 2268     		ldr	r2, [r4]
 4420 007c D368     		ldr	r3, [r2, #12]
 4421 007e 43F00043 		orr	r3, r3, #-2147483648
 4422 0082 D360     		str	r3, [r2, #12]
 4423 0084 2268     		ldr	r2, [r4]
 4424 0086 1169     		ldr	r1, [r2, #16]
 4425 0088 6B4B     		ldr	r3, .L638+16
 4426 008a 0B40     		ands	r3, r3, r1
 4427 008c 1361     		str	r3, [r2, #16]
 4428 008e 2268     		ldr	r2, [r4]
 4429 0090 5369     		ldr	r3, [r2, #20]
 4430 0092 03F04043 		and	r3, r3, #-1073741824
 4431 0096 5361     		str	r3, [r2, #20]
 4432 0098 2268     		ldr	r2, [r4]
 4433 009a 9369     		ldr	r3, [r2, #24]
 4434 009c 03F07843 		and	r3, r3, #-134217728
 4435 00a0 9361     		str	r3, [r2, #24]
 4436 00a2 2368     		ldr	r3, [r4]
 4437 00a4 624A     		ldr	r2, .L638+8
 4438 00a6 9342     		cmp	r3, r2
 4439 00a8 00F09780 		beq	.L636
 4440 00ac 1A6A     		ldr	r2, [r3, #32]
 4441 00ae 02F07C42 		and	r2, r2, #-67108864
 4442 00b2 1A62     		str	r2, [r3, #32]
 4443 00b4 2268     		ldr	r2, [r4]
 4444 00b6 536A     		ldr	r3, [r2, #36]
 4445 00b8 03F07C43 		and	r3, r3, #-67108864
 4446 00bc 5362     		str	r3, [r2, #36]
 4447 00be 2268     		ldr	r2, [r4]
 4448 00c0 D2F8B030 		ldr	r3, [r2, #176]
ARM GAS  C:\Users\thewo\AppData\Local\Temp\ccRWmotf.s 			page 78


 4449 00c4 03F07C43 		and	r3, r3, #-67108864
 4450 00c8 C2F8B030 		str	r3, [r2, #176]
 4451 00cc 2268     		ldr	r2, [r4]
 4452 00ce D2F8B430 		ldr	r3, [r2, #180]
 4453 00d2 03F07C43 		and	r3, r3, #-67108864
 4454 00d6 C2F8B430 		str	r3, [r2, #180]
 4455 00da 2268     		ldr	r2, [r4]
 4456 00dc D2F8B830 		ldr	r3, [r2, #184]
 4457 00e0 03F07C43 		and	r3, r3, #-67108864
 4458 00e4 C2F8B830 		str	r3, [r2, #184]
 4459 00e8 2268     		ldr	r2, [r4]
 4460 00ea D2F8BC30 		ldr	r3, [r2, #188]
 4461 00ee 03F07C43 		and	r3, r3, #-67108864
 4462 00f2 C2F8BC30 		str	r3, [r2, #188]
 4463              	.L623:
 4464 00f6 2268     		ldr	r2, [r4]
 4465 00f8 116B     		ldr	r1, [r2, #48]
 4466 00fa 504B     		ldr	r3, .L638+20
 4467 00fc 0B40     		ands	r3, r3, r1
 4468 00fe 1363     		str	r3, [r2, #48]
 4469 0100 2268     		ldr	r2, [r4]
 4470 0102 536B     		ldr	r3, [r2, #52]
 4471 0104 4E49     		ldr	r1, .L638+24
 4472 0106 0B40     		ands	r3, r3, r1
 4473 0108 5363     		str	r3, [r2, #52]
 4474 010a 2268     		ldr	r2, [r4]
 4475 010c 936B     		ldr	r3, [r2, #56]
 4476 010e 0B40     		ands	r3, r3, r1
 4477 0110 9363     		str	r3, [r2, #56]
 4478 0112 2268     		ldr	r2, [r4]
 4479 0114 D16B     		ldr	r1, [r2, #60]
 4480 0116 4B4B     		ldr	r3, .L638+28
 4481 0118 0B40     		ands	r3, r3, r1
 4482 011a D363     		str	r3, [r2, #60]
 4483 011c 2268     		ldr	r2, [r4]
 4484 011e 136E     		ldr	r3, [r2, #96]
 4485 0120 0023     		movs	r3, #0
 4486 0122 1366     		str	r3, [r2, #96]
 4487 0124 2268     		ldr	r2, [r4]
 4488 0126 516E     		ldr	r1, [r2, #100]
 4489 0128 5366     		str	r3, [r2, #100]
 4490 012a 2268     		ldr	r2, [r4]
 4491 012c 916E     		ldr	r1, [r2, #104]
 4492 012e 9366     		str	r3, [r2, #104]
 4493 0130 2268     		ldr	r2, [r4]
 4494 0132 D16E     		ldr	r1, [r2, #108]
 4495 0134 D366     		str	r3, [r2, #108]
 4496 0136 2268     		ldr	r2, [r4]
 4497 0138 D2F8A030 		ldr	r3, [r2, #160]
 4498 013c 4249     		ldr	r1, .L638+32
 4499 013e 0B40     		ands	r3, r3, r1
 4500 0140 C2F8A030 		str	r3, [r2, #160]
 4501 0144 2268     		ldr	r2, [r4]
 4502 0146 D2F8A430 		ldr	r3, [r2, #164]
 4503 014a 0B40     		ands	r3, r3, r1
 4504 014c C2F8A430 		str	r3, [r2, #164]
 4505 0150 2368     		ldr	r3, [r4]
ARM GAS  C:\Users\thewo\AppData\Local\Temp\ccRWmotf.s 			page 79


 4506 0152 374A     		ldr	r2, .L638+8
 4507 0154 9342     		cmp	r3, r2
 4508 0156 4FD0     		beq	.L637
 4509 0158 D3F8C020 		ldr	r2, [r3, #192]
 4510 015c 6FF31302 		bfc	r2, #0, #20
 4511 0160 C3F8C020 		str	r2, [r3, #192]
 4512 0164 2268     		ldr	r2, [r4]
 4513 0166 D2F8C430 		ldr	r3, [r2, #196]
 4514 016a 03F0F823 		and	r3, r3, #-134154240
 4515 016e C2F8C430 		str	r3, [r2, #196]
 4516              	.L625:
 4517 0172 2368     		ldr	r3, [r4]
 4518 0174 2C49     		ldr	r1, .L638
 4519 0176 2D4A     		ldr	r2, .L638+4
 4520 0178 9342     		cmp	r3, r2
 4521 017a 18BF     		it	ne
 4522 017c 8B42     		cmpne	r3, r1
 4523 017e 0CBF     		ite	eq
 4524 0180 0123     		moveq	r3, #1
 4525 0182 0023     		movne	r3, #0
 4526 0184 45D1     		bne	.L626
 4527 0186 8968     		ldr	r1, [r1, #8]
 4528 0188 11F00101 		ands	r1, r1, #1
 4529 018c 00D0     		beq	.L627
 4530 018e 0121     		movs	r1, #1
 4531              	.L627:
 4532 0190 264A     		ldr	r2, .L638+4
 4533 0192 9268     		ldr	r2, [r2, #8]
 4534 0194 12F00102 		ands	r2, r2, #1
 4535 0198 00D0     		beq	.L628
 4536 019a 0122     		movs	r2, #1
 4537              	.L628:
 4538 019c 0A43     		orrs	r2, r2, r1
 4539 019e 09D1     		bne	.L630
 4540              	.L629:
 4541 01a0 002B     		cmp	r3, #0
 4542 01a2 3CD0     		beq	.L633
 4543 01a4 294A     		ldr	r2, .L638+36
 4544              	.L631:
 4545 01a6 9168     		ldr	r1, [r2, #8]
 4546 01a8 294B     		ldr	r3, .L638+40
 4547 01aa 0B40     		ands	r3, r3, r1
 4548 01ac 9360     		str	r3, [r2, #8]
 4549 01ae 2046     		mov	r0, r4
 4550 01b0 FFF7FEFF 		bl	HAL_ADC_MspDeInit
 4551              	.L630:
 4552 01b4 0023     		movs	r3, #0
 4553 01b6 6366     		str	r3, [r4, #100]
 4554 01b8 A366     		str	r3, [r4, #104]
 4555 01ba E366     		str	r3, [r4, #108]
 4556 01bc 2366     		str	r3, [r4, #96]
 4557 01be 84F85C30 		strb	r3, [r4, #92]
 4558              	.L619:
 4559 01c2 2846     		mov	r0, r5
 4560 01c4 38BD     		pop	{r3, r4, r5, pc}
 4561              	.L635:
 4562 01c6 2046     		mov	r0, r4
ARM GAS  C:\Users\thewo\AppData\Local\Temp\ccRWmotf.s 			page 80


 4563 01c8 FFF7FEFF 		bl	ADC_Disable
 4564 01cc 0546     		mov	r5, r0
 4565 01ce 0028     		cmp	r0, #0
 4566 01d0 7FF43BAF 		bne	.L621
 4567 01d4 0123     		movs	r3, #1
 4568 01d6 2366     		str	r3, [r4, #96]
 4569 01d8 37E7     		b	.L621
 4570              	.L636:
 4571 01da 1A6A     		ldr	r2, [r3, #32]
 4572 01dc 02F0F022 		and	r2, r2, #-268374016
 4573 01e0 1A62     		str	r2, [r3, #32]
 4574 01e2 2268     		ldr	r2, [r4]
 4575 01e4 536A     		ldr	r3, [r2, #36]
 4576 01e6 03F0FF23 		and	r3, r3, #-16711936
 4577 01ea 5362     		str	r3, [r2, #36]
 4578 01ec 2268     		ldr	r2, [r4]
 4579 01ee 936A     		ldr	r3, [r2, #40]
 4580 01f0 03F0FF23 		and	r3, r3, #-16711936
 4581 01f4 9362     		str	r3, [r2, #40]
 4582 01f6 7EE7     		b	.L623
 4583              	.L637:
 4584 01f8 D3F8B020 		ldr	r2, [r3, #176]
 4585 01fc 0A40     		ands	r2, r2, r1
 4586 01fe C3F8B020 		str	r2, [r3, #176]
 4587 0202 2268     		ldr	r2, [r4]
 4588 0204 D2F8B430 		ldr	r3, [r2, #180]
 4589 0208 03F0F823 		and	r3, r3, #-134154240
 4590 020c C2F8B430 		str	r3, [r2, #180]
 4591 0210 AFE7     		b	.L625
 4592              	.L626:
 4593 0212 074A     		ldr	r2, .L638+8
 4594 0214 9268     		ldr	r2, [r2, #8]
 4595 0216 12F0010F 		tst	r2, #1
 4596 021a CBD1     		bne	.L630
 4597 021c C0E7     		b	.L629
 4598              	.L633:
 4599 021e 0D4A     		ldr	r2, .L638+44
 4600 0220 C1E7     		b	.L631
 4601              	.L632:
 4602 0222 0125     		movs	r5, #1
 4603 0224 CDE7     		b	.L619
 4604              	.L639:
 4605 0226 00BF     		.align	2
 4606              	.L638:
 4607 0228 00200240 		.word	1073881088
 4608 022c 00210240 		.word	1073881344
 4609 0230 00600258 		.word	1476550656
 4610 0234 00000000 		.word	.LC0
 4611 0238 1CF800FC 		.word	-67045348
 4612 023c 300882E0 		.word	-528349136
 4613 0240 200882E0 		.word	-528349152
 4614 0244 20F8FFFF 		.word	-2016
 4615 0248 0000F0FF 		.word	-1048576
 4616 024c 00230240 		.word	1073881856
 4617 0250 E03000FE 		.word	-33541920
 4618 0254 00630258 		.word	1476551424
 4620              		.section	.text.HAL_ADC_Stop,"ax",%progbits
ARM GAS  C:\Users\thewo\AppData\Local\Temp\ccRWmotf.s 			page 81


 4621              		.align	1
 4622              		.global	HAL_ADC_Stop
 4623              		.syntax unified
 4624              		.thumb
 4625              		.thumb_func
 4627              	HAL_ADC_Stop:
 4628              		@ args = 0, pretend = 0, frame = 0
 4629              		@ frame_needed = 0, uses_anonymous_args = 0
 4630 0000 10B5     		push	{r4, lr}
 4631 0002 0446     		mov	r4, r0
 4632 0004 0368     		ldr	r3, [r0]
 4633 0006 1649     		ldr	r1, .L647
 4634 0008 164A     		ldr	r2, .L647+4
 4635 000a 8B42     		cmp	r3, r1
 4636 000c 18BF     		it	ne
 4637 000e 9342     		cmpne	r3, r2
 4638 0010 07D0     		beq	.L641
 4639 0012 154A     		ldr	r2, .L647+8
 4640 0014 9342     		cmp	r3, r2
 4641 0016 04D0     		beq	.L641
 4642 0018 40F2F351 		movw	r1, #1523
 4643 001c 1348     		ldr	r0, .L647+12
 4644 001e FFF7FEFF 		bl	assert_failed
 4645              	.L641:
 4646 0022 94F85C30 		ldrb	r3, [r4, #92]	@ zero_extendqisi2
 4647 0026 012B     		cmp	r3, #1
 4648 0028 17D0     		beq	.L644
 4649 002a 0123     		movs	r3, #1
 4650 002c 84F85C30 		strb	r3, [r4, #92]
 4651 0030 0321     		movs	r1, #3
 4652 0032 2046     		mov	r0, r4
 4653 0034 FFF7FEFF 		bl	ADC_ConversionStop
 4654 0038 18B1     		cbz	r0, .L646
 4655              	.L643:
 4656 003a 0023     		movs	r3, #0
 4657 003c 84F85C30 		strb	r3, [r4, #92]
 4658              	.L642:
 4659 0040 10BD     		pop	{r4, pc}
 4660              	.L646:
 4661 0042 2046     		mov	r0, r4
 4662 0044 FFF7FEFF 		bl	ADC_Disable
 4663 0048 0028     		cmp	r0, #0
 4664 004a F6D1     		bne	.L643
 4665 004c 226E     		ldr	r2, [r4, #96]
 4666 004e 084B     		ldr	r3, .L647+16
 4667 0050 1340     		ands	r3, r3, r2
 4668 0052 43F00103 		orr	r3, r3, #1
 4669 0056 2366     		str	r3, [r4, #96]
 4670 0058 EFE7     		b	.L643
 4671              	.L644:
 4672 005a 0220     		movs	r0, #2
 4673 005c F0E7     		b	.L642
 4674              	.L648:
 4675 005e 00BF     		.align	2
 4676              	.L647:
 4677 0060 00200240 		.word	1073881088
 4678 0064 00210240 		.word	1073881344
ARM GAS  C:\Users\thewo\AppData\Local\Temp\ccRWmotf.s 			page 82


 4679 0068 00600258 		.word	1476550656
 4680 006c 00000000 		.word	.LC0
 4681 0070 FEEEFFFF 		.word	-4354
 4683              		.section	.text.HAL_ADC_Stop_IT,"ax",%progbits
 4684              		.align	1
 4685              		.global	HAL_ADC_Stop_IT
 4686              		.syntax unified
 4687              		.thumb
 4688              		.thumb_func
 4690              	HAL_ADC_Stop_IT:
 4691              		@ args = 0, pretend = 0, frame = 0
 4692              		@ frame_needed = 0, uses_anonymous_args = 0
 4693 0000 10B5     		push	{r4, lr}
 4694 0002 0446     		mov	r4, r0
 4695 0004 0368     		ldr	r3, [r0]
 4696 0006 1849     		ldr	r1, .L656
 4697 0008 184A     		ldr	r2, .L656+4
 4698 000a 8B42     		cmp	r3, r1
 4699 000c 18BF     		it	ne
 4700 000e 9342     		cmpne	r3, r2
 4701 0010 07D0     		beq	.L650
 4702 0012 174A     		ldr	r2, .L656+8
 4703 0014 9342     		cmp	r3, r2
 4704 0016 04D0     		beq	.L650
 4705 0018 4FF40161 		mov	r1, #2064
 4706 001c 1548     		ldr	r0, .L656+12
 4707 001e FFF7FEFF 		bl	assert_failed
 4708              	.L650:
 4709 0022 94F85C30 		ldrb	r3, [r4, #92]	@ zero_extendqisi2
 4710 0026 012B     		cmp	r3, #1
 4711 0028 1CD0     		beq	.L653
 4712 002a 0123     		movs	r3, #1
 4713 002c 84F85C30 		strb	r3, [r4, #92]
 4714 0030 0321     		movs	r1, #3
 4715 0032 2046     		mov	r0, r4
 4716 0034 FFF7FEFF 		bl	ADC_ConversionStop
 4717 0038 18B1     		cbz	r0, .L655
 4718              	.L652:
 4719 003a 0023     		movs	r3, #0
 4720 003c 84F85C30 		strb	r3, [r4, #92]
 4721              	.L651:
 4722 0040 10BD     		pop	{r4, pc}
 4723              	.L655:
 4724 0042 2268     		ldr	r2, [r4]
 4725 0044 5368     		ldr	r3, [r2, #4]
 4726 0046 23F01C03 		bic	r3, r3, #28
 4727 004a 5360     		str	r3, [r2, #4]
 4728 004c 2046     		mov	r0, r4
 4729 004e FFF7FEFF 		bl	ADC_Disable
 4730 0052 0028     		cmp	r0, #0
 4731 0054 F1D1     		bne	.L652
 4732 0056 226E     		ldr	r2, [r4, #96]
 4733 0058 074B     		ldr	r3, .L656+16
 4734 005a 1340     		ands	r3, r3, r2
 4735 005c 43F00103 		orr	r3, r3, #1
 4736 0060 2366     		str	r3, [r4, #96]
 4737 0062 EAE7     		b	.L652
ARM GAS  C:\Users\thewo\AppData\Local\Temp\ccRWmotf.s 			page 83


 4738              	.L653:
 4739 0064 0220     		movs	r0, #2
 4740 0066 EBE7     		b	.L651
 4741              	.L657:
 4742              		.align	2
 4743              	.L656:
 4744 0068 00200240 		.word	1073881088
 4745 006c 00210240 		.word	1073881344
 4746 0070 00600258 		.word	1476550656
 4747 0074 00000000 		.word	.LC0
 4748 0078 FEEEFFFF 		.word	-4354
 4750              		.section	.text.HAL_ADC_Stop_DMA,"ax",%progbits
 4751              		.align	1
 4752              		.global	HAL_ADC_Stop_DMA
 4753              		.syntax unified
 4754              		.thumb
 4755              		.thumb_func
 4757              	HAL_ADC_Stop_DMA:
 4758              		@ args = 0, pretend = 0, frame = 0
 4759              		@ frame_needed = 0, uses_anonymous_args = 0
 4760 0000 38B5     		push	{r3, r4, r5, lr}
 4761 0002 0446     		mov	r4, r0
 4762 0004 0368     		ldr	r3, [r0]
 4763 0006 2549     		ldr	r1, .L668
 4764 0008 254A     		ldr	r2, .L668+4
 4765 000a 8B42     		cmp	r3, r1
 4766 000c 18BF     		it	ne
 4767 000e 9342     		cmpne	r3, r2
 4768 0010 07D0     		beq	.L659
 4769 0012 244A     		ldr	r2, .L668+8
 4770 0014 9342     		cmp	r3, r2
 4771 0016 04D0     		beq	.L659
 4772 0018 40F6D801 		movw	r1, #2264
 4773 001c 2248     		ldr	r0, .L668+12
 4774 001e FFF7FEFF 		bl	assert_failed
 4775              	.L659:
 4776 0022 94F85C30 		ldrb	r3, [r4, #92]	@ zero_extendqisi2
 4777 0026 012B     		cmp	r3, #1
 4778 0028 36D0     		beq	.L665
 4779 002a 0123     		movs	r3, #1
 4780 002c 84F85C30 		strb	r3, [r4, #92]
 4781 0030 0321     		movs	r1, #3
 4782 0032 2046     		mov	r0, r4
 4783 0034 FFF7FEFF 		bl	ADC_ConversionStop
 4784 0038 0546     		mov	r5, r0
 4785 003a D0B9     		cbnz	r0, .L661
 4786 003c 2268     		ldr	r2, [r4]
 4787 003e D368     		ldr	r3, [r2, #12]
 4788 0040 23F00303 		bic	r3, r3, #3
 4789 0044 D360     		str	r3, [r2, #12]
 4790 0046 A06D     		ldr	r0, [r4, #88]
 4791 0048 90F83530 		ldrb	r3, [r0, #53]	@ zero_extendqisi2
 4792 004c 022B     		cmp	r3, #2
 4793 004e 15D0     		beq	.L667
 4794              	.L662:
 4795 0050 2268     		ldr	r2, [r4]
 4796 0052 5368     		ldr	r3, [r2, #4]
ARM GAS  C:\Users\thewo\AppData\Local\Temp\ccRWmotf.s 			page 84


 4797 0054 23F01003 		bic	r3, r3, #16
 4798 0058 5360     		str	r3, [r2, #4]
 4799 005a CDB9     		cbnz	r5, .L663
 4800 005c 2046     		mov	r0, r4
 4801 005e FFF7FEFF 		bl	ADC_Disable
 4802 0062 0546     		mov	r5, r0
 4803              	.L664:
 4804 0064 2DB9     		cbnz	r5, .L661
 4805 0066 226E     		ldr	r2, [r4, #96]
 4806 0068 104B     		ldr	r3, .L668+16
 4807 006a 1340     		ands	r3, r3, r2
 4808 006c 43F00103 		orr	r3, r3, #1
 4809 0070 2366     		str	r3, [r4, #96]
 4810              	.L661:
 4811 0072 0023     		movs	r3, #0
 4812 0074 84F85C30 		strb	r3, [r4, #92]
 4813              	.L660:
 4814 0078 2846     		mov	r0, r5
 4815 007a 38BD     		pop	{r3, r4, r5, pc}
 4816              	.L667:
 4817 007c FFF7FEFF 		bl	HAL_DMA_Abort
 4818 0080 0546     		mov	r5, r0
 4819 0082 0028     		cmp	r0, #0
 4820 0084 E4D0     		beq	.L662
 4821 0086 236E     		ldr	r3, [r4, #96]
 4822 0088 43F04003 		orr	r3, r3, #64
 4823 008c 2366     		str	r3, [r4, #96]
 4824 008e DFE7     		b	.L662
 4825              	.L663:
 4826 0090 2046     		mov	r0, r4
 4827 0092 FFF7FEFF 		bl	ADC_Disable
 4828 0096 E5E7     		b	.L664
 4829              	.L665:
 4830 0098 0225     		movs	r5, #2
 4831 009a EDE7     		b	.L660
 4832              	.L669:
 4833              		.align	2
 4834              	.L668:
 4835 009c 00200240 		.word	1073881088
 4836 00a0 00210240 		.word	1073881344
 4837 00a4 00600258 		.word	1476550656
 4838 00a8 00000000 		.word	.LC0
 4839 00ac FEEEFFFF 		.word	-4354
 4841              		.section	.text.ADC_ConfigureBoostMode,"ax",%progbits
 4842              		.align	1
 4843              		.global	ADC_ConfigureBoostMode
 4844              		.syntax unified
 4845              		.thumb
 4846              		.thumb_func
 4848              	ADC_ConfigureBoostMode:
 4849              		@ args = 0, pretend = 0, frame = 0
 4850              		@ frame_needed = 0, uses_anonymous_args = 0
 4851 0000 10B5     		push	{r4, lr}
 4852 0002 0446     		mov	r4, r0
 4853 0004 0368     		ldr	r3, [r0]
 4854 0006 4349     		ldr	r1, .L692
 4855 0008 434A     		ldr	r2, .L692+4
ARM GAS  C:\Users\thewo\AppData\Local\Temp\ccRWmotf.s 			page 85


 4856 000a 9342     		cmp	r3, r2
 4857 000c 18BF     		it	ne
 4858 000e 8B42     		cmpne	r3, r1
 4859 0010 1FD1     		bne	.L671
 4860 0012 424B     		ldr	r3, .L692+8
 4861 0014 9B68     		ldr	r3, [r3, #8]
 4862 0016 03F44033 		and	r3, r3, #196608
 4863 001a 003B     		subs	r3, r3, #0
 4864 001c 18BF     		it	ne
 4865 001e 0123     		movne	r3, #1
 4866              	.L672:
 4867 0020 0BB3     		cbz	r3, .L673
 4868 0022 FFF7FEFF 		bl	HAL_RCC_GetHCLKFreq
 4869 0026 6368     		ldr	r3, [r4, #4]
 4870 0028 B3F5003F 		cmp	r3, #131072
 4871 002c 05D0     		beq	.L674
 4872 002e B3F5403F 		cmp	r3, #196608
 4873 0032 16D0     		beq	.L675
 4874 0034 B3F5803F 		cmp	r3, #65536
 4875 0038 02D1     		bne	.L676
 4876              	.L674:
 4877 003a 1B0C     		lsrs	r3, r3, #16
 4878 003c B0FBF3F0 		udiv	r0, r0, r3
 4879              	.L676:
 4880 0040 374B     		ldr	r3, .L692+12
 4881 0042 9842     		cmp	r0, r3
 4882 0044 49D8     		bhi	.L686
 4883 0046 2268     		ldr	r2, [r4]
 4884 0048 9368     		ldr	r3, [r2, #8]
 4885 004a 23F44073 		bic	r3, r3, #768
 4886 004e 9360     		str	r3, [r2, #8]
 4887              	.L670:
 4888 0050 10BD     		pop	{r4, pc}
 4889              	.L671:
 4890 0052 344B     		ldr	r3, .L692+16
 4891 0054 9B68     		ldr	r3, [r3, #8]
 4892 0056 03F44033 		and	r3, r3, #196608
 4893 005a 003B     		subs	r3, r3, #0
 4894 005c 18BF     		it	ne
 4895 005e 0123     		movne	r3, #1
 4896 0060 DEE7     		b	.L672
 4897              	.L675:
 4898 0062 8008     		lsrs	r0, r0, #2
 4899 0064 ECE7     		b	.L676
 4900              	.L673:
 4901 0066 4FF40020 		mov	r0, #524288
 4902 006a 0021     		movs	r1, #0
 4903 006c FFF7FEFF 		bl	HAL_RCCEx_GetPeriphCLKFreq
 4904 0070 6368     		ldr	r3, [r4, #4]
 4905 0072 B3F5101F 		cmp	r3, #2359296
 4906 0076 2CD0     		beq	.L677
 4907 0078 21D8     		bhi	.L678
 4908 007a B3F5E01F 		cmp	r3, #1835008
 4909 007e 26D0     		beq	.L679
 4910 0080 04D9     		bls	.L691
 4911 0082 B3F5001F 		cmp	r3, #2097152
 4912 0086 DBD1     		bne	.L676
ARM GAS  C:\Users\thewo\AppData\Local\Temp\ccRWmotf.s 			page 86


 4913 0088 4009     		lsrs	r0, r0, #5
 4914 008a D9E7     		b	.L676
 4915              	.L691:
 4916 008c B3F5801F 		cmp	r3, #1048576
 4917 0090 10D0     		beq	.L681
 4918 0092 09D8     		bhi	.L682
 4919 0094 B3F5002F 		cmp	r3, #524288
 4920 0098 0CD0     		beq	.L681
 4921 009a B3F5402F 		cmp	r3, #786432
 4922 009e 09D0     		beq	.L681
 4923 00a0 B3F5802F 		cmp	r3, #262144
 4924 00a4 06D0     		beq	.L681
 4925 00a6 CBE7     		b	.L676
 4926              	.L682:
 4927 00a8 B3F5A01F 		cmp	r3, #1310720
 4928 00ac 02D0     		beq	.L681
 4929 00ae B3F5C01F 		cmp	r3, #1572864
 4930 00b2 C5D1     		bne	.L676
 4931              	.L681:
 4932 00b4 9B0C     		lsrs	r3, r3, #18
 4933 00b6 5B00     		lsls	r3, r3, #1
 4934 00b8 B0FBF3F0 		udiv	r0, r0, r3
 4935 00bc C0E7     		b	.L676
 4936              	.L678:
 4937 00be B3F5201F 		cmp	r3, #2621440
 4938 00c2 08D0     		beq	.L684
 4939 00c4 B3F5301F 		cmp	r3, #2883584
 4940 00c8 BAD1     		bne	.L676
 4941 00ca 000A     		lsrs	r0, r0, #8
 4942 00cc B8E7     		b	.L676
 4943              	.L679:
 4944 00ce 0009     		lsrs	r0, r0, #4
 4945 00d0 B6E7     		b	.L676
 4946              	.L677:
 4947 00d2 8009     		lsrs	r0, r0, #6
 4948 00d4 B4E7     		b	.L676
 4949              	.L684:
 4950 00d6 C009     		lsrs	r0, r0, #7
 4951 00d8 B2E7     		b	.L676
 4952              	.L686:
 4953 00da 134B     		ldr	r3, .L692+20
 4954 00dc 9842     		cmp	r0, r3
 4955 00de 07D8     		bhi	.L688
 4956 00e0 2268     		ldr	r2, [r4]
 4957 00e2 9368     		ldr	r3, [r2, #8]
 4958 00e4 23F44073 		bic	r3, r3, #768
 4959 00e8 43F48073 		orr	r3, r3, #256
 4960 00ec 9360     		str	r3, [r2, #8]
 4961 00ee AFE7     		b	.L670
 4962              	.L688:
 4963 00f0 0E4B     		ldr	r3, .L692+24
 4964 00f2 9842     		cmp	r0, r3
 4965 00f4 07D8     		bhi	.L689
 4966 00f6 2268     		ldr	r2, [r4]
 4967 00f8 9368     		ldr	r3, [r2, #8]
 4968 00fa 23F44073 		bic	r3, r3, #768
 4969 00fe 43F40073 		orr	r3, r3, #512
ARM GAS  C:\Users\thewo\AppData\Local\Temp\ccRWmotf.s 			page 87


 4970 0102 9360     		str	r3, [r2, #8]
 4971 0104 A4E7     		b	.L670
 4972              	.L689:
 4973 0106 2268     		ldr	r2, [r4]
 4974 0108 9368     		ldr	r3, [r2, #8]
 4975 010a 43F44073 		orr	r3, r3, #768
 4976 010e 9360     		str	r3, [r2, #8]
 4977 0110 9EE7     		b	.L670
 4978              	.L693:
 4979 0112 00BF     		.align	2
 4980              	.L692:
 4981 0114 00200240 		.word	1073881088
 4982 0118 00210240 		.word	1073881344
 4983 011c 00230240 		.word	1073881856
 4984 0120 21BCBE00 		.word	12500001
 4985 0124 00630258 		.word	1476551424
 4986 0128 41787D01 		.word	25000001
 4987 012c 81F0FA02 		.word	50000001
 4989              		.section	.text.HAL_ADC_Init,"ax",%progbits
 4990              		.align	1
 4991              		.global	HAL_ADC_Init
 4992              		.syntax unified
 4993              		.thumb
 4994              		.thumb_func
 4996              	HAL_ADC_Init:
 4997              		@ args = 0, pretend = 0, frame = 8
 4998              		@ frame_needed = 0, uses_anonymous_args = 0
 4999 0000 30B5     		push	{r4, r5, lr}
 5000 0002 83B0     		sub	sp, sp, #12
 5001 0004 0023     		movs	r3, #0
 5002 0006 0193     		str	r3, [sp, #4]
 5003 0008 0028     		cmp	r0, #0
 5004 000a 00F00F83 		beq	.L751
 5005 000e 0446     		mov	r4, r0
 5006 0010 0368     		ldr	r3, [r0]
 5007 0012 A449     		ldr	r1, .L785
 5008 0014 A44A     		ldr	r2, .L785+4
 5009 0016 8B42     		cmp	r3, r1
 5010 0018 18BF     		it	ne
 5011 001a 9342     		cmpne	r3, r2
 5012 001c 07D0     		beq	.L696
 5013 001e A34A     		ldr	r2, .L785+8
 5014 0020 9342     		cmp	r3, r2
 5015 0022 04D0     		beq	.L696
 5016 0024 40F2A711 		movw	r1, #423
 5017 0028 A148     		ldr	r0, .L785+12
 5018 002a FFF7FEFF 		bl	assert_failed
 5019              	.L696:
 5020 002e 6368     		ldr	r3, [r4, #4]
 5021 0030 B3F5803F 		cmp	r3, #65536
 5022 0034 18BF     		it	ne
 5023 0036 B3F5003F 		cmpne	r3, #131072
 5024 003a 25D0     		beq	.L697
 5025 003c B3F5403F 		cmp	r3, #196608
 5026 0040 22D0     		beq	.L697
 5027 0042 0BB3     		cbz	r3, .L697
 5028 0044 B3F5802F 		cmp	r3, #262144
ARM GAS  C:\Users\thewo\AppData\Local\Temp\ccRWmotf.s 			page 88


 5029 0048 1ED0     		beq	.L697
 5030 004a B3F5002F 		cmp	r3, #524288
 5031 004e 1BD0     		beq	.L697
 5032 0050 B3F5402F 		cmp	r3, #786432
 5033 0054 18D0     		beq	.L697
 5034 0056 B3F5801F 		cmp	r3, #1048576
 5035 005a 15D0     		beq	.L697
 5036 005c B3F5A01F 		cmp	r3, #1310720
 5037 0060 12D0     		beq	.L697
 5038 0062 B3F5C01F 		cmp	r3, #1572864
 5039 0066 0FD0     		beq	.L697
 5040 0068 B3F5E01F 		cmp	r3, #1835008
 5041 006c 0CD0     		beq	.L697
 5042 006e B3F5001F 		cmp	r3, #2097152
 5043 0072 09D0     		beq	.L697
 5044 0074 B3F5101F 		cmp	r3, #2359296
 5045 0078 06D0     		beq	.L697
 5046 007a B3F5201F 		cmp	r3, #2621440
 5047 007e 03D0     		beq	.L697
 5048 0080 B3F5301F 		cmp	r3, #2883584
 5049 0084 40F0BF80 		bne	.L757
 5050              	.L697:
 5051 0088 A368     		ldr	r3, [r4, #8]
 5052 008a 002B     		cmp	r3, #0
 5053 008c 18BF     		it	ne
 5054 008e 042B     		cmpne	r3, #4
 5055 0090 0AD0     		beq	.L698
 5056 0092 1C2B     		cmp	r3, #28
 5057 0094 00F2BD80 		bhi	.L699
 5058 0098 4FF01122 		mov	r2, #285217024
 5059 009c 22FA03F3 		lsr	r3, r2, r3
 5060 00a0 13F0010F 		tst	r3, #1
 5061 00a4 00F0B580 		beq	.L699
 5062              	.L698:
 5063 00a8 2369     		ldr	r3, [r4, #16]
 5064 00aa 012B     		cmp	r3, #1
 5065 00ac 00F2B780 		bhi	.L758
 5066              	.L700:
 5067 00b0 637E     		ldrb	r3, [r4, #25]	@ zero_extendqisi2
 5068 00b2 012B     		cmp	r3, #1
 5069 00b4 00F2B980 		bhi	.L759
 5070              	.L701:
 5071 00b8 E36A     		ldr	r3, [r4, #44]
 5072 00ba 002B     		cmp	r3, #0
 5073 00bc 18BF     		it	ne
 5074 00be B3F5806F 		cmpne	r3, #1024
 5075 00c2 06D0     		beq	.L702
 5076 00c4 B3F5006F 		cmp	r3, #2048
 5077 00c8 03D0     		beq	.L702
 5078 00ca B3F5406F 		cmp	r3, #3072
 5079 00ce 40F0B280 		bne	.L760
 5080              	.L702:
 5081 00d2 A36A     		ldr	r3, [r4, #40]
 5082 00d4 B3F5806F 		cmp	r3, #1024
 5083 00d8 18BF     		it	ne
 5084 00da B3F5846F 		cmpne	r3, #1056
 5085 00de 40D0     		beq	.L703
ARM GAS  C:\Users\thewo\AppData\Local\Temp\ccRWmotf.s 			page 89


 5086 00e0 B3F5886F 		cmp	r3, #1088
 5087 00e4 3DD0     		beq	.L703
 5088 00e6 B3F58C6F 		cmp	r3, #1120
 5089 00ea 3AD0     		beq	.L703
 5090 00ec B3F5906F 		cmp	r3, #1152
 5091 00f0 37D0     		beq	.L703
 5092 00f2 B3F5946F 		cmp	r3, #1184
 5093 00f6 34D0     		beq	.L703
 5094 00f8 B3F5986F 		cmp	r3, #1216
 5095 00fc 31D0     		beq	.L703
 5096 00fe B3F59C6F 		cmp	r3, #1248
 5097 0102 2ED0     		beq	.L703
 5098 0104 B3F5A06F 		cmp	r3, #1280
 5099 0108 2BD0     		beq	.L703
 5100 010a B3F5A46F 		cmp	r3, #1312
 5101 010e 28D0     		beq	.L703
 5102 0110 B3F5A86F 		cmp	r3, #1344
 5103 0114 25D0     		beq	.L703
 5104 0116 B3F5AC6F 		cmp	r3, #1376
 5105 011a 22D0     		beq	.L703
 5106 011c B3F5B06F 		cmp	r3, #1408
 5107 0120 1FD0     		beq	.L703
 5108 0122 B3F5B46F 		cmp	r3, #1440
 5109 0126 1CD0     		beq	.L703
 5110 0128 B3F5B86F 		cmp	r3, #1472
 5111 012c 19D0     		beq	.L703
 5112 012e B3F5BC6F 		cmp	r3, #1504
 5113 0132 16D0     		beq	.L703
 5114 0134 B3F5C06F 		cmp	r3, #1536
 5115 0138 13D0     		beq	.L703
 5116 013a B3F5C46F 		cmp	r3, #1568
 5117 013e 10D0     		beq	.L703
 5118 0140 B3F5C86F 		cmp	r3, #1600
 5119 0144 0DD0     		beq	.L703
 5120 0146 B3F5CC6F 		cmp	r3, #1632
 5121 014a 0AD0     		beq	.L703
 5122 014c B3F5D06F 		cmp	r3, #1664
 5123 0150 07D0     		beq	.L703
 5124 0152 B3F5D46F 		cmp	r3, #1696
 5125 0156 04D0     		beq	.L703
 5126 0158 B3F5D86F 		cmp	r3, #1728
 5127 015c 01D0     		beq	.L703
 5128 015e 002B     		cmp	r3, #0
 5129 0160 6FD1     		bne	.L761
 5130              	.L703:
 5131 0162 236B     		ldr	r3, [r4, #48]
 5132 0164 002B     		cmp	r3, #0
 5133 0166 18BF     		it	ne
 5134 0168 022B     		cmpne	r3, #2
 5135 016a 03D0     		beq	.L704
 5136 016c 012B     		cmp	r3, #1
 5137 016e 01D0     		beq	.L704
 5138 0170 032B     		cmp	r3, #3
 5139 0172 6CD1     		bne	.L762
 5140              	.L704:
 5141 0174 6369     		ldr	r3, [r4, #20]
 5142 0176 042B     		cmp	r3, #4
ARM GAS  C:\Users\thewo\AppData\Local\Temp\ccRWmotf.s 			page 90


 5143 0178 18BF     		it	ne
 5144 017a 082B     		cmpne	r3, #8
 5145 017c 6DD1     		bne	.L763
 5146              	.L705:
 5147 017e E36B     		ldr	r3, [r4, #60]
 5148 0180 002B     		cmp	r3, #0
 5149 0182 18BF     		it	ne
 5150 0184 B3F5805F 		cmpne	r3, #4096
 5151 0188 6DD1     		bne	.L764
 5152              	.L706:
 5153 018a 237E     		ldrb	r3, [r4, #24]	@ zero_extendqisi2
 5154 018c 012B     		cmp	r3, #1
 5155 018e 70D8     		bhi	.L765
 5156              	.L707:
 5157 0190 94F84430 		ldrb	r3, [r4, #68]	@ zero_extendqisi2
 5158 0194 012B     		cmp	r3, #1
 5159 0196 72D8     		bhi	.L766
 5160              	.L708:
 5161 0198 2369     		ldr	r3, [r4, #16]
 5162 019a 63B1     		cbz	r3, .L709
 5163 019c E369     		ldr	r3, [r4, #28]
 5164 019e 013B     		subs	r3, r3, #1
 5165 01a0 0F2B     		cmp	r3, #15
 5166 01a2 72D8     		bhi	.L767
 5167              	.L710:
 5168 01a4 94F82030 		ldrb	r3, [r4, #32]	@ zero_extendqisi2
 5169 01a8 012B     		cmp	r3, #1
 5170 01aa 74D8     		bhi	.L768
 5171              	.L711:
 5172 01ac 94F82030 		ldrb	r3, [r4, #32]	@ zero_extendqisi2
 5173 01b0 012B     		cmp	r3, #1
 5174 01b2 00F08780 		beq	.L769
 5175              	.L709:
 5176 01b6 94F82030 		ldrb	r3, [r4, #32]	@ zero_extendqisi2
 5177 01ba 012B     		cmp	r3, #1
 5178 01bc 00F08D80 		beq	.L770
 5179              	.L712:
 5180 01c0 236E     		ldr	r3, [r4, #96]
 5181 01c2 002B     		cmp	r3, #0
 5182 01c4 00F09380 		beq	.L771
 5183              	.L713:
 5184 01c8 2368     		ldr	r3, [r4]
 5185 01ca 9A68     		ldr	r2, [r3, #8]
 5186 01cc 12F0005F 		tst	r2, #536870912
 5187 01d0 03D0     		beq	.L714
 5188 01d2 9968     		ldr	r1, [r3, #8]
 5189 01d4 374A     		ldr	r2, .L785+16
 5190 01d6 0A40     		ands	r2, r2, r1
 5191 01d8 9A60     		str	r2, [r3, #8]
 5192              	.L714:
 5193 01da 2368     		ldr	r3, [r4]
 5194 01dc 9A68     		ldr	r2, [r3, #8]
 5195 01de 12F0805F 		tst	r2, #268435456
 5196 01e2 40F09280 		bne	.L715
 5197 01e6 9968     		ldr	r1, [r3, #8]
 5198 01e8 334A     		ldr	r2, .L785+20
 5199 01ea 0A40     		ands	r2, r2, r1
ARM GAS  C:\Users\thewo\AppData\Local\Temp\ccRWmotf.s 			page 91


 5200 01ec 42F08052 		orr	r2, r2, #268435456
 5201 01f0 9A60     		str	r2, [r3, #8]
 5202 01f2 324B     		ldr	r3, .L785+24
 5203 01f4 1B68     		ldr	r3, [r3]
 5204 01f6 9B09     		lsrs	r3, r3, #6
 5205 01f8 314A     		ldr	r2, .L785+28
 5206 01fa A2FB0323 		umull	r2, r3, r2, r3
 5207 01fe 9B09     		lsrs	r3, r3, #6
 5208 0200 0133     		adds	r3, r3, #1
 5209 0202 0193     		str	r3, [sp, #4]
 5210 0204 7EE0     		b	.L716
 5211              	.L757:
 5212 0206 4FF4D471 		mov	r1, #424
 5213 020a 2948     		ldr	r0, .L785+12
 5214 020c FFF7FEFF 		bl	assert_failed
 5215 0210 3AE7     		b	.L697
 5216              	.L699:
 5217 0212 40F2A911 		movw	r1, #425
 5218 0216 2648     		ldr	r0, .L785+12
 5219 0218 FFF7FEFF 		bl	assert_failed
 5220 021c 44E7     		b	.L698
 5221              	.L758:
 5222 021e 4FF4D571 		mov	r1, #426
 5223 0222 2348     		ldr	r0, .L785+12
 5224 0224 FFF7FEFF 		bl	assert_failed
 5225 0228 42E7     		b	.L700
 5226              	.L759:
 5227 022a 40F2AB11 		movw	r1, #427
 5228 022e 2048     		ldr	r0, .L785+12
 5229 0230 FFF7FEFF 		bl	assert_failed
 5230 0234 40E7     		b	.L701
 5231              	.L760:
 5232 0236 4FF4D671 		mov	r1, #428
 5233 023a 1D48     		ldr	r0, .L785+12
 5234 023c FFF7FEFF 		bl	assert_failed
 5235 0240 47E7     		b	.L702
 5236              	.L761:
 5237 0242 40F2AD11 		movw	r1, #429
 5238 0246 1A48     		ldr	r0, .L785+12
 5239 0248 FFF7FEFF 		bl	assert_failed
 5240 024c 89E7     		b	.L703
 5241              	.L762:
 5242 024e 4FF4D771 		mov	r1, #430
 5243 0252 1748     		ldr	r0, .L785+12
 5244 0254 FFF7FEFF 		bl	assert_failed
 5245 0258 8CE7     		b	.L704
 5246              	.L763:
 5247 025a 40F2AF11 		movw	r1, #431
 5248 025e 1448     		ldr	r0, .L785+12
 5249 0260 FFF7FEFF 		bl	assert_failed
 5250 0264 8BE7     		b	.L705
 5251              	.L764:
 5252 0266 4FF4D871 		mov	r1, #432
 5253 026a 1148     		ldr	r0, .L785+12
 5254 026c FFF7FEFF 		bl	assert_failed
 5255 0270 8BE7     		b	.L706
 5256              	.L765:
ARM GAS  C:\Users\thewo\AppData\Local\Temp\ccRWmotf.s 			page 92


 5257 0272 40F2B111 		movw	r1, #433
 5258 0276 0E48     		ldr	r0, .L785+12
 5259 0278 FFF7FEFF 		bl	assert_failed
 5260 027c 88E7     		b	.L707
 5261              	.L766:
 5262 027e 4FF4D971 		mov	r1, #434
 5263 0282 0B48     		ldr	r0, .L785+12
 5264 0284 FFF7FEFF 		bl	assert_failed
 5265 0288 86E7     		b	.L708
 5266              	.L767:
 5267 028a 4FF4DB71 		mov	r1, #438
 5268 028e 0848     		ldr	r0, .L785+12
 5269 0290 FFF7FEFF 		bl	assert_failed
 5270 0294 86E7     		b	.L710
 5271              	.L768:
 5272 0296 40F2B711 		movw	r1, #439
 5273 029a 0548     		ldr	r0, .L785+12
 5274 029c FFF7FEFF 		bl	assert_failed
 5275 02a0 84E7     		b	.L711
 5276              	.L786:
 5277 02a2 00BF     		.align	2
 5278              	.L785:
 5279 02a4 00200240 		.word	1073881088
 5280 02a8 00210240 		.word	1073881344
 5281 02ac 00600258 		.word	1476550656
 5282 02b0 00000000 		.word	.LC0
 5283 02b4 C0FFFF5F 		.word	1610612672
 5284 02b8 C0FFFF6F 		.word	1879048128
 5285 02bc 00000000 		.word	SystemCoreClock
 5286 02c0 632D3E05 		.word	87960931
 5287              	.L769:
 5288 02c4 636A     		ldr	r3, [r4, #36]
 5289 02c6 013B     		subs	r3, r3, #1
 5290 02c8 072B     		cmp	r3, #7
 5291 02ca 7FF674AF 		bls	.L709
 5292 02ce 40F2BB11 		movw	r1, #443
 5293 02d2 7D48     		ldr	r0, .L787
 5294 02d4 FFF7FEFF 		bl	assert_failed
 5295 02d8 6DE7     		b	.L709
 5296              	.L770:
 5297 02da 637E     		ldrb	r3, [r4, #25]	@ zero_extendqisi2
 5298 02dc 012B     		cmp	r3, #1
 5299 02de 7FF46FAF 		bne	.L712
 5300 02e2 4FF4E071 		mov	r1, #448
 5301 02e6 7848     		ldr	r0, .L787
 5302 02e8 FFF7FEFF 		bl	assert_failed
 5303 02ec 68E7     		b	.L712
 5304              	.L771:
 5305 02ee 2046     		mov	r0, r4
 5306 02f0 FFF7FEFF 		bl	HAL_ADC_MspInit
 5307 02f4 0023     		movs	r3, #0
 5308 02f6 6366     		str	r3, [r4, #100]
 5309 02f8 84F85C30 		strb	r3, [r4, #92]
 5310 02fc 64E7     		b	.L713
 5311              	.L717:
 5312 02fe 019B     		ldr	r3, [sp, #4]
 5313 0300 013B     		subs	r3, r3, #1
ARM GAS  C:\Users\thewo\AppData\Local\Temp\ccRWmotf.s 			page 93


 5314 0302 0193     		str	r3, [sp, #4]
 5315              	.L716:
 5316 0304 019B     		ldr	r3, [sp, #4]
 5317 0306 002B     		cmp	r3, #0
 5318 0308 F9D1     		bne	.L717
 5319              	.L715:
 5320 030a 2368     		ldr	r3, [r4]
 5321 030c 9A68     		ldr	r2, [r3, #8]
 5322 030e 12F0805F 		tst	r2, #268435456
 5323 0312 40F09E80 		bne	.L752
 5324 0316 226E     		ldr	r2, [r4, #96]
 5325 0318 42F01002 		orr	r2, r2, #16
 5326 031c 2266     		str	r2, [r4, #96]
 5327 031e 626E     		ldr	r2, [r4, #100]
 5328 0320 42F00102 		orr	r2, r2, #1
 5329 0324 6266     		str	r2, [r4, #100]
 5330 0326 0125     		movs	r5, #1
 5331              	.L718:
 5332 0328 9A68     		ldr	r2, [r3, #8]
 5333 032a 12F00402 		ands	r2, r2, #4
 5334 032e 00D0     		beq	.L719
 5335 0330 0122     		movs	r2, #1
 5336              	.L719:
 5337 0332 216E     		ldr	r1, [r4, #96]
 5338 0334 11F0100F 		tst	r1, #16
 5339 0338 40F07081 		bne	.L720
 5340 033c 002A     		cmp	r2, #0
 5341 033e 40F06D81 		bne	.L720
 5342 0342 216E     		ldr	r1, [r4, #96]
 5343 0344 21F48171 		bic	r1, r1, #258
 5344 0348 41F00201 		orr	r1, r1, #2
 5345 034c 2166     		str	r1, [r4, #96]
 5346 034e 9968     		ldr	r1, [r3, #8]
 5347 0350 11F0010F 		tst	r1, #1
 5348 0354 1ED1     		bne	.L721
 5349 0356 5D48     		ldr	r0, .L787+4
 5350 0358 5D49     		ldr	r1, .L787+8
 5351 035a 8B42     		cmp	r3, r1
 5352 035c 18BF     		it	ne
 5353 035e 8342     		cmpne	r3, r0
 5354 0360 0CBF     		ite	eq
 5355 0362 0123     		moveq	r3, #1
 5356 0364 0023     		movne	r3, #0
 5357 0366 76D1     		bne	.L722
 5358 0368 8068     		ldr	r0, [r0, #8]
 5359 036a 10F00100 		ands	r0, r0, #1
 5360 036e 00D0     		beq	.L723
 5361 0370 0120     		movs	r0, #1
 5362              	.L723:
 5363 0372 5749     		ldr	r1, .L787+8
 5364 0374 8968     		ldr	r1, [r1, #8]
 5365 0376 11F00101 		ands	r1, r1, #1
 5366 037a 00D0     		beq	.L724
 5367 037c 0121     		movs	r1, #1
 5368              	.L724:
 5369 037e 0143     		orrs	r1, r1, r0
 5370 0380 08D1     		bne	.L721
ARM GAS  C:\Users\thewo\AppData\Local\Temp\ccRWmotf.s 			page 94


 5371              	.L725:
 5372 0382 002B     		cmp	r3, #0
 5373 0384 6DD0     		beq	.L753
 5374 0386 5348     		ldr	r0, .L787+12
 5375              	.L726:
 5376 0388 6368     		ldr	r3, [r4, #4]
 5377 038a 8168     		ldr	r1, [r0, #8]
 5378 038c 21F47C11 		bic	r1, r1, #4128768
 5379 0390 0B43     		orrs	r3, r3, r1
 5380 0392 8360     		str	r3, [r0, #8]
 5381              	.L721:
 5382 0394 2168     		ldr	r1, [r4]
 5383 0396 504B     		ldr	r3, .L787+16
 5384 0398 9942     		cmp	r1, r3
 5385 039a 64D0     		beq	.L772
 5386 039c 627E     		ldrb	r2, [r4, #25]	@ zero_extendqisi2
 5387 039e E36B     		ldr	r3, [r4, #60]
 5388 03a0 43EA4233 		orr	r3, r3, r2, lsl #13
 5389 03a4 A268     		ldr	r2, [r4, #8]
 5390 03a6 1343     		orrs	r3, r3, r2
 5391 03a8 94F82020 		ldrb	r2, [r4, #32]	@ zero_extendqisi2
 5392 03ac 43EA0243 		orr	r3, r3, r2, lsl #16
 5393              	.L729:
 5394 03b0 94F82020 		ldrb	r2, [r4, #32]	@ zero_extendqisi2
 5395 03b4 012A     		cmp	r2, #1
 5396 03b6 6ED0     		beq	.L773
 5397              	.L730:
 5398 03b8 A26A     		ldr	r2, [r4, #40]
 5399 03ba 22B1     		cbz	r2, .L731
 5400 03bc 02F47872 		and	r2, r2, #992
 5401 03c0 E06A     		ldr	r0, [r4, #44]
 5402 03c2 0243     		orrs	r2, r2, r0
 5403 03c4 1343     		orrs	r3, r3, r2
 5404              	.L731:
 5405 03c6 444A     		ldr	r2, .L787+16
 5406 03c8 9142     		cmp	r1, r2
 5407 03ca 69D0     		beq	.L774
 5408 03cc C868     		ldr	r0, [r1, #12]
 5409 03ce 434A     		ldr	r2, .L787+20
 5410 03d0 0240     		ands	r2, r2, r0
 5411 03d2 1A43     		orrs	r2, r2, r3
 5412 03d4 CA60     		str	r2, [r1, #12]
 5413              	.L733:
 5414 03d6 2268     		ldr	r2, [r4]
 5415 03d8 9368     		ldr	r3, [r2, #8]
 5416 03da 13F00403 		ands	r3, r3, #4
 5417 03de 00D0     		beq	.L734
 5418 03e0 0123     		movs	r3, #1
 5419              	.L734:
 5420 03e2 9168     		ldr	r1, [r2, #8]
 5421 03e4 11F0080F 		tst	r1, #8
 5422 03e8 23D1     		bne	.L735
 5423 03ea 13BB     		cbnz	r3, .L735
 5424 03ec 3A4B     		ldr	r3, .L787+16
 5425 03ee 9A42     		cmp	r2, r3
 5426 03f0 63D0     		beq	.L775
 5427 03f2 237E     		ldrb	r3, [r4, #24]	@ zero_extendqisi2
ARM GAS  C:\Users\thewo\AppData\Local\Temp\ccRWmotf.s 			page 95


 5428 03f4 216B     		ldr	r1, [r4, #48]
 5429 03f6 41EA8331 		orr	r1, r1, r3, lsl #14
 5430              	.L737:
 5431 03fa D068     		ldr	r0, [r2, #12]
 5432 03fc 384B     		ldr	r3, .L787+24
 5433 03fe 0340     		ands	r3, r3, r0
 5434 0400 0B43     		orrs	r3, r3, r1
 5435 0402 D360     		str	r3, [r2, #12]
 5436 0404 94F84430 		ldrb	r3, [r4, #68]	@ zero_extendqisi2
 5437 0408 012B     		cmp	r3, #1
 5438 040a 6FD0     		beq	.L776
 5439 040c 2268     		ldr	r2, [r4]
 5440 040e 1369     		ldr	r3, [r2, #16]
 5441 0410 23F00103 		bic	r3, r3, #1
 5442 0414 1361     		str	r3, [r2, #16]
 5443              	.L748:
 5444 0416 2268     		ldr	r2, [r4]
 5445 0418 1369     		ldr	r3, [r2, #16]
 5446 041a 23F07043 		bic	r3, r3, #-268435456
 5447 041e 216C     		ldr	r1, [r4, #64]
 5448 0420 0B43     		orrs	r3, r3, r1
 5449 0422 1361     		str	r3, [r2, #16]
 5450 0424 2268     		ldr	r2, [r4]
 5451 0426 2C4B     		ldr	r3, .L787+16
 5452 0428 9A42     		cmp	r2, r3
 5453 042a 02D0     		beq	.L735
 5454 042c 2046     		mov	r0, r4
 5455 042e FFF7FEFF 		bl	ADC_ConfigureBoostMode
 5456              	.L735:
 5457 0432 2369     		ldr	r3, [r4, #16]
 5458 0434 012B     		cmp	r3, #1
 5459 0436 00F0E880 		beq	.L777
 5460 043a 2268     		ldr	r2, [r4]
 5461 043c 136B     		ldr	r3, [r2, #48]
 5462 043e 23F00F03 		bic	r3, r3, #15
 5463 0442 1363     		str	r3, [r2, #48]
 5464              	.L750:
 5465 0444 236E     		ldr	r3, [r4, #96]
 5466 0446 23F00303 		bic	r3, r3, #3
 5467 044a 43F00103 		orr	r3, r3, #1
 5468 044e 2366     		str	r3, [r4, #96]
 5469 0450 E9E0     		b	.L695
 5470              	.L752:
 5471 0452 0025     		movs	r5, #0
 5472 0454 68E7     		b	.L718
 5473              	.L722:
 5474 0456 2049     		ldr	r1, .L787+16
 5475 0458 8968     		ldr	r1, [r1, #8]
 5476 045a 11F0010F 		tst	r1, #1
 5477 045e 99D1     		bne	.L721
 5478 0460 8FE7     		b	.L725
 5479              	.L753:
 5480 0462 2048     		ldr	r0, .L787+28
 5481 0464 90E7     		b	.L726
 5482              	.L772:
 5483 0466 607E     		ldrb	r0, [r4, #25]	@ zero_extendqisi2
 5484 0468 E36B     		ldr	r3, [r4, #60]
ARM GAS  C:\Users\thewo\AppData\Local\Temp\ccRWmotf.s 			page 96


 5485 046a 43EA4033 		orr	r3, r3, r0, lsl #13
 5486 046e E068     		ldr	r0, [r4, #12]
 5487 0470 0343     		orrs	r3, r3, r0
 5488 0472 A068     		ldr	r0, [r4, #8]
 5489 0474 1828     		cmp	r0, #24
 5490 0476 04D0     		beq	.L728
 5491 0478 1C28     		cmp	r0, #28
 5492 047a 08D0     		beq	.L754
 5493 047c 0C28     		cmp	r0, #12
 5494 047e 08D1     		bne	.L755
 5495 0480 0820     		movs	r0, #8
 5496              	.L728:
 5497 0482 0343     		orrs	r3, r3, r0
 5498 0484 94F82020 		ldrb	r2, [r4, #32]	@ zero_extendqisi2
 5499 0488 43EA0243 		orr	r3, r3, r2, lsl #16
 5500 048c 90E7     		b	.L729
 5501              	.L754:
 5502 048e 1020     		movs	r0, #16
 5503 0490 F7E7     		b	.L728
 5504              	.L755:
 5505 0492 1046     		mov	r0, r2
 5506 0494 F5E7     		b	.L728
 5507              	.L773:
 5508 0496 626A     		ldr	r2, [r4, #36]
 5509 0498 013A     		subs	r2, r2, #1
 5510 049a 43EA4243 		orr	r3, r3, r2, lsl #17
 5511 049e 8BE7     		b	.L730
 5512              	.L774:
 5513 04a0 C868     		ldr	r0, [r1, #12]
 5514 04a2 114A     		ldr	r2, .L787+32
 5515 04a4 0240     		ands	r2, r2, r0
 5516 04a6 1A43     		orrs	r2, r2, r3
 5517 04a8 CA60     		str	r2, [r1, #12]
 5518 04aa 2268     		ldr	r2, [r4]
 5519 04ac 1369     		ldr	r3, [r2, #16]
 5520 04ae 23F04063 		bic	r3, r3, #201326592
 5521 04b2 616B     		ldr	r1, [r4, #52]
 5522 04b4 0B43     		orrs	r3, r3, r1
 5523 04b6 1361     		str	r3, [r2, #16]
 5524 04b8 8DE7     		b	.L733
 5525              	.L775:
 5526 04ba 237E     		ldrb	r3, [r4, #24]	@ zero_extendqisi2
 5527 04bc 94F83810 		ldrb	r1, [r4, #56]	@ zero_extendqisi2
 5528 04c0 4900     		lsls	r1, r1, #1
 5529 04c2 41EA8331 		orr	r1, r1, r3, lsl #14
 5530 04c6 98E7     		b	.L737
 5531              	.L788:
 5532              		.align	2
 5533              	.L787:
 5534 04c8 00000000 		.word	.LC0
 5535 04cc 00200240 		.word	1073881088
 5536 04d0 00210240 		.word	1073881344
 5537 04d4 00230240 		.word	1073881856
 5538 04d8 00600258 		.word	1476550656
 5539 04dc 03C0F0FF 		.word	-999421
 5540 04e0 FCBFFFFF 		.word	-16388
 5541 04e4 00630258 		.word	1476551424
ARM GAS  C:\Users\thewo\AppData\Local\Temp\ccRWmotf.s 			page 97


 5542 04e8 0740F0FF 		.word	-1032185
 5543              	.L776:
 5544 04ec 2268     		ldr	r2, [r4]
 5545 04ee 504B     		ldr	r3, .L789
 5546 04f0 9A42     		cmp	r2, r3
 5547 04f2 4AD0     		beq	.L778
 5548 04f4 A36C     		ldr	r3, [r4, #72]
 5549 04f6 013B     		subs	r3, r3, #1
 5550 04f8 B3F5806F 		cmp	r3, #1024
 5551 04fc 58D2     		bcs	.L779
 5552              	.L740:
 5553 04fe E36C     		ldr	r3, [r4, #76]
 5554 0500 002B     		cmp	r3, #0
 5555 0502 18BF     		it	ne
 5556 0504 202B     		cmpne	r3, #32
 5557 0506 17D0     		beq	.L742
 5558 0508 402B     		cmp	r3, #64
 5559 050a 15D0     		beq	.L742
 5560 050c 602B     		cmp	r3, #96
 5561 050e 13D0     		beq	.L742
 5562 0510 802B     		cmp	r3, #128
 5563 0512 11D0     		beq	.L742
 5564 0514 A02B     		cmp	r3, #160
 5565 0516 0FD0     		beq	.L742
 5566 0518 C02B     		cmp	r3, #192
 5567 051a 0DD0     		beq	.L742
 5568 051c E02B     		cmp	r3, #224
 5569 051e 0BD0     		beq	.L742
 5570 0520 B3F5807F 		cmp	r3, #256
 5571 0524 08D0     		beq	.L742
 5572 0526 B3F5907F 		cmp	r3, #288
 5573 052a 05D0     		beq	.L742
 5574 052c B3F5A07F 		cmp	r3, #320
 5575 0530 02D0     		beq	.L742
 5576 0532 B3F5B07F 		cmp	r3, #352
 5577 0536 41D1     		bne	.L780
 5578              	.L742:
 5579 0538 236D     		ldr	r3, [r4, #80]
 5580 053a 002B     		cmp	r3, #0
 5581 053c 18BF     		it	ne
 5582 053e B3F5007F 		cmpne	r3, #512
 5583 0542 41D1     		bne	.L781
 5584              	.L743:
 5585 0544 636D     		ldr	r3, [r4, #84]
 5586 0546 40F20142 		movw	r2, #1025
 5587 054a 012B     		cmp	r3, #1
 5588 054c 18BF     		it	ne
 5589 054e 9342     		cmpne	r3, r2
 5590 0550 40D1     		bne	.L782
 5591              	.L744:
 5592 0552 A36A     		ldr	r3, [r4, #40]
 5593 0554 0BB1     		cbz	r3, .L745
 5594 0556 E36A     		ldr	r3, [r4, #44]
 5595 0558 13B9     		cbnz	r3, .L746
 5596              	.L745:
 5597 055a 236D     		ldr	r3, [r4, #80]
 5598 055c 002B     		cmp	r3, #0
ARM GAS  C:\Users\thewo\AppData\Local\Temp\ccRWmotf.s 			page 98


 5599 055e 3FD1     		bne	.L783
 5600              	.L746:
 5601 0560 2168     		ldr	r1, [r4]
 5602 0562 334B     		ldr	r3, .L789
 5603 0564 9942     		cmp	r1, r3
 5604 0566 41D0     		beq	.L784
 5605 0568 0A69     		ldr	r2, [r1, #16]
 5606 056a 324B     		ldr	r3, .L789+4
 5607 056c 1340     		ands	r3, r3, r2
 5608 056e A26C     		ldr	r2, [r4, #72]
 5609 0570 501E     		subs	r0, r2, #1
 5610 0572 E26C     		ldr	r2, [r4, #76]
 5611 0574 42EA0042 		orr	r2, r2, r0, lsl #16
 5612 0578 206D     		ldr	r0, [r4, #80]
 5613 057a 0243     		orrs	r2, r2, r0
 5614 057c 606D     		ldr	r0, [r4, #84]
 5615 057e 0243     		orrs	r2, r2, r0
 5616 0580 1343     		orrs	r3, r3, r2
 5617 0582 43F00103 		orr	r3, r3, #1
 5618 0586 0B61     		str	r3, [r1, #16]
 5619 0588 45E7     		b	.L748
 5620              	.L778:
 5621 058a A36C     		ldr	r3, [r4, #72]
 5622 058c 002B     		cmp	r3, #0
 5623 058e 18BF     		it	ne
 5624 0590 042B     		cmpne	r3, #4
 5625 0592 B4D0     		beq	.L740
 5626 0594 1C2B     		cmp	r3, #28
 5627 0596 05D8     		bhi	.L741
 5628 0598 274A     		ldr	r2, .L789+8
 5629 059a 22FA03F3 		lsr	r3, r2, r3
 5630 059e 13F0010F 		tst	r3, #1
 5631 05a2 ACD1     		bne	.L740
 5632              	.L741:
 5633 05a4 40F2B921 		movw	r1, #697
 5634 05a8 2448     		ldr	r0, .L789+12
 5635 05aa FFF7FEFF 		bl	assert_failed
 5636 05ae A6E7     		b	.L740
 5637              	.L779:
 5638 05b0 40F2BD21 		movw	r1, #701
 5639 05b4 2148     		ldr	r0, .L789+12
 5640 05b6 FFF7FEFF 		bl	assert_failed
 5641 05ba A0E7     		b	.L740
 5642              	.L780:
 5643 05bc 40F2C221 		movw	r1, #706
 5644 05c0 1E48     		ldr	r0, .L789+12
 5645 05c2 FFF7FEFF 		bl	assert_failed
 5646 05c6 B7E7     		b	.L742
 5647              	.L781:
 5648 05c8 40F2C321 		movw	r1, #707
 5649 05cc 1B48     		ldr	r0, .L789+12
 5650 05ce FFF7FEFF 		bl	assert_failed
 5651 05d2 B7E7     		b	.L743
 5652              	.L782:
 5653 05d4 4FF43171 		mov	r1, #708
 5654 05d8 1848     		ldr	r0, .L789+12
 5655 05da FFF7FEFF 		bl	assert_failed
ARM GAS  C:\Users\thewo\AppData\Local\Temp\ccRWmotf.s 			page 99


 5656 05de B8E7     		b	.L744
 5657              	.L783:
 5658 05e0 40F2CA21 		movw	r1, #714
 5659 05e4 1548     		ldr	r0, .L789+12
 5660 05e6 FFF7FEFF 		bl	assert_failed
 5661 05ea B9E7     		b	.L746
 5662              	.L784:
 5663 05ec 0A69     		ldr	r2, [r1, #16]
 5664 05ee 144B     		ldr	r3, .L789+16
 5665 05f0 1340     		ands	r3, r3, r2
 5666 05f2 A26C     		ldr	r2, [r4, #72]
 5667 05f4 E06C     		ldr	r0, [r4, #76]
 5668 05f6 0243     		orrs	r2, r2, r0
 5669 05f8 206D     		ldr	r0, [r4, #80]
 5670 05fa 0243     		orrs	r2, r2, r0
 5671 05fc 606D     		ldr	r0, [r4, #84]
 5672 05fe 0243     		orrs	r2, r2, r0
 5673 0600 1343     		orrs	r3, r3, r2
 5674 0602 43F00103 		orr	r3, r3, #1
 5675 0606 0B61     		str	r3, [r1, #16]
 5676 0608 05E7     		b	.L748
 5677              	.L777:
 5678 060a 2168     		ldr	r1, [r4]
 5679 060c 0B6B     		ldr	r3, [r1, #48]
 5680 060e 23F00F03 		bic	r3, r3, #15
 5681 0612 E269     		ldr	r2, [r4, #28]
 5682 0614 013A     		subs	r2, r2, #1
 5683 0616 1343     		orrs	r3, r3, r2
 5684 0618 0B63     		str	r3, [r1, #48]
 5685 061a 13E7     		b	.L750
 5686              	.L720:
 5687 061c 236E     		ldr	r3, [r4, #96]
 5688 061e 43F01003 		orr	r3, r3, #16
 5689 0622 2366     		str	r3, [r4, #96]
 5690 0624 0125     		movs	r5, #1
 5691              	.L695:
 5692 0626 2846     		mov	r0, r5
 5693 0628 03B0     		add	sp, sp, #12
 5694              		@ sp needed
 5695 062a 30BD     		pop	{r4, r5, pc}
 5696              	.L751:
 5697 062c 0125     		movs	r5, #1
 5698 062e FAE7     		b	.L695
 5699              	.L790:
 5700              		.align	2
 5701              	.L789:
 5702 0630 00600258 		.word	1476550656
 5703 0634 1EF800FC 		.word	-67045346
 5704 0638 00111111 		.word	286331136
 5705 063c 00000000 		.word	.LC0
 5706 0640 1FF800FC 		.word	-67045345
 5708              		.ident	"GCC: (xPack GNU Arm Embedded GCC x86_64) 14.2.1 20241119"
ARM GAS  C:\Users\thewo\AppData\Local\Temp\ccRWmotf.s 			page 100

