ARM GAS  C:\Users\thewo\AppData\Local\Temp\ccmSrwLr.s 			page 1


   1              		.cpu cortex-m7
   2              		.arch armv7e-m
   3              		.fpu fpv5-d16
   4              		.eabi_attribute 28, 1
   5              		.eabi_attribute 20, 1
   6              		.eabi_attribute 21, 1
   7              		.eabi_attribute 23, 3
   8              		.eabi_attribute 24, 1
   9              		.eabi_attribute 25, 1
  10              		.eabi_attribute 26, 1
  11              		.eabi_attribute 30, 1
  12              		.eabi_attribute 34, 1
  13              		.eabi_attribute 18, 4
  14              		.file	"stm32h7xx_hal_dma_ex.c"
  15              		.text
  16              		.section	.text.DMA_MultiBufferSetConfig,"ax",%progbits
  17              		.align	1
  18              		.syntax unified
  19              		.thumb
  20              		.thumb_func
  22              	DMA_MultiBufferSetConfig:
  23              		@ args = 0, pretend = 0, frame = 0
  24              		@ frame_needed = 0, uses_anonymous_args = 0
  25              		@ link register save eliminated.
  26 0000 70B4     		push	{r4, r5, r6}
  27 0002 0468     		ldr	r4, [r0]
  28 0004 264E     		ldr	r6, .L11
  29 0006 274D     		ldr	r5, .L11+4
  30 0008 AC42     		cmp	r4, r5
  31 000a 18BF     		it	ne
  32 000c B442     		cmpne	r4, r6
  33 000e 33D0     		beq	.L2
  34 0010 1835     		adds	r5, r5, #24
  35 0012 AC42     		cmp	r4, r5
  36 0014 30D0     		beq	.L2
  37 0016 1835     		adds	r5, r5, #24
  38 0018 AC42     		cmp	r4, r5
  39 001a 2DD0     		beq	.L2
  40 001c 1835     		adds	r5, r5, #24
  41 001e AC42     		cmp	r4, r5
  42 0020 2AD0     		beq	.L2
  43 0022 1835     		adds	r5, r5, #24
  44 0024 AC42     		cmp	r4, r5
  45 0026 27D0     		beq	.L2
  46 0028 1835     		adds	r5, r5, #24
  47 002a AC42     		cmp	r4, r5
  48 002c 24D0     		beq	.L2
  49 002e 1835     		adds	r5, r5, #24
  50 0030 AC42     		cmp	r4, r5
  51 0032 21D0     		beq	.L2
  52 0034 05F55675 		add	r5, r5, #856
  53 0038 AC42     		cmp	r4, r5
  54 003a 1DD0     		beq	.L2
  55 003c 1835     		adds	r5, r5, #24
  56 003e AC42     		cmp	r4, r5
  57 0040 1AD0     		beq	.L2
  58 0042 1835     		adds	r5, r5, #24
ARM GAS  C:\Users\thewo\AppData\Local\Temp\ccmSrwLr.s 			page 2


  59 0044 AC42     		cmp	r4, r5
  60 0046 17D0     		beq	.L2
  61 0048 1835     		adds	r5, r5, #24
  62 004a AC42     		cmp	r4, r5
  63 004c 14D0     		beq	.L2
  64 004e 1835     		adds	r5, r5, #24
  65 0050 AC42     		cmp	r4, r5
  66 0052 11D0     		beq	.L2
  67 0054 1835     		adds	r5, r5, #24
  68 0056 AC42     		cmp	r4, r5
  69 0058 0ED0     		beq	.L2
  70 005a 1835     		adds	r5, r5, #24
  71 005c AC42     		cmp	r4, r5
  72 005e 0BD0     		beq	.L2
  73 0060 1835     		adds	r5, r5, #24
  74 0062 AC42     		cmp	r4, r5
  75 0064 08D0     		beq	.L2
  76 0066 6360     		str	r3, [r4, #4]
  77 0068 8368     		ldr	r3, [r0, #8]
  78 006a 402B     		cmp	r3, #64
  79 006c 13D0     		beq	.L9
  80 006e 0368     		ldr	r3, [r0]
  81 0070 9960     		str	r1, [r3, #8]
  82 0072 0368     		ldr	r3, [r0]
  83 0074 DA60     		str	r2, [r3, #12]
  84 0076 07E0     		b	.L1
  85              	.L2:
  86 0078 6360     		str	r3, [r4, #4]
  87 007a 8368     		ldr	r3, [r0, #8]
  88 007c 402B     		cmp	r3, #64
  89 007e 05D0     		beq	.L10
  90 0080 0368     		ldr	r3, [r0]
  91 0082 9960     		str	r1, [r3, #8]
  92 0084 0368     		ldr	r3, [r0]
  93 0086 DA60     		str	r2, [r3, #12]
  94              	.L1:
  95 0088 70BC     		pop	{r4, r5, r6}
  96 008a 7047     		bx	lr
  97              	.L10:
  98 008c 0368     		ldr	r3, [r0]
  99 008e 9A60     		str	r2, [r3, #8]
 100 0090 0368     		ldr	r3, [r0]
 101 0092 D960     		str	r1, [r3, #12]
 102 0094 F8E7     		b	.L1
 103              	.L9:
 104 0096 0368     		ldr	r3, [r0]
 105 0098 9A60     		str	r2, [r3, #8]
 106 009a 0368     		ldr	r3, [r0]
 107 009c D960     		str	r1, [r3, #12]
 108 009e F3E7     		b	.L1
 109              	.L12:
 110              		.align	2
 111              	.L11:
 112 00a0 10000240 		.word	1073872912
 113 00a4 28000240 		.word	1073872936
 115              		.section	.rodata.HAL_DMAEx_MultiBufferStart.str1.4,"aMS",%progbits,1
 116              		.align	2
ARM GAS  C:\Users\thewo\AppData\Local\Temp\ccmSrwLr.s 			page 3


 117              	.LC0:
 118 0000 44726976 		.ascii	"Drivers/STM32H7xx_HAL_Driver/Src/stm32h7xx_hal_dma_"
 118      6572732F 
 118      53544D33 
 118      32483778 
 118      785F4841 
 119 0033 65782E63 		.ascii	"ex.c\000"
 119      00
 120              		.section	.text.HAL_DMAEx_MultiBufferStart,"ax",%progbits
 121              		.align	1
 122              		.global	HAL_DMAEx_MultiBufferStart
 123              		.syntax unified
 124              		.thumb
 125              		.thumb_func
 127              	HAL_DMAEx_MultiBufferStart:
 128              		@ args = 4, pretend = 0, frame = 0
 129              		@ frame_needed = 0, uses_anonymous_args = 0
 130 0000 2DE9F041 		push	{r4, r5, r6, r7, r8, lr}
 131 0004 0446     		mov	r4, r0
 132 0006 0D46     		mov	r5, r1
 133 0008 1746     		mov	r7, r2
 134 000a 9846     		mov	r8, r3
 135 000c 069E     		ldr	r6, [sp, #24]
 136 000e 721E     		subs	r2, r6, #1
 137 0010 4FF6FE73 		movw	r3, #65534
 138 0014 9A42     		cmp	r2, r3
 139 0016 62D8     		bhi	.L27
 140              	.L14:
 141 0018 2068     		ldr	r0, [r4]
 142 001a 594A     		ldr	r2, .L30
 143 001c 594B     		ldr	r3, .L30+4
 144 001e 9042     		cmp	r0, r2
 145 0020 18BF     		it	ne
 146 0022 9842     		cmpne	r0, r3
 147 0024 46D0     		beq	.L15
 148 0026 1833     		adds	r3, r3, #24
 149 0028 9842     		cmp	r0, r3
 150 002a 43D0     		beq	.L15
 151 002c 1833     		adds	r3, r3, #24
 152 002e 9842     		cmp	r0, r3
 153 0030 40D0     		beq	.L15
 154 0032 1833     		adds	r3, r3, #24
 155 0034 9842     		cmp	r0, r3
 156 0036 3DD0     		beq	.L15
 157 0038 1833     		adds	r3, r3, #24
 158 003a 9842     		cmp	r0, r3
 159 003c 3AD0     		beq	.L15
 160 003e 1833     		adds	r3, r3, #24
 161 0040 9842     		cmp	r0, r3
 162 0042 37D0     		beq	.L15
 163 0044 1833     		adds	r3, r3, #24
 164 0046 9842     		cmp	r0, r3
 165 0048 34D0     		beq	.L15
 166 004a 03F55673 		add	r3, r3, #856
 167 004e 9842     		cmp	r0, r3
 168 0050 30D0     		beq	.L15
 169 0052 1833     		adds	r3, r3, #24
ARM GAS  C:\Users\thewo\AppData\Local\Temp\ccmSrwLr.s 			page 4


 170 0054 9842     		cmp	r0, r3
 171 0056 2DD0     		beq	.L15
 172 0058 1833     		adds	r3, r3, #24
 173 005a 9842     		cmp	r0, r3
 174 005c 2AD0     		beq	.L15
 175 005e 1833     		adds	r3, r3, #24
 176 0060 9842     		cmp	r0, r3
 177 0062 27D0     		beq	.L15
 178 0064 1833     		adds	r3, r3, #24
 179 0066 9842     		cmp	r0, r3
 180 0068 24D0     		beq	.L15
 181 006a 1833     		adds	r3, r3, #24
 182 006c 9842     		cmp	r0, r3
 183 006e 21D0     		beq	.L15
 184 0070 1833     		adds	r3, r3, #24
 185 0072 9842     		cmp	r0, r3
 186 0074 1ED0     		beq	.L15
 187 0076 1833     		adds	r3, r3, #24
 188 0078 9842     		cmp	r0, r3
 189 007a 1BD0     		beq	.L15
 190 007c 424B     		ldr	r3, .L30+8
 191 007e 9842     		cmp	r0, r3
 192 0080 18D0     		beq	.L15
 193 0082 1433     		adds	r3, r3, #20
 194 0084 9842     		cmp	r0, r3
 195 0086 15D0     		beq	.L15
 196 0088 1433     		adds	r3, r3, #20
 197 008a 9842     		cmp	r0, r3
 198 008c 12D0     		beq	.L15
 199 008e 1433     		adds	r3, r3, #20
 200 0090 9842     		cmp	r0, r3
 201 0092 0FD0     		beq	.L15
 202 0094 1433     		adds	r3, r3, #20
 203 0096 9842     		cmp	r0, r3
 204 0098 0CD0     		beq	.L15
 205 009a 1433     		adds	r3, r3, #20
 206 009c 9842     		cmp	r0, r3
 207 009e 09D0     		beq	.L15
 208 00a0 1433     		adds	r3, r3, #20
 209 00a2 9842     		cmp	r0, r3
 210 00a4 06D0     		beq	.L15
 211 00a6 1433     		adds	r3, r3, #20
 212 00a8 9842     		cmp	r0, r3
 213 00aa 03D0     		beq	.L15
 214 00ac 7F21     		movs	r1, #127
 215 00ae 3748     		ldr	r0, .L30+12
 216 00b0 FFF7FEFF 		bl	assert_failed
 217              	.L15:
 218 00b4 A368     		ldr	r3, [r4, #8]
 219 00b6 802B     		cmp	r3, #128
 220 00b8 16D0     		beq	.L28
 221 00ba 94F83430 		ldrb	r3, [r4, #52]	@ zero_extendqisi2
 222 00be 012B     		cmp	r3, #1
 223 00c0 00F00A81 		beq	.L25
 224 00c4 0123     		movs	r3, #1
 225 00c6 84F83430 		strb	r3, [r4, #52]
 226 00ca 94F83530 		ldrb	r3, [r4, #53]	@ zero_extendqisi2
ARM GAS  C:\Users\thewo\AppData\Local\Temp\ccmSrwLr.s 			page 5


 227 00ce 012B     		cmp	r3, #1
 228 00d0 0FD0     		beq	.L29
 229 00d2 4FF40063 		mov	r3, #2048
 230 00d6 6365     		str	r3, [r4, #84]
 231 00d8 0120     		movs	r0, #1
 232              	.L17:
 233 00da BDE8F081 		pop	{r4, r5, r6, r7, r8, pc}
 234              	.L27:
 235 00de 7E21     		movs	r1, #126
 236 00e0 2A48     		ldr	r0, .L30+12
 237 00e2 FFF7FEFF 		bl	assert_failed
 238 00e6 97E7     		b	.L14
 239              	.L28:
 240 00e8 4FF48073 		mov	r3, #256
 241 00ec 6365     		str	r3, [r4, #84]
 242 00ee 0120     		movs	r0, #1
 243 00f0 F3E7     		b	.L17
 244              	.L29:
 245 00f2 0223     		movs	r3, #2
 246 00f4 84F83530 		strb	r3, [r4, #53]
 247 00f8 0023     		movs	r3, #0
 248 00fa 6365     		str	r3, [r4, #84]
 249 00fc 2368     		ldr	r3, [r4]
 250 00fe 2049     		ldr	r1, .L30
 251 0100 204A     		ldr	r2, .L30+4
 252 0102 9342     		cmp	r3, r2
 253 0104 18BF     		it	ne
 254 0106 8B42     		cmpne	r3, r1
 255 0108 42D0     		beq	.L19
 256 010a 1832     		adds	r2, r2, #24
 257 010c 9342     		cmp	r3, r2
 258 010e 3FD0     		beq	.L19
 259 0110 1832     		adds	r2, r2, #24
 260 0112 9342     		cmp	r3, r2
 261 0114 3CD0     		beq	.L19
 262 0116 1832     		adds	r2, r2, #24
 263 0118 9342     		cmp	r3, r2
 264 011a 39D0     		beq	.L19
 265 011c 1832     		adds	r2, r2, #24
 266 011e 9342     		cmp	r3, r2
 267 0120 36D0     		beq	.L19
 268 0122 1832     		adds	r2, r2, #24
 269 0124 9342     		cmp	r3, r2
 270 0126 33D0     		beq	.L19
 271 0128 1832     		adds	r2, r2, #24
 272 012a 9342     		cmp	r3, r2
 273 012c 30D0     		beq	.L19
 274 012e 02F55672 		add	r2, r2, #856
 275 0132 9342     		cmp	r3, r2
 276 0134 2CD0     		beq	.L19
 277 0136 1832     		adds	r2, r2, #24
 278 0138 9342     		cmp	r3, r2
 279 013a 29D0     		beq	.L19
 280 013c 1832     		adds	r2, r2, #24
 281 013e 9342     		cmp	r3, r2
 282 0140 26D0     		beq	.L19
 283 0142 1832     		adds	r2, r2, #24
ARM GAS  C:\Users\thewo\AppData\Local\Temp\ccmSrwLr.s 			page 6


 284 0144 9342     		cmp	r3, r2
 285 0146 23D0     		beq	.L19
 286 0148 1832     		adds	r2, r2, #24
 287 014a 9342     		cmp	r3, r2
 288 014c 20D0     		beq	.L19
 289 014e 1832     		adds	r2, r2, #24
 290 0150 9342     		cmp	r3, r2
 291 0152 1DD0     		beq	.L19
 292 0154 1832     		adds	r2, r2, #24
 293 0156 9342     		cmp	r3, r2
 294 0158 1AD0     		beq	.L19
 295 015a 1832     		adds	r2, r2, #24
 296 015c 9342     		cmp	r3, r2
 297 015e 17D0     		beq	.L19
 298 0160 1968     		ldr	r1, [r3]
 299 0162 48F22002 		movw	r2, #32800
 300 0166 0A43     		orrs	r2, r2, r1
 301 0168 1A60     		str	r2, [r3]
 302 016a 2368     		ldr	r3, [r4]
 303 016c C3F81080 		str	r8, [r3, #16]
 304 0170 A26D     		ldr	r2, [r4, #88]
 305 0172 E36D     		ldr	r3, [r4, #92]
 306 0174 03F01F01 		and	r1, r3, #31
 307 0178 0123     		movs	r3, #1
 308 017a 8B40     		lsls	r3, r3, r1
 309 017c 5360     		str	r3, [r2, #4]
 310 017e 15E0     		b	.L20
 311              	.L31:
 312              		.align	2
 313              	.L30:
 314 0180 10000240 		.word	1073872912
 315 0184 28000240 		.word	1073872936
 316 0188 08540258 		.word	1476547592
 317 018c 00000000 		.word	.LC0
 318              	.L19:
 319 0190 1A68     		ldr	r2, [r3]
 320 0192 42F48022 		orr	r2, r2, #262144
 321 0196 1A60     		str	r2, [r3]
 322 0198 2368     		ldr	r3, [r4]
 323 019a C3F81080 		str	r8, [r3, #16]
 324 019e A26D     		ldr	r2, [r4, #88]
 325 01a0 E36D     		ldr	r3, [r4, #92]
 326 01a2 03F01F01 		and	r1, r3, #31
 327 01a6 3F23     		movs	r3, #63
 328 01a8 8B40     		lsls	r3, r3, r1
 329 01aa 9360     		str	r3, [r2, #8]
 330              	.L20:
 331 01ac 2368     		ldr	r3, [r4]
 332 01ae 4B49     		ldr	r1, .L32
 333 01b0 4B4A     		ldr	r2, .L32+4
 334 01b2 9342     		cmp	r3, r2
 335 01b4 18BF     		it	ne
 336 01b6 8B42     		cmpne	r3, r1
 337 01b8 42D0     		beq	.L21
 338 01ba 1832     		adds	r2, r2, #24
 339 01bc 9342     		cmp	r3, r2
 340 01be 3FD0     		beq	.L21
ARM GAS  C:\Users\thewo\AppData\Local\Temp\ccmSrwLr.s 			page 7


 341 01c0 1832     		adds	r2, r2, #24
 342 01c2 9342     		cmp	r3, r2
 343 01c4 3CD0     		beq	.L21
 344 01c6 1832     		adds	r2, r2, #24
 345 01c8 9342     		cmp	r3, r2
 346 01ca 39D0     		beq	.L21
 347 01cc 1832     		adds	r2, r2, #24
 348 01ce 9342     		cmp	r3, r2
 349 01d0 36D0     		beq	.L21
 350 01d2 1832     		adds	r2, r2, #24
 351 01d4 9342     		cmp	r3, r2
 352 01d6 33D0     		beq	.L21
 353 01d8 1832     		adds	r2, r2, #24
 354 01da 9342     		cmp	r3, r2
 355 01dc 30D0     		beq	.L21
 356 01de 02F55672 		add	r2, r2, #856
 357 01e2 9342     		cmp	r3, r2
 358 01e4 2CD0     		beq	.L21
 359 01e6 1832     		adds	r2, r2, #24
 360 01e8 9342     		cmp	r3, r2
 361 01ea 29D0     		beq	.L21
 362 01ec 1832     		adds	r2, r2, #24
 363 01ee 9342     		cmp	r3, r2
 364 01f0 26D0     		beq	.L21
 365 01f2 1832     		adds	r2, r2, #24
 366 01f4 9342     		cmp	r3, r2
 367 01f6 23D0     		beq	.L21
 368 01f8 1832     		adds	r2, r2, #24
 369 01fa 9342     		cmp	r3, r2
 370 01fc 20D0     		beq	.L21
 371 01fe 1832     		adds	r2, r2, #24
 372 0200 9342     		cmp	r3, r2
 373 0202 1DD0     		beq	.L21
 374 0204 1832     		adds	r2, r2, #24
 375 0206 9342     		cmp	r3, r2
 376 0208 1AD0     		beq	.L21
 377 020a 1832     		adds	r2, r2, #24
 378 020c 9342     		cmp	r3, r2
 379 020e 17D0     		beq	.L21
 380 0210 344A     		ldr	r2, .L32+8
 381 0212 9342     		cmp	r3, r2
 382 0214 14D0     		beq	.L21
 383 0216 1432     		adds	r2, r2, #20
 384 0218 9342     		cmp	r3, r2
 385 021a 11D0     		beq	.L21
 386 021c 1432     		adds	r2, r2, #20
 387 021e 9342     		cmp	r3, r2
 388 0220 0ED0     		beq	.L21
 389 0222 1432     		adds	r2, r2, #20
 390 0224 9342     		cmp	r3, r2
 391 0226 0BD0     		beq	.L21
 392 0228 1432     		adds	r2, r2, #20
 393 022a 9342     		cmp	r3, r2
 394 022c 08D0     		beq	.L21
 395 022e 1432     		adds	r2, r2, #20
 396 0230 9342     		cmp	r3, r2
 397 0232 05D0     		beq	.L21
ARM GAS  C:\Users\thewo\AppData\Local\Temp\ccmSrwLr.s 			page 8


 398 0234 1432     		adds	r2, r2, #20
 399 0236 9342     		cmp	r3, r2
 400 0238 02D0     		beq	.L21
 401 023a 1432     		adds	r2, r2, #20
 402 023c 9342     		cmp	r3, r2
 403 023e 0DD1     		bne	.L22
 404              	.L21:
 405 0240 3346     		mov	r3, r6
 406 0242 3A46     		mov	r2, r7
 407 0244 2946     		mov	r1, r5
 408 0246 2046     		mov	r0, r4
 409 0248 FFF7FEFF 		bl	DMA_MultiBufferSetConfig
 410 024c 636E     		ldr	r3, [r4, #100]
 411 024e A26E     		ldr	r2, [r4, #104]
 412 0250 5A60     		str	r2, [r3, #4]
 413 0252 E36E     		ldr	r3, [r4, #108]
 414 0254 13B1     		cbz	r3, .L22
 415 0256 236F     		ldr	r3, [r4, #112]
 416 0258 626F     		ldr	r2, [r4, #116]
 417 025a 5A60     		str	r2, [r3, #4]
 418              	.L22:
 419 025c 2368     		ldr	r3, [r4]
 420 025e 1F49     		ldr	r1, .L32
 421 0260 1F4A     		ldr	r2, .L32+4
 422 0262 9342     		cmp	r3, r2
 423 0264 18BF     		it	ne
 424 0266 8B42     		cmpne	r3, r1
 425 0268 30D0     		beq	.L23
 426 026a 1832     		adds	r2, r2, #24
 427 026c 9342     		cmp	r3, r2
 428 026e 2DD0     		beq	.L23
 429 0270 1832     		adds	r2, r2, #24
 430 0272 9342     		cmp	r3, r2
 431 0274 2AD0     		beq	.L23
 432 0276 1832     		adds	r2, r2, #24
 433 0278 9342     		cmp	r3, r2
 434 027a 27D0     		beq	.L23
 435 027c 1832     		adds	r2, r2, #24
 436 027e 9342     		cmp	r3, r2
 437 0280 24D0     		beq	.L23
 438 0282 1832     		adds	r2, r2, #24
 439 0284 9342     		cmp	r3, r2
 440 0286 21D0     		beq	.L23
 441 0288 1832     		adds	r2, r2, #24
 442 028a 9342     		cmp	r3, r2
 443 028c 1ED0     		beq	.L23
 444 028e 02F55672 		add	r2, r2, #856
 445 0292 9342     		cmp	r3, r2
 446 0294 1AD0     		beq	.L23
 447 0296 1832     		adds	r2, r2, #24
 448 0298 9342     		cmp	r3, r2
 449 029a 17D0     		beq	.L23
 450 029c 1832     		adds	r2, r2, #24
 451 029e 9342     		cmp	r3, r2
 452 02a0 14D0     		beq	.L23
 453 02a2 1832     		adds	r2, r2, #24
 454 02a4 9342     		cmp	r3, r2
ARM GAS  C:\Users\thewo\AppData\Local\Temp\ccmSrwLr.s 			page 9


 455 02a6 11D0     		beq	.L23
 456 02a8 1832     		adds	r2, r2, #24
 457 02aa 9342     		cmp	r3, r2
 458 02ac 0ED0     		beq	.L23
 459 02ae 1832     		adds	r2, r2, #24
 460 02b0 9342     		cmp	r3, r2
 461 02b2 0BD0     		beq	.L23
 462 02b4 1832     		adds	r2, r2, #24
 463 02b6 9342     		cmp	r3, r2
 464 02b8 08D0     		beq	.L23
 465 02ba 1832     		adds	r2, r2, #24
 466 02bc 9342     		cmp	r3, r2
 467 02be 05D0     		beq	.L23
 468 02c0 1A68     		ldr	r2, [r3]
 469 02c2 42F00102 		orr	r2, r2, #1
 470 02c6 1A60     		str	r2, [r3]
 471 02c8 0020     		movs	r0, #0
 472 02ca 06E7     		b	.L17
 473              	.L23:
 474 02cc 1A68     		ldr	r2, [r3]
 475 02ce 42F00102 		orr	r2, r2, #1
 476 02d2 1A60     		str	r2, [r3]
 477 02d4 0020     		movs	r0, #0
 478 02d6 00E7     		b	.L17
 479              	.L25:
 480 02d8 0220     		movs	r0, #2
 481 02da FEE6     		b	.L17
 482              	.L33:
 483              		.align	2
 484              	.L32:
 485 02dc 10000240 		.word	1073872912
 486 02e0 28000240 		.word	1073872936
 487 02e4 08540258 		.word	1476547592
 489              		.section	.text.HAL_DMAEx_MultiBufferStart_IT,"ax",%progbits
 490              		.align	1
 491              		.global	HAL_DMAEx_MultiBufferStart_IT
 492              		.syntax unified
 493              		.thumb
 494              		.thumb_func
 496              	HAL_DMAEx_MultiBufferStart_IT:
 497              		@ args = 4, pretend = 0, frame = 0
 498              		@ frame_needed = 0, uses_anonymous_args = 0
 499 0000 2DE9F041 		push	{r4, r5, r6, r7, r8, lr}
 500 0004 0446     		mov	r4, r0
 501 0006 0D46     		mov	r5, r1
 502 0008 1746     		mov	r7, r2
 503 000a 9846     		mov	r8, r3
 504 000c 069E     		ldr	r6, [sp, #24]
 505 000e 721E     		subs	r2, r6, #1
 506 0010 4FF6FE73 		movw	r3, #65534
 507 0014 9A42     		cmp	r2, r3
 508 0016 62D8     		bhi	.L57
 509              	.L35:
 510 0018 2068     		ldr	r0, [r4]
 511 001a 594A     		ldr	r2, .L62
 512 001c 594B     		ldr	r3, .L62+4
 513 001e 9042     		cmp	r0, r2
ARM GAS  C:\Users\thewo\AppData\Local\Temp\ccmSrwLr.s 			page 10


 514 0020 18BF     		it	ne
 515 0022 9842     		cmpne	r0, r3
 516 0024 46D0     		beq	.L36
 517 0026 1833     		adds	r3, r3, #24
 518 0028 9842     		cmp	r0, r3
 519 002a 43D0     		beq	.L36
 520 002c 1833     		adds	r3, r3, #24
 521 002e 9842     		cmp	r0, r3
 522 0030 40D0     		beq	.L36
 523 0032 1833     		adds	r3, r3, #24
 524 0034 9842     		cmp	r0, r3
 525 0036 3DD0     		beq	.L36
 526 0038 1833     		adds	r3, r3, #24
 527 003a 9842     		cmp	r0, r3
 528 003c 3AD0     		beq	.L36
 529 003e 1833     		adds	r3, r3, #24
 530 0040 9842     		cmp	r0, r3
 531 0042 37D0     		beq	.L36
 532 0044 1833     		adds	r3, r3, #24
 533 0046 9842     		cmp	r0, r3
 534 0048 34D0     		beq	.L36
 535 004a 03F55673 		add	r3, r3, #856
 536 004e 9842     		cmp	r0, r3
 537 0050 30D0     		beq	.L36
 538 0052 1833     		adds	r3, r3, #24
 539 0054 9842     		cmp	r0, r3
 540 0056 2DD0     		beq	.L36
 541 0058 1833     		adds	r3, r3, #24
 542 005a 9842     		cmp	r0, r3
 543 005c 2AD0     		beq	.L36
 544 005e 1833     		adds	r3, r3, #24
 545 0060 9842     		cmp	r0, r3
 546 0062 27D0     		beq	.L36
 547 0064 1833     		adds	r3, r3, #24
 548 0066 9842     		cmp	r0, r3
 549 0068 24D0     		beq	.L36
 550 006a 1833     		adds	r3, r3, #24
 551 006c 9842     		cmp	r0, r3
 552 006e 21D0     		beq	.L36
 553 0070 1833     		adds	r3, r3, #24
 554 0072 9842     		cmp	r0, r3
 555 0074 1ED0     		beq	.L36
 556 0076 1833     		adds	r3, r3, #24
 557 0078 9842     		cmp	r0, r3
 558 007a 1BD0     		beq	.L36
 559 007c 424B     		ldr	r3, .L62+8
 560 007e 9842     		cmp	r0, r3
 561 0080 18D0     		beq	.L36
 562 0082 1433     		adds	r3, r3, #20
 563 0084 9842     		cmp	r0, r3
 564 0086 15D0     		beq	.L36
 565 0088 1433     		adds	r3, r3, #20
 566 008a 9842     		cmp	r0, r3
 567 008c 12D0     		beq	.L36
 568 008e 1433     		adds	r3, r3, #20
 569 0090 9842     		cmp	r0, r3
 570 0092 0FD0     		beq	.L36
ARM GAS  C:\Users\thewo\AppData\Local\Temp\ccmSrwLr.s 			page 11


 571 0094 1433     		adds	r3, r3, #20
 572 0096 9842     		cmp	r0, r3
 573 0098 0CD0     		beq	.L36
 574 009a 1433     		adds	r3, r3, #20
 575 009c 9842     		cmp	r0, r3
 576 009e 09D0     		beq	.L36
 577 00a0 1433     		adds	r3, r3, #20
 578 00a2 9842     		cmp	r0, r3
 579 00a4 06D0     		beq	.L36
 580 00a6 1433     		adds	r3, r3, #20
 581 00a8 9842     		cmp	r0, r3
 582 00aa 03D0     		beq	.L36
 583 00ac E021     		movs	r1, #224
 584 00ae 3748     		ldr	r0, .L62+12
 585 00b0 FFF7FEFF 		bl	assert_failed
 586              	.L36:
 587 00b4 A368     		ldr	r3, [r4, #8]
 588 00b6 802B     		cmp	r3, #128
 589 00b8 16D0     		beq	.L58
 590 00ba 94F83430 		ldrb	r3, [r4, #52]	@ zero_extendqisi2
 591 00be 012B     		cmp	r3, #1
 592 00c0 00F0C981 		beq	.L54
 593 00c4 0123     		movs	r3, #1
 594 00c6 84F83430 		strb	r3, [r4, #52]
 595 00ca 94F83530 		ldrb	r3, [r4, #53]	@ zero_extendqisi2
 596 00ce 012B     		cmp	r3, #1
 597 00d0 0FD0     		beq	.L59
 598 00d2 4FF40063 		mov	r3, #2048
 599 00d6 6365     		str	r3, [r4, #84]
 600 00d8 0120     		movs	r0, #1
 601              	.L38:
 602 00da BDE8F081 		pop	{r4, r5, r6, r7, r8, pc}
 603              	.L57:
 604 00de DF21     		movs	r1, #223
 605 00e0 2A48     		ldr	r0, .L62+12
 606 00e2 FFF7FEFF 		bl	assert_failed
 607 00e6 97E7     		b	.L35
 608              	.L58:
 609 00e8 4FF48073 		mov	r3, #256
 610 00ec 6365     		str	r3, [r4, #84]
 611 00ee 0120     		movs	r0, #1
 612 00f0 F3E7     		b	.L38
 613              	.L59:
 614 00f2 0223     		movs	r3, #2
 615 00f4 84F83530 		strb	r3, [r4, #53]
 616 00f8 0023     		movs	r3, #0
 617 00fa 6365     		str	r3, [r4, #84]
 618 00fc 2368     		ldr	r3, [r4]
 619 00fe 2049     		ldr	r1, .L62
 620 0100 204A     		ldr	r2, .L62+4
 621 0102 9342     		cmp	r3, r2
 622 0104 18BF     		it	ne
 623 0106 8B42     		cmpne	r3, r1
 624 0108 42D0     		beq	.L40
 625 010a 1832     		adds	r2, r2, #24
 626 010c 9342     		cmp	r3, r2
 627 010e 3FD0     		beq	.L40
ARM GAS  C:\Users\thewo\AppData\Local\Temp\ccmSrwLr.s 			page 12


 628 0110 1832     		adds	r2, r2, #24
 629 0112 9342     		cmp	r3, r2
 630 0114 3CD0     		beq	.L40
 631 0116 1832     		adds	r2, r2, #24
 632 0118 9342     		cmp	r3, r2
 633 011a 39D0     		beq	.L40
 634 011c 1832     		adds	r2, r2, #24
 635 011e 9342     		cmp	r3, r2
 636 0120 36D0     		beq	.L40
 637 0122 1832     		adds	r2, r2, #24
 638 0124 9342     		cmp	r3, r2
 639 0126 33D0     		beq	.L40
 640 0128 1832     		adds	r2, r2, #24
 641 012a 9342     		cmp	r3, r2
 642 012c 30D0     		beq	.L40
 643 012e 02F55672 		add	r2, r2, #856
 644 0132 9342     		cmp	r3, r2
 645 0134 2CD0     		beq	.L40
 646 0136 1832     		adds	r2, r2, #24
 647 0138 9342     		cmp	r3, r2
 648 013a 29D0     		beq	.L40
 649 013c 1832     		adds	r2, r2, #24
 650 013e 9342     		cmp	r3, r2
 651 0140 26D0     		beq	.L40
 652 0142 1832     		adds	r2, r2, #24
 653 0144 9342     		cmp	r3, r2
 654 0146 23D0     		beq	.L40
 655 0148 1832     		adds	r2, r2, #24
 656 014a 9342     		cmp	r3, r2
 657 014c 20D0     		beq	.L40
 658 014e 1832     		adds	r2, r2, #24
 659 0150 9342     		cmp	r3, r2
 660 0152 1DD0     		beq	.L40
 661 0154 1832     		adds	r2, r2, #24
 662 0156 9342     		cmp	r3, r2
 663 0158 1AD0     		beq	.L40
 664 015a 1832     		adds	r2, r2, #24
 665 015c 9342     		cmp	r3, r2
 666 015e 17D0     		beq	.L40
 667 0160 1968     		ldr	r1, [r3]
 668 0162 48F22002 		movw	r2, #32800
 669 0166 0A43     		orrs	r2, r2, r1
 670 0168 1A60     		str	r2, [r3]
 671 016a 2368     		ldr	r3, [r4]
 672 016c C3F81080 		str	r8, [r3, #16]
 673 0170 A26D     		ldr	r2, [r4, #88]
 674 0172 E36D     		ldr	r3, [r4, #92]
 675 0174 03F01F01 		and	r1, r3, #31
 676 0178 0123     		movs	r3, #1
 677 017a 8B40     		lsls	r3, r3, r1
 678 017c 5360     		str	r3, [r2, #4]
 679 017e 15E0     		b	.L41
 680              	.L63:
 681              		.align	2
 682              	.L62:
 683 0180 10000240 		.word	1073872912
 684 0184 28000240 		.word	1073872936
ARM GAS  C:\Users\thewo\AppData\Local\Temp\ccmSrwLr.s 			page 13


 685 0188 08540258 		.word	1476547592
 686 018c 00000000 		.word	.LC0
 687              	.L40:
 688 0190 1A68     		ldr	r2, [r3]
 689 0192 42F48022 		orr	r2, r2, #262144
 690 0196 1A60     		str	r2, [r3]
 691 0198 2368     		ldr	r3, [r4]
 692 019a C3F81080 		str	r8, [r3, #16]
 693 019e A26D     		ldr	r2, [r4, #88]
 694 01a0 E36D     		ldr	r3, [r4, #92]
 695 01a2 03F01F01 		and	r1, r3, #31
 696 01a6 3F23     		movs	r3, #63
 697 01a8 8B40     		lsls	r3, r3, r1
 698 01aa 9360     		str	r3, [r2, #8]
 699              	.L41:
 700 01ac 3346     		mov	r3, r6
 701 01ae 3A46     		mov	r2, r7
 702 01b0 2946     		mov	r1, r5
 703 01b2 2046     		mov	r0, r4
 704 01b4 FFF7FEFF 		bl	DMA_MultiBufferSetConfig
 705 01b8 2368     		ldr	r3, [r4]
 706 01ba 4949     		ldr	r1, .L64
 707 01bc 494A     		ldr	r2, .L64+4
 708 01be 9342     		cmp	r3, r2
 709 01c0 18BF     		it	ne
 710 01c2 8B42     		cmpne	r3, r1
 711 01c4 42D0     		beq	.L42
 712 01c6 1832     		adds	r2, r2, #24
 713 01c8 9342     		cmp	r3, r2
 714 01ca 3FD0     		beq	.L42
 715 01cc 1832     		adds	r2, r2, #24
 716 01ce 9342     		cmp	r3, r2
 717 01d0 3CD0     		beq	.L42
 718 01d2 1832     		adds	r2, r2, #24
 719 01d4 9342     		cmp	r3, r2
 720 01d6 39D0     		beq	.L42
 721 01d8 1832     		adds	r2, r2, #24
 722 01da 9342     		cmp	r3, r2
 723 01dc 36D0     		beq	.L42
 724 01de 1832     		adds	r2, r2, #24
 725 01e0 9342     		cmp	r3, r2
 726 01e2 33D0     		beq	.L42
 727 01e4 1832     		adds	r2, r2, #24
 728 01e6 9342     		cmp	r3, r2
 729 01e8 30D0     		beq	.L42
 730 01ea 02F55672 		add	r2, r2, #856
 731 01ee 9342     		cmp	r3, r2
 732 01f0 2CD0     		beq	.L42
 733 01f2 1832     		adds	r2, r2, #24
 734 01f4 9342     		cmp	r3, r2
 735 01f6 29D0     		beq	.L42
 736 01f8 1832     		adds	r2, r2, #24
 737 01fa 9342     		cmp	r3, r2
 738 01fc 26D0     		beq	.L42
 739 01fe 1832     		adds	r2, r2, #24
 740 0200 9342     		cmp	r3, r2
 741 0202 23D0     		beq	.L42
ARM GAS  C:\Users\thewo\AppData\Local\Temp\ccmSrwLr.s 			page 14


 742 0204 1832     		adds	r2, r2, #24
 743 0206 9342     		cmp	r3, r2
 744 0208 20D0     		beq	.L42
 745 020a 1832     		adds	r2, r2, #24
 746 020c 9342     		cmp	r3, r2
 747 020e 1DD0     		beq	.L42
 748 0210 1832     		adds	r2, r2, #24
 749 0212 9342     		cmp	r3, r2
 750 0214 1AD0     		beq	.L42
 751 0216 1832     		adds	r2, r2, #24
 752 0218 9342     		cmp	r3, r2
 753 021a 17D0     		beq	.L42
 754 021c 324A     		ldr	r2, .L64+8
 755 021e 9342     		cmp	r3, r2
 756 0220 14D0     		beq	.L42
 757 0222 1432     		adds	r2, r2, #20
 758 0224 9342     		cmp	r3, r2
 759 0226 11D0     		beq	.L42
 760 0228 1432     		adds	r2, r2, #20
 761 022a 9342     		cmp	r3, r2
 762 022c 0ED0     		beq	.L42
 763 022e 1432     		adds	r2, r2, #20
 764 0230 9342     		cmp	r3, r2
 765 0232 0BD0     		beq	.L42
 766 0234 1432     		adds	r2, r2, #20
 767 0236 9342     		cmp	r3, r2
 768 0238 08D0     		beq	.L42
 769 023a 1432     		adds	r2, r2, #20
 770 023c 9342     		cmp	r3, r2
 771 023e 05D0     		beq	.L42
 772 0240 1432     		adds	r2, r2, #20
 773 0242 9342     		cmp	r3, r2
 774 0244 02D0     		beq	.L42
 775 0246 1432     		adds	r2, r2, #20
 776 0248 9342     		cmp	r3, r2
 777 024a 07D1     		bne	.L43
 778              	.L42:
 779 024c 636E     		ldr	r3, [r4, #100]
 780 024e A26E     		ldr	r2, [r4, #104]
 781 0250 5A60     		str	r2, [r3, #4]
 782 0252 E36E     		ldr	r3, [r4, #108]
 783 0254 13B1     		cbz	r3, .L43
 784 0256 236F     		ldr	r3, [r4, #112]
 785 0258 626F     		ldr	r2, [r4, #116]
 786 025a 5A60     		str	r2, [r3, #4]
 787              	.L43:
 788 025c 2368     		ldr	r3, [r4]
 789 025e 2049     		ldr	r1, .L64
 790 0260 204A     		ldr	r2, .L64+4
 791 0262 9342     		cmp	r3, r2
 792 0264 18BF     		it	ne
 793 0266 8B42     		cmpne	r3, r1
 794 0268 40D0     		beq	.L44
 795 026a 1832     		adds	r2, r2, #24
 796 026c 9342     		cmp	r3, r2
 797 026e 3DD0     		beq	.L44
 798 0270 1832     		adds	r2, r2, #24
ARM GAS  C:\Users\thewo\AppData\Local\Temp\ccmSrwLr.s 			page 15


 799 0272 9342     		cmp	r3, r2
 800 0274 3AD0     		beq	.L44
 801 0276 1832     		adds	r2, r2, #24
 802 0278 9342     		cmp	r3, r2
 803 027a 37D0     		beq	.L44
 804 027c 1832     		adds	r2, r2, #24
 805 027e 9342     		cmp	r3, r2
 806 0280 34D0     		beq	.L44
 807 0282 1832     		adds	r2, r2, #24
 808 0284 9342     		cmp	r3, r2
 809 0286 31D0     		beq	.L44
 810 0288 1832     		adds	r2, r2, #24
 811 028a 9342     		cmp	r3, r2
 812 028c 2ED0     		beq	.L44
 813 028e 02F55672 		add	r2, r2, #856
 814 0292 9342     		cmp	r3, r2
 815 0294 2AD0     		beq	.L44
 816 0296 1832     		adds	r2, r2, #24
 817 0298 9342     		cmp	r3, r2
 818 029a 27D0     		beq	.L44
 819 029c 1832     		adds	r2, r2, #24
 820 029e 9342     		cmp	r3, r2
 821 02a0 24D0     		beq	.L44
 822 02a2 1832     		adds	r2, r2, #24
 823 02a4 9342     		cmp	r3, r2
 824 02a6 21D0     		beq	.L44
 825 02a8 1832     		adds	r2, r2, #24
 826 02aa 9342     		cmp	r3, r2
 827 02ac 1ED0     		beq	.L44
 828 02ae 1832     		adds	r2, r2, #24
 829 02b0 9342     		cmp	r3, r2
 830 02b2 1BD0     		beq	.L44
 831 02b4 1832     		adds	r2, r2, #24
 832 02b6 9342     		cmp	r3, r2
 833 02b8 18D0     		beq	.L44
 834 02ba 1832     		adds	r2, r2, #24
 835 02bc 9342     		cmp	r3, r2
 836 02be 15D0     		beq	.L44
 837 02c0 1A68     		ldr	r2, [r3]
 838 02c2 22F00E02 		bic	r2, r2, #14
 839 02c6 42F00A02 		orr	r2, r2, #10
 840 02ca 1A60     		str	r2, [r3]
 841 02cc 236C     		ldr	r3, [r4, #64]
 842 02ce 002B     		cmp	r3, #0
 843 02d0 00F0B680 		beq	.L60
 844              	.L45:
 845 02d4 2268     		ldr	r2, [r4]
 846 02d6 1368     		ldr	r3, [r2]
 847 02d8 43F00403 		orr	r3, r3, #4
 848 02dc 1360     		str	r3, [r2]
 849 02de 19E0     		b	.L48
 850              	.L65:
 851              		.align	2
 852              	.L64:
 853 02e0 10000240 		.word	1073872912
 854 02e4 28000240 		.word	1073872936
 855 02e8 08540258 		.word	1476547592
ARM GAS  C:\Users\thewo\AppData\Local\Temp\ccmSrwLr.s 			page 16


 856              	.L44:
 857 02ec 1A68     		ldr	r2, [r3]
 858 02ee 22F01E02 		bic	r2, r2, #30
 859 02f2 42F01602 		orr	r2, r2, #22
 860 02f6 1A60     		str	r2, [r3]
 861 02f8 2268     		ldr	r2, [r4]
 862 02fa 5369     		ldr	r3, [r2, #20]
 863 02fc 43F08003 		orr	r3, r3, #128
 864 0300 5361     		str	r3, [r2, #20]
 865 0302 236C     		ldr	r3, [r4, #64]
 866 0304 002B     		cmp	r3, #0
 867 0306 00F09680 		beq	.L61
 868              	.L47:
 869 030a 2268     		ldr	r2, [r4]
 870 030c 1368     		ldr	r3, [r2]
 871 030e 43F00803 		orr	r3, r3, #8
 872 0312 1360     		str	r3, [r2]
 873              	.L48:
 874 0314 2368     		ldr	r3, [r4]
 875 0316 5149     		ldr	r1, .L66
 876 0318 514A     		ldr	r2, .L66+4
 877 031a 9342     		cmp	r3, r2
 878 031c 18BF     		it	ne
 879 031e 8B42     		cmpne	r3, r1
 880 0320 42D0     		beq	.L49
 881 0322 1832     		adds	r2, r2, #24
 882 0324 9342     		cmp	r3, r2
 883 0326 3FD0     		beq	.L49
 884 0328 1832     		adds	r2, r2, #24
 885 032a 9342     		cmp	r3, r2
 886 032c 3CD0     		beq	.L49
 887 032e 1832     		adds	r2, r2, #24
 888 0330 9342     		cmp	r3, r2
 889 0332 39D0     		beq	.L49
 890 0334 1832     		adds	r2, r2, #24
 891 0336 9342     		cmp	r3, r2
 892 0338 36D0     		beq	.L49
 893 033a 1832     		adds	r2, r2, #24
 894 033c 9342     		cmp	r3, r2
 895 033e 33D0     		beq	.L49
 896 0340 1832     		adds	r2, r2, #24
 897 0342 9342     		cmp	r3, r2
 898 0344 30D0     		beq	.L49
 899 0346 02F55672 		add	r2, r2, #856
 900 034a 9342     		cmp	r3, r2
 901 034c 2CD0     		beq	.L49
 902 034e 1832     		adds	r2, r2, #24
 903 0350 9342     		cmp	r3, r2
 904 0352 29D0     		beq	.L49
 905 0354 1832     		adds	r2, r2, #24
 906 0356 9342     		cmp	r3, r2
 907 0358 26D0     		beq	.L49
 908 035a 1832     		adds	r2, r2, #24
 909 035c 9342     		cmp	r3, r2
 910 035e 23D0     		beq	.L49
 911 0360 1832     		adds	r2, r2, #24
 912 0362 9342     		cmp	r3, r2
ARM GAS  C:\Users\thewo\AppData\Local\Temp\ccmSrwLr.s 			page 17


 913 0364 20D0     		beq	.L49
 914 0366 1832     		adds	r2, r2, #24
 915 0368 9342     		cmp	r3, r2
 916 036a 1DD0     		beq	.L49
 917 036c 1832     		adds	r2, r2, #24
 918 036e 9342     		cmp	r3, r2
 919 0370 1AD0     		beq	.L49
 920 0372 1832     		adds	r2, r2, #24
 921 0374 9342     		cmp	r3, r2
 922 0376 17D0     		beq	.L49
 923 0378 3A4A     		ldr	r2, .L66+8
 924 037a 9342     		cmp	r3, r2
 925 037c 14D0     		beq	.L49
 926 037e 1432     		adds	r2, r2, #20
 927 0380 9342     		cmp	r3, r2
 928 0382 11D0     		beq	.L49
 929 0384 1432     		adds	r2, r2, #20
 930 0386 9342     		cmp	r3, r2
 931 0388 0ED0     		beq	.L49
 932 038a 1432     		adds	r2, r2, #20
 933 038c 9342     		cmp	r3, r2
 934 038e 0BD0     		beq	.L49
 935 0390 1432     		adds	r2, r2, #20
 936 0392 9342     		cmp	r3, r2
 937 0394 08D0     		beq	.L49
 938 0396 1432     		adds	r2, r2, #20
 939 0398 9342     		cmp	r3, r2
 940 039a 05D0     		beq	.L49
 941 039c 1432     		adds	r2, r2, #20
 942 039e 9342     		cmp	r3, r2
 943 03a0 02D0     		beq	.L49
 944 03a2 1432     		adds	r2, r2, #20
 945 03a4 9342     		cmp	r3, r2
 946 03a6 0ED1     		bne	.L50
 947              	.L49:
 948 03a8 236E     		ldr	r3, [r4, #96]
 949 03aa 1A68     		ldr	r2, [r3]
 950 03ac 12F4803F 		tst	r2, #65536
 951 03b0 03D0     		beq	.L51
 952 03b2 1A68     		ldr	r2, [r3]
 953 03b4 42F48072 		orr	r2, r2, #256
 954 03b8 1A60     		str	r2, [r3]
 955              	.L51:
 956 03ba E36E     		ldr	r3, [r4, #108]
 957 03bc 1BB1     		cbz	r3, .L50
 958 03be 1A68     		ldr	r2, [r3]
 959 03c0 42F48072 		orr	r2, r2, #256
 960 03c4 1A60     		str	r2, [r3]
 961              	.L50:
 962 03c6 2368     		ldr	r3, [r4]
 963 03c8 2449     		ldr	r1, .L66
 964 03ca 254A     		ldr	r2, .L66+4
 965 03cc 9342     		cmp	r3, r2
 966 03ce 18BF     		it	ne
 967 03d0 8B42     		cmpne	r3, r1
 968 03d2 3AD0     		beq	.L52
 969 03d4 1832     		adds	r2, r2, #24
ARM GAS  C:\Users\thewo\AppData\Local\Temp\ccmSrwLr.s 			page 18


 970 03d6 9342     		cmp	r3, r2
 971 03d8 37D0     		beq	.L52
 972 03da 1832     		adds	r2, r2, #24
 973 03dc 9342     		cmp	r3, r2
 974 03de 34D0     		beq	.L52
 975 03e0 1832     		adds	r2, r2, #24
 976 03e2 9342     		cmp	r3, r2
 977 03e4 31D0     		beq	.L52
 978 03e6 1832     		adds	r2, r2, #24
 979 03e8 9342     		cmp	r3, r2
 980 03ea 2ED0     		beq	.L52
 981 03ec 1832     		adds	r2, r2, #24
 982 03ee 9342     		cmp	r3, r2
 983 03f0 2BD0     		beq	.L52
 984 03f2 1832     		adds	r2, r2, #24
 985 03f4 9342     		cmp	r3, r2
 986 03f6 28D0     		beq	.L52
 987 03f8 02F55672 		add	r2, r2, #856
 988 03fc 9342     		cmp	r3, r2
 989 03fe 24D0     		beq	.L52
 990 0400 1832     		adds	r2, r2, #24
 991 0402 9342     		cmp	r3, r2
 992 0404 21D0     		beq	.L52
 993 0406 1832     		adds	r2, r2, #24
 994 0408 9342     		cmp	r3, r2
 995 040a 1ED0     		beq	.L52
 996 040c 1832     		adds	r2, r2, #24
 997 040e 9342     		cmp	r3, r2
 998 0410 1BD0     		beq	.L52
 999 0412 1832     		adds	r2, r2, #24
 1000 0414 9342     		cmp	r3, r2
 1001 0416 18D0     		beq	.L52
 1002 0418 1832     		adds	r2, r2, #24
 1003 041a 9342     		cmp	r3, r2
 1004 041c 15D0     		beq	.L52
 1005 041e 1832     		adds	r2, r2, #24
 1006 0420 9342     		cmp	r3, r2
 1007 0422 12D0     		beq	.L52
 1008 0424 1832     		adds	r2, r2, #24
 1009 0426 9342     		cmp	r3, r2
 1010 0428 0FD0     		beq	.L52
 1011 042a 1A68     		ldr	r2, [r3]
 1012 042c 42F00102 		orr	r2, r2, #1
 1013 0430 1A60     		str	r2, [r3]
 1014 0432 0020     		movs	r0, #0
 1015 0434 51E6     		b	.L38
 1016              	.L61:
 1017 0436 A36C     		ldr	r3, [r4, #72]
 1018 0438 002B     		cmp	r3, #0
 1019 043a 7FF466AF 		bne	.L47
 1020 043e 69E7     		b	.L48
 1021              	.L60:
 1022 0440 A36C     		ldr	r3, [r4, #72]
 1023 0442 002B     		cmp	r3, #0
 1024 0444 7FF446AF 		bne	.L45
 1025 0448 64E7     		b	.L48
 1026              	.L52:
ARM GAS  C:\Users\thewo\AppData\Local\Temp\ccmSrwLr.s 			page 19


 1027 044a 1A68     		ldr	r2, [r3]
 1028 044c 42F00102 		orr	r2, r2, #1
 1029 0450 1A60     		str	r2, [r3]
 1030 0452 0020     		movs	r0, #0
 1031 0454 41E6     		b	.L38
 1032              	.L54:
 1033 0456 0220     		movs	r0, #2
 1034 0458 3FE6     		b	.L38
 1035              	.L67:
 1036 045a 00BF     		.align	2
 1037              	.L66:
 1038 045c 10000240 		.word	1073872912
 1039 0460 28000240 		.word	1073872936
 1040 0464 08540258 		.word	1476547592
 1042              		.section	.text.HAL_DMAEx_ChangeMemory,"ax",%progbits
 1043              		.align	1
 1044              		.global	HAL_DMAEx_ChangeMemory
 1045              		.syntax unified
 1046              		.thumb
 1047              		.thumb_func
 1049              	HAL_DMAEx_ChangeMemory:
 1050              		@ args = 0, pretend = 0, frame = 0
 1051              		@ frame_needed = 0, uses_anonymous_args = 0
 1052              		@ link register save eliminated.
 1053 0000 10B4     		push	{r4}
 1054 0002 0368     		ldr	r3, [r0]
 1055 0004 1E4C     		ldr	r4, .L76
 1056 0006 1F48     		ldr	r0, .L76+4
 1057 0008 8342     		cmp	r3, r0
 1058 000a 18BF     		it	ne
 1059 000c A342     		cmpne	r3, r4
 1060 000e 2DD0     		beq	.L69
 1061 0010 1830     		adds	r0, r0, #24
 1062 0012 8342     		cmp	r3, r0
 1063 0014 2AD0     		beq	.L69
 1064 0016 1830     		adds	r0, r0, #24
 1065 0018 8342     		cmp	r3, r0
 1066 001a 27D0     		beq	.L69
 1067 001c 1830     		adds	r0, r0, #24
 1068 001e 8342     		cmp	r3, r0
 1069 0020 24D0     		beq	.L69
 1070 0022 1830     		adds	r0, r0, #24
 1071 0024 8342     		cmp	r3, r0
 1072 0026 21D0     		beq	.L69
 1073 0028 1830     		adds	r0, r0, #24
 1074 002a 8342     		cmp	r3, r0
 1075 002c 1ED0     		beq	.L69
 1076 002e 1830     		adds	r0, r0, #24
 1077 0030 8342     		cmp	r3, r0
 1078 0032 1BD0     		beq	.L69
 1079 0034 00F55670 		add	r0, r0, #856
 1080 0038 8342     		cmp	r3, r0
 1081 003a 17D0     		beq	.L69
 1082 003c 1830     		adds	r0, r0, #24
 1083 003e 8342     		cmp	r3, r0
 1084 0040 14D0     		beq	.L69
 1085 0042 1830     		adds	r0, r0, #24
ARM GAS  C:\Users\thewo\AppData\Local\Temp\ccmSrwLr.s 			page 20


 1086 0044 8342     		cmp	r3, r0
 1087 0046 11D0     		beq	.L69
 1088 0048 1830     		adds	r0, r0, #24
 1089 004a 8342     		cmp	r3, r0
 1090 004c 0ED0     		beq	.L69
 1091 004e 1830     		adds	r0, r0, #24
 1092 0050 8342     		cmp	r3, r0
 1093 0052 0BD0     		beq	.L69
 1094 0054 1830     		adds	r0, r0, #24
 1095 0056 8342     		cmp	r3, r0
 1096 0058 08D0     		beq	.L69
 1097 005a 1830     		adds	r0, r0, #24
 1098 005c 8342     		cmp	r3, r0
 1099 005e 05D0     		beq	.L69
 1100 0060 1830     		adds	r0, r0, #24
 1101 0062 8342     		cmp	r3, r0
 1102 0064 02D0     		beq	.L69
 1103 0066 4AB1     		cbz	r2, .L70
 1104 0068 1961     		str	r1, [r3, #16]
 1105 006a 01E0     		b	.L73
 1106              	.L69:
 1107 006c 22B9     		cbnz	r2, .L72
 1108 006e D960     		str	r1, [r3, #12]
 1109              	.L73:
 1110 0070 0020     		movs	r0, #0
 1111 0072 5DF8044B 		ldr	r4, [sp], #4
 1112 0076 7047     		bx	lr
 1113              	.L72:
 1114 0078 1961     		str	r1, [r3, #16]
 1115 007a F9E7     		b	.L73
 1116              	.L70:
 1117 007c D960     		str	r1, [r3, #12]
 1118 007e F7E7     		b	.L73
 1119              	.L77:
 1120              		.align	2
 1121              	.L76:
 1122 0080 10000240 		.word	1073872912
 1123 0084 28000240 		.word	1073872936
 1125              		.section	.text.HAL_DMAEx_ConfigMuxSync,"ax",%progbits
 1126              		.align	1
 1127              		.global	HAL_DMAEx_ConfigMuxSync
 1128              		.syntax unified
 1129              		.thumb
 1130              		.thumb_func
 1132              	HAL_DMAEx_ConfigMuxSync:
 1133              		@ args = 0, pretend = 0, frame = 0
 1134              		@ frame_needed = 0, uses_anonymous_args = 0
 1135 0000 70B5     		push	{r4, r5, r6, lr}
 1136 0002 0546     		mov	r5, r0
 1137 0004 0C46     		mov	r4, r1
 1138 0006 0368     		ldr	r3, [r0]
 1139 0008 7A49     		ldr	r1, .L99
 1140 000a 7B4A     		ldr	r2, .L99+4
 1141 000c 8B42     		cmp	r3, r1
 1142 000e 18BF     		it	ne
 1143 0010 9342     		cmpne	r3, r2
 1144 0012 47D0     		beq	.L79
ARM GAS  C:\Users\thewo\AppData\Local\Temp\ccmSrwLr.s 			page 21


 1145 0014 1832     		adds	r2, r2, #24
 1146 0016 9342     		cmp	r3, r2
 1147 0018 44D0     		beq	.L79
 1148 001a 1832     		adds	r2, r2, #24
 1149 001c 9342     		cmp	r3, r2
 1150 001e 41D0     		beq	.L79
 1151 0020 1832     		adds	r2, r2, #24
 1152 0022 9342     		cmp	r3, r2
 1153 0024 3ED0     		beq	.L79
 1154 0026 1832     		adds	r2, r2, #24
 1155 0028 9342     		cmp	r3, r2
 1156 002a 3BD0     		beq	.L79
 1157 002c 1832     		adds	r2, r2, #24
 1158 002e 9342     		cmp	r3, r2
 1159 0030 38D0     		beq	.L79
 1160 0032 1832     		adds	r2, r2, #24
 1161 0034 9342     		cmp	r3, r2
 1162 0036 35D0     		beq	.L79
 1163 0038 02F55672 		add	r2, r2, #856
 1164 003c 9342     		cmp	r3, r2
 1165 003e 31D0     		beq	.L79
 1166 0040 1832     		adds	r2, r2, #24
 1167 0042 9342     		cmp	r3, r2
 1168 0044 2ED0     		beq	.L79
 1169 0046 1832     		adds	r2, r2, #24
 1170 0048 9342     		cmp	r3, r2
 1171 004a 2BD0     		beq	.L79
 1172 004c 1832     		adds	r2, r2, #24
 1173 004e 9342     		cmp	r3, r2
 1174 0050 28D0     		beq	.L79
 1175 0052 1832     		adds	r2, r2, #24
 1176 0054 9342     		cmp	r3, r2
 1177 0056 25D0     		beq	.L79
 1178 0058 1832     		adds	r2, r2, #24
 1179 005a 9342     		cmp	r3, r2
 1180 005c 22D0     		beq	.L79
 1181 005e 1832     		adds	r2, r2, #24
 1182 0060 9342     		cmp	r3, r2
 1183 0062 1FD0     		beq	.L79
 1184 0064 1832     		adds	r2, r2, #24
 1185 0066 9342     		cmp	r3, r2
 1186 0068 1CD0     		beq	.L79
 1187 006a 644A     		ldr	r2, .L99+8
 1188 006c 9342     		cmp	r3, r2
 1189 006e 19D0     		beq	.L79
 1190 0070 1432     		adds	r2, r2, #20
 1191 0072 9342     		cmp	r3, r2
 1192 0074 16D0     		beq	.L79
 1193 0076 1432     		adds	r2, r2, #20
 1194 0078 9342     		cmp	r3, r2
 1195 007a 13D0     		beq	.L79
 1196 007c 1432     		adds	r2, r2, #20
 1197 007e 9342     		cmp	r3, r2
 1198 0080 10D0     		beq	.L79
 1199 0082 1432     		adds	r2, r2, #20
 1200 0084 9342     		cmp	r3, r2
 1201 0086 0DD0     		beq	.L79
ARM GAS  C:\Users\thewo\AppData\Local\Temp\ccmSrwLr.s 			page 22


 1202 0088 1432     		adds	r2, r2, #20
 1203 008a 9342     		cmp	r3, r2
 1204 008c 0AD0     		beq	.L79
 1205 008e 1432     		adds	r2, r2, #20
 1206 0090 9342     		cmp	r3, r2
 1207 0092 07D0     		beq	.L79
 1208 0094 1432     		adds	r2, r2, #20
 1209 0096 9342     		cmp	r3, r2
 1210 0098 04D0     		beq	.L79
 1211 009a 4FF4C971 		mov	r1, #402
 1212 009e 5848     		ldr	r0, .L99+12
 1213 00a0 FFF7FEFF 		bl	assert_failed
 1214              	.L79:
 1215 00a4 237A     		ldrb	r3, [r4, #8]	@ zero_extendqisi2
 1216 00a6 012B     		cmp	r3, #1
 1217 00a8 32D8     		bhi	.L93
 1218              	.L80:
 1219 00aa 637A     		ldrb	r3, [r4, #9]	@ zero_extendqisi2
 1220 00ac 012B     		cmp	r3, #1
 1221 00ae 35D8     		bhi	.L94
 1222              	.L81:
 1223 00b0 E368     		ldr	r3, [r4, #12]
 1224 00b2 013B     		subs	r3, r3, #1
 1225 00b4 1F2B     		cmp	r3, #31
 1226 00b6 37D8     		bhi	.L95
 1227              	.L82:
 1228 00b8 237A     		ldrb	r3, [r4, #8]	@ zero_extendqisi2
 1229 00ba 012B     		cmp	r3, #1
 1230 00bc 3AD0     		beq	.L96
 1231 00be 0021     		movs	r1, #0
 1232 00c0 0846     		mov	r0, r1
 1233              	.L83:
 1234 00c2 95F83530 		ldrb	r3, [r5, #53]	@ zero_extendqisi2
 1235 00c6 012B     		cmp	r3, #1
 1236 00c8 40F08D80 		bne	.L88
 1237 00cc 95F83430 		ldrb	r3, [r5, #52]	@ zero_extendqisi2
 1238 00d0 012B     		cmp	r3, #1
 1239 00d2 00F08D80 		beq	.L91
 1240 00d6 0123     		movs	r3, #1
 1241 00d8 85F83430 		strb	r3, [r5, #52]
 1242 00dc 2A6E     		ldr	r2, [r5, #96]
 1243 00de 1368     		ldr	r3, [r2]
 1244 00e0 23F48133 		bic	r3, r3, #66048
 1245 00e4 1360     		str	r3, [r2]
 1246 00e6 2E6E     		ldr	r6, [r5, #96]
 1247 00e8 3268     		ldr	r2, [r6]
 1248 00ea D2B2     		uxtb	r2, r2
 1249 00ec E368     		ldr	r3, [r4, #12]
 1250 00ee 013B     		subs	r3, r3, #1
 1251 00f0 DB04     		lsls	r3, r3, #19
 1252 00f2 43EA0063 		orr	r3, r3, r0, lsl #24
 1253 00f6 0B43     		orrs	r3, r3, r1
 1254 00f8 217A     		ldrb	r1, [r4, #8]	@ zero_extendqisi2
 1255 00fa 43EA0143 		orr	r3, r3, r1, lsl #16
 1256 00fe 617A     		ldrb	r1, [r4, #9]	@ zero_extendqisi2
 1257 0100 43EA4123 		orr	r3, r3, r1, lsl #9
 1258 0104 1343     		orrs	r3, r3, r2
ARM GAS  C:\Users\thewo\AppData\Local\Temp\ccmSrwLr.s 			page 23


 1259 0106 3360     		str	r3, [r6]
 1260 0108 0020     		movs	r0, #0
 1261 010a 85F83400 		strb	r0, [r5, #52]
 1262 010e 6EE0     		b	.L89
 1263              	.L93:
 1264 0110 40F29311 		movw	r1, #403
 1265 0114 3A48     		ldr	r0, .L99+12
 1266 0116 FFF7FEFF 		bl	assert_failed
 1267 011a C6E7     		b	.L80
 1268              	.L94:
 1269 011c 4FF4CA71 		mov	r1, #404
 1270 0120 3748     		ldr	r0, .L99+12
 1271 0122 FFF7FEFF 		bl	assert_failed
 1272 0126 C3E7     		b	.L81
 1273              	.L95:
 1274 0128 40F29511 		movw	r1, #405
 1275 012c 3448     		ldr	r0, .L99+12
 1276 012e FFF7FEFF 		bl	assert_failed
 1277 0132 C1E7     		b	.L82
 1278              	.L96:
 1279 0134 6368     		ldr	r3, [r4, #4]
 1280 0136 002B     		cmp	r3, #0
 1281 0138 18BF     		it	ne
 1282 013a B3F5003F 		cmpne	r3, #131072
 1283 013e 05D0     		beq	.L84
 1284 0140 B3F5802F 		cmp	r3, #262144
 1285 0144 02D0     		beq	.L84
 1286 0146 B3F5C02F 		cmp	r3, #393216
 1287 014a 3AD1     		bne	.L97
 1288              	.L84:
 1289 014c 2B68     		ldr	r3, [r5]
 1290 014e 2949     		ldr	r1, .L99
 1291 0150 294A     		ldr	r2, .L99+4
 1292 0152 9342     		cmp	r3, r2
 1293 0154 18BF     		it	ne
 1294 0156 8B42     		cmpne	r3, r1
 1295 0158 39D0     		beq	.L85
 1296 015a 1832     		adds	r2, r2, #24
 1297 015c 9342     		cmp	r3, r2
 1298 015e 36D0     		beq	.L85
 1299 0160 1832     		adds	r2, r2, #24
 1300 0162 9342     		cmp	r3, r2
 1301 0164 33D0     		beq	.L85
 1302 0166 1832     		adds	r2, r2, #24
 1303 0168 9342     		cmp	r3, r2
 1304 016a 30D0     		beq	.L85
 1305 016c 1832     		adds	r2, r2, #24
 1306 016e 9342     		cmp	r3, r2
 1307 0170 2DD0     		beq	.L85
 1308 0172 1832     		adds	r2, r2, #24
 1309 0174 9342     		cmp	r3, r2
 1310 0176 2AD0     		beq	.L85
 1311 0178 1832     		adds	r2, r2, #24
 1312 017a 9342     		cmp	r3, r2
 1313 017c 27D0     		beq	.L85
 1314 017e 02F55672 		add	r2, r2, #856
 1315 0182 9342     		cmp	r3, r2
ARM GAS  C:\Users\thewo\AppData\Local\Temp\ccmSrwLr.s 			page 24


 1316 0184 23D0     		beq	.L85
 1317 0186 1832     		adds	r2, r2, #24
 1318 0188 9342     		cmp	r3, r2
 1319 018a 20D0     		beq	.L85
 1320 018c 1832     		adds	r2, r2, #24
 1321 018e 9342     		cmp	r3, r2
 1322 0190 1DD0     		beq	.L85
 1323 0192 1832     		adds	r2, r2, #24
 1324 0194 9342     		cmp	r3, r2
 1325 0196 1AD0     		beq	.L85
 1326 0198 1832     		adds	r2, r2, #24
 1327 019a 9342     		cmp	r3, r2
 1328 019c 17D0     		beq	.L85
 1329 019e 1832     		adds	r2, r2, #24
 1330 01a0 9342     		cmp	r3, r2
 1331 01a2 14D0     		beq	.L85
 1332 01a4 1832     		adds	r2, r2, #24
 1333 01a6 9342     		cmp	r3, r2
 1334 01a8 11D0     		beq	.L85
 1335 01aa 1832     		adds	r2, r2, #24
 1336 01ac 9342     		cmp	r3, r2
 1337 01ae 0ED0     		beq	.L85
 1338 01b0 2368     		ldr	r3, [r4]
 1339 01b2 0F2B     		cmp	r3, #15
 1340 01b4 0ED9     		bls	.L87
 1341 01b6 40F2A111 		movw	r1, #417
 1342 01ba 1148     		ldr	r0, .L99+12
 1343 01bc FFF7FEFF 		bl	assert_failed
 1344 01c0 08E0     		b	.L87
 1345              	.L97:
 1346 01c2 40F29911 		movw	r1, #409
 1347 01c6 0E48     		ldr	r0, .L99+12
 1348 01c8 FFF7FEFF 		bl	assert_failed
 1349 01cc BEE7     		b	.L84
 1350              	.L85:
 1351 01ce 2368     		ldr	r3, [r4]
 1352 01d0 072B     		cmp	r3, #7
 1353 01d2 02D8     		bhi	.L98
 1354              	.L87:
 1355 01d4 2068     		ldr	r0, [r4]
 1356 01d6 6168     		ldr	r1, [r4, #4]
 1357 01d8 73E7     		b	.L83
 1358              	.L98:
 1359 01da 40F29D11 		movw	r1, #413
 1360 01de 0848     		ldr	r0, .L99+12
 1361 01e0 FFF7FEFF 		bl	assert_failed
 1362 01e4 F6E7     		b	.L87
 1363              	.L88:
 1364 01e6 4FF40063 		mov	r3, #2048
 1365 01ea 6B65     		str	r3, [r5, #84]
 1366 01ec 0120     		movs	r0, #1
 1367              	.L89:
 1368 01ee 70BD     		pop	{r4, r5, r6, pc}
 1369              	.L91:
 1370 01f0 0220     		movs	r0, #2
 1371 01f2 FCE7     		b	.L89
 1372              	.L100:
ARM GAS  C:\Users\thewo\AppData\Local\Temp\ccmSrwLr.s 			page 25


 1373              		.align	2
 1374              	.L99:
 1375 01f4 10000240 		.word	1073872912
 1376 01f8 28000240 		.word	1073872936
 1377 01fc 08540258 		.word	1476547592
 1378 0200 00000000 		.word	.LC0
 1380              		.section	.text.HAL_DMAEx_ConfigMuxRequestGenerator,"ax",%progbits
 1381              		.align	1
 1382              		.global	HAL_DMAEx_ConfigMuxRequestGenerator
 1383              		.syntax unified
 1384              		.thumb
 1385              		.thumb_func
 1387              	HAL_DMAEx_ConfigMuxRequestGenerator:
 1388              		@ args = 0, pretend = 0, frame = 0
 1389              		@ frame_needed = 0, uses_anonymous_args = 0
 1390 0000 70B5     		push	{r4, r5, r6, lr}
 1391 0002 0446     		mov	r4, r0
 1392 0004 0D46     		mov	r5, r1
 1393 0006 90F83560 		ldrb	r6, [r0, #53]	@ zero_extendqisi2
 1394 000a F6B2     		uxtb	r6, r6
 1395 000c 0368     		ldr	r3, [r0]
 1396 000e 6A49     		ldr	r1, .L118
 1397 0010 6A4A     		ldr	r2, .L118+4
 1398 0012 8B42     		cmp	r3, r1
 1399 0014 18BF     		it	ne
 1400 0016 9342     		cmpne	r3, r2
 1401 0018 47D0     		beq	.L102
 1402 001a 1832     		adds	r2, r2, #24
 1403 001c 9342     		cmp	r3, r2
 1404 001e 44D0     		beq	.L102
 1405 0020 1832     		adds	r2, r2, #24
 1406 0022 9342     		cmp	r3, r2
 1407 0024 41D0     		beq	.L102
 1408 0026 1832     		adds	r2, r2, #24
 1409 0028 9342     		cmp	r3, r2
 1410 002a 3ED0     		beq	.L102
 1411 002c 1832     		adds	r2, r2, #24
 1412 002e 9342     		cmp	r3, r2
 1413 0030 3BD0     		beq	.L102
 1414 0032 1832     		adds	r2, r2, #24
 1415 0034 9342     		cmp	r3, r2
 1416 0036 38D0     		beq	.L102
 1417 0038 1832     		adds	r2, r2, #24
 1418 003a 9342     		cmp	r3, r2
 1419 003c 35D0     		beq	.L102
 1420 003e 02F55672 		add	r2, r2, #856
 1421 0042 9342     		cmp	r3, r2
 1422 0044 31D0     		beq	.L102
 1423 0046 1832     		adds	r2, r2, #24
 1424 0048 9342     		cmp	r3, r2
 1425 004a 2ED0     		beq	.L102
 1426 004c 1832     		adds	r2, r2, #24
 1427 004e 9342     		cmp	r3, r2
 1428 0050 2BD0     		beq	.L102
 1429 0052 1832     		adds	r2, r2, #24
 1430 0054 9342     		cmp	r3, r2
 1431 0056 28D0     		beq	.L102
ARM GAS  C:\Users\thewo\AppData\Local\Temp\ccmSrwLr.s 			page 26


 1432 0058 1832     		adds	r2, r2, #24
 1433 005a 9342     		cmp	r3, r2
 1434 005c 25D0     		beq	.L102
 1435 005e 1832     		adds	r2, r2, #24
 1436 0060 9342     		cmp	r3, r2
 1437 0062 22D0     		beq	.L102
 1438 0064 1832     		adds	r2, r2, #24
 1439 0066 9342     		cmp	r3, r2
 1440 0068 1FD0     		beq	.L102
 1441 006a 1832     		adds	r2, r2, #24
 1442 006c 9342     		cmp	r3, r2
 1443 006e 1CD0     		beq	.L102
 1444 0070 534A     		ldr	r2, .L118+8
 1445 0072 9342     		cmp	r3, r2
 1446 0074 19D0     		beq	.L102
 1447 0076 1432     		adds	r2, r2, #20
 1448 0078 9342     		cmp	r3, r2
 1449 007a 16D0     		beq	.L102
 1450 007c 1432     		adds	r2, r2, #20
 1451 007e 9342     		cmp	r3, r2
 1452 0080 13D0     		beq	.L102
 1453 0082 1432     		adds	r2, r2, #20
 1454 0084 9342     		cmp	r3, r2
 1455 0086 10D0     		beq	.L102
 1456 0088 1432     		adds	r2, r2, #20
 1457 008a 9342     		cmp	r3, r2
 1458 008c 0DD0     		beq	.L102
 1459 008e 1432     		adds	r2, r2, #20
 1460 0090 9342     		cmp	r3, r2
 1461 0092 0AD0     		beq	.L102
 1462 0094 1432     		adds	r2, r2, #20
 1463 0096 9342     		cmp	r3, r2
 1464 0098 07D0     		beq	.L102
 1465 009a 1432     		adds	r2, r2, #20
 1466 009c 9342     		cmp	r3, r2
 1467 009e 04D0     		beq	.L102
 1468 00a0 4FF4EB71 		mov	r1, #470
 1469 00a4 4748     		ldr	r0, .L118+12
 1470 00a6 FFF7FEFF 		bl	assert_failed
 1471              	.L102:
 1472 00aa 2368     		ldr	r3, [r4]
 1473 00ac 4249     		ldr	r1, .L118
 1474 00ae 434A     		ldr	r2, .L118+4
 1475 00b0 9342     		cmp	r3, r2
 1476 00b2 18BF     		it	ne
 1477 00b4 8B42     		cmpne	r3, r1
 1478 00b6 33D0     		beq	.L103
 1479 00b8 1832     		adds	r2, r2, #24
 1480 00ba 9342     		cmp	r3, r2
 1481 00bc 30D0     		beq	.L103
 1482 00be 1832     		adds	r2, r2, #24
 1483 00c0 9342     		cmp	r3, r2
 1484 00c2 2DD0     		beq	.L103
 1485 00c4 1832     		adds	r2, r2, #24
 1486 00c6 9342     		cmp	r3, r2
 1487 00c8 2AD0     		beq	.L103
 1488 00ca 1832     		adds	r2, r2, #24
ARM GAS  C:\Users\thewo\AppData\Local\Temp\ccmSrwLr.s 			page 27


 1489 00cc 9342     		cmp	r3, r2
 1490 00ce 27D0     		beq	.L103
 1491 00d0 1832     		adds	r2, r2, #24
 1492 00d2 9342     		cmp	r3, r2
 1493 00d4 24D0     		beq	.L103
 1494 00d6 1832     		adds	r2, r2, #24
 1495 00d8 9342     		cmp	r3, r2
 1496 00da 21D0     		beq	.L103
 1497 00dc 02F55672 		add	r2, r2, #856
 1498 00e0 9342     		cmp	r3, r2
 1499 00e2 1DD0     		beq	.L103
 1500 00e4 1832     		adds	r2, r2, #24
 1501 00e6 9342     		cmp	r3, r2
 1502 00e8 1AD0     		beq	.L103
 1503 00ea 1832     		adds	r2, r2, #24
 1504 00ec 9342     		cmp	r3, r2
 1505 00ee 17D0     		beq	.L103
 1506 00f0 1832     		adds	r2, r2, #24
 1507 00f2 9342     		cmp	r3, r2
 1508 00f4 14D0     		beq	.L103
 1509 00f6 1832     		adds	r2, r2, #24
 1510 00f8 9342     		cmp	r3, r2
 1511 00fa 11D0     		beq	.L103
 1512 00fc 1832     		adds	r2, r2, #24
 1513 00fe 9342     		cmp	r3, r2
 1514 0100 0ED0     		beq	.L103
 1515 0102 1832     		adds	r2, r2, #24
 1516 0104 9342     		cmp	r3, r2
 1517 0106 0BD0     		beq	.L103
 1518 0108 1832     		adds	r2, r2, #24
 1519 010a 9342     		cmp	r3, r2
 1520 010c 08D0     		beq	.L103
 1521 010e 2B68     		ldr	r3, [r5]
 1522 0110 1D2B     		cmp	r3, #29
 1523 0112 08D9     		bls	.L105
 1524 0114 4FF4EF71 		mov	r1, #478
 1525 0118 2A48     		ldr	r0, .L118+12
 1526 011a FFF7FEFF 		bl	assert_failed
 1527 011e 02E0     		b	.L105
 1528              	.L103:
 1529 0120 2B68     		ldr	r3, [r5]
 1530 0122 072B     		cmp	r3, #7
 1531 0124 1CD8     		bhi	.L113
 1532              	.L105:
 1533 0126 6B68     		ldr	r3, [r5, #4]
 1534 0128 002B     		cmp	r3, #0
 1535 012a 18BF     		it	ne
 1536 012c B3F5003F 		cmpne	r3, #131072
 1537 0130 05D0     		beq	.L106
 1538 0132 B3F5802F 		cmp	r3, #262144
 1539 0136 02D0     		beq	.L106
 1540 0138 B3F5C02F 		cmp	r3, #393216
 1541 013c 16D1     		bne	.L114
 1542              	.L106:
 1543 013e AB68     		ldr	r3, [r5, #8]
 1544 0140 013B     		subs	r3, r3, #1
 1545 0142 1F2B     		cmp	r3, #31
ARM GAS  C:\Users\thewo\AppData\Local\Temp\ccmSrwLr.s 			page 28


 1546 0144 18D8     		bhi	.L115
 1547              	.L107:
 1548 0146 E36E     		ldr	r3, [r4, #108]
 1549 0148 E3B1     		cbz	r3, .L116
 1550 014a 1A68     		ldr	r2, [r3]
 1551 014c 12F4803F 		tst	r2, #65536
 1552 0150 01D1     		bne	.L110
 1553 0152 012E     		cmp	r6, #1
 1554 0154 1AD0     		beq	.L117
 1555              	.L110:
 1556 0156 4FF40063 		mov	r3, #2048
 1557 015a 6365     		str	r3, [r4, #84]
 1558 015c 0120     		movs	r0, #1
 1559              	.L109:
 1560 015e 70BD     		pop	{r4, r5, r6, pc}
 1561              	.L113:
 1562 0160 4FF4ED71 		mov	r1, #474
 1563 0164 1748     		ldr	r0, .L118+12
 1564 0166 FFF7FEFF 		bl	assert_failed
 1565 016a DCE7     		b	.L105
 1566              	.L114:
 1567 016c 4FF4F171 		mov	r1, #482
 1568 0170 1448     		ldr	r0, .L118+12
 1569 0172 FFF7FEFF 		bl	assert_failed
 1570 0176 E2E7     		b	.L106
 1571              	.L115:
 1572 0178 40F2E311 		movw	r1, #483
 1573 017c 1148     		ldr	r0, .L118+12
 1574 017e FFF7FEFF 		bl	assert_failed
 1575 0182 E0E7     		b	.L107
 1576              	.L116:
 1577 0184 4023     		movs	r3, #64
 1578 0186 6365     		str	r3, [r4, #84]
 1579 0188 0120     		movs	r0, #1
 1580 018a E8E7     		b	.L109
 1581              	.L117:
 1582 018c 94F83420 		ldrb	r2, [r4, #52]	@ zero_extendqisi2
 1583 0190 012A     		cmp	r2, #1
 1584 0192 0ED0     		beq	.L111
 1585 0194 0122     		movs	r2, #1
 1586 0196 84F83420 		strb	r2, [r4, #52]
 1587 019a 2A68     		ldr	r2, [r5]
 1588 019c A968     		ldr	r1, [r5, #8]
 1589 019e 0139     		subs	r1, r1, #1
 1590 01a0 42EAC142 		orr	r2, r2, r1, lsl #19
 1591 01a4 6968     		ldr	r1, [r5, #4]
 1592 01a6 0A43     		orrs	r2, r2, r1
 1593 01a8 1A60     		str	r2, [r3]
 1594 01aa 0020     		movs	r0, #0
 1595 01ac 84F83400 		strb	r0, [r4, #52]
 1596 01b0 D5E7     		b	.L109
 1597              	.L111:
 1598 01b2 0220     		movs	r0, #2
 1599 01b4 D3E7     		b	.L109
 1600              	.L119:
 1601 01b6 00BF     		.align	2
 1602              	.L118:
ARM GAS  C:\Users\thewo\AppData\Local\Temp\ccmSrwLr.s 			page 29


 1603 01b8 10000240 		.word	1073872912
 1604 01bc 28000240 		.word	1073872936
 1605 01c0 08540258 		.word	1476547592
 1606 01c4 00000000 		.word	.LC0
 1608              		.section	.text.HAL_DMAEx_EnableMuxRequestGenerator,"ax",%progbits
 1609              		.align	1
 1610              		.global	HAL_DMAEx_EnableMuxRequestGenerator
 1611              		.syntax unified
 1612              		.thumb
 1613              		.thumb_func
 1615              	HAL_DMAEx_EnableMuxRequestGenerator:
 1616              		@ args = 0, pretend = 0, frame = 0
 1617              		@ frame_needed = 0, uses_anonymous_args = 0
 1618 0000 10B5     		push	{r4, lr}
 1619 0002 0446     		mov	r4, r0
 1620 0004 0368     		ldr	r3, [r0]
 1621 0006 2E49     		ldr	r1, .L126
 1622 0008 2E4A     		ldr	r2, .L126+4
 1623 000a 8B42     		cmp	r3, r1
 1624 000c 18BF     		it	ne
 1625 000e 9342     		cmpne	r3, r2
 1626 0010 47D0     		beq	.L121
 1627 0012 1832     		adds	r2, r2, #24
 1628 0014 9342     		cmp	r3, r2
 1629 0016 44D0     		beq	.L121
 1630 0018 1832     		adds	r2, r2, #24
 1631 001a 9342     		cmp	r3, r2
 1632 001c 41D0     		beq	.L121
 1633 001e 1832     		adds	r2, r2, #24
 1634 0020 9342     		cmp	r3, r2
 1635 0022 3ED0     		beq	.L121
 1636 0024 1832     		adds	r2, r2, #24
 1637 0026 9342     		cmp	r3, r2
 1638 0028 3BD0     		beq	.L121
 1639 002a 1832     		adds	r2, r2, #24
 1640 002c 9342     		cmp	r3, r2
 1641 002e 38D0     		beq	.L121
 1642 0030 1832     		adds	r2, r2, #24
 1643 0032 9342     		cmp	r3, r2
 1644 0034 35D0     		beq	.L121
 1645 0036 02F55672 		add	r2, r2, #856
 1646 003a 9342     		cmp	r3, r2
 1647 003c 31D0     		beq	.L121
 1648 003e 1832     		adds	r2, r2, #24
 1649 0040 9342     		cmp	r3, r2
 1650 0042 2ED0     		beq	.L121
 1651 0044 1832     		adds	r2, r2, #24
 1652 0046 9342     		cmp	r3, r2
 1653 0048 2BD0     		beq	.L121
 1654 004a 1832     		adds	r2, r2, #24
 1655 004c 9342     		cmp	r3, r2
 1656 004e 28D0     		beq	.L121
 1657 0050 1832     		adds	r2, r2, #24
 1658 0052 9342     		cmp	r3, r2
 1659 0054 25D0     		beq	.L121
 1660 0056 1832     		adds	r2, r2, #24
 1661 0058 9342     		cmp	r3, r2
ARM GAS  C:\Users\thewo\AppData\Local\Temp\ccmSrwLr.s 			page 30


 1662 005a 22D0     		beq	.L121
 1663 005c 1832     		adds	r2, r2, #24
 1664 005e 9342     		cmp	r3, r2
 1665 0060 1FD0     		beq	.L121
 1666 0062 1832     		adds	r2, r2, #24
 1667 0064 9342     		cmp	r3, r2
 1668 0066 1CD0     		beq	.L121
 1669 0068 174A     		ldr	r2, .L126+8
 1670 006a 9342     		cmp	r3, r2
 1671 006c 19D0     		beq	.L121
 1672 006e 1432     		adds	r2, r2, #20
 1673 0070 9342     		cmp	r3, r2
 1674 0072 16D0     		beq	.L121
 1675 0074 1432     		adds	r2, r2, #20
 1676 0076 9342     		cmp	r3, r2
 1677 0078 13D0     		beq	.L121
 1678 007a 1432     		adds	r2, r2, #20
 1679 007c 9342     		cmp	r3, r2
 1680 007e 10D0     		beq	.L121
 1681 0080 1432     		adds	r2, r2, #20
 1682 0082 9342     		cmp	r3, r2
 1683 0084 0DD0     		beq	.L121
 1684 0086 1432     		adds	r2, r2, #20
 1685 0088 9342     		cmp	r3, r2
 1686 008a 0AD0     		beq	.L121
 1687 008c 1432     		adds	r2, r2, #20
 1688 008e 9342     		cmp	r3, r2
 1689 0090 07D0     		beq	.L121
 1690 0092 1432     		adds	r2, r2, #20
 1691 0094 9342     		cmp	r3, r2
 1692 0096 04D0     		beq	.L121
 1693 0098 40F21521 		movw	r1, #533
 1694 009c 0B48     		ldr	r0, .L126+12
 1695 009e FFF7FEFF 		bl	assert_failed
 1696              	.L121:
 1697 00a2 94F83530 		ldrb	r3, [r4, #53]	@ zero_extendqisi2
 1698 00a6 3BB1     		cbz	r3, .L123
 1699 00a8 E36E     		ldr	r3, [r4, #108]
 1700 00aa 3BB1     		cbz	r3, .L124
 1701 00ac 1A68     		ldr	r2, [r3]
 1702 00ae 42F48032 		orr	r2, r2, #65536
 1703 00b2 1A60     		str	r2, [r3]
 1704 00b4 0020     		movs	r0, #0
 1705              	.L122:
 1706 00b6 10BD     		pop	{r4, pc}
 1707              	.L123:
 1708 00b8 0120     		movs	r0, #1
 1709 00ba FCE7     		b	.L122
 1710              	.L124:
 1711 00bc 0120     		movs	r0, #1
 1712 00be FAE7     		b	.L122
 1713              	.L127:
 1714              		.align	2
 1715              	.L126:
 1716 00c0 10000240 		.word	1073872912
 1717 00c4 28000240 		.word	1073872936
 1718 00c8 08540258 		.word	1476547592
ARM GAS  C:\Users\thewo\AppData\Local\Temp\ccmSrwLr.s 			page 31


 1719 00cc 00000000 		.word	.LC0
 1721              		.section	.text.HAL_DMAEx_DisableMuxRequestGenerator,"ax",%progbits
 1722              		.align	1
 1723              		.global	HAL_DMAEx_DisableMuxRequestGenerator
 1724              		.syntax unified
 1725              		.thumb
 1726              		.thumb_func
 1728              	HAL_DMAEx_DisableMuxRequestGenerator:
 1729              		@ args = 0, pretend = 0, frame = 0
 1730              		@ frame_needed = 0, uses_anonymous_args = 0
 1731 0000 10B5     		push	{r4, lr}
 1732 0002 0446     		mov	r4, r0
 1733 0004 0368     		ldr	r3, [r0]
 1734 0006 2E49     		ldr	r1, .L134
 1735 0008 2E4A     		ldr	r2, .L134+4
 1736 000a 8B42     		cmp	r3, r1
 1737 000c 18BF     		it	ne
 1738 000e 9342     		cmpne	r3, r2
 1739 0010 47D0     		beq	.L129
 1740 0012 1832     		adds	r2, r2, #24
 1741 0014 9342     		cmp	r3, r2
 1742 0016 44D0     		beq	.L129
 1743 0018 1832     		adds	r2, r2, #24
 1744 001a 9342     		cmp	r3, r2
 1745 001c 41D0     		beq	.L129
 1746 001e 1832     		adds	r2, r2, #24
 1747 0020 9342     		cmp	r3, r2
 1748 0022 3ED0     		beq	.L129
 1749 0024 1832     		adds	r2, r2, #24
 1750 0026 9342     		cmp	r3, r2
 1751 0028 3BD0     		beq	.L129
 1752 002a 1832     		adds	r2, r2, #24
 1753 002c 9342     		cmp	r3, r2
 1754 002e 38D0     		beq	.L129
 1755 0030 1832     		adds	r2, r2, #24
 1756 0032 9342     		cmp	r3, r2
 1757 0034 35D0     		beq	.L129
 1758 0036 02F55672 		add	r2, r2, #856
 1759 003a 9342     		cmp	r3, r2
 1760 003c 31D0     		beq	.L129
 1761 003e 1832     		adds	r2, r2, #24
 1762 0040 9342     		cmp	r3, r2
 1763 0042 2ED0     		beq	.L129
 1764 0044 1832     		adds	r2, r2, #24
 1765 0046 9342     		cmp	r3, r2
 1766 0048 2BD0     		beq	.L129
 1767 004a 1832     		adds	r2, r2, #24
 1768 004c 9342     		cmp	r3, r2
 1769 004e 28D0     		beq	.L129
 1770 0050 1832     		adds	r2, r2, #24
 1771 0052 9342     		cmp	r3, r2
 1772 0054 25D0     		beq	.L129
 1773 0056 1832     		adds	r2, r2, #24
 1774 0058 9342     		cmp	r3, r2
 1775 005a 22D0     		beq	.L129
 1776 005c 1832     		adds	r2, r2, #24
 1777 005e 9342     		cmp	r3, r2
ARM GAS  C:\Users\thewo\AppData\Local\Temp\ccmSrwLr.s 			page 32


 1778 0060 1FD0     		beq	.L129
 1779 0062 1832     		adds	r2, r2, #24
 1780 0064 9342     		cmp	r3, r2
 1781 0066 1CD0     		beq	.L129
 1782 0068 174A     		ldr	r2, .L134+8
 1783 006a 9342     		cmp	r3, r2
 1784 006c 19D0     		beq	.L129
 1785 006e 1432     		adds	r2, r2, #20
 1786 0070 9342     		cmp	r3, r2
 1787 0072 16D0     		beq	.L129
 1788 0074 1432     		adds	r2, r2, #20
 1789 0076 9342     		cmp	r3, r2
 1790 0078 13D0     		beq	.L129
 1791 007a 1432     		adds	r2, r2, #20
 1792 007c 9342     		cmp	r3, r2
 1793 007e 10D0     		beq	.L129
 1794 0080 1432     		adds	r2, r2, #20
 1795 0082 9342     		cmp	r3, r2
 1796 0084 0DD0     		beq	.L129
 1797 0086 1432     		adds	r2, r2, #20
 1798 0088 9342     		cmp	r3, r2
 1799 008a 0AD0     		beq	.L129
 1800 008c 1432     		adds	r2, r2, #20
 1801 008e 9342     		cmp	r3, r2
 1802 0090 07D0     		beq	.L129
 1803 0092 1432     		adds	r2, r2, #20
 1804 0094 9342     		cmp	r3, r2
 1805 0096 04D0     		beq	.L129
 1806 0098 40F22F21 		movw	r1, #559
 1807 009c 0B48     		ldr	r0, .L134+12
 1808 009e FFF7FEFF 		bl	assert_failed
 1809              	.L129:
 1810 00a2 94F83530 		ldrb	r3, [r4, #53]	@ zero_extendqisi2
 1811 00a6 3BB1     		cbz	r3, .L131
 1812 00a8 E36E     		ldr	r3, [r4, #108]
 1813 00aa 3BB1     		cbz	r3, .L132
 1814 00ac 1A68     		ldr	r2, [r3]
 1815 00ae 22F48032 		bic	r2, r2, #65536
 1816 00b2 1A60     		str	r2, [r3]
 1817 00b4 0020     		movs	r0, #0
 1818              	.L130:
 1819 00b6 10BD     		pop	{r4, pc}
 1820              	.L131:
 1821 00b8 0120     		movs	r0, #1
 1822 00ba FCE7     		b	.L130
 1823              	.L132:
 1824 00bc 0120     		movs	r0, #1
 1825 00be FAE7     		b	.L130
 1826              	.L135:
 1827              		.align	2
 1828              	.L134:
 1829 00c0 10000240 		.word	1073872912
 1830 00c4 28000240 		.word	1073872936
 1831 00c8 08540258 		.word	1476547592
 1832 00cc 00000000 		.word	.LC0
 1834              		.section	.text.HAL_DMAEx_MUX_IRQHandler,"ax",%progbits
 1835              		.align	1
ARM GAS  C:\Users\thewo\AppData\Local\Temp\ccmSrwLr.s 			page 33


 1836              		.global	HAL_DMAEx_MUX_IRQHandler
 1837              		.syntax unified
 1838              		.thumb
 1839              		.thumb_func
 1841              	HAL_DMAEx_MUX_IRQHandler:
 1842              		@ args = 0, pretend = 0, frame = 0
 1843              		@ frame_needed = 0, uses_anonymous_args = 0
 1844 0000 10B5     		push	{r4, lr}
 1845 0002 0446     		mov	r4, r0
 1846 0004 436E     		ldr	r3, [r0, #100]
 1847 0006 1A68     		ldr	r2, [r3]
 1848 0008 836E     		ldr	r3, [r0, #104]
 1849 000a 1A42     		tst	r2, r3
 1850 000c 0ED0     		beq	.L137
 1851 000e 026E     		ldr	r2, [r0, #96]
 1852 0010 1368     		ldr	r3, [r2]
 1853 0012 23F48073 		bic	r3, r3, #256
 1854 0016 1360     		str	r3, [r2]
 1855 0018 436E     		ldr	r3, [r0, #100]
 1856 001a 826E     		ldr	r2, [r0, #104]
 1857 001c 5A60     		str	r2, [r3, #4]
 1858 001e 436D     		ldr	r3, [r0, #84]
 1859 0020 43F40073 		orr	r3, r3, #512
 1860 0024 4365     		str	r3, [r0, #84]
 1861 0026 C36C     		ldr	r3, [r0, #76]
 1862 0028 03B1     		cbz	r3, .L137
 1863 002a 9847     		blx	r3
 1864              	.L137:
 1865 002c E36E     		ldr	r3, [r4, #108]
 1866 002e 9BB1     		cbz	r3, .L136
 1867 0030 226F     		ldr	r2, [r4, #112]
 1868 0032 1168     		ldr	r1, [r2]
 1869 0034 626F     		ldr	r2, [r4, #116]
 1870 0036 1142     		tst	r1, r2
 1871 0038 0ED0     		beq	.L136
 1872 003a 1A68     		ldr	r2, [r3]
 1873 003c 22F48072 		bic	r2, r2, #256
 1874 0040 1A60     		str	r2, [r3]
 1875 0042 236F     		ldr	r3, [r4, #112]
 1876 0044 626F     		ldr	r2, [r4, #116]
 1877 0046 5A60     		str	r2, [r3, #4]
 1878 0048 636D     		ldr	r3, [r4, #84]
 1879 004a 43F48063 		orr	r3, r3, #1024
 1880 004e 6365     		str	r3, [r4, #84]
 1881 0050 E36C     		ldr	r3, [r4, #76]
 1882 0052 0BB1     		cbz	r3, .L136
 1883 0054 2046     		mov	r0, r4
 1884 0056 9847     		blx	r3
 1885              	.L136:
 1886 0058 10BD     		pop	{r4, pc}
 1888              		.ident	"GCC: (xPack GNU Arm Embedded GCC x86_64) 14.2.1 20241119"
ARM GAS  C:\Users\thewo\AppData\Local\Temp\ccmSrwLr.s 			page 34

