ARM GAS  C:\Users\thewo\AppData\Local\Temp\ccgZg82m.s 			page 1


   1              		.cpu cortex-m7
   2              		.arch armv7e-m
   3              		.fpu fpv5-d16
   4              		.eabi_attribute 28, 1
   5              		.eabi_attribute 20, 1
   6              		.eabi_attribute 21, 1
   7              		.eabi_attribute 23, 3
   8              		.eabi_attribute 24, 1
   9              		.eabi_attribute 25, 1
  10              		.eabi_attribute 26, 1
  11              		.eabi_attribute 30, 1
  12              		.eabi_attribute 34, 1
  13              		.eabi_attribute 18, 4
  14              		.file	"stm32h7xx_hal_dma.c"
  15              		.text
  16              		.section	.text.DMA_SetConfig,"ax",%progbits
  17              		.align	1
  18              		.syntax unified
  19              		.thumb
  20              		.thumb_func
  22              	DMA_SetConfig:
  23              		@ args = 0, pretend = 0, frame = 0
  24              		@ frame_needed = 0, uses_anonymous_args = 0
  25              		@ link register save eliminated.
  26 0000 F0B4     		push	{r4, r5, r6, r7}
  27 0002 876D     		ldr	r7, [r0, #88]
  28 0004 0468     		ldr	r4, [r0]
  29 0006 664E     		ldr	r6, .L14
  30 0008 664D     		ldr	r5, .L14+4
  31 000a AC42     		cmp	r4, r5
  32 000c 18BF     		it	ne
  33 000e B442     		cmpne	r4, r6
  34 0010 42D0     		beq	.L2
  35 0012 1835     		adds	r5, r5, #24
  36 0014 AC42     		cmp	r4, r5
  37 0016 3FD0     		beq	.L2
  38 0018 1835     		adds	r5, r5, #24
  39 001a AC42     		cmp	r4, r5
  40 001c 3CD0     		beq	.L2
  41 001e 1835     		adds	r5, r5, #24
  42 0020 AC42     		cmp	r4, r5
  43 0022 39D0     		beq	.L2
  44 0024 1835     		adds	r5, r5, #24
  45 0026 AC42     		cmp	r4, r5
  46 0028 36D0     		beq	.L2
  47 002a 1835     		adds	r5, r5, #24
  48 002c AC42     		cmp	r4, r5
  49 002e 33D0     		beq	.L2
  50 0030 1835     		adds	r5, r5, #24
  51 0032 AC42     		cmp	r4, r5
  52 0034 30D0     		beq	.L2
  53 0036 05F55675 		add	r5, r5, #856
  54 003a AC42     		cmp	r4, r5
  55 003c 2CD0     		beq	.L2
  56 003e 1835     		adds	r5, r5, #24
  57 0040 AC42     		cmp	r4, r5
  58 0042 29D0     		beq	.L2
ARM GAS  C:\Users\thewo\AppData\Local\Temp\ccgZg82m.s 			page 2


  59 0044 1835     		adds	r5, r5, #24
  60 0046 AC42     		cmp	r4, r5
  61 0048 26D0     		beq	.L2
  62 004a 1835     		adds	r5, r5, #24
  63 004c AC42     		cmp	r4, r5
  64 004e 23D0     		beq	.L2
  65 0050 1835     		adds	r5, r5, #24
  66 0052 AC42     		cmp	r4, r5
  67 0054 20D0     		beq	.L2
  68 0056 1835     		adds	r5, r5, #24
  69 0058 AC42     		cmp	r4, r5
  70 005a 1DD0     		beq	.L2
  71 005c 1835     		adds	r5, r5, #24
  72 005e AC42     		cmp	r4, r5
  73 0060 1AD0     		beq	.L2
  74 0062 1835     		adds	r5, r5, #24
  75 0064 AC42     		cmp	r4, r5
  76 0066 17D0     		beq	.L2
  77 0068 4F4D     		ldr	r5, .L14+8
  78 006a AC42     		cmp	r4, r5
  79 006c 14D0     		beq	.L2
  80 006e 1435     		adds	r5, r5, #20
  81 0070 AC42     		cmp	r4, r5
  82 0072 11D0     		beq	.L2
  83 0074 1435     		adds	r5, r5, #20
  84 0076 AC42     		cmp	r4, r5
  85 0078 0ED0     		beq	.L2
  86 007a 1435     		adds	r5, r5, #20
  87 007c AC42     		cmp	r4, r5
  88 007e 0BD0     		beq	.L2
  89 0080 1435     		adds	r5, r5, #20
  90 0082 AC42     		cmp	r4, r5
  91 0084 08D0     		beq	.L2
  92 0086 1435     		adds	r5, r5, #20
  93 0088 AC42     		cmp	r4, r5
  94 008a 05D0     		beq	.L2
  95 008c 1435     		adds	r5, r5, #20
  96 008e AC42     		cmp	r4, r5
  97 0090 02D0     		beq	.L2
  98 0092 1435     		adds	r5, r5, #20
  99 0094 AC42     		cmp	r4, r5
 100 0096 07D1     		bne	.L3
 101              	.L2:
 102 0098 446E     		ldr	r4, [r0, #100]
 103 009a 856E     		ldr	r5, [r0, #104]
 104 009c 6560     		str	r5, [r4, #4]
 105 009e C46E     		ldr	r4, [r0, #108]
 106 00a0 14B1     		cbz	r4, .L3
 107 00a2 046F     		ldr	r4, [r0, #112]
 108 00a4 456F     		ldr	r5, [r0, #116]
 109 00a6 6560     		str	r5, [r4, #4]
 110              	.L3:
 111 00a8 0468     		ldr	r4, [r0]
 112 00aa 3D4E     		ldr	r6, .L14
 113 00ac 3D4D     		ldr	r5, .L14+4
 114 00ae AC42     		cmp	r4, r5
 115 00b0 18BF     		it	ne
ARM GAS  C:\Users\thewo\AppData\Local\Temp\ccgZg82m.s 			page 3


 116 00b2 B442     		cmpne	r4, r6
 117 00b4 52D0     		beq	.L4
 118 00b6 1835     		adds	r5, r5, #24
 119 00b8 AC42     		cmp	r4, r5
 120 00ba 4FD0     		beq	.L4
 121 00bc 1835     		adds	r5, r5, #24
 122 00be AC42     		cmp	r4, r5
 123 00c0 4CD0     		beq	.L4
 124 00c2 1835     		adds	r5, r5, #24
 125 00c4 AC42     		cmp	r4, r5
 126 00c6 49D0     		beq	.L4
 127 00c8 1835     		adds	r5, r5, #24
 128 00ca AC42     		cmp	r4, r5
 129 00cc 46D0     		beq	.L4
 130 00ce 1835     		adds	r5, r5, #24
 131 00d0 AC42     		cmp	r4, r5
 132 00d2 43D0     		beq	.L4
 133 00d4 1835     		adds	r5, r5, #24
 134 00d6 AC42     		cmp	r4, r5
 135 00d8 40D0     		beq	.L4
 136 00da 05F55675 		add	r5, r5, #856
 137 00de AC42     		cmp	r4, r5
 138 00e0 3CD0     		beq	.L4
 139 00e2 1835     		adds	r5, r5, #24
 140 00e4 AC42     		cmp	r4, r5
 141 00e6 39D0     		beq	.L4
 142 00e8 1835     		adds	r5, r5, #24
 143 00ea AC42     		cmp	r4, r5
 144 00ec 36D0     		beq	.L4
 145 00ee 1835     		adds	r5, r5, #24
 146 00f0 AC42     		cmp	r4, r5
 147 00f2 33D0     		beq	.L4
 148 00f4 1835     		adds	r5, r5, #24
 149 00f6 AC42     		cmp	r4, r5
 150 00f8 30D0     		beq	.L4
 151 00fa 1835     		adds	r5, r5, #24
 152 00fc AC42     		cmp	r4, r5
 153 00fe 2DD0     		beq	.L4
 154 0100 1835     		adds	r5, r5, #24
 155 0102 AC42     		cmp	r4, r5
 156 0104 2AD0     		beq	.L4
 157 0106 1835     		adds	r5, r5, #24
 158 0108 AC42     		cmp	r4, r5
 159 010a 27D0     		beq	.L4
 160 010c 264E     		ldr	r6, .L14+8
 161 010e 274D     		ldr	r5, .L14+12
 162 0110 AC42     		cmp	r4, r5
 163 0112 18BF     		it	ne
 164 0114 B442     		cmpne	r4, r6
 165 0116 11D0     		beq	.L5
 166 0118 254D     		ldr	r5, .L14+16
 167 011a AC42     		cmp	r4, r5
 168 011c 0ED0     		beq	.L5
 169 011e 1435     		adds	r5, r5, #20
 170 0120 AC42     		cmp	r4, r5
 171 0122 0BD0     		beq	.L5
 172 0124 1435     		adds	r5, r5, #20
ARM GAS  C:\Users\thewo\AppData\Local\Temp\ccgZg82m.s 			page 4


 173 0126 AC42     		cmp	r4, r5
 174 0128 08D0     		beq	.L5
 175 012a 1435     		adds	r5, r5, #20
 176 012c AC42     		cmp	r4, r5
 177 012e 05D0     		beq	.L5
 178 0130 1435     		adds	r5, r5, #20
 179 0132 AC42     		cmp	r4, r5
 180 0134 02D0     		beq	.L5
 181 0136 1435     		adds	r5, r5, #20
 182 0138 AC42     		cmp	r4, r5
 183 013a 24D1     		bne	.L1
 184              	.L5:
 185 013c C46D     		ldr	r4, [r0, #92]
 186 013e 04F01F05 		and	r5, r4, #31
 187 0142 0124     		movs	r4, #1
 188 0144 AC40     		lsls	r4, r4, r5
 189 0146 7C60     		str	r4, [r7, #4]
 190 0148 0468     		ldr	r4, [r0]
 191 014a 6360     		str	r3, [r4, #4]
 192 014c 8368     		ldr	r3, [r0, #8]
 193 014e 402B     		cmp	r3, #64
 194 0150 20D0     		beq	.L12
 195 0152 0368     		ldr	r3, [r0]
 196 0154 9960     		str	r1, [r3, #8]
 197 0156 0368     		ldr	r3, [r0]
 198 0158 DA60     		str	r2, [r3, #12]
 199 015a 14E0     		b	.L1
 200              	.L4:
 201 015c C46D     		ldr	r4, [r0, #92]
 202 015e 04F01F0C 		and	ip, r4, #31
 203 0162 3F24     		movs	r4, #63
 204 0164 04FA0CF4 		lsl	r4, r4, ip
 205 0168 BC60     		str	r4, [r7, #8]
 206 016a 0568     		ldr	r5, [r0]
 207 016c 2C68     		ldr	r4, [r5]
 208 016e 24F48024 		bic	r4, r4, #262144
 209 0172 2C60     		str	r4, [r5]
 210 0174 0468     		ldr	r4, [r0]
 211 0176 6360     		str	r3, [r4, #4]
 212 0178 8368     		ldr	r3, [r0, #8]
 213 017a 402B     		cmp	r3, #64
 214 017c 05D0     		beq	.L13
 215 017e 0368     		ldr	r3, [r0]
 216 0180 9960     		str	r1, [r3, #8]
 217 0182 0368     		ldr	r3, [r0]
 218 0184 DA60     		str	r2, [r3, #12]
 219              	.L1:
 220 0186 F0BC     		pop	{r4, r5, r6, r7}
 221 0188 7047     		bx	lr
 222              	.L13:
 223 018a 0368     		ldr	r3, [r0]
 224 018c 9A60     		str	r2, [r3, #8]
 225 018e 0368     		ldr	r3, [r0]
 226 0190 D960     		str	r1, [r3, #12]
 227 0192 F8E7     		b	.L1
 228              	.L12:
 229 0194 0368     		ldr	r3, [r0]
ARM GAS  C:\Users\thewo\AppData\Local\Temp\ccgZg82m.s 			page 5


 230 0196 9A60     		str	r2, [r3, #8]
 231 0198 0368     		ldr	r3, [r0]
 232 019a D960     		str	r1, [r3, #12]
 233 019c F3E7     		b	.L1
 234              	.L15:
 235 019e 00BF     		.align	2
 236              	.L14:
 237 01a0 10000240 		.word	1073872912
 238 01a4 28000240 		.word	1073872936
 239 01a8 08540258 		.word	1476547592
 240 01ac 1C540258 		.word	1476547612
 241 01b0 30540258 		.word	1476547632
 243              		.section	.text.DMA_CalcBaseAndBitshift,"ax",%progbits
 244              		.align	1
 245              		.syntax unified
 246              		.thumb
 247              		.thumb_func
 249              	DMA_CalcBaseAndBitshift:
 250              		@ args = 0, pretend = 0, frame = 0
 251              		@ frame_needed = 0, uses_anonymous_args = 0
 252              		@ link register save eliminated.
 253 0000 0368     		ldr	r3, [r0]
 254 0002 2749     		ldr	r1, .L23
 255 0004 274A     		ldr	r2, .L23+4
 256 0006 9342     		cmp	r3, r2
 257 0008 18BF     		it	ne
 258 000a 8B42     		cmpne	r3, r1
 259 000c 2FD0     		beq	.L17
 260 000e 1832     		adds	r2, r2, #24
 261 0010 9342     		cmp	r3, r2
 262 0012 2CD0     		beq	.L17
 263 0014 1832     		adds	r2, r2, #24
 264 0016 9342     		cmp	r3, r2
 265 0018 29D0     		beq	.L17
 266 001a 1832     		adds	r2, r2, #24
 267 001c 9342     		cmp	r3, r2
 268 001e 26D0     		beq	.L17
 269 0020 1832     		adds	r2, r2, #24
 270 0022 9342     		cmp	r3, r2
 271 0024 23D0     		beq	.L17
 272 0026 1832     		adds	r2, r2, #24
 273 0028 9342     		cmp	r3, r2
 274 002a 20D0     		beq	.L17
 275 002c 1832     		adds	r2, r2, #24
 276 002e 9342     		cmp	r3, r2
 277 0030 1DD0     		beq	.L17
 278 0032 02F55672 		add	r2, r2, #856
 279 0036 9342     		cmp	r3, r2
 280 0038 19D0     		beq	.L17
 281 003a 1832     		adds	r2, r2, #24
 282 003c 9342     		cmp	r3, r2
 283 003e 16D0     		beq	.L17
 284 0040 1832     		adds	r2, r2, #24
 285 0042 9342     		cmp	r3, r2
 286 0044 13D0     		beq	.L17
 287 0046 1832     		adds	r2, r2, #24
 288 0048 9342     		cmp	r3, r2
ARM GAS  C:\Users\thewo\AppData\Local\Temp\ccgZg82m.s 			page 6


 289 004a 10D0     		beq	.L17
 290 004c 1832     		adds	r2, r2, #24
 291 004e 9342     		cmp	r3, r2
 292 0050 0DD0     		beq	.L17
 293 0052 1832     		adds	r2, r2, #24
 294 0054 9342     		cmp	r3, r2
 295 0056 0AD0     		beq	.L17
 296 0058 1832     		adds	r2, r2, #24
 297 005a 9342     		cmp	r3, r2
 298 005c 07D0     		beq	.L17
 299 005e 1832     		adds	r2, r2, #24
 300 0060 9342     		cmp	r3, r2
 301 0062 04D0     		beq	.L17
 302 0064 23F0FF03 		bic	r3, r3, #255
 303 0068 8365     		str	r3, [r0, #88]
 304 006a 806D     		ldr	r0, [r0, #88]
 305 006c 7047     		bx	lr
 306              	.L17:
 307 006e 10B4     		push	{r4}
 308 0070 D9B2     		uxtb	r1, r3
 309 0072 1039     		subs	r1, r1, #16
 310 0074 0C4A     		ldr	r2, .L23+8
 311 0076 A2FB0142 		umull	r4, r2, r2, r1
 312 007a C2F30212 		ubfx	r2, r2, #4, #3
 313 007e 0B4C     		ldr	r4, .L23+12
 314 0080 A25C     		ldrb	r2, [r4, r2]	@ zero_extendqisi2
 315 0082 C265     		str	r2, [r0, #92]
 316 0084 5F29     		cmp	r1, #95
 317 0086 07D9     		bls	.L19
 318 0088 6FF30903 		bfc	r3, #0, #10
 319 008c 0433     		adds	r3, r3, #4
 320 008e 8365     		str	r3, [r0, #88]
 321              	.L18:
 322 0090 806D     		ldr	r0, [r0, #88]
 323 0092 5DF8044B 		ldr	r4, [sp], #4
 324 0096 7047     		bx	lr
 325              	.L19:
 326 0098 6FF30903 		bfc	r3, #0, #10
 327 009c 8365     		str	r3, [r0, #88]
 328 009e F7E7     		b	.L18
 329              	.L24:
 330              		.align	2
 331              	.L23:
 332 00a0 10000240 		.word	1073872912
 333 00a4 28000240 		.word	1073872936
 334 00a8 ABAAAAAA 		.word	-1431655765
 335 00ac 00000000 		.word	flagBitshiftOffset.0
 337              		.section	.text.DMA_CheckFifoParam,"ax",%progbits
 338              		.align	1
 339              		.syntax unified
 340              		.thumb
 341              		.thumb_func
 343              	DMA_CheckFifoParam:
 344              		@ args = 0, pretend = 0, frame = 0
 345              		@ frame_needed = 0, uses_anonymous_args = 0
 346              		@ link register save eliminated.
 347 0000 8369     		ldr	r3, [r0, #24]
ARM GAS  C:\Users\thewo\AppData\Local\Temp\ccgZg82m.s 			page 7


 348 0002 9BB9     		cbnz	r3, .L26
 349 0004 836A     		ldr	r3, [r0, #40]
 350 0006 012B     		cmp	r3, #1
 351 0008 0AD0     		beq	.L27
 352 000a 022B     		cmp	r3, #2
 353 000c 02D0     		beq	.L28
 354 000e 0BB1     		cbz	r3, .L28
 355 0010 0020     		movs	r0, #0
 356 0012 7047     		bx	lr
 357              	.L28:
 358 0014 C36A     		ldr	r3, [r0, #44]
 359 0016 13F0807F 		tst	r3, #16777216
 360 001a 2AD1     		bne	.L36
 361 001c 0020     		movs	r0, #0
 362 001e 7047     		bx	lr
 363              	.L27:
 364 0020 C36A     		ldr	r3, [r0, #44]
 365 0022 B3F1C07F 		cmp	r3, #25165824
 366 0026 26D0     		beq	.L37
 367 0028 0020     		movs	r0, #0
 368 002a 7047     		bx	lr
 369              	.L26:
 370 002c B3F5005F 		cmp	r3, #8192
 371 0030 0AD0     		beq	.L44
 372 0032 836A     		ldr	r3, [r0, #40]
 373 0034 022B     		cmp	r3, #2
 374 0036 26D9     		bls	.L41
 375 0038 032B     		cmp	r3, #3
 376 003a 26D1     		bne	.L42
 377 003c C36A     		ldr	r3, [r0, #44]
 378 003e 13F0807F 		tst	r3, #16777216
 379 0042 24D1     		bne	.L43
 380 0044 0020     		movs	r0, #0
 381 0046 7047     		bx	lr
 382              	.L44:
 383 0048 836A     		ldr	r3, [r0, #40]
 384 004a 032B     		cmp	r3, #3
 385 004c 03D8     		bhi	.L31
 386 004e DFE803F0 		tbb	[pc, r3]
 387              	.L33:
 388 0052 14       		.byte	(.L38-.L33)/2
 389 0053 04       		.byte	(.L34-.L33)/2
 390 0054 14       		.byte	(.L38-.L33)/2
 391 0055 0A       		.byte	(.L32-.L33)/2
 392              		.p2align 1
 393              	.L31:
 394 0056 0020     		movs	r0, #0
 395 0058 7047     		bx	lr
 396              	.L34:
 397 005a C36A     		ldr	r3, [r0, #44]
 398 005c 13F0807F 		tst	r3, #16777216
 399 0060 0DD1     		bne	.L39
 400 0062 0020     		movs	r0, #0
 401 0064 7047     		bx	lr
 402              	.L32:
 403 0066 C36A     		ldr	r3, [r0, #44]
 404 0068 B3F1C07F 		cmp	r3, #25165824
ARM GAS  C:\Users\thewo\AppData\Local\Temp\ccgZg82m.s 			page 8


 405 006c 09D0     		beq	.L40
 406 006e 0020     		movs	r0, #0
 407 0070 7047     		bx	lr
 408              	.L36:
 409 0072 0120     		movs	r0, #1
 410 0074 7047     		bx	lr
 411              	.L37:
 412 0076 0120     		movs	r0, #1
 413 0078 7047     		bx	lr
 414              	.L38:
 415 007a 0120     		movs	r0, #1
 416 007c 7047     		bx	lr
 417              	.L39:
 418 007e 0120     		movs	r0, #1
 419 0080 7047     		bx	lr
 420              	.L40:
 421 0082 0120     		movs	r0, #1
 422 0084 7047     		bx	lr
 423              	.L41:
 424 0086 0120     		movs	r0, #1
 425 0088 7047     		bx	lr
 426              	.L42:
 427 008a 0020     		movs	r0, #0
 428 008c 7047     		bx	lr
 429              	.L43:
 430 008e 0120     		movs	r0, #1
 431 0090 7047     		bx	lr
 433              		.section	.text.DMA_CalcDMAMUXChannelBaseAndMask,"ax",%progbits
 434              		.align	1
 435              		.syntax unified
 436              		.thumb
 437              		.thumb_func
 439              	DMA_CalcDMAMUXChannelBaseAndMask:
 440              		@ args = 0, pretend = 0, frame = 0
 441              		@ frame_needed = 0, uses_anonymous_args = 0
 442              		@ link register save eliminated.
 443 0000 0368     		ldr	r3, [r0]
 444 0002 2149     		ldr	r1, .L50
 445 0004 214A     		ldr	r2, .L50+4
 446 0006 9342     		cmp	r3, r2
 447 0008 18BF     		it	ne
 448 000a 8B42     		cmpne	r3, r1
 449 000c 27D0     		beq	.L46
 450 000e 1432     		adds	r2, r2, #20
 451 0010 9342     		cmp	r3, r2
 452 0012 24D0     		beq	.L46
 453 0014 1432     		adds	r2, r2, #20
 454 0016 9342     		cmp	r3, r2
 455 0018 21D0     		beq	.L46
 456 001a 1432     		adds	r2, r2, #20
 457 001c 9342     		cmp	r3, r2
 458 001e 1ED0     		beq	.L46
 459 0020 1432     		adds	r2, r2, #20
 460 0022 9342     		cmp	r3, r2
 461 0024 1BD0     		beq	.L46
 462 0026 1432     		adds	r2, r2, #20
 463 0028 9342     		cmp	r3, r2
ARM GAS  C:\Users\thewo\AppData\Local\Temp\ccgZg82m.s 			page 9


 464 002a 18D0     		beq	.L46
 465 002c 1432     		adds	r2, r2, #20
 466 002e 9342     		cmp	r3, r2
 467 0030 15D0     		beq	.L46
 468 0032 DAB2     		uxtb	r2, r3
 469 0034 103A     		subs	r2, r2, #16
 470 0036 1649     		ldr	r1, .L50+8
 471 0038 A1FB0212 		umull	r1, r2, r1, r2
 472 003c 1209     		lsrs	r2, r2, #4
 473 003e 1549     		ldr	r1, .L50+12
 474 0040 1944     		add	r1, r1, r3
 475 0042 A829     		cmp	r1, #168
 476 0044 1ED9     		bls	.L47
 477              	.L48:
 478 0046 144B     		ldr	r3, .L50+16
 479 0048 1344     		add	r3, r3, r2
 480 004a 9B00     		lsls	r3, r3, #2
 481 004c 0366     		str	r3, [r0, #96]
 482 004e 134B     		ldr	r3, .L50+20
 483 0050 4366     		str	r3, [r0, #100]
 484 0052 02F01F02 		and	r2, r2, #31
 485 0056 0123     		movs	r3, #1
 486 0058 9340     		lsls	r3, r3, r2
 487 005a 8366     		str	r3, [r0, #104]
 488 005c 7047     		bx	lr
 489              	.L46:
 490 005e DBB2     		uxtb	r3, r3
 491 0060 083B     		subs	r3, r3, #8
 492 0062 0F4A     		ldr	r2, .L50+24
 493 0064 A2FB0323 		umull	r2, r3, r2, r3
 494 0068 0E4A     		ldr	r2, .L50+28
 495 006a 02EB1312 		add	r2, r2, r3, lsr #4
 496 006e 9200     		lsls	r2, r2, #2
 497 0070 0266     		str	r2, [r0, #96]
 498 0072 0D4A     		ldr	r2, .L50+32
 499 0074 4266     		str	r2, [r0, #100]
 500 0076 C3F30413 		ubfx	r3, r3, #4, #5
 501 007a 0122     		movs	r2, #1
 502 007c 02FA03F3 		lsl	r3, r2, r3
 503 0080 8366     		str	r3, [r0, #104]
 504 0082 7047     		bx	lr
 505              	.L47:
 506 0084 0832     		adds	r2, r2, #8
 507 0086 DEE7     		b	.L48
 508              	.L51:
 509              		.align	2
 510              	.L50:
 511 0088 08540258 		.word	1476547592
 512 008c 1C540258 		.word	1476547612
 513 0090 ABAAAAAA 		.word	-1431655765
 514 0094 F0FBFDBF 		.word	-1073873936
 515 0098 00820010 		.word	268468736
 516 009c 80080240 		.word	1073875072
 517 00a0 CDCCCCCC 		.word	-858993459
 518 00a4 00960016 		.word	369137152
 519 00a8 80580258 		.word	1476548736
 521              		.section	.text.DMA_CalcDMAMUXRequestGenBaseAndMask,"ax",%progbits
ARM GAS  C:\Users\thewo\AppData\Local\Temp\ccgZg82m.s 			page 10


 522              		.align	1
 523              		.syntax unified
 524              		.thumb
 525              		.thumb_func
 527              	DMA_CalcDMAMUXRequestGenBaseAndMask:
 528              		@ args = 0, pretend = 0, frame = 0
 529              		@ frame_needed = 0, uses_anonymous_args = 0
 530              		@ link register save eliminated.
 531 0000 0179     		ldrb	r1, [r0, #4]	@ zero_extendqisi2
 532 0002 4A1E     		subs	r2, r1, #1
 533 0004 072A     		cmp	r2, #7
 534 0006 2BD8     		bhi	.L57
 535 0008 30B4     		push	{r4, r5}
 536 000a 0368     		ldr	r3, [r0]
 537 000c 154D     		ldr	r5, .L60
 538 000e 164C     		ldr	r4, .L60+4
 539 0010 A342     		cmp	r3, r4
 540 0012 18BF     		it	ne
 541 0014 AB42     		cmpne	r3, r5
 542 0016 18D0     		beq	.L54
 543 0018 1434     		adds	r4, r4, #20
 544 001a A342     		cmp	r3, r4
 545 001c 15D0     		beq	.L54
 546 001e 1434     		adds	r4, r4, #20
 547 0020 A342     		cmp	r3, r4
 548 0022 12D0     		beq	.L54
 549 0024 1434     		adds	r4, r4, #20
 550 0026 A342     		cmp	r3, r4
 551 0028 0FD0     		beq	.L54
 552 002a 1434     		adds	r4, r4, #20
 553 002c A342     		cmp	r3, r4
 554 002e 0CD0     		beq	.L54
 555 0030 1434     		adds	r4, r4, #20
 556 0032 A342     		cmp	r3, r4
 557 0034 09D0     		beq	.L54
 558 0036 1434     		adds	r4, r4, #20
 559 0038 A342     		cmp	r3, r4
 560 003a 06D0     		beq	.L54
 561 003c 0B4B     		ldr	r3, .L60+8
 562 003e 0B44     		add	r3, r3, r1
 563 0040 9B00     		lsls	r3, r3, #2
 564 0042 C366     		str	r3, [r0, #108]
 565 0044 0A4B     		ldr	r3, .L60+12
 566 0046 0367     		str	r3, [r0, #112]
 567 0048 05E0     		b	.L55
 568              	.L54:
 569 004a 0A4B     		ldr	r3, .L60+16
 570 004c 0B44     		add	r3, r3, r1
 571 004e 9B00     		lsls	r3, r3, #2
 572 0050 C366     		str	r3, [r0, #108]
 573 0052 094B     		ldr	r3, .L60+20
 574 0054 0367     		str	r3, [r0, #112]
 575              	.L55:
 576 0056 0123     		movs	r3, #1
 577 0058 9340     		lsls	r3, r3, r2
 578 005a 4367     		str	r3, [r0, #116]
 579 005c 30BC     		pop	{r4, r5}
ARM GAS  C:\Users\thewo\AppData\Local\Temp\ccgZg82m.s 			page 11


 580 005e 7047     		bx	lr
 581              	.L57:
 582 0060 7047     		bx	lr
 583              	.L61:
 584 0062 00BF     		.align	2
 585              	.L60:
 586 0064 08540258 		.word	1476547592
 587 0068 1C540258 		.word	1476547612
 588 006c 3F820010 		.word	268468799
 589 0070 40090240 		.word	1073875264
 590 0074 3F960016 		.word	369137215
 591 0078 40590258 		.word	1476548928
 593              		.section	.rodata.HAL_DMA_Init.str1.4,"aMS",%progbits,1
 594              		.align	2
 595              	.LC0:
 596 0000 44726976 		.ascii	"Drivers/STM32H7xx_HAL_Driver/Src/stm32h7xx_hal_dma."
 596      6572732F 
 596      53544D33 
 596      32483778 
 596      785F4841 
 597 0033 6300     		.ascii	"c\000"
 598              		.section	.text.HAL_DMA_Init,"ax",%progbits
 599              		.align	1
 600              		.global	HAL_DMA_Init
 601              		.syntax unified
 602              		.thumb
 603              		.thumb_func
 605              	HAL_DMA_Init:
 606              		@ args = 0, pretend = 0, frame = 0
 607              		@ frame_needed = 0, uses_anonymous_args = 0
 608 0000 70B5     		push	{r4, r5, r6, lr}
 609 0002 0446     		mov	r4, r0
 610 0004 FFF7FEFF 		bl	HAL_GetTick
 611 0008 002C     		cmp	r4, #0
 612 000a 00F0DC82 		beq	.L99
 613 000e 0546     		mov	r5, r0
 614 0010 2368     		ldr	r3, [r4]
 615 0012 8849     		ldr	r1, .L124
 616 0014 884A     		ldr	r2, .L124+4
 617 0016 8B42     		cmp	r3, r1
 618 0018 18BF     		it	ne
 619 001a 9342     		cmpne	r3, r2
 620 001c 46D0     		beq	.L64
 621 001e 1832     		adds	r2, r2, #24
 622 0020 9342     		cmp	r3, r2
 623 0022 43D0     		beq	.L64
 624 0024 1832     		adds	r2, r2, #24
 625 0026 9342     		cmp	r3, r2
 626 0028 40D0     		beq	.L64
 627 002a 1832     		adds	r2, r2, #24
 628 002c 9342     		cmp	r3, r2
 629 002e 3DD0     		beq	.L64
 630 0030 1832     		adds	r2, r2, #24
 631 0032 9342     		cmp	r3, r2
 632 0034 3AD0     		beq	.L64
 633 0036 1832     		adds	r2, r2, #24
 634 0038 9342     		cmp	r3, r2
ARM GAS  C:\Users\thewo\AppData\Local\Temp\ccgZg82m.s 			page 12


 635 003a 37D0     		beq	.L64
 636 003c 1832     		adds	r2, r2, #24
 637 003e 9342     		cmp	r3, r2
 638 0040 34D0     		beq	.L64
 639 0042 02F55672 		add	r2, r2, #856
 640 0046 9342     		cmp	r3, r2
 641 0048 30D0     		beq	.L64
 642 004a 1832     		adds	r2, r2, #24
 643 004c 9342     		cmp	r3, r2
 644 004e 2DD0     		beq	.L64
 645 0050 1832     		adds	r2, r2, #24
 646 0052 9342     		cmp	r3, r2
 647 0054 2AD0     		beq	.L64
 648 0056 1832     		adds	r2, r2, #24
 649 0058 9342     		cmp	r3, r2
 650 005a 27D0     		beq	.L64
 651 005c 1832     		adds	r2, r2, #24
 652 005e 9342     		cmp	r3, r2
 653 0060 24D0     		beq	.L64
 654 0062 1832     		adds	r2, r2, #24
 655 0064 9342     		cmp	r3, r2
 656 0066 21D0     		beq	.L64
 657 0068 1832     		adds	r2, r2, #24
 658 006a 9342     		cmp	r3, r2
 659 006c 1ED0     		beq	.L64
 660 006e 1832     		adds	r2, r2, #24
 661 0070 9342     		cmp	r3, r2
 662 0072 1BD0     		beq	.L64
 663 0074 714A     		ldr	r2, .L124+8
 664 0076 9342     		cmp	r3, r2
 665 0078 18D0     		beq	.L64
 666 007a 1432     		adds	r2, r2, #20
 667 007c 9342     		cmp	r3, r2
 668 007e 15D0     		beq	.L64
 669 0080 1432     		adds	r2, r2, #20
 670 0082 9342     		cmp	r3, r2
 671 0084 12D0     		beq	.L64
 672 0086 1432     		adds	r2, r2, #20
 673 0088 9342     		cmp	r3, r2
 674 008a 0FD0     		beq	.L64
 675 008c 1432     		adds	r2, r2, #20
 676 008e 9342     		cmp	r3, r2
 677 0090 0CD0     		beq	.L64
 678 0092 1432     		adds	r2, r2, #20
 679 0094 9342     		cmp	r3, r2
 680 0096 09D0     		beq	.L64
 681 0098 1432     		adds	r2, r2, #20
 682 009a 9342     		cmp	r3, r2
 683 009c 06D0     		beq	.L64
 684 009e 1432     		adds	r2, r2, #20
 685 00a0 9342     		cmp	r3, r2
 686 00a2 03D0     		beq	.L64
 687 00a4 E621     		movs	r1, #230
 688 00a6 6648     		ldr	r0, .L124+12
 689 00a8 FFF7FEFF 		bl	assert_failed
 690              	.L64:
 691 00ac A368     		ldr	r3, [r4, #8]
ARM GAS  C:\Users\thewo\AppData\Local\Temp\ccgZg82m.s 			page 13


 692 00ae 002B     		cmp	r3, #0
 693 00b0 18BF     		it	ne
 694 00b2 402B     		cmpne	r3, #64
 695 00b4 02D0     		beq	.L65
 696 00b6 802B     		cmp	r3, #128
 697 00b8 40F09980 		bne	.L104
 698              	.L65:
 699 00bc E368     		ldr	r3, [r4, #12]
 700 00be B3F5007F 		cmp	r3, #512
 701 00c2 18BF     		it	ne
 702 00c4 002B     		cmpne	r3, #0
 703 00c6 40F09780 		bne	.L105
 704              	.L66:
 705 00ca 2369     		ldr	r3, [r4, #16]
 706 00cc B3F5806F 		cmp	r3, #1024
 707 00d0 18BF     		it	ne
 708 00d2 002B     		cmpne	r3, #0
 709 00d4 40F09580 		bne	.L106
 710              	.L67:
 711 00d8 6369     		ldr	r3, [r4, #20]
 712 00da 002B     		cmp	r3, #0
 713 00dc 18BF     		it	ne
 714 00de B3F5006F 		cmpne	r3, #2048
 715 00e2 03D0     		beq	.L68
 716 00e4 B3F5805F 		cmp	r3, #4096
 717 00e8 40F09080 		bne	.L107
 718              	.L68:
 719 00ec A369     		ldr	r3, [r4, #24]
 720 00ee 002B     		cmp	r3, #0
 721 00f0 18BF     		it	ne
 722 00f2 B3F5005F 		cmpne	r3, #8192
 723 00f6 03D0     		beq	.L69
 724 00f8 B3F5804F 		cmp	r3, #16384
 725 00fc 40F08B80 		bne	.L108
 726              	.L69:
 727 0100 E369     		ldr	r3, [r4, #28]
 728 0102 002B     		cmp	r3, #0
 729 0104 18BF     		it	ne
 730 0106 B3F5807F 		cmpne	r3, #256
 731 010a 08D0     		beq	.L70
 732 010c 202B     		cmp	r3, #32
 733 010e 06D0     		beq	.L70
 734 0110 B3F5802F 		cmp	r3, #262144
 735 0114 03D0     		beq	.L70
 736 0116 B3F5402F 		cmp	r3, #786432
 737 011a 40F08180 		bne	.L109
 738              	.L70:
 739 011e 236A     		ldr	r3, [r4, #32]
 740 0120 002B     		cmp	r3, #0
 741 0122 18BF     		it	ne
 742 0124 B3F5803F 		cmpne	r3, #65536
 743 0128 05D0     		beq	.L71
 744 012a B3F5003F 		cmp	r3, #131072
 745 012e 02D0     		beq	.L71
 746 0130 B3F5403F 		cmp	r3, #196608
 747 0134 79D1     		bne	.L110
 748              	.L71:
ARM GAS  C:\Users\thewo\AppData\Local\Temp\ccgZg82m.s 			page 14


 749 0136 2368     		ldr	r3, [r4]
 750 0138 3E49     		ldr	r1, .L124
 751 013a 3F4A     		ldr	r2, .L124+4
 752 013c 9342     		cmp	r3, r2
 753 013e 18BF     		it	ne
 754 0140 8B42     		cmpne	r3, r1
 755 0142 00F08380 		beq	.L72
 756 0146 1832     		adds	r2, r2, #24
 757 0148 9342     		cmp	r3, r2
 758 014a 7FD0     		beq	.L72
 759 014c 1832     		adds	r2, r2, #24
 760 014e 9342     		cmp	r3, r2
 761 0150 7CD0     		beq	.L72
 762 0152 1832     		adds	r2, r2, #24
 763 0154 9342     		cmp	r3, r2
 764 0156 79D0     		beq	.L72
 765 0158 1832     		adds	r2, r2, #24
 766 015a 9342     		cmp	r3, r2
 767 015c 76D0     		beq	.L72
 768 015e 1832     		adds	r2, r2, #24
 769 0160 9342     		cmp	r3, r2
 770 0162 73D0     		beq	.L72
 771 0164 1832     		adds	r2, r2, #24
 772 0166 9342     		cmp	r3, r2
 773 0168 70D0     		beq	.L72
 774 016a 02F55672 		add	r2, r2, #856
 775 016e 9342     		cmp	r3, r2
 776 0170 6CD0     		beq	.L72
 777 0172 1832     		adds	r2, r2, #24
 778 0174 9342     		cmp	r3, r2
 779 0176 69D0     		beq	.L72
 780 0178 1832     		adds	r2, r2, #24
 781 017a 9342     		cmp	r3, r2
 782 017c 66D0     		beq	.L72
 783 017e 1832     		adds	r2, r2, #24
 784 0180 9342     		cmp	r3, r2
 785 0182 63D0     		beq	.L72
 786 0184 1832     		adds	r2, r2, #24
 787 0186 9342     		cmp	r3, r2
 788 0188 60D0     		beq	.L72
 789 018a 1832     		adds	r2, r2, #24
 790 018c 9342     		cmp	r3, r2
 791 018e 5DD0     		beq	.L72
 792 0190 1832     		adds	r2, r2, #24
 793 0192 9342     		cmp	r3, r2
 794 0194 5AD0     		beq	.L72
 795 0196 1832     		adds	r2, r2, #24
 796 0198 9342     		cmp	r3, r2
 797 019a 57D0     		beq	.L72
 798 019c 274A     		ldr	r2, .L124+8
 799 019e 2949     		ldr	r1, .L124+16
 800 01a0 8B42     		cmp	r3, r1
 801 01a2 18BF     		it	ne
 802 01a4 9342     		cmpne	r3, r2
 803 01a6 0CBF     		ite	eq
 804 01a8 0122     		moveq	r2, #1
 805 01aa 0022     		movne	r2, #0
ARM GAS  C:\Users\thewo\AppData\Local\Temp\ccgZg82m.s 			page 15


 806 01ac 00F0A681 		beq	.L73
 807 01b0 2549     		ldr	r1, .L124+20
 808 01b2 8B42     		cmp	r3, r1
 809 01b4 00F0A281 		beq	.L73
 810 01b8 1431     		adds	r1, r1, #20
 811 01ba 8B42     		cmp	r3, r1
 812 01bc 00F09E81 		beq	.L73
 813 01c0 1431     		adds	r1, r1, #20
 814 01c2 8B42     		cmp	r3, r1
 815 01c4 00F09A81 		beq	.L73
 816 01c8 1431     		adds	r1, r1, #20
 817 01ca 8B42     		cmp	r3, r1
 818 01cc 00F09681 		beq	.L73
 819 01d0 1431     		adds	r1, r1, #20
 820 01d2 8B42     		cmp	r3, r1
 821 01d4 00F09281 		beq	.L73
 822 01d8 1431     		adds	r1, r1, #20
 823 01da 8B42     		cmp	r3, r1
 824 01dc 00F08E81 		beq	.L73
 825 01e0 4023     		movs	r3, #64
 826 01e2 6365     		str	r3, [r4, #84]
 827 01e4 0323     		movs	r3, #3
 828 01e6 84F83530 		strb	r3, [r4, #53]
 829 01ea 0120     		movs	r0, #1
 830 01ec BDE0     		b	.L63
 831              	.L104:
 832 01ee E721     		movs	r1, #231
 833 01f0 1348     		ldr	r0, .L124+12
 834 01f2 FFF7FEFF 		bl	assert_failed
 835 01f6 61E7     		b	.L65
 836              	.L105:
 837 01f8 E821     		movs	r1, #232
 838 01fa 1148     		ldr	r0, .L124+12
 839 01fc FFF7FEFF 		bl	assert_failed
 840 0200 63E7     		b	.L66
 841              	.L106:
 842 0202 E921     		movs	r1, #233
 843 0204 0E48     		ldr	r0, .L124+12
 844 0206 FFF7FEFF 		bl	assert_failed
 845 020a 65E7     		b	.L67
 846              	.L107:
 847 020c EA21     		movs	r1, #234
 848 020e 0C48     		ldr	r0, .L124+12
 849 0210 FFF7FEFF 		bl	assert_failed
 850 0214 6AE7     		b	.L68
 851              	.L108:
 852 0216 EB21     		movs	r1, #235
 853 0218 0948     		ldr	r0, .L124+12
 854 021a FFF7FEFF 		bl	assert_failed
 855 021e 6FE7     		b	.L69
 856              	.L109:
 857 0220 EC21     		movs	r1, #236
 858 0222 0748     		ldr	r0, .L124+12
 859 0224 FFF7FEFF 		bl	assert_failed
 860 0228 79E7     		b	.L70
 861              	.L110:
 862 022a ED21     		movs	r1, #237
ARM GAS  C:\Users\thewo\AppData\Local\Temp\ccgZg82m.s 			page 16


 863 022c 0448     		ldr	r0, .L124+12
 864 022e FFF7FEFF 		bl	assert_failed
 865 0232 80E7     		b	.L71
 866              	.L125:
 867              		.align	2
 868              	.L124:
 869 0234 10000240 		.word	1073872912
 870 0238 28000240 		.word	1073872936
 871 023c 08540258 		.word	1476547592
 872 0240 00000000 		.word	.LC0
 873 0244 1C540258 		.word	1476547612
 874 0248 30540258 		.word	1476547632
 875              	.L72:
 876 024c 6368     		ldr	r3, [r4, #4]
 877 024e 892B     		cmp	r3, #137
 878 0250 5ED8     		bhi	.L111
 879              	.L75:
 880 0252 636A     		ldr	r3, [r4, #36]
 881 0254 002B     		cmp	r3, #0
 882 0256 18BF     		it	ne
 883 0258 042B     		cmpne	r3, #4
 884 025a 5ED1     		bne	.L112
 885              	.L76:
 886 025c 636A     		ldr	r3, [r4, #36]
 887 025e D3B1     		cbz	r3, .L77
 888 0260 A36A     		ldr	r3, [r4, #40]
 889 0262 032B     		cmp	r3, #3
 890 0264 5ED8     		bhi	.L113
 891              	.L78:
 892 0266 E36A     		ldr	r3, [r4, #44]
 893 0268 002B     		cmp	r3, #0
 894 026a 18BF     		it	ne
 895 026c B3F5000F 		cmpne	r3, #8388608
 896 0270 05D0     		beq	.L79
 897 0272 B3F1807F 		cmp	r3, #16777216
 898 0276 02D0     		beq	.L79
 899 0278 B3F1C07F 		cmp	r3, #25165824
 900 027c 57D1     		bne	.L114
 901              	.L79:
 902 027e 236B     		ldr	r3, [r4, #48]
 903 0280 002B     		cmp	r3, #0
 904 0282 18BF     		it	ne
 905 0284 B3F5001F 		cmpne	r3, #2097152
 906 0288 05D0     		beq	.L77
 907 028a B3F5800F 		cmp	r3, #4194304
 908 028e 02D0     		beq	.L77
 909 0290 B3F5C00F 		cmp	r3, #6291456
 910 0294 50D1     		bne	.L115
 911              	.L77:
 912 0296 0223     		movs	r3, #2
 913 0298 84F83530 		strb	r3, [r4, #53]
 914 029c 0023     		movs	r3, #0
 915 029e 84F83430 		strb	r3, [r4, #52]
 916 02a2 2368     		ldr	r3, [r4]
 917 02a4 8F49     		ldr	r1, .L126
 918 02a6 904A     		ldr	r2, .L126+4
 919 02a8 9342     		cmp	r3, r2
ARM GAS  C:\Users\thewo\AppData\Local\Temp\ccgZg82m.s 			page 17


 920 02aa 18BF     		it	ne
 921 02ac 8B42     		cmpne	r3, r1
 922 02ae 48D0     		beq	.L80
 923 02b0 1832     		adds	r2, r2, #24
 924 02b2 9342     		cmp	r3, r2
 925 02b4 45D0     		beq	.L80
 926 02b6 1832     		adds	r2, r2, #24
 927 02b8 9342     		cmp	r3, r2
 928 02ba 42D0     		beq	.L80
 929 02bc 1832     		adds	r2, r2, #24
 930 02be 9342     		cmp	r3, r2
 931 02c0 3FD0     		beq	.L80
 932 02c2 1832     		adds	r2, r2, #24
 933 02c4 9342     		cmp	r3, r2
 934 02c6 3CD0     		beq	.L80
 935 02c8 1832     		adds	r2, r2, #24
 936 02ca 9342     		cmp	r3, r2
 937 02cc 39D0     		beq	.L80
 938 02ce 1832     		adds	r2, r2, #24
 939 02d0 9342     		cmp	r3, r2
 940 02d2 36D0     		beq	.L80
 941 02d4 02F55672 		add	r2, r2, #856
 942 02d8 9342     		cmp	r3, r2
 943 02da 32D0     		beq	.L80
 944 02dc 1832     		adds	r2, r2, #24
 945 02de 9342     		cmp	r3, r2
 946 02e0 2FD0     		beq	.L80
 947 02e2 1832     		adds	r2, r2, #24
 948 02e4 9342     		cmp	r3, r2
 949 02e6 2CD0     		beq	.L80
 950 02e8 1832     		adds	r2, r2, #24
 951 02ea 9342     		cmp	r3, r2
 952 02ec 29D0     		beq	.L80
 953 02ee 1832     		adds	r2, r2, #24
 954 02f0 9342     		cmp	r3, r2
 955 02f2 26D0     		beq	.L80
 956 02f4 1832     		adds	r2, r2, #24
 957 02f6 9342     		cmp	r3, r2
 958 02f8 23D0     		beq	.L80
 959 02fa 1832     		adds	r2, r2, #24
 960 02fc 9342     		cmp	r3, r2
 961 02fe 20D0     		beq	.L80
 962 0300 1832     		adds	r2, r2, #24
 963 0302 9342     		cmp	r3, r2
 964 0304 1DD0     		beq	.L80
 965 0306 1A68     		ldr	r2, [r3]
 966 0308 22F00102 		bic	r2, r2, #1
 967 030c 1A60     		str	r2, [r3]
 968 030e 1CE0     		b	.L83
 969              	.L111:
 970 0310 F121     		movs	r1, #241
 971 0312 7648     		ldr	r0, .L126+8
 972 0314 FFF7FEFF 		bl	assert_failed
 973 0318 9BE7     		b	.L75
 974              	.L112:
 975 031a F221     		movs	r1, #242
 976 031c 7348     		ldr	r0, .L126+8
ARM GAS  C:\Users\thewo\AppData\Local\Temp\ccgZg82m.s 			page 18


 977 031e FFF7FEFF 		bl	assert_failed
 978 0322 9BE7     		b	.L76
 979              	.L113:
 980 0324 F721     		movs	r1, #247
 981 0326 7148     		ldr	r0, .L126+8
 982 0328 FFF7FEFF 		bl	assert_failed
 983 032c 9BE7     		b	.L78
 984              	.L114:
 985 032e F821     		movs	r1, #248
 986 0330 6E48     		ldr	r0, .L126+8
 987 0332 FFF7FEFF 		bl	assert_failed
 988 0336 A2E7     		b	.L79
 989              	.L115:
 990 0338 F921     		movs	r1, #249
 991 033a 6C48     		ldr	r0, .L126+8
 992 033c FFF7FEFF 		bl	assert_failed
 993 0340 A9E7     		b	.L77
 994              	.L80:
 995 0342 1A68     		ldr	r2, [r3]
 996 0344 22F00102 		bic	r2, r2, #1
 997 0348 1A60     		str	r2, [r3]
 998              	.L83:
 999 034a 2368     		ldr	r3, [r4]
 1000 034c 1A68     		ldr	r2, [r3]
 1001 034e 12F0010F 		tst	r2, #1
 1002 0352 0BD0     		beq	.L116
 1003 0354 FFF7FEFF 		bl	HAL_GetTick
 1004 0358 401B     		subs	r0, r0, r5
 1005 035a 0528     		cmp	r0, #5
 1006 035c F5D9     		bls	.L83
 1007 035e 2023     		movs	r3, #32
 1008 0360 6365     		str	r3, [r4, #84]
 1009 0362 0323     		movs	r3, #3
 1010 0364 84F83530 		strb	r3, [r4, #53]
 1011 0368 0120     		movs	r0, #1
 1012              	.L63:
 1013 036a 70BD     		pop	{r4, r5, r6, pc}
 1014              	.L116:
 1015 036c 1A68     		ldr	r2, [r3]
 1016 036e 6049     		ldr	r1, .L126+12
 1017 0370 1140     		ands	r1, r1, r2
 1018 0372 A268     		ldr	r2, [r4, #8]
 1019 0374 E068     		ldr	r0, [r4, #12]
 1020 0376 0243     		orrs	r2, r2, r0
 1021 0378 2069     		ldr	r0, [r4, #16]
 1022 037a 0243     		orrs	r2, r2, r0
 1023 037c 6069     		ldr	r0, [r4, #20]
 1024 037e 0243     		orrs	r2, r2, r0
 1025 0380 A069     		ldr	r0, [r4, #24]
 1026 0382 0243     		orrs	r2, r2, r0
 1027 0384 E069     		ldr	r0, [r4, #28]
 1028 0386 0243     		orrs	r2, r2, r0
 1029 0388 206A     		ldr	r0, [r4, #32]
 1030 038a 0243     		orrs	r2, r2, r0
 1031 038c 0A43     		orrs	r2, r2, r1
 1032 038e 616A     		ldr	r1, [r4, #36]
 1033 0390 0429     		cmp	r1, #4
ARM GAS  C:\Users\thewo\AppData\Local\Temp\ccgZg82m.s 			page 19


 1034 0392 00F09280 		beq	.L117
 1035              	.L85:
 1036 0396 6168     		ldr	r1, [r4, #4]
 1037 0398 5229     		cmp	r1, #82
 1038 039a 00F29880 		bhi	.L86
 1039 039e 3F29     		cmp	r1, #63
 1040 03a0 C0F09080 		bcc	.L118
 1041 03a4 3F39     		subs	r1, r1, #63
 1042 03a6 5348     		ldr	r0, .L126+16
 1043 03a8 20FA01F1 		lsr	r1, r0, r1
 1044 03ac 11F0010F 		tst	r1, #1
 1045 03b0 01D0     		beq	.L88
 1046              	.L89:
 1047 03b2 42F48012 		orr	r2, r2, #1048576
 1048              	.L88:
 1049 03b6 1A60     		str	r2, [r3]
 1050 03b8 2668     		ldr	r6, [r4]
 1051 03ba 7569     		ldr	r5, [r6, #20]
 1052 03bc 25F00705 		bic	r5, r5, #7
 1053 03c0 636A     		ldr	r3, [r4, #36]
 1054 03c2 1D43     		orrs	r5, r5, r3
 1055 03c4 042B     		cmp	r3, #4
 1056 03c6 08D1     		bne	.L90
 1057 03c8 A36A     		ldr	r3, [r4, #40]
 1058 03ca 1D43     		orrs	r5, r5, r3
 1059 03cc E36A     		ldr	r3, [r4, #44]
 1060 03ce 23B1     		cbz	r3, .L90
 1061 03d0 2046     		mov	r0, r4
 1062 03d2 FFF7FEFF 		bl	DMA_CheckFifoParam
 1063 03d6 0028     		cmp	r0, #0
 1064 03d8 7ED1     		bne	.L119
 1065              	.L90:
 1066 03da 7561     		str	r5, [r6, #20]
 1067 03dc 2046     		mov	r0, r4
 1068 03de FFF7FEFF 		bl	DMA_CalcBaseAndBitshift
 1069 03e2 E36D     		ldr	r3, [r4, #92]
 1070 03e4 03F01F02 		and	r2, r3, #31
 1071 03e8 3F23     		movs	r3, #63
 1072 03ea 9340     		lsls	r3, r3, r2
 1073 03ec 8360     		str	r3, [r0, #8]
 1074              	.L91:
 1075 03ee 2368     		ldr	r3, [r4]
 1076 03f0 3C49     		ldr	r1, .L126
 1077 03f2 3D4A     		ldr	r2, .L126+4
 1078 03f4 9342     		cmp	r3, r2
 1079 03f6 18BF     		it	ne
 1080 03f8 8B42     		cmpne	r3, r1
 1081 03fa 42D0     		beq	.L95
 1082 03fc 1832     		adds	r2, r2, #24
 1083 03fe 9342     		cmp	r3, r2
 1084 0400 3FD0     		beq	.L95
 1085 0402 1832     		adds	r2, r2, #24
 1086 0404 9342     		cmp	r3, r2
 1087 0406 3CD0     		beq	.L95
 1088 0408 1832     		adds	r2, r2, #24
 1089 040a 9342     		cmp	r3, r2
 1090 040c 39D0     		beq	.L95
ARM GAS  C:\Users\thewo\AppData\Local\Temp\ccgZg82m.s 			page 20


 1091 040e 1832     		adds	r2, r2, #24
 1092 0410 9342     		cmp	r3, r2
 1093 0412 36D0     		beq	.L95
 1094 0414 1832     		adds	r2, r2, #24
 1095 0416 9342     		cmp	r3, r2
 1096 0418 33D0     		beq	.L95
 1097 041a 1832     		adds	r2, r2, #24
 1098 041c 9342     		cmp	r3, r2
 1099 041e 30D0     		beq	.L95
 1100 0420 02F55672 		add	r2, r2, #856
 1101 0424 9342     		cmp	r3, r2
 1102 0426 2CD0     		beq	.L95
 1103 0428 1832     		adds	r2, r2, #24
 1104 042a 9342     		cmp	r3, r2
 1105 042c 29D0     		beq	.L95
 1106 042e 1832     		adds	r2, r2, #24
 1107 0430 9342     		cmp	r3, r2
 1108 0432 26D0     		beq	.L95
 1109 0434 1832     		adds	r2, r2, #24
 1110 0436 9342     		cmp	r3, r2
 1111 0438 23D0     		beq	.L95
 1112 043a 1832     		adds	r2, r2, #24
 1113 043c 9342     		cmp	r3, r2
 1114 043e 20D0     		beq	.L95
 1115 0440 1832     		adds	r2, r2, #24
 1116 0442 9342     		cmp	r3, r2
 1117 0444 1DD0     		beq	.L95
 1118 0446 1832     		adds	r2, r2, #24
 1119 0448 9342     		cmp	r3, r2
 1120 044a 1AD0     		beq	.L95
 1121 044c 1832     		adds	r2, r2, #24
 1122 044e 9342     		cmp	r3, r2
 1123 0450 17D0     		beq	.L95
 1124 0452 294A     		ldr	r2, .L126+20
 1125 0454 9342     		cmp	r3, r2
 1126 0456 14D0     		beq	.L95
 1127 0458 1432     		adds	r2, r2, #20
 1128 045a 9342     		cmp	r3, r2
 1129 045c 11D0     		beq	.L95
 1130 045e 1432     		adds	r2, r2, #20
 1131 0460 9342     		cmp	r3, r2
 1132 0462 0ED0     		beq	.L95
 1133 0464 1432     		adds	r2, r2, #20
 1134 0466 9342     		cmp	r3, r2
 1135 0468 0BD0     		beq	.L95
 1136 046a 1432     		adds	r2, r2, #20
 1137 046c 9342     		cmp	r3, r2
 1138 046e 08D0     		beq	.L95
 1139 0470 1432     		adds	r2, r2, #20
 1140 0472 9342     		cmp	r3, r2
 1141 0474 05D0     		beq	.L95
 1142 0476 1432     		adds	r2, r2, #20
 1143 0478 9342     		cmp	r3, r2
 1144 047a 02D0     		beq	.L95
 1145 047c 1432     		adds	r2, r2, #20
 1146 047e 9342     		cmp	r3, r2
 1147 0480 15D1     		bne	.L96
ARM GAS  C:\Users\thewo\AppData\Local\Temp\ccgZg82m.s 			page 21


 1148              	.L95:
 1149 0482 2046     		mov	r0, r4
 1150 0484 FFF7FEFF 		bl	DMA_CalcDMAMUXChannelBaseAndMask
 1151 0488 A368     		ldr	r3, [r4, #8]
 1152 048a 802B     		cmp	r3, #128
 1153 048c 00F08E80 		beq	.L120
 1154              	.L97:
 1155 0490 236E     		ldr	r3, [r4, #96]
 1156 0492 2279     		ldrb	r2, [r4, #4]	@ zero_extendqisi2
 1157 0494 1A60     		str	r2, [r3]
 1158 0496 636E     		ldr	r3, [r4, #100]
 1159 0498 A26E     		ldr	r2, [r4, #104]
 1160 049a 5A60     		str	r2, [r3, #4]
 1161 049c 6368     		ldr	r3, [r4, #4]
 1162 049e 013B     		subs	r3, r3, #1
 1163 04a0 072B     		cmp	r3, #7
 1164 04a2 40F28680 		bls	.L121
 1165 04a6 0023     		movs	r3, #0
 1166 04a8 E366     		str	r3, [r4, #108]
 1167 04aa 2367     		str	r3, [r4, #112]
 1168 04ac 6367     		str	r3, [r4, #116]
 1169              	.L96:
 1170 04ae 0020     		movs	r0, #0
 1171 04b0 6065     		str	r0, [r4, #84]
 1172 04b2 0123     		movs	r3, #1
 1173 04b4 84F83530 		strb	r3, [r4, #53]
 1174 04b8 57E7     		b	.L63
 1175              	.L117:
 1176 04ba E16A     		ldr	r1, [r4, #44]
 1177 04bc 206B     		ldr	r0, [r4, #48]
 1178 04be 0143     		orrs	r1, r1, r0
 1179 04c0 0A43     		orrs	r2, r2, r1
 1180 04c2 68E7     		b	.L85
 1181              	.L118:
 1182 04c4 2939     		subs	r1, r1, #41
 1183 04c6 0529     		cmp	r1, #5
 1184 04c8 3FF675AF 		bhi	.L88
 1185 04cc 71E7     		b	.L89
 1186              	.L86:
 1187 04ce 7439     		subs	r1, r1, #116
 1188 04d0 0329     		cmp	r1, #3
 1189 04d2 3FF670AF 		bhi	.L88
 1190 04d6 6CE7     		b	.L89
 1191              	.L119:
 1192 04d8 4023     		movs	r3, #64
 1193 04da 6365     		str	r3, [r4, #84]
 1194 04dc 0120     		movs	r0, #1
 1195 04de 84F83500 		strb	r0, [r4, #53]
 1196 04e2 42E7     		b	.L63
 1197              	.L127:
 1198              		.align	2
 1199              	.L126:
 1200 04e4 10000240 		.word	1073872912
 1201 04e8 28000240 		.word	1073872936
 1202 04ec 00000000 		.word	.LC0
 1203 04f0 3F8010FE 		.word	-32473025
 1204 04f4 0F030F00 		.word	983823
ARM GAS  C:\Users\thewo\AppData\Local\Temp\ccgZg82m.s 			page 22


 1205 04f8 08540258 		.word	1476547592
 1206              	.L73:
 1207 04fc 8AB9     		cbnz	r2, .L92
 1208 04fe 334A     		ldr	r2, .L128
 1209 0500 9342     		cmp	r3, r2
 1210 0502 0ED0     		beq	.L92
 1211 0504 1432     		adds	r2, r2, #20
 1212 0506 9342     		cmp	r3, r2
 1213 0508 0BD0     		beq	.L92
 1214 050a 1432     		adds	r2, r2, #20
 1215 050c 9342     		cmp	r3, r2
 1216 050e 08D0     		beq	.L92
 1217 0510 1432     		adds	r2, r2, #20
 1218 0512 9342     		cmp	r3, r2
 1219 0514 05D0     		beq	.L92
 1220 0516 1432     		adds	r2, r2, #20
 1221 0518 9342     		cmp	r3, r2
 1222 051a 02D0     		beq	.L92
 1223 051c 1432     		adds	r2, r2, #20
 1224 051e 9342     		cmp	r3, r2
 1225 0520 02D1     		bne	.L93
 1226              	.L92:
 1227 0522 6368     		ldr	r3, [r4, #4]
 1228 0524 112B     		cmp	r3, #17
 1229 0526 36D8     		bhi	.L122
 1230              	.L93:
 1231 0528 0223     		movs	r3, #2
 1232 052a 84F83530 		strb	r3, [r4, #53]
 1233 052e 0023     		movs	r3, #0
 1234 0530 84F83430 		strb	r3, [r4, #52]
 1235 0534 2168     		ldr	r1, [r4]
 1236 0536 0A68     		ldr	r2, [r1]
 1237 0538 6FF31012 		bfc	r2, #4, #13
 1238 053c A368     		ldr	r3, [r4, #8]
 1239 053e 402B     		cmp	r3, #64
 1240 0540 32D0     		beq	.L100
 1241 0542 802B     		cmp	r3, #128
 1242 0544 2DD0     		beq	.L123
 1243 0546 0023     		movs	r3, #0
 1244              	.L94:
 1245 0548 E068     		ldr	r0, [r4, #12]
 1246 054a 43EAD003 		orr	r3, r3, r0, lsr #3
 1247 054e 2069     		ldr	r0, [r4, #16]
 1248 0550 43EAD003 		orr	r3, r3, r0, lsr #3
 1249 0554 6069     		ldr	r0, [r4, #20]
 1250 0556 43EAD003 		orr	r3, r3, r0, lsr #3
 1251 055a A069     		ldr	r0, [r4, #24]
 1252 055c 43EAD003 		orr	r3, r3, r0, lsr #3
 1253 0560 E069     		ldr	r0, [r4, #28]
 1254 0562 43EAD003 		orr	r3, r3, r0, lsr #3
 1255 0566 206A     		ldr	r0, [r4, #32]
 1256 0568 43EA1013 		orr	r3, r3, r0, lsr #4
 1257 056c 1343     		orrs	r3, r3, r2
 1258 056e 0B60     		str	r3, [r1]
 1259 0570 2268     		ldr	r2, [r4]
 1260 0572 174B     		ldr	r3, .L128+4
 1261 0574 1344     		add	r3, r3, r2
ARM GAS  C:\Users\thewo\AppData\Local\Temp\ccgZg82m.s 			page 23


 1262 0576 174A     		ldr	r2, .L128+8
 1263 0578 A2FB0323 		umull	r2, r3, r2, r3
 1264 057c 1B09     		lsrs	r3, r3, #4
 1265 057e 9B00     		lsls	r3, r3, #2
 1266 0580 E365     		str	r3, [r4, #92]
 1267 0582 2046     		mov	r0, r4
 1268 0584 FFF7FEFF 		bl	DMA_CalcBaseAndBitshift
 1269 0588 E26D     		ldr	r2, [r4, #92]
 1270 058a 02F01F01 		and	r1, r2, #31
 1271 058e 0122     		movs	r2, #1
 1272 0590 8A40     		lsls	r2, r2, r1
 1273 0592 4260     		str	r2, [r0, #4]
 1274 0594 2BE7     		b	.L91
 1275              	.L122:
 1276 0596 40F26B11 		movw	r1, #363
 1277 059a 0F48     		ldr	r0, .L128+12
 1278 059c FFF7FEFF 		bl	assert_failed
 1279 05a0 C2E7     		b	.L93
 1280              	.L123:
 1281 05a2 4FF48043 		mov	r3, #16384
 1282 05a6 CFE7     		b	.L94
 1283              	.L100:
 1284 05a8 1023     		movs	r3, #16
 1285 05aa CDE7     		b	.L94
 1286              	.L120:
 1287 05ac 0023     		movs	r3, #0
 1288 05ae 6360     		str	r3, [r4, #4]
 1289 05b0 6EE7     		b	.L97
 1290              	.L121:
 1291 05b2 2046     		mov	r0, r4
 1292 05b4 FFF7FEFF 		bl	DMA_CalcDMAMUXRequestGenBaseAndMask
 1293 05b8 E36E     		ldr	r3, [r4, #108]
 1294 05ba 0022     		movs	r2, #0
 1295 05bc 1A60     		str	r2, [r3]
 1296 05be 236F     		ldr	r3, [r4, #112]
 1297 05c0 626F     		ldr	r2, [r4, #116]
 1298 05c2 5A60     		str	r2, [r3, #4]
 1299 05c4 73E7     		b	.L96
 1300              	.L99:
 1301 05c6 0120     		movs	r0, #1
 1302 05c8 CFE6     		b	.L63
 1303              	.L129:
 1304 05ca 00BF     		.align	2
 1305              	.L128:
 1306 05cc 30540258 		.word	1476547632
 1307 05d0 F8ABFDA7 		.word	-1476547592
 1308 05d4 CDCCCCCC 		.word	-858993459
 1309 05d8 00000000 		.word	.LC0
 1311              		.section	.text.HAL_DMA_DeInit,"ax",%progbits
 1312              		.align	1
 1313              		.global	HAL_DMA_DeInit
 1314              		.syntax unified
 1315              		.thumb
 1316              		.thumb_func
 1318              	HAL_DMA_DeInit:
 1319              		@ args = 0, pretend = 0, frame = 0
 1320              		@ frame_needed = 0, uses_anonymous_args = 0
ARM GAS  C:\Users\thewo\AppData\Local\Temp\ccgZg82m.s 			page 24


 1321 0000 0028     		cmp	r0, #0
 1322 0002 00F0DB80 		beq	.L141
 1323 0006 10B5     		push	{r4, lr}
 1324 0008 0446     		mov	r4, r0
 1325 000a 0368     		ldr	r3, [r0]
 1326 000c 6C49     		ldr	r1, .L149
 1327 000e 6D4A     		ldr	r2, .L149+4
 1328 0010 9342     		cmp	r3, r2
 1329 0012 18BF     		it	ne
 1330 0014 8B42     		cmpne	r3, r1
 1331 0016 2FD0     		beq	.L132
 1332 0018 1832     		adds	r2, r2, #24
 1333 001a 9342     		cmp	r3, r2
 1334 001c 2CD0     		beq	.L132
 1335 001e 1832     		adds	r2, r2, #24
 1336 0020 9342     		cmp	r3, r2
 1337 0022 29D0     		beq	.L132
 1338 0024 1832     		adds	r2, r2, #24
 1339 0026 9342     		cmp	r3, r2
 1340 0028 26D0     		beq	.L132
 1341 002a 1832     		adds	r2, r2, #24
 1342 002c 9342     		cmp	r3, r2
 1343 002e 23D0     		beq	.L132
 1344 0030 1832     		adds	r2, r2, #24
 1345 0032 9342     		cmp	r3, r2
 1346 0034 20D0     		beq	.L132
 1347 0036 1832     		adds	r2, r2, #24
 1348 0038 9342     		cmp	r3, r2
 1349 003a 1DD0     		beq	.L132
 1350 003c 02F55672 		add	r2, r2, #856
 1351 0040 9342     		cmp	r3, r2
 1352 0042 19D0     		beq	.L132
 1353 0044 1832     		adds	r2, r2, #24
 1354 0046 9342     		cmp	r3, r2
 1355 0048 16D0     		beq	.L132
 1356 004a 1832     		adds	r2, r2, #24
 1357 004c 9342     		cmp	r3, r2
 1358 004e 13D0     		beq	.L132
 1359 0050 1832     		adds	r2, r2, #24
 1360 0052 9342     		cmp	r3, r2
 1361 0054 10D0     		beq	.L132
 1362 0056 1832     		adds	r2, r2, #24
 1363 0058 9342     		cmp	r3, r2
 1364 005a 0DD0     		beq	.L132
 1365 005c 1832     		adds	r2, r2, #24
 1366 005e 9342     		cmp	r3, r2
 1367 0060 0AD0     		beq	.L132
 1368 0062 1832     		adds	r2, r2, #24
 1369 0064 9342     		cmp	r3, r2
 1370 0066 07D0     		beq	.L132
 1371 0068 1832     		adds	r2, r2, #24
 1372 006a 9342     		cmp	r3, r2
 1373 006c 04D0     		beq	.L132
 1374 006e 1A68     		ldr	r2, [r3]
 1375 0070 22F00102 		bic	r2, r2, #1
 1376 0074 1A60     		str	r2, [r3]
 1377 0076 03E0     		b	.L134
ARM GAS  C:\Users\thewo\AppData\Local\Temp\ccgZg82m.s 			page 25


 1378              	.L132:
 1379 0078 1A68     		ldr	r2, [r3]
 1380 007a 22F00102 		bic	r2, r2, #1
 1381 007e 1A60     		str	r2, [r3]
 1382              	.L134:
 1383 0080 2368     		ldr	r3, [r4]
 1384 0082 4F49     		ldr	r1, .L149
 1385 0084 4F4A     		ldr	r2, .L149+4
 1386 0086 9342     		cmp	r3, r2
 1387 0088 18BF     		it	ne
 1388 008a 8B42     		cmpne	r3, r1
 1389 008c 44D0     		beq	.L135
 1390 008e 1832     		adds	r2, r2, #24
 1391 0090 9342     		cmp	r3, r2
 1392 0092 41D0     		beq	.L135
 1393 0094 1832     		adds	r2, r2, #24
 1394 0096 9342     		cmp	r3, r2
 1395 0098 3ED0     		beq	.L135
 1396 009a 1832     		adds	r2, r2, #24
 1397 009c 9342     		cmp	r3, r2
 1398 009e 3BD0     		beq	.L135
 1399 00a0 1832     		adds	r2, r2, #24
 1400 00a2 9342     		cmp	r3, r2
 1401 00a4 38D0     		beq	.L135
 1402 00a6 1832     		adds	r2, r2, #24
 1403 00a8 9342     		cmp	r3, r2
 1404 00aa 35D0     		beq	.L135
 1405 00ac 1832     		adds	r2, r2, #24
 1406 00ae 9342     		cmp	r3, r2
 1407 00b0 32D0     		beq	.L135
 1408 00b2 02F55672 		add	r2, r2, #856
 1409 00b6 9342     		cmp	r3, r2
 1410 00b8 2ED0     		beq	.L135
 1411 00ba 1832     		adds	r2, r2, #24
 1412 00bc 9342     		cmp	r3, r2
 1413 00be 2BD0     		beq	.L135
 1414 00c0 1832     		adds	r2, r2, #24
 1415 00c2 9342     		cmp	r3, r2
 1416 00c4 28D0     		beq	.L135
 1417 00c6 1832     		adds	r2, r2, #24
 1418 00c8 9342     		cmp	r3, r2
 1419 00ca 25D0     		beq	.L135
 1420 00cc 1832     		adds	r2, r2, #24
 1421 00ce 9342     		cmp	r3, r2
 1422 00d0 22D0     		beq	.L135
 1423 00d2 1832     		adds	r2, r2, #24
 1424 00d4 9342     		cmp	r3, r2
 1425 00d6 1FD0     		beq	.L135
 1426 00d8 1832     		adds	r2, r2, #24
 1427 00da 9342     		cmp	r3, r2
 1428 00dc 1CD0     		beq	.L135
 1429 00de 1832     		adds	r2, r2, #24
 1430 00e0 9342     		cmp	r3, r2
 1431 00e2 19D0     		beq	.L135
 1432 00e4 3849     		ldr	r1, .L149+8
 1433 00e6 394A     		ldr	r2, .L149+12
 1434 00e8 9342     		cmp	r3, r2
ARM GAS  C:\Users\thewo\AppData\Local\Temp\ccgZg82m.s 			page 26


 1435 00ea 18BF     		it	ne
 1436 00ec 8B42     		cmpne	r3, r1
 1437 00ee 47D0     		beq	.L136
 1438 00f0 374A     		ldr	r2, .L149+16
 1439 00f2 9342     		cmp	r3, r2
 1440 00f4 44D0     		beq	.L136
 1441 00f6 1432     		adds	r2, r2, #20
 1442 00f8 9342     		cmp	r3, r2
 1443 00fa 41D0     		beq	.L136
 1444 00fc 1432     		adds	r2, r2, #20
 1445 00fe 9342     		cmp	r3, r2
 1446 0100 3ED0     		beq	.L136
 1447 0102 1432     		adds	r2, r2, #20
 1448 0104 9342     		cmp	r3, r2
 1449 0106 3BD0     		beq	.L136
 1450 0108 1432     		adds	r2, r2, #20
 1451 010a 9342     		cmp	r3, r2
 1452 010c 38D0     		beq	.L136
 1453 010e 1432     		adds	r2, r2, #20
 1454 0110 9342     		cmp	r3, r2
 1455 0112 35D0     		beq	.L136
 1456 0114 0120     		movs	r0, #1
 1457 0116 32E0     		b	.L131
 1458              	.L135:
 1459 0118 0022     		movs	r2, #0
 1460 011a 1A60     		str	r2, [r3]
 1461 011c 2368     		ldr	r3, [r4]
 1462 011e 5A60     		str	r2, [r3, #4]
 1463 0120 2368     		ldr	r3, [r4]
 1464 0122 9A60     		str	r2, [r3, #8]
 1465 0124 2368     		ldr	r3, [r4]
 1466 0126 DA60     		str	r2, [r3, #12]
 1467 0128 2368     		ldr	r3, [r4]
 1468 012a 1A61     		str	r2, [r3, #16]
 1469 012c 2368     		ldr	r3, [r4]
 1470 012e 2122     		movs	r2, #33
 1471 0130 5A61     		str	r2, [r3, #20]
 1472 0132 2046     		mov	r0, r4
 1473 0134 FFF7FEFF 		bl	DMA_CalcBaseAndBitshift
 1474 0138 E36D     		ldr	r3, [r4, #92]
 1475 013a 03F01F02 		and	r2, r3, #31
 1476 013e 3F23     		movs	r3, #63
 1477 0140 9340     		lsls	r3, r3, r2
 1478 0142 8360     		str	r3, [r0, #8]
 1479              	.L138:
 1480 0144 2046     		mov	r0, r4
 1481 0146 FFF7FEFF 		bl	DMA_CalcDMAMUXChannelBaseAndMask
 1482 014a 236E     		ldr	r3, [r4, #96]
 1483 014c 23B1     		cbz	r3, .L139
 1484 014e 0022     		movs	r2, #0
 1485 0150 1A60     		str	r2, [r3]
 1486 0152 636E     		ldr	r3, [r4, #100]
 1487 0154 A26E     		ldr	r2, [r4, #104]
 1488 0156 5A60     		str	r2, [r3, #4]
 1489              	.L139:
 1490 0158 6368     		ldr	r3, [r4, #4]
 1491 015a 013B     		subs	r3, r3, #1
ARM GAS  C:\Users\thewo\AppData\Local\Temp\ccgZg82m.s 			page 27


 1492 015c 072B     		cmp	r3, #7
 1493 015e 23D9     		bls	.L148
 1494              	.L140:
 1495 0160 0020     		movs	r0, #0
 1496 0162 E066     		str	r0, [r4, #108]
 1497 0164 2067     		str	r0, [r4, #112]
 1498 0166 6067     		str	r0, [r4, #116]
 1499 0168 E063     		str	r0, [r4, #60]
 1500 016a 2064     		str	r0, [r4, #64]
 1501 016c 6064     		str	r0, [r4, #68]
 1502 016e A064     		str	r0, [r4, #72]
 1503 0170 E064     		str	r0, [r4, #76]
 1504 0172 2065     		str	r0, [r4, #80]
 1505 0174 6065     		str	r0, [r4, #84]
 1506 0176 84F83500 		strb	r0, [r4, #53]
 1507 017a 84F83400 		strb	r0, [r4, #52]
 1508              	.L131:
 1509 017e 10BD     		pop	{r4, pc}
 1510              	.L136:
 1511 0180 0022     		movs	r2, #0
 1512 0182 1A60     		str	r2, [r3]
 1513 0184 2368     		ldr	r3, [r4]
 1514 0186 5A60     		str	r2, [r3, #4]
 1515 0188 2368     		ldr	r3, [r4]
 1516 018a 9A60     		str	r2, [r3, #8]
 1517 018c 2368     		ldr	r3, [r4]
 1518 018e DA60     		str	r2, [r3, #12]
 1519 0190 2368     		ldr	r3, [r4]
 1520 0192 1A61     		str	r2, [r3, #16]
 1521 0194 2046     		mov	r0, r4
 1522 0196 FFF7FEFF 		bl	DMA_CalcBaseAndBitshift
 1523 019a E36D     		ldr	r3, [r4, #92]
 1524 019c 03F01F02 		and	r2, r3, #31
 1525 01a0 0123     		movs	r3, #1
 1526 01a2 9340     		lsls	r3, r3, r2
 1527 01a4 4360     		str	r3, [r0, #4]
 1528 01a6 CDE7     		b	.L138
 1529              	.L148:
 1530 01a8 2046     		mov	r0, r4
 1531 01aa FFF7FEFF 		bl	DMA_CalcDMAMUXRequestGenBaseAndMask
 1532 01ae E36E     		ldr	r3, [r4, #108]
 1533 01b0 0022     		movs	r2, #0
 1534 01b2 1A60     		str	r2, [r3]
 1535 01b4 236F     		ldr	r3, [r4, #112]
 1536 01b6 626F     		ldr	r2, [r4, #116]
 1537 01b8 5A60     		str	r2, [r3, #4]
 1538 01ba D1E7     		b	.L140
 1539              	.L141:
 1540 01bc 0120     		movs	r0, #1
 1541 01be 7047     		bx	lr
 1542              	.L150:
 1543              		.align	2
 1544              	.L149:
 1545 01c0 10000240 		.word	1073872912
 1546 01c4 28000240 		.word	1073872936
 1547 01c8 08540258 		.word	1476547592
 1548 01cc 1C540258 		.word	1476547612
ARM GAS  C:\Users\thewo\AppData\Local\Temp\ccgZg82m.s 			page 28


 1549 01d0 30540258 		.word	1476547632
 1551              		.section	.text.HAL_DMA_Start,"ax",%progbits
 1552              		.align	1
 1553              		.global	HAL_DMA_Start
 1554              		.syntax unified
 1555              		.thumb
 1556              		.thumb_func
 1558              	HAL_DMA_Start:
 1559              		@ args = 0, pretend = 0, frame = 0
 1560              		@ frame_needed = 0, uses_anonymous_args = 0
 1561 0000 F8B5     		push	{r3, r4, r5, r6, r7, lr}
 1562 0002 0446     		mov	r4, r0
 1563 0004 0F46     		mov	r7, r1
 1564 0006 1646     		mov	r6, r2
 1565 0008 1D46     		mov	r5, r3
 1566 000a 581E     		subs	r0, r3, #1
 1567 000c 4FF6FE73 		movw	r3, #65534
 1568 0010 9842     		cmp	r0, r3
 1569 0012 16D8     		bhi	.L163
 1570              	.L152:
 1571 0014 002C     		cmp	r4, #0
 1572 0016 00F09E80 		beq	.L160
 1573 001a 94F83430 		ldrb	r3, [r4, #52]	@ zero_extendqisi2
 1574 001e 012B     		cmp	r3, #1
 1575 0020 00F09B80 		beq	.L161
 1576 0024 0123     		movs	r3, #1
 1577 0026 84F83430 		strb	r3, [r4, #52]
 1578 002a 94F83530 		ldrb	r3, [r4, #53]	@ zero_extendqisi2
 1579 002e 012B     		cmp	r3, #1
 1580 0030 0DD0     		beq	.L164
 1581 0032 4FF40063 		mov	r3, #2048
 1582 0036 6365     		str	r3, [r4, #84]
 1583 0038 0023     		movs	r3, #0
 1584 003a 84F83430 		strb	r3, [r4, #52]
 1585 003e 0120     		movs	r0, #1
 1586              	.L153:
 1587 0040 F8BD     		pop	{r3, r4, r5, r6, r7, pc}
 1588              	.L163:
 1589 0042 40F27621 		movw	r1, #630
 1590 0046 4648     		ldr	r0, .L165
 1591 0048 FFF7FEFF 		bl	assert_failed
 1592 004c E2E7     		b	.L152
 1593              	.L164:
 1594 004e 0223     		movs	r3, #2
 1595 0050 84F83530 		strb	r3, [r4, #53]
 1596 0054 0023     		movs	r3, #0
 1597 0056 6365     		str	r3, [r4, #84]
 1598 0058 2368     		ldr	r3, [r4]
 1599 005a 4249     		ldr	r1, .L165+4
 1600 005c 424A     		ldr	r2, .L165+8
 1601 005e 9342     		cmp	r3, r2
 1602 0060 18BF     		it	ne
 1603 0062 8B42     		cmpne	r3, r1
 1604 0064 2FD0     		beq	.L155
 1605 0066 1832     		adds	r2, r2, #24
 1606 0068 9342     		cmp	r3, r2
 1607 006a 2CD0     		beq	.L155
ARM GAS  C:\Users\thewo\AppData\Local\Temp\ccgZg82m.s 			page 29


 1608 006c 1832     		adds	r2, r2, #24
 1609 006e 9342     		cmp	r3, r2
 1610 0070 29D0     		beq	.L155
 1611 0072 1832     		adds	r2, r2, #24
 1612 0074 9342     		cmp	r3, r2
 1613 0076 26D0     		beq	.L155
 1614 0078 1832     		adds	r2, r2, #24
 1615 007a 9342     		cmp	r3, r2
 1616 007c 23D0     		beq	.L155
 1617 007e 1832     		adds	r2, r2, #24
 1618 0080 9342     		cmp	r3, r2
 1619 0082 20D0     		beq	.L155
 1620 0084 1832     		adds	r2, r2, #24
 1621 0086 9342     		cmp	r3, r2
 1622 0088 1DD0     		beq	.L155
 1623 008a 02F55672 		add	r2, r2, #856
 1624 008e 9342     		cmp	r3, r2
 1625 0090 19D0     		beq	.L155
 1626 0092 1832     		adds	r2, r2, #24
 1627 0094 9342     		cmp	r3, r2
 1628 0096 16D0     		beq	.L155
 1629 0098 1832     		adds	r2, r2, #24
 1630 009a 9342     		cmp	r3, r2
 1631 009c 13D0     		beq	.L155
 1632 009e 1832     		adds	r2, r2, #24
 1633 00a0 9342     		cmp	r3, r2
 1634 00a2 10D0     		beq	.L155
 1635 00a4 1832     		adds	r2, r2, #24
 1636 00a6 9342     		cmp	r3, r2
 1637 00a8 0DD0     		beq	.L155
 1638 00aa 1832     		adds	r2, r2, #24
 1639 00ac 9342     		cmp	r3, r2
 1640 00ae 0AD0     		beq	.L155
 1641 00b0 1832     		adds	r2, r2, #24
 1642 00b2 9342     		cmp	r3, r2
 1643 00b4 07D0     		beq	.L155
 1644 00b6 1832     		adds	r2, r2, #24
 1645 00b8 9342     		cmp	r3, r2
 1646 00ba 04D0     		beq	.L155
 1647 00bc 1A68     		ldr	r2, [r3]
 1648 00be 22F00102 		bic	r2, r2, #1
 1649 00c2 1A60     		str	r2, [r3]
 1650 00c4 03E0     		b	.L157
 1651              	.L155:
 1652 00c6 1A68     		ldr	r2, [r3]
 1653 00c8 22F00102 		bic	r2, r2, #1
 1654 00cc 1A60     		str	r2, [r3]
 1655              	.L157:
 1656 00ce 2B46     		mov	r3, r5
 1657 00d0 3246     		mov	r2, r6
 1658 00d2 3946     		mov	r1, r7
 1659 00d4 2046     		mov	r0, r4
 1660 00d6 FFF7FEFF 		bl	DMA_SetConfig
 1661 00da 2368     		ldr	r3, [r4]
 1662 00dc 2149     		ldr	r1, .L165+4
 1663 00de 224A     		ldr	r2, .L165+8
 1664 00e0 9342     		cmp	r3, r2
ARM GAS  C:\Users\thewo\AppData\Local\Temp\ccgZg82m.s 			page 30


 1665 00e2 18BF     		it	ne
 1666 00e4 8B42     		cmpne	r3, r1
 1667 00e6 30D0     		beq	.L158
 1668 00e8 1832     		adds	r2, r2, #24
 1669 00ea 9342     		cmp	r3, r2
 1670 00ec 2DD0     		beq	.L158
 1671 00ee 1832     		adds	r2, r2, #24
 1672 00f0 9342     		cmp	r3, r2
 1673 00f2 2AD0     		beq	.L158
 1674 00f4 1832     		adds	r2, r2, #24
 1675 00f6 9342     		cmp	r3, r2
 1676 00f8 27D0     		beq	.L158
 1677 00fa 1832     		adds	r2, r2, #24
 1678 00fc 9342     		cmp	r3, r2
 1679 00fe 24D0     		beq	.L158
 1680 0100 1832     		adds	r2, r2, #24
 1681 0102 9342     		cmp	r3, r2
 1682 0104 21D0     		beq	.L158
 1683 0106 1832     		adds	r2, r2, #24
 1684 0108 9342     		cmp	r3, r2
 1685 010a 1ED0     		beq	.L158
 1686 010c 02F55672 		add	r2, r2, #856
 1687 0110 9342     		cmp	r3, r2
 1688 0112 1AD0     		beq	.L158
 1689 0114 1832     		adds	r2, r2, #24
 1690 0116 9342     		cmp	r3, r2
 1691 0118 17D0     		beq	.L158
 1692 011a 1832     		adds	r2, r2, #24
 1693 011c 9342     		cmp	r3, r2
 1694 011e 14D0     		beq	.L158
 1695 0120 1832     		adds	r2, r2, #24
 1696 0122 9342     		cmp	r3, r2
 1697 0124 11D0     		beq	.L158
 1698 0126 1832     		adds	r2, r2, #24
 1699 0128 9342     		cmp	r3, r2
 1700 012a 0ED0     		beq	.L158
 1701 012c 1832     		adds	r2, r2, #24
 1702 012e 9342     		cmp	r3, r2
 1703 0130 0BD0     		beq	.L158
 1704 0132 1832     		adds	r2, r2, #24
 1705 0134 9342     		cmp	r3, r2
 1706 0136 08D0     		beq	.L158
 1707 0138 1832     		adds	r2, r2, #24
 1708 013a 9342     		cmp	r3, r2
 1709 013c 05D0     		beq	.L158
 1710 013e 1A68     		ldr	r2, [r3]
 1711 0140 42F00102 		orr	r2, r2, #1
 1712 0144 1A60     		str	r2, [r3]
 1713 0146 0020     		movs	r0, #0
 1714 0148 7AE7     		b	.L153
 1715              	.L158:
 1716 014a 1A68     		ldr	r2, [r3]
 1717 014c 42F00102 		orr	r2, r2, #1
 1718 0150 1A60     		str	r2, [r3]
 1719 0152 0020     		movs	r0, #0
 1720 0154 74E7     		b	.L153
 1721              	.L160:
ARM GAS  C:\Users\thewo\AppData\Local\Temp\ccgZg82m.s 			page 31


 1722 0156 0120     		movs	r0, #1
 1723 0158 72E7     		b	.L153
 1724              	.L161:
 1725 015a 0220     		movs	r0, #2
 1726 015c 70E7     		b	.L153
 1727              	.L166:
 1728 015e 00BF     		.align	2
 1729              	.L165:
 1730 0160 00000000 		.word	.LC0
 1731 0164 10000240 		.word	1073872912
 1732 0168 28000240 		.word	1073872936
 1734              		.section	.text.HAL_DMA_Start_IT,"ax",%progbits
 1735              		.align	1
 1736              		.global	HAL_DMA_Start_IT
 1737              		.syntax unified
 1738              		.thumb
 1739              		.thumb_func
 1741              	HAL_DMA_Start_IT:
 1742              		@ args = 0, pretend = 0, frame = 0
 1743              		@ frame_needed = 0, uses_anonymous_args = 0
 1744 0000 F8B5     		push	{r3, r4, r5, r6, r7, lr}
 1745 0002 0446     		mov	r4, r0
 1746 0004 0F46     		mov	r7, r1
 1747 0006 1646     		mov	r6, r2
 1748 0008 1D46     		mov	r5, r3
 1749 000a 581E     		subs	r0, r3, #1
 1750 000c 4FF6FE73 		movw	r3, #65534
 1751 0010 9842     		cmp	r0, r3
 1752 0012 16D8     		bhi	.L185
 1753              	.L168:
 1754 0014 002C     		cmp	r4, #0
 1755 0016 00F04481 		beq	.L182
 1756 001a 94F83430 		ldrb	r3, [r4, #52]	@ zero_extendqisi2
 1757 001e 012B     		cmp	r3, #1
 1758 0020 00F04181 		beq	.L183
 1759 0024 0123     		movs	r3, #1
 1760 0026 84F83430 		strb	r3, [r4, #52]
 1761 002a 94F83530 		ldrb	r3, [r4, #53]	@ zero_extendqisi2
 1762 002e 012B     		cmp	r3, #1
 1763 0030 0DD0     		beq	.L186
 1764 0032 4FF40063 		mov	r3, #2048
 1765 0036 6365     		str	r3, [r4, #84]
 1766 0038 0023     		movs	r3, #0
 1767 003a 84F83430 		strb	r3, [r4, #52]
 1768 003e 0120     		movs	r0, #1
 1769              	.L169:
 1770 0040 F8BD     		pop	{r3, r4, r5, r6, r7, pc}
 1771              	.L185:
 1772 0042 40F2AE21 		movw	r1, #686
 1773 0046 9948     		ldr	r0, .L187
 1774 0048 FFF7FEFF 		bl	assert_failed
 1775 004c E2E7     		b	.L168
 1776              	.L186:
 1777 004e 0223     		movs	r3, #2
 1778 0050 84F83530 		strb	r3, [r4, #53]
 1779 0054 0023     		movs	r3, #0
 1780 0056 6365     		str	r3, [r4, #84]
ARM GAS  C:\Users\thewo\AppData\Local\Temp\ccgZg82m.s 			page 32


 1781 0058 2368     		ldr	r3, [r4]
 1782 005a 9549     		ldr	r1, .L187+4
 1783 005c 954A     		ldr	r2, .L187+8
 1784 005e 9342     		cmp	r3, r2
 1785 0060 18BF     		it	ne
 1786 0062 8B42     		cmpne	r3, r1
 1787 0064 2FD0     		beq	.L171
 1788 0066 1832     		adds	r2, r2, #24
 1789 0068 9342     		cmp	r3, r2
 1790 006a 2CD0     		beq	.L171
 1791 006c 1832     		adds	r2, r2, #24
 1792 006e 9342     		cmp	r3, r2
 1793 0070 29D0     		beq	.L171
 1794 0072 1832     		adds	r2, r2, #24
 1795 0074 9342     		cmp	r3, r2
 1796 0076 26D0     		beq	.L171
 1797 0078 1832     		adds	r2, r2, #24
 1798 007a 9342     		cmp	r3, r2
 1799 007c 23D0     		beq	.L171
 1800 007e 1832     		adds	r2, r2, #24
 1801 0080 9342     		cmp	r3, r2
 1802 0082 20D0     		beq	.L171
 1803 0084 1832     		adds	r2, r2, #24
 1804 0086 9342     		cmp	r3, r2
 1805 0088 1DD0     		beq	.L171
 1806 008a 02F55672 		add	r2, r2, #856
 1807 008e 9342     		cmp	r3, r2
 1808 0090 19D0     		beq	.L171
 1809 0092 1832     		adds	r2, r2, #24
 1810 0094 9342     		cmp	r3, r2
 1811 0096 16D0     		beq	.L171
 1812 0098 1832     		adds	r2, r2, #24
 1813 009a 9342     		cmp	r3, r2
 1814 009c 13D0     		beq	.L171
 1815 009e 1832     		adds	r2, r2, #24
 1816 00a0 9342     		cmp	r3, r2
 1817 00a2 10D0     		beq	.L171
 1818 00a4 1832     		adds	r2, r2, #24
 1819 00a6 9342     		cmp	r3, r2
 1820 00a8 0DD0     		beq	.L171
 1821 00aa 1832     		adds	r2, r2, #24
 1822 00ac 9342     		cmp	r3, r2
 1823 00ae 0AD0     		beq	.L171
 1824 00b0 1832     		adds	r2, r2, #24
 1825 00b2 9342     		cmp	r3, r2
 1826 00b4 07D0     		beq	.L171
 1827 00b6 1832     		adds	r2, r2, #24
 1828 00b8 9342     		cmp	r3, r2
 1829 00ba 04D0     		beq	.L171
 1830 00bc 1A68     		ldr	r2, [r3]
 1831 00be 22F00102 		bic	r2, r2, #1
 1832 00c2 1A60     		str	r2, [r3]
 1833 00c4 03E0     		b	.L173
 1834              	.L171:
 1835 00c6 1A68     		ldr	r2, [r3]
 1836 00c8 22F00102 		bic	r2, r2, #1
 1837 00cc 1A60     		str	r2, [r3]
ARM GAS  C:\Users\thewo\AppData\Local\Temp\ccgZg82m.s 			page 33


 1838              	.L173:
 1839 00ce 2B46     		mov	r3, r5
 1840 00d0 3246     		mov	r2, r6
 1841 00d2 3946     		mov	r1, r7
 1842 00d4 2046     		mov	r0, r4
 1843 00d6 FFF7FEFF 		bl	DMA_SetConfig
 1844 00da 2368     		ldr	r3, [r4]
 1845 00dc 7449     		ldr	r1, .L187+4
 1846 00de 754A     		ldr	r2, .L187+8
 1847 00e0 9342     		cmp	r3, r2
 1848 00e2 18BF     		it	ne
 1849 00e4 8B42     		cmpne	r3, r1
 1850 00e6 38D0     		beq	.L174
 1851 00e8 1832     		adds	r2, r2, #24
 1852 00ea 9342     		cmp	r3, r2
 1853 00ec 35D0     		beq	.L174
 1854 00ee 1832     		adds	r2, r2, #24
 1855 00f0 9342     		cmp	r3, r2
 1856 00f2 32D0     		beq	.L174
 1857 00f4 1832     		adds	r2, r2, #24
 1858 00f6 9342     		cmp	r3, r2
 1859 00f8 2FD0     		beq	.L174
 1860 00fa 1832     		adds	r2, r2, #24
 1861 00fc 9342     		cmp	r3, r2
 1862 00fe 2CD0     		beq	.L174
 1863 0100 1832     		adds	r2, r2, #24
 1864 0102 9342     		cmp	r3, r2
 1865 0104 29D0     		beq	.L174
 1866 0106 1832     		adds	r2, r2, #24
 1867 0108 9342     		cmp	r3, r2
 1868 010a 26D0     		beq	.L174
 1869 010c 02F55672 		add	r2, r2, #856
 1870 0110 9342     		cmp	r3, r2
 1871 0112 22D0     		beq	.L174
 1872 0114 1832     		adds	r2, r2, #24
 1873 0116 9342     		cmp	r3, r2
 1874 0118 1FD0     		beq	.L174
 1875 011a 1832     		adds	r2, r2, #24
 1876 011c 9342     		cmp	r3, r2
 1877 011e 1CD0     		beq	.L174
 1878 0120 1832     		adds	r2, r2, #24
 1879 0122 9342     		cmp	r3, r2
 1880 0124 19D0     		beq	.L174
 1881 0126 1832     		adds	r2, r2, #24
 1882 0128 9342     		cmp	r3, r2
 1883 012a 16D0     		beq	.L174
 1884 012c 1832     		adds	r2, r2, #24
 1885 012e 9342     		cmp	r3, r2
 1886 0130 13D0     		beq	.L174
 1887 0132 1832     		adds	r2, r2, #24
 1888 0134 9342     		cmp	r3, r2
 1889 0136 10D0     		beq	.L174
 1890 0138 1832     		adds	r2, r2, #24
 1891 013a 9342     		cmp	r3, r2
 1892 013c 0DD0     		beq	.L174
 1893 013e 1A68     		ldr	r2, [r3]
 1894 0140 22F00E02 		bic	r2, r2, #14
ARM GAS  C:\Users\thewo\AppData\Local\Temp\ccgZg82m.s 			page 34


 1895 0144 42F00A02 		orr	r2, r2, #10
 1896 0148 1A60     		str	r2, [r3]
 1897 014a 236C     		ldr	r3, [r4, #64]
 1898 014c 93B1     		cbz	r3, .L176
 1899 014e 2268     		ldr	r2, [r4]
 1900 0150 1368     		ldr	r3, [r2]
 1901 0152 43F00403 		orr	r3, r3, #4
 1902 0156 1360     		str	r3, [r2]
 1903 0158 0CE0     		b	.L176
 1904              	.L174:
 1905 015a 1A68     		ldr	r2, [r3]
 1906 015c 22F01E02 		bic	r2, r2, #30
 1907 0160 42F01602 		orr	r2, r2, #22
 1908 0164 1A60     		str	r2, [r3]
 1909 0166 236C     		ldr	r3, [r4, #64]
 1910 0168 23B1     		cbz	r3, .L176
 1911 016a 2268     		ldr	r2, [r4]
 1912 016c 1368     		ldr	r3, [r2]
 1913 016e 43F00803 		orr	r3, r3, #8
 1914 0172 1360     		str	r3, [r2]
 1915              	.L176:
 1916 0174 2368     		ldr	r3, [r4]
 1917 0176 4E49     		ldr	r1, .L187+4
 1918 0178 4E4A     		ldr	r2, .L187+8
 1919 017a 9342     		cmp	r3, r2
 1920 017c 18BF     		it	ne
 1921 017e 8B42     		cmpne	r3, r1
 1922 0180 42D0     		beq	.L177
 1923 0182 1832     		adds	r2, r2, #24
 1924 0184 9342     		cmp	r3, r2
 1925 0186 3FD0     		beq	.L177
 1926 0188 1832     		adds	r2, r2, #24
 1927 018a 9342     		cmp	r3, r2
 1928 018c 3CD0     		beq	.L177
 1929 018e 1832     		adds	r2, r2, #24
 1930 0190 9342     		cmp	r3, r2
 1931 0192 39D0     		beq	.L177
 1932 0194 1832     		adds	r2, r2, #24
 1933 0196 9342     		cmp	r3, r2
 1934 0198 36D0     		beq	.L177
 1935 019a 1832     		adds	r2, r2, #24
 1936 019c 9342     		cmp	r3, r2
 1937 019e 33D0     		beq	.L177
 1938 01a0 1832     		adds	r2, r2, #24
 1939 01a2 9342     		cmp	r3, r2
 1940 01a4 30D0     		beq	.L177
 1941 01a6 02F55672 		add	r2, r2, #856
 1942 01aa 9342     		cmp	r3, r2
 1943 01ac 2CD0     		beq	.L177
 1944 01ae 1832     		adds	r2, r2, #24
 1945 01b0 9342     		cmp	r3, r2
 1946 01b2 29D0     		beq	.L177
 1947 01b4 1832     		adds	r2, r2, #24
 1948 01b6 9342     		cmp	r3, r2
 1949 01b8 26D0     		beq	.L177
 1950 01ba 1832     		adds	r2, r2, #24
 1951 01bc 9342     		cmp	r3, r2
ARM GAS  C:\Users\thewo\AppData\Local\Temp\ccgZg82m.s 			page 35


 1952 01be 23D0     		beq	.L177
 1953 01c0 1832     		adds	r2, r2, #24
 1954 01c2 9342     		cmp	r3, r2
 1955 01c4 20D0     		beq	.L177
 1956 01c6 1832     		adds	r2, r2, #24
 1957 01c8 9342     		cmp	r3, r2
 1958 01ca 1DD0     		beq	.L177
 1959 01cc 1832     		adds	r2, r2, #24
 1960 01ce 9342     		cmp	r3, r2
 1961 01d0 1AD0     		beq	.L177
 1962 01d2 1832     		adds	r2, r2, #24
 1963 01d4 9342     		cmp	r3, r2
 1964 01d6 17D0     		beq	.L177
 1965 01d8 374A     		ldr	r2, .L187+12
 1966 01da 9342     		cmp	r3, r2
 1967 01dc 14D0     		beq	.L177
 1968 01de 1432     		adds	r2, r2, #20
 1969 01e0 9342     		cmp	r3, r2
 1970 01e2 11D0     		beq	.L177
 1971 01e4 1432     		adds	r2, r2, #20
 1972 01e6 9342     		cmp	r3, r2
 1973 01e8 0ED0     		beq	.L177
 1974 01ea 1432     		adds	r2, r2, #20
 1975 01ec 9342     		cmp	r3, r2
 1976 01ee 0BD0     		beq	.L177
 1977 01f0 1432     		adds	r2, r2, #20
 1978 01f2 9342     		cmp	r3, r2
 1979 01f4 08D0     		beq	.L177
 1980 01f6 1432     		adds	r2, r2, #20
 1981 01f8 9342     		cmp	r3, r2
 1982 01fa 05D0     		beq	.L177
 1983 01fc 1432     		adds	r2, r2, #20
 1984 01fe 9342     		cmp	r3, r2
 1985 0200 02D0     		beq	.L177
 1986 0202 1432     		adds	r2, r2, #20
 1987 0204 9342     		cmp	r3, r2
 1988 0206 0ED1     		bne	.L178
 1989              	.L177:
 1990 0208 236E     		ldr	r3, [r4, #96]
 1991 020a 1A68     		ldr	r2, [r3]
 1992 020c 12F4803F 		tst	r2, #65536
 1993 0210 03D0     		beq	.L179
 1994 0212 1A68     		ldr	r2, [r3]
 1995 0214 42F48072 		orr	r2, r2, #256
 1996 0218 1A60     		str	r2, [r3]
 1997              	.L179:
 1998 021a E36E     		ldr	r3, [r4, #108]
 1999 021c 1BB1     		cbz	r3, .L178
 2000 021e 1A68     		ldr	r2, [r3]
 2001 0220 42F48072 		orr	r2, r2, #256
 2002 0224 1A60     		str	r2, [r3]
 2003              	.L178:
 2004 0226 2368     		ldr	r3, [r4]
 2005 0228 2149     		ldr	r1, .L187+4
 2006 022a 224A     		ldr	r2, .L187+8
 2007 022c 9342     		cmp	r3, r2
 2008 022e 18BF     		it	ne
ARM GAS  C:\Users\thewo\AppData\Local\Temp\ccgZg82m.s 			page 36


 2009 0230 8B42     		cmpne	r3, r1
 2010 0232 30D0     		beq	.L180
 2011 0234 1832     		adds	r2, r2, #24
 2012 0236 9342     		cmp	r3, r2
 2013 0238 2DD0     		beq	.L180
 2014 023a 1832     		adds	r2, r2, #24
 2015 023c 9342     		cmp	r3, r2
 2016 023e 2AD0     		beq	.L180
 2017 0240 1832     		adds	r2, r2, #24
 2018 0242 9342     		cmp	r3, r2
 2019 0244 27D0     		beq	.L180
 2020 0246 1832     		adds	r2, r2, #24
 2021 0248 9342     		cmp	r3, r2
 2022 024a 24D0     		beq	.L180
 2023 024c 1832     		adds	r2, r2, #24
 2024 024e 9342     		cmp	r3, r2
 2025 0250 21D0     		beq	.L180
 2026 0252 1832     		adds	r2, r2, #24
 2027 0254 9342     		cmp	r3, r2
 2028 0256 1ED0     		beq	.L180
 2029 0258 02F55672 		add	r2, r2, #856
 2030 025c 9342     		cmp	r3, r2
 2031 025e 1AD0     		beq	.L180
 2032 0260 1832     		adds	r2, r2, #24
 2033 0262 9342     		cmp	r3, r2
 2034 0264 17D0     		beq	.L180
 2035 0266 1832     		adds	r2, r2, #24
 2036 0268 9342     		cmp	r3, r2
 2037 026a 14D0     		beq	.L180
 2038 026c 1832     		adds	r2, r2, #24
 2039 026e 9342     		cmp	r3, r2
 2040 0270 11D0     		beq	.L180
 2041 0272 1832     		adds	r2, r2, #24
 2042 0274 9342     		cmp	r3, r2
 2043 0276 0ED0     		beq	.L180
 2044 0278 1832     		adds	r2, r2, #24
 2045 027a 9342     		cmp	r3, r2
 2046 027c 0BD0     		beq	.L180
 2047 027e 1832     		adds	r2, r2, #24
 2048 0280 9342     		cmp	r3, r2
 2049 0282 08D0     		beq	.L180
 2050 0284 1832     		adds	r2, r2, #24
 2051 0286 9342     		cmp	r3, r2
 2052 0288 05D0     		beq	.L180
 2053 028a 1A68     		ldr	r2, [r3]
 2054 028c 42F00102 		orr	r2, r2, #1
 2055 0290 1A60     		str	r2, [r3]
 2056 0292 0020     		movs	r0, #0
 2057 0294 D4E6     		b	.L169
 2058              	.L180:
 2059 0296 1A68     		ldr	r2, [r3]
 2060 0298 42F00102 		orr	r2, r2, #1
 2061 029c 1A60     		str	r2, [r3]
 2062 029e 0020     		movs	r0, #0
 2063 02a0 CEE6     		b	.L169
 2064              	.L182:
 2065 02a2 0120     		movs	r0, #1
ARM GAS  C:\Users\thewo\AppData\Local\Temp\ccgZg82m.s 			page 37


 2066 02a4 CCE6     		b	.L169
 2067              	.L183:
 2068 02a6 0220     		movs	r0, #2
 2069 02a8 CAE6     		b	.L169
 2070              	.L188:
 2071 02aa 00BF     		.align	2
 2072              	.L187:
 2073 02ac 00000000 		.word	.LC0
 2074 02b0 10000240 		.word	1073872912
 2075 02b4 28000240 		.word	1073872936
 2076 02b8 08540258 		.word	1476547592
 2078              		.section	.text.HAL_DMA_Abort,"ax",%progbits
 2079              		.align	1
 2080              		.global	HAL_DMA_Abort
 2081              		.syntax unified
 2082              		.thumb
 2083              		.thumb_func
 2085              	HAL_DMA_Abort:
 2086              		@ args = 0, pretend = 0, frame = 0
 2087              		@ frame_needed = 0, uses_anonymous_args = 0
 2088 0000 70B5     		push	{r4, r5, r6, lr}
 2089 0002 0446     		mov	r4, r0
 2090 0004 FFF7FEFF 		bl	HAL_GetTick
 2091 0008 002C     		cmp	r4, #0
 2092 000a 00F08F81 		beq	.L205
 2093 000e 0546     		mov	r5, r0
 2094 0010 94F83530 		ldrb	r3, [r4, #53]	@ zero_extendqisi2
 2095 0014 022B     		cmp	r3, #2
 2096 0016 06D0     		beq	.L191
 2097 0018 8023     		movs	r3, #128
 2098 001a 6365     		str	r3, [r4, #84]
 2099 001c 0023     		movs	r3, #0
 2100 001e 84F83430 		strb	r3, [r4, #52]
 2101 0022 0120     		movs	r0, #1
 2102              	.L190:
 2103 0024 70BD     		pop	{r4, r5, r6, pc}
 2104              	.L191:
 2105 0026 2368     		ldr	r3, [r4]
 2106 0028 8B49     		ldr	r1, .L208
 2107 002a 8C4A     		ldr	r2, .L208+4
 2108 002c 9342     		cmp	r3, r2
 2109 002e 18BF     		it	ne
 2110 0030 8B42     		cmpne	r3, r1
 2111 0032 30D0     		beq	.L192
 2112 0034 1832     		adds	r2, r2, #24
 2113 0036 9342     		cmp	r3, r2
 2114 0038 2DD0     		beq	.L192
 2115 003a 1832     		adds	r2, r2, #24
 2116 003c 9342     		cmp	r3, r2
 2117 003e 2AD0     		beq	.L192
 2118 0040 1832     		adds	r2, r2, #24
 2119 0042 9342     		cmp	r3, r2
 2120 0044 27D0     		beq	.L192
 2121 0046 1832     		adds	r2, r2, #24
 2122 0048 9342     		cmp	r3, r2
 2123 004a 24D0     		beq	.L192
 2124 004c 1832     		adds	r2, r2, #24
ARM GAS  C:\Users\thewo\AppData\Local\Temp\ccgZg82m.s 			page 38


 2125 004e 9342     		cmp	r3, r2
 2126 0050 21D0     		beq	.L192
 2127 0052 1832     		adds	r2, r2, #24
 2128 0054 9342     		cmp	r3, r2
 2129 0056 1ED0     		beq	.L192
 2130 0058 02F55672 		add	r2, r2, #856
 2131 005c 9342     		cmp	r3, r2
 2132 005e 1AD0     		beq	.L192
 2133 0060 1832     		adds	r2, r2, #24
 2134 0062 9342     		cmp	r3, r2
 2135 0064 17D0     		beq	.L192
 2136 0066 1832     		adds	r2, r2, #24
 2137 0068 9342     		cmp	r3, r2
 2138 006a 14D0     		beq	.L192
 2139 006c 1832     		adds	r2, r2, #24
 2140 006e 9342     		cmp	r3, r2
 2141 0070 11D0     		beq	.L192
 2142 0072 1832     		adds	r2, r2, #24
 2143 0074 9342     		cmp	r3, r2
 2144 0076 0ED0     		beq	.L192
 2145 0078 1832     		adds	r2, r2, #24
 2146 007a 9342     		cmp	r3, r2
 2147 007c 0BD0     		beq	.L192
 2148 007e 1832     		adds	r2, r2, #24
 2149 0080 9342     		cmp	r3, r2
 2150 0082 08D0     		beq	.L192
 2151 0084 1832     		adds	r2, r2, #24
 2152 0086 9342     		cmp	r3, r2
 2153 0088 05D0     		beq	.L192
 2154 008a 1A68     		ldr	r2, [r3]
 2155 008c 22F00E02 		bic	r2, r2, #14
 2156 0090 1A60     		str	r2, [r3]
 2157 0092 2668     		ldr	r6, [r4]
 2158 0094 09E0     		b	.L193
 2159              	.L192:
 2160 0096 1A68     		ldr	r2, [r3]
 2161 0098 22F01E02 		bic	r2, r2, #30
 2162 009c 1A60     		str	r2, [r3]
 2163 009e 2268     		ldr	r2, [r4]
 2164 00a0 5369     		ldr	r3, [r2, #20]
 2165 00a2 23F08003 		bic	r3, r3, #128
 2166 00a6 5361     		str	r3, [r2, #20]
 2167 00a8 2668     		ldr	r6, [r4]
 2168              	.L193:
 2169 00aa 2368     		ldr	r3, [r4]
 2170 00ac 6A49     		ldr	r1, .L208
 2171 00ae 6B4A     		ldr	r2, .L208+4
 2172 00b0 9342     		cmp	r3, r2
 2173 00b2 18BF     		it	ne
 2174 00b4 8B42     		cmpne	r3, r1
 2175 00b6 42D0     		beq	.L194
 2176 00b8 1832     		adds	r2, r2, #24
 2177 00ba 9342     		cmp	r3, r2
 2178 00bc 3FD0     		beq	.L194
 2179 00be 1832     		adds	r2, r2, #24
 2180 00c0 9342     		cmp	r3, r2
 2181 00c2 3CD0     		beq	.L194
ARM GAS  C:\Users\thewo\AppData\Local\Temp\ccgZg82m.s 			page 39


 2182 00c4 1832     		adds	r2, r2, #24
 2183 00c6 9342     		cmp	r3, r2
 2184 00c8 39D0     		beq	.L194
 2185 00ca 1832     		adds	r2, r2, #24
 2186 00cc 9342     		cmp	r3, r2
 2187 00ce 36D0     		beq	.L194
 2188 00d0 1832     		adds	r2, r2, #24
 2189 00d2 9342     		cmp	r3, r2
 2190 00d4 33D0     		beq	.L194
 2191 00d6 1832     		adds	r2, r2, #24
 2192 00d8 9342     		cmp	r3, r2
 2193 00da 30D0     		beq	.L194
 2194 00dc 02F55672 		add	r2, r2, #856
 2195 00e0 9342     		cmp	r3, r2
 2196 00e2 2CD0     		beq	.L194
 2197 00e4 1832     		adds	r2, r2, #24
 2198 00e6 9342     		cmp	r3, r2
 2199 00e8 29D0     		beq	.L194
 2200 00ea 1832     		adds	r2, r2, #24
 2201 00ec 9342     		cmp	r3, r2
 2202 00ee 26D0     		beq	.L194
 2203 00f0 1832     		adds	r2, r2, #24
 2204 00f2 9342     		cmp	r3, r2
 2205 00f4 23D0     		beq	.L194
 2206 00f6 1832     		adds	r2, r2, #24
 2207 00f8 9342     		cmp	r3, r2
 2208 00fa 20D0     		beq	.L194
 2209 00fc 1832     		adds	r2, r2, #24
 2210 00fe 9342     		cmp	r3, r2
 2211 0100 1DD0     		beq	.L194
 2212 0102 1832     		adds	r2, r2, #24
 2213 0104 9342     		cmp	r3, r2
 2214 0106 1AD0     		beq	.L194
 2215 0108 1832     		adds	r2, r2, #24
 2216 010a 9342     		cmp	r3, r2
 2217 010c 17D0     		beq	.L194
 2218 010e 544A     		ldr	r2, .L208+8
 2219 0110 9342     		cmp	r3, r2
 2220 0112 14D0     		beq	.L194
 2221 0114 1432     		adds	r2, r2, #20
 2222 0116 9342     		cmp	r3, r2
 2223 0118 11D0     		beq	.L194
 2224 011a 1432     		adds	r2, r2, #20
 2225 011c 9342     		cmp	r3, r2
 2226 011e 0ED0     		beq	.L194
 2227 0120 1432     		adds	r2, r2, #20
 2228 0122 9342     		cmp	r3, r2
 2229 0124 0BD0     		beq	.L194
 2230 0126 1432     		adds	r2, r2, #20
 2231 0128 9342     		cmp	r3, r2
 2232 012a 08D0     		beq	.L194
 2233 012c 1432     		adds	r2, r2, #20
 2234 012e 9342     		cmp	r3, r2
 2235 0130 05D0     		beq	.L194
 2236 0132 1432     		adds	r2, r2, #20
 2237 0134 9342     		cmp	r3, r2
 2238 0136 02D0     		beq	.L194
ARM GAS  C:\Users\thewo\AppData\Local\Temp\ccgZg82m.s 			page 40


 2239 0138 1432     		adds	r2, r2, #20
 2240 013a 9342     		cmp	r3, r2
 2241 013c 04D1     		bne	.L195
 2242              	.L194:
 2243 013e 226E     		ldr	r2, [r4, #96]
 2244 0140 1368     		ldr	r3, [r2]
 2245 0142 23F48073 		bic	r3, r3, #256
 2246 0146 1360     		str	r3, [r2]
 2247              	.L195:
 2248 0148 2368     		ldr	r3, [r4]
 2249 014a 4349     		ldr	r1, .L208
 2250 014c 434A     		ldr	r2, .L208+4
 2251 014e 9342     		cmp	r3, r2
 2252 0150 18BF     		it	ne
 2253 0152 8B42     		cmpne	r3, r1
 2254 0154 2FD0     		beq	.L196
 2255 0156 1832     		adds	r2, r2, #24
 2256 0158 9342     		cmp	r3, r2
 2257 015a 2CD0     		beq	.L196
 2258 015c 1832     		adds	r2, r2, #24
 2259 015e 9342     		cmp	r3, r2
 2260 0160 29D0     		beq	.L196
 2261 0162 1832     		adds	r2, r2, #24
 2262 0164 9342     		cmp	r3, r2
 2263 0166 26D0     		beq	.L196
 2264 0168 1832     		adds	r2, r2, #24
 2265 016a 9342     		cmp	r3, r2
 2266 016c 23D0     		beq	.L196
 2267 016e 1832     		adds	r2, r2, #24
 2268 0170 9342     		cmp	r3, r2
 2269 0172 20D0     		beq	.L196
 2270 0174 1832     		adds	r2, r2, #24
 2271 0176 9342     		cmp	r3, r2
 2272 0178 1DD0     		beq	.L196
 2273 017a 02F55672 		add	r2, r2, #856
 2274 017e 9342     		cmp	r3, r2
 2275 0180 19D0     		beq	.L196
 2276 0182 1832     		adds	r2, r2, #24
 2277 0184 9342     		cmp	r3, r2
 2278 0186 16D0     		beq	.L196
 2279 0188 1832     		adds	r2, r2, #24
 2280 018a 9342     		cmp	r3, r2
 2281 018c 13D0     		beq	.L196
 2282 018e 1832     		adds	r2, r2, #24
 2283 0190 9342     		cmp	r3, r2
 2284 0192 10D0     		beq	.L196
 2285 0194 1832     		adds	r2, r2, #24
 2286 0196 9342     		cmp	r3, r2
 2287 0198 0DD0     		beq	.L196
 2288 019a 1832     		adds	r2, r2, #24
 2289 019c 9342     		cmp	r3, r2
 2290 019e 0AD0     		beq	.L196
 2291 01a0 1832     		adds	r2, r2, #24
 2292 01a2 9342     		cmp	r3, r2
 2293 01a4 07D0     		beq	.L196
 2294 01a6 1832     		adds	r2, r2, #24
 2295 01a8 9342     		cmp	r3, r2
ARM GAS  C:\Users\thewo\AppData\Local\Temp\ccgZg82m.s 			page 41


 2296 01aa 04D0     		beq	.L196
 2297 01ac 1A68     		ldr	r2, [r3]
 2298 01ae 22F00102 		bic	r2, r2, #1
 2299 01b2 1A60     		str	r2, [r3]
 2300 01b4 03E0     		b	.L199
 2301              	.L196:
 2302 01b6 1A68     		ldr	r2, [r3]
 2303 01b8 22F00102 		bic	r2, r2, #1
 2304 01bc 1A60     		str	r2, [r3]
 2305              	.L199:
 2306 01be 3368     		ldr	r3, [r6]
 2307 01c0 13F0010F 		tst	r3, #1
 2308 01c4 0ED0     		beq	.L207
 2309 01c6 FFF7FEFF 		bl	HAL_GetTick
 2310 01ca 431B     		subs	r3, r0, r5
 2311 01cc 052B     		cmp	r3, #5
 2312 01ce F6D9     		bls	.L199
 2313 01d0 2023     		movs	r3, #32
 2314 01d2 6365     		str	r3, [r4, #84]
 2315 01d4 0323     		movs	r3, #3
 2316 01d6 84F83530 		strb	r3, [r4, #53]
 2317 01da 0023     		movs	r3, #0
 2318 01dc 84F83430 		strb	r3, [r4, #52]
 2319 01e0 0120     		movs	r0, #1
 2320 01e2 1FE7     		b	.L190
 2321              	.L207:
 2322 01e4 2368     		ldr	r3, [r4]
 2323 01e6 1C49     		ldr	r1, .L208
 2324 01e8 1C4A     		ldr	r2, .L208+4
 2325 01ea 9342     		cmp	r3, r2
 2326 01ec 18BF     		it	ne
 2327 01ee 8B42     		cmpne	r3, r1
 2328 01f0 38D0     		beq	.L201
 2329 01f2 1832     		adds	r2, r2, #24
 2330 01f4 9342     		cmp	r3, r2
 2331 01f6 35D0     		beq	.L201
 2332 01f8 1832     		adds	r2, r2, #24
 2333 01fa 9342     		cmp	r3, r2
 2334 01fc 32D0     		beq	.L201
 2335 01fe 1832     		adds	r2, r2, #24
 2336 0200 9342     		cmp	r3, r2
 2337 0202 2FD0     		beq	.L201
 2338 0204 1832     		adds	r2, r2, #24
 2339 0206 9342     		cmp	r3, r2
 2340 0208 2CD0     		beq	.L201
 2341 020a 1832     		adds	r2, r2, #24
 2342 020c 9342     		cmp	r3, r2
 2343 020e 29D0     		beq	.L201
 2344 0210 1832     		adds	r2, r2, #24
 2345 0212 9342     		cmp	r3, r2
 2346 0214 26D0     		beq	.L201
 2347 0216 02F55672 		add	r2, r2, #856
 2348 021a 9342     		cmp	r3, r2
 2349 021c 22D0     		beq	.L201
 2350 021e 1832     		adds	r2, r2, #24
 2351 0220 9342     		cmp	r3, r2
 2352 0222 1FD0     		beq	.L201
ARM GAS  C:\Users\thewo\AppData\Local\Temp\ccgZg82m.s 			page 42


 2353 0224 1832     		adds	r2, r2, #24
 2354 0226 9342     		cmp	r3, r2
 2355 0228 1CD0     		beq	.L201
 2356 022a 1832     		adds	r2, r2, #24
 2357 022c 9342     		cmp	r3, r2
 2358 022e 19D0     		beq	.L201
 2359 0230 1832     		adds	r2, r2, #24
 2360 0232 9342     		cmp	r3, r2
 2361 0234 16D0     		beq	.L201
 2362 0236 1832     		adds	r2, r2, #24
 2363 0238 9342     		cmp	r3, r2
 2364 023a 13D0     		beq	.L201
 2365 023c 1832     		adds	r2, r2, #24
 2366 023e 9342     		cmp	r3, r2
 2367 0240 10D0     		beq	.L201
 2368 0242 1832     		adds	r2, r2, #24
 2369 0244 9342     		cmp	r3, r2
 2370 0246 0DD0     		beq	.L201
 2371 0248 A16D     		ldr	r1, [r4, #88]
 2372 024a E36D     		ldr	r3, [r4, #92]
 2373 024c 03F01F02 		and	r2, r3, #31
 2374 0250 0123     		movs	r3, #1
 2375 0252 9340     		lsls	r3, r3, r2
 2376 0254 4B60     		str	r3, [r1, #4]
 2377 0256 0CE0     		b	.L202
 2378              	.L209:
 2379              		.align	2
 2380              	.L208:
 2381 0258 10000240 		.word	1073872912
 2382 025c 28000240 		.word	1073872936
 2383 0260 08540258 		.word	1476547592
 2384              	.L201:
 2385 0264 A16D     		ldr	r1, [r4, #88]
 2386 0266 E36D     		ldr	r3, [r4, #92]
 2387 0268 03F01F02 		and	r2, r3, #31
 2388 026c 3F23     		movs	r3, #63
 2389 026e 9340     		lsls	r3, r3, r2
 2390 0270 8B60     		str	r3, [r1, #8]
 2391              	.L202:
 2392 0272 2368     		ldr	r3, [r4]
 2393 0274 2E49     		ldr	r1, .L210
 2394 0276 2F4A     		ldr	r2, .L210+4
 2395 0278 9342     		cmp	r3, r2
 2396 027a 18BF     		it	ne
 2397 027c 8B42     		cmpne	r3, r1
 2398 027e 42D0     		beq	.L203
 2399 0280 1832     		adds	r2, r2, #24
 2400 0282 9342     		cmp	r3, r2
 2401 0284 3FD0     		beq	.L203
 2402 0286 1832     		adds	r2, r2, #24
 2403 0288 9342     		cmp	r3, r2
 2404 028a 3CD0     		beq	.L203
 2405 028c 1832     		adds	r2, r2, #24
 2406 028e 9342     		cmp	r3, r2
 2407 0290 39D0     		beq	.L203
 2408 0292 1832     		adds	r2, r2, #24
 2409 0294 9342     		cmp	r3, r2
ARM GAS  C:\Users\thewo\AppData\Local\Temp\ccgZg82m.s 			page 43


 2410 0296 36D0     		beq	.L203
 2411 0298 1832     		adds	r2, r2, #24
 2412 029a 9342     		cmp	r3, r2
 2413 029c 33D0     		beq	.L203
 2414 029e 1832     		adds	r2, r2, #24
 2415 02a0 9342     		cmp	r3, r2
 2416 02a2 30D0     		beq	.L203
 2417 02a4 02F55672 		add	r2, r2, #856
 2418 02a8 9342     		cmp	r3, r2
 2419 02aa 2CD0     		beq	.L203
 2420 02ac 1832     		adds	r2, r2, #24
 2421 02ae 9342     		cmp	r3, r2
 2422 02b0 29D0     		beq	.L203
 2423 02b2 1832     		adds	r2, r2, #24
 2424 02b4 9342     		cmp	r3, r2
 2425 02b6 26D0     		beq	.L203
 2426 02b8 1832     		adds	r2, r2, #24
 2427 02ba 9342     		cmp	r3, r2
 2428 02bc 23D0     		beq	.L203
 2429 02be 1832     		adds	r2, r2, #24
 2430 02c0 9342     		cmp	r3, r2
 2431 02c2 20D0     		beq	.L203
 2432 02c4 1832     		adds	r2, r2, #24
 2433 02c6 9342     		cmp	r3, r2
 2434 02c8 1DD0     		beq	.L203
 2435 02ca 1832     		adds	r2, r2, #24
 2436 02cc 9342     		cmp	r3, r2
 2437 02ce 1AD0     		beq	.L203
 2438 02d0 1832     		adds	r2, r2, #24
 2439 02d2 9342     		cmp	r3, r2
 2440 02d4 17D0     		beq	.L203
 2441 02d6 184A     		ldr	r2, .L210+8
 2442 02d8 9342     		cmp	r3, r2
 2443 02da 14D0     		beq	.L203
 2444 02dc 1432     		adds	r2, r2, #20
 2445 02de 9342     		cmp	r3, r2
 2446 02e0 11D0     		beq	.L203
 2447 02e2 1432     		adds	r2, r2, #20
 2448 02e4 9342     		cmp	r3, r2
 2449 02e6 0ED0     		beq	.L203
 2450 02e8 1432     		adds	r2, r2, #20
 2451 02ea 9342     		cmp	r3, r2
 2452 02ec 0BD0     		beq	.L203
 2453 02ee 1432     		adds	r2, r2, #20
 2454 02f0 9342     		cmp	r3, r2
 2455 02f2 08D0     		beq	.L203
 2456 02f4 1432     		adds	r2, r2, #20
 2457 02f6 9342     		cmp	r3, r2
 2458 02f8 05D0     		beq	.L203
 2459 02fa 1432     		adds	r2, r2, #20
 2460 02fc 9342     		cmp	r3, r2
 2461 02fe 02D0     		beq	.L203
 2462 0300 1432     		adds	r2, r2, #20
 2463 0302 9342     		cmp	r3, r2
 2464 0304 0BD1     		bne	.L204
 2465              	.L203:
 2466 0306 636E     		ldr	r3, [r4, #100]
ARM GAS  C:\Users\thewo\AppData\Local\Temp\ccgZg82m.s 			page 44


 2467 0308 A26E     		ldr	r2, [r4, #104]
 2468 030a 5A60     		str	r2, [r3, #4]
 2469 030c E36E     		ldr	r3, [r4, #108]
 2470 030e 33B1     		cbz	r3, .L204
 2471 0310 1A68     		ldr	r2, [r3]
 2472 0312 22F48072 		bic	r2, r2, #256
 2473 0316 1A60     		str	r2, [r3]
 2474 0318 236F     		ldr	r3, [r4, #112]
 2475 031a 626F     		ldr	r2, [r4, #116]
 2476 031c 5A60     		str	r2, [r3, #4]
 2477              	.L204:
 2478 031e 0123     		movs	r3, #1
 2479 0320 84F83530 		strb	r3, [r4, #53]
 2480 0324 0020     		movs	r0, #0
 2481 0326 84F83400 		strb	r0, [r4, #52]
 2482 032a 7BE6     		b	.L190
 2483              	.L205:
 2484 032c 0120     		movs	r0, #1
 2485 032e 79E6     		b	.L190
 2486              	.L211:
 2487              		.align	2
 2488              	.L210:
 2489 0330 10000240 		.word	1073872912
 2490 0334 28000240 		.word	1073872936
 2491 0338 08540258 		.word	1476547592
 2493              		.section	.text.HAL_DMA_Abort_IT,"ax",%progbits
 2494              		.align	1
 2495              		.global	HAL_DMA_Abort_IT
 2496              		.syntax unified
 2497              		.thumb
 2498              		.thumb_func
 2500              	HAL_DMA_Abort_IT:
 2501              		@ args = 0, pretend = 0, frame = 0
 2502              		@ frame_needed = 0, uses_anonymous_args = 0
 2503 0000 0028     		cmp	r0, #0
 2504 0002 00F02781 		beq	.L224
 2505 0006 08B5     		push	{r3, lr}
 2506 0008 0246     		mov	r2, r0
 2507 000a 90F83530 		ldrb	r3, [r0, #53]	@ zero_extendqisi2
 2508 000e 022B     		cmp	r3, #2
 2509 0010 03D0     		beq	.L214
 2510 0012 8023     		movs	r3, #128
 2511 0014 4365     		str	r3, [r0, #84]
 2512 0016 0120     		movs	r0, #1
 2513              	.L213:
 2514 0018 08BD     		pop	{r3, pc}
 2515              	.L214:
 2516 001a 0368     		ldr	r3, [r0]
 2517 001c 8F48     		ldr	r0, .L231
 2518 001e 9049     		ldr	r1, .L231+4
 2519 0020 8B42     		cmp	r3, r1
 2520 0022 18BF     		it	ne
 2521 0024 8342     		cmpne	r3, r0
 2522 0026 0CBF     		ite	eq
 2523 0028 0120     		moveq	r0, #1
 2524 002a 0020     		movne	r0, #0
 2525 002c 65D0     		beq	.L215
ARM GAS  C:\Users\thewo\AppData\Local\Temp\ccgZg82m.s 			page 45


 2526 002e 1831     		adds	r1, r1, #24
 2527 0030 8B42     		cmp	r3, r1
 2528 0032 62D0     		beq	.L215
 2529 0034 1831     		adds	r1, r1, #24
 2530 0036 8B42     		cmp	r3, r1
 2531 0038 5FD0     		beq	.L215
 2532 003a 1831     		adds	r1, r1, #24
 2533 003c 8B42     		cmp	r3, r1
 2534 003e 5CD0     		beq	.L215
 2535 0040 1831     		adds	r1, r1, #24
 2536 0042 8B42     		cmp	r3, r1
 2537 0044 59D0     		beq	.L215
 2538 0046 1831     		adds	r1, r1, #24
 2539 0048 8B42     		cmp	r3, r1
 2540 004a 56D0     		beq	.L215
 2541 004c 1831     		adds	r1, r1, #24
 2542 004e 8B42     		cmp	r3, r1
 2543 0050 53D0     		beq	.L215
 2544 0052 01F55671 		add	r1, r1, #856
 2545 0056 8B42     		cmp	r3, r1
 2546 0058 4FD0     		beq	.L215
 2547 005a 1831     		adds	r1, r1, #24
 2548 005c 8B42     		cmp	r3, r1
 2549 005e 4CD0     		beq	.L215
 2550 0060 1831     		adds	r1, r1, #24
 2551 0062 8B42     		cmp	r3, r1
 2552 0064 49D0     		beq	.L215
 2553 0066 1831     		adds	r1, r1, #24
 2554 0068 8B42     		cmp	r3, r1
 2555 006a 46D0     		beq	.L215
 2556 006c 1831     		adds	r1, r1, #24
 2557 006e 8B42     		cmp	r3, r1
 2558 0070 43D0     		beq	.L215
 2559 0072 1831     		adds	r1, r1, #24
 2560 0074 8B42     		cmp	r3, r1
 2561 0076 40D0     		beq	.L215
 2562 0078 1831     		adds	r1, r1, #24
 2563 007a 8B42     		cmp	r3, r1
 2564 007c 3DD0     		beq	.L215
 2565 007e 1831     		adds	r1, r1, #24
 2566 0080 8B42     		cmp	r3, r1
 2567 0082 3AD0     		beq	.L215
 2568 0084 1968     		ldr	r1, [r3]
 2569 0086 21F00E01 		bic	r1, r1, #14
 2570 008a 1960     		str	r1, [r3]
 2571 008c 1368     		ldr	r3, [r2]
 2572 008e 7348     		ldr	r0, .L231
 2573 0090 7349     		ldr	r1, .L231+4
 2574 0092 8B42     		cmp	r3, r1
 2575 0094 18BF     		it	ne
 2576 0096 8342     		cmpne	r3, r0
 2577 0098 6AD0     		beq	.L216
 2578 009a 7249     		ldr	r1, .L231+8
 2579 009c 8B42     		cmp	r3, r1
 2580 009e 67D0     		beq	.L216
 2581 00a0 1831     		adds	r1, r1, #24
 2582 00a2 8B42     		cmp	r3, r1
ARM GAS  C:\Users\thewo\AppData\Local\Temp\ccgZg82m.s 			page 46


 2583 00a4 64D0     		beq	.L216
 2584 00a6 1831     		adds	r1, r1, #24
 2585 00a8 8B42     		cmp	r3, r1
 2586 00aa 61D0     		beq	.L216
 2587 00ac 1831     		adds	r1, r1, #24
 2588 00ae 8B42     		cmp	r3, r1
 2589 00b0 5ED0     		beq	.L216
 2590 00b2 1831     		adds	r1, r1, #24
 2591 00b4 8B42     		cmp	r3, r1
 2592 00b6 5BD0     		beq	.L216
 2593 00b8 1831     		adds	r1, r1, #24
 2594 00ba 8B42     		cmp	r3, r1
 2595 00bc 58D0     		beq	.L216
 2596 00be 01F55671 		add	r1, r1, #856
 2597 00c2 8B42     		cmp	r3, r1
 2598 00c4 54D0     		beq	.L216
 2599 00c6 1831     		adds	r1, r1, #24
 2600 00c8 8B42     		cmp	r3, r1
 2601 00ca 51D0     		beq	.L216
 2602 00cc 1831     		adds	r1, r1, #24
 2603 00ce 8B42     		cmp	r3, r1
 2604 00d0 4ED0     		beq	.L216
 2605 00d2 1831     		adds	r1, r1, #24
 2606 00d4 8B42     		cmp	r3, r1
 2607 00d6 4BD0     		beq	.L216
 2608 00d8 1831     		adds	r1, r1, #24
 2609 00da 8B42     		cmp	r3, r1
 2610 00dc 48D0     		beq	.L216
 2611 00de 1831     		adds	r1, r1, #24
 2612 00e0 8B42     		cmp	r3, r1
 2613 00e2 45D0     		beq	.L216
 2614 00e4 1831     		adds	r1, r1, #24
 2615 00e6 8B42     		cmp	r3, r1
 2616 00e8 42D0     		beq	.L216
 2617 00ea 1831     		adds	r1, r1, #24
 2618 00ec 8B42     		cmp	r3, r1
 2619 00ee 3FD0     		beq	.L216
 2620 00f0 1968     		ldr	r1, [r3]
 2621 00f2 21F00101 		bic	r1, r1, #1
 2622 00f6 1960     		str	r1, [r3]
 2623 00f8 3EE0     		b	.L221
 2624              	.L215:
 2625 00fa 0421     		movs	r1, #4
 2626 00fc 82F83510 		strb	r1, [r2, #53]
 2627 0100 80BB     		cbnz	r0, .L218
 2628 0102 584A     		ldr	r2, .L231+8
 2629 0104 9342     		cmp	r3, r2
 2630 0106 2DD0     		beq	.L218
 2631 0108 1832     		adds	r2, r2, #24
 2632 010a 9342     		cmp	r3, r2
 2633 010c 2AD0     		beq	.L218
 2634 010e 1832     		adds	r2, r2, #24
 2635 0110 9342     		cmp	r3, r2
 2636 0112 27D0     		beq	.L218
 2637 0114 1832     		adds	r2, r2, #24
 2638 0116 9342     		cmp	r3, r2
 2639 0118 24D0     		beq	.L218
ARM GAS  C:\Users\thewo\AppData\Local\Temp\ccgZg82m.s 			page 47


 2640 011a 1832     		adds	r2, r2, #24
 2641 011c 9342     		cmp	r3, r2
 2642 011e 21D0     		beq	.L218
 2643 0120 1832     		adds	r2, r2, #24
 2644 0122 9342     		cmp	r3, r2
 2645 0124 1ED0     		beq	.L218
 2646 0126 02F55672 		add	r2, r2, #856
 2647 012a 9342     		cmp	r3, r2
 2648 012c 1AD0     		beq	.L218
 2649 012e 1832     		adds	r2, r2, #24
 2650 0130 9342     		cmp	r3, r2
 2651 0132 17D0     		beq	.L218
 2652 0134 1832     		adds	r2, r2, #24
 2653 0136 9342     		cmp	r3, r2
 2654 0138 14D0     		beq	.L218
 2655 013a 1832     		adds	r2, r2, #24
 2656 013c 9342     		cmp	r3, r2
 2657 013e 11D0     		beq	.L218
 2658 0140 1832     		adds	r2, r2, #24
 2659 0142 9342     		cmp	r3, r2
 2660 0144 0ED0     		beq	.L218
 2661 0146 1832     		adds	r2, r2, #24
 2662 0148 9342     		cmp	r3, r2
 2663 014a 0BD0     		beq	.L218
 2664 014c 1832     		adds	r2, r2, #24
 2665 014e 9342     		cmp	r3, r2
 2666 0150 08D0     		beq	.L218
 2667 0152 1832     		adds	r2, r2, #24
 2668 0154 9342     		cmp	r3, r2
 2669 0156 05D0     		beq	.L218
 2670 0158 1A68     		ldr	r2, [r3]
 2671 015a 22F00102 		bic	r2, r2, #1
 2672 015e 1A60     		str	r2, [r3]
 2673 0160 0020     		movs	r0, #0
 2674 0162 59E7     		b	.L213
 2675              	.L218:
 2676 0164 1A68     		ldr	r2, [r3]
 2677 0166 22F00102 		bic	r2, r2, #1
 2678 016a 1A60     		str	r2, [r3]
 2679 016c 0020     		movs	r0, #0
 2680 016e 53E7     		b	.L213
 2681              	.L216:
 2682 0170 1968     		ldr	r1, [r3]
 2683 0172 21F00101 		bic	r1, r1, #1
 2684 0176 1960     		str	r1, [r3]
 2685              	.L221:
 2686 0178 1368     		ldr	r3, [r2]
 2687 017a 3848     		ldr	r0, .L231
 2688 017c 3849     		ldr	r1, .L231+4
 2689 017e 8B42     		cmp	r3, r1
 2690 0180 18BF     		it	ne
 2691 0182 8342     		cmpne	r3, r0
 2692 0184 42D0     		beq	.L222
 2693 0186 1831     		adds	r1, r1, #24
 2694 0188 8B42     		cmp	r3, r1
 2695 018a 3FD0     		beq	.L222
 2696 018c 1831     		adds	r1, r1, #24
ARM GAS  C:\Users\thewo\AppData\Local\Temp\ccgZg82m.s 			page 48


 2697 018e 8B42     		cmp	r3, r1
 2698 0190 3CD0     		beq	.L222
 2699 0192 1831     		adds	r1, r1, #24
 2700 0194 8B42     		cmp	r3, r1
 2701 0196 39D0     		beq	.L222
 2702 0198 1831     		adds	r1, r1, #24
 2703 019a 8B42     		cmp	r3, r1
 2704 019c 36D0     		beq	.L222
 2705 019e 1831     		adds	r1, r1, #24
 2706 01a0 8B42     		cmp	r3, r1
 2707 01a2 33D0     		beq	.L222
 2708 01a4 1831     		adds	r1, r1, #24
 2709 01a6 8B42     		cmp	r3, r1
 2710 01a8 30D0     		beq	.L222
 2711 01aa 01F55671 		add	r1, r1, #856
 2712 01ae 8B42     		cmp	r3, r1
 2713 01b0 2CD0     		beq	.L222
 2714 01b2 1831     		adds	r1, r1, #24
 2715 01b4 8B42     		cmp	r3, r1
 2716 01b6 29D0     		beq	.L222
 2717 01b8 1831     		adds	r1, r1, #24
 2718 01ba 8B42     		cmp	r3, r1
 2719 01bc 26D0     		beq	.L222
 2720 01be 1831     		adds	r1, r1, #24
 2721 01c0 8B42     		cmp	r3, r1
 2722 01c2 23D0     		beq	.L222
 2723 01c4 1831     		adds	r1, r1, #24
 2724 01c6 8B42     		cmp	r3, r1
 2725 01c8 20D0     		beq	.L222
 2726 01ca 1831     		adds	r1, r1, #24
 2727 01cc 8B42     		cmp	r3, r1
 2728 01ce 1DD0     		beq	.L222
 2729 01d0 1831     		adds	r1, r1, #24
 2730 01d2 8B42     		cmp	r3, r1
 2731 01d4 1AD0     		beq	.L222
 2732 01d6 1831     		adds	r1, r1, #24
 2733 01d8 8B42     		cmp	r3, r1
 2734 01da 17D0     		beq	.L222
 2735 01dc 2249     		ldr	r1, .L231+12
 2736 01de 8B42     		cmp	r3, r1
 2737 01e0 14D0     		beq	.L222
 2738 01e2 1431     		adds	r1, r1, #20
 2739 01e4 8B42     		cmp	r3, r1
 2740 01e6 11D0     		beq	.L222
 2741 01e8 1431     		adds	r1, r1, #20
 2742 01ea 8B42     		cmp	r3, r1
 2743 01ec 0ED0     		beq	.L222
 2744 01ee 1431     		adds	r1, r1, #20
 2745 01f0 8B42     		cmp	r3, r1
 2746 01f2 0BD0     		beq	.L222
 2747 01f4 1431     		adds	r1, r1, #20
 2748 01f6 8B42     		cmp	r3, r1
 2749 01f8 08D0     		beq	.L222
 2750 01fa 1431     		adds	r1, r1, #20
 2751 01fc 8B42     		cmp	r3, r1
 2752 01fe 05D0     		beq	.L222
 2753 0200 1431     		adds	r1, r1, #20
ARM GAS  C:\Users\thewo\AppData\Local\Temp\ccgZg82m.s 			page 49


 2754 0202 8B42     		cmp	r3, r1
 2755 0204 02D0     		beq	.L222
 2756 0206 1431     		adds	r1, r1, #20
 2757 0208 8B42     		cmp	r3, r1
 2758 020a 17D1     		bne	.L223
 2759              	.L222:
 2760 020c 116E     		ldr	r1, [r2, #96]
 2761 020e 0B68     		ldr	r3, [r1]
 2762 0210 23F48073 		bic	r3, r3, #256
 2763 0214 0B60     		str	r3, [r1]
 2764 0216 906D     		ldr	r0, [r2, #88]
 2765 0218 D36D     		ldr	r3, [r2, #92]
 2766 021a 03F01F01 		and	r1, r3, #31
 2767 021e 0123     		movs	r3, #1
 2768 0220 8B40     		lsls	r3, r3, r1
 2769 0222 4360     		str	r3, [r0, #4]
 2770 0224 536E     		ldr	r3, [r2, #100]
 2771 0226 916E     		ldr	r1, [r2, #104]
 2772 0228 5960     		str	r1, [r3, #4]
 2773 022a D36E     		ldr	r3, [r2, #108]
 2774 022c 33B1     		cbz	r3, .L223
 2775 022e 1968     		ldr	r1, [r3]
 2776 0230 21F48071 		bic	r1, r1, #256
 2777 0234 1960     		str	r1, [r3]
 2778 0236 136F     		ldr	r3, [r2, #112]
 2779 0238 516F     		ldr	r1, [r2, #116]
 2780 023a 5960     		str	r1, [r3, #4]
 2781              	.L223:
 2782 023c 0123     		movs	r3, #1
 2783 023e 82F83530 		strb	r3, [r2, #53]
 2784 0242 0023     		movs	r3, #0
 2785 0244 82F83430 		strb	r3, [r2, #52]
 2786 0248 136D     		ldr	r3, [r2, #80]
 2787 024a 2BB1     		cbz	r3, .L225
 2788 024c 1046     		mov	r0, r2
 2789 024e 9847     		blx	r3
 2790 0250 0020     		movs	r0, #0
 2791 0252 E1E6     		b	.L213
 2792              	.L224:
 2793 0254 0120     		movs	r0, #1
 2794 0256 7047     		bx	lr
 2795              	.L225:
 2796 0258 0020     		movs	r0, #0
 2797 025a DDE6     		b	.L213
 2798              	.L232:
 2799              		.align	2
 2800              	.L231:
 2801 025c 10000240 		.word	1073872912
 2802 0260 28000240 		.word	1073872936
 2803 0264 40000240 		.word	1073872960
 2804 0268 08540258 		.word	1476547592
 2806              		.section	.text.HAL_DMA_PollForTransfer,"ax",%progbits
 2807              		.align	1
 2808              		.global	HAL_DMA_PollForTransfer
 2809              		.syntax unified
 2810              		.thumb
 2811              		.thumb_func
ARM GAS  C:\Users\thewo\AppData\Local\Temp\ccgZg82m.s 			page 50


 2813              	HAL_DMA_PollForTransfer:
 2814              		@ args = 0, pretend = 0, frame = 0
 2815              		@ frame_needed = 0, uses_anonymous_args = 0
 2816 0000 2DE9F047 		push	{r4, r5, r6, r7, r8, r9, r10, lr}
 2817 0004 0446     		mov	r4, r0
 2818 0006 0F46     		mov	r7, r1
 2819 0008 1646     		mov	r6, r2
 2820 000a FFF7FEFF 		bl	HAL_GetTick
 2821 000e 002C     		cmp	r4, #0
 2822 0010 00F01882 		beq	.L261
 2823 0014 8246     		mov	r10, r0
 2824 0016 94F83530 		ldrb	r3, [r4, #53]	@ zero_extendqisi2
 2825 001a 022B     		cmp	r3, #2
 2826 001c 07D0     		beq	.L235
 2827 001e 8023     		movs	r3, #128
 2828 0020 6365     		str	r3, [r4, #84]
 2829 0022 0023     		movs	r3, #0
 2830 0024 84F83430 		strb	r3, [r4, #52]
 2831 0028 0120     		movs	r0, #1
 2832              	.L234:
 2833 002a BDE8F087 		pop	{r4, r5, r6, r7, r8, r9, r10, pc}
 2834              	.L235:
 2835 002e 2368     		ldr	r3, [r4]
 2836 0030 3649     		ldr	r1, .L269
 2837 0032 374A     		ldr	r2, .L269+4
 2838 0034 9342     		cmp	r3, r2
 2839 0036 18BF     		it	ne
 2840 0038 8B42     		cmpne	r3, r1
 2841 003a 3BD0     		beq	.L236
 2842 003c 1832     		adds	r2, r2, #24
 2843 003e 9342     		cmp	r3, r2
 2844 0040 38D0     		beq	.L236
 2845 0042 1832     		adds	r2, r2, #24
 2846 0044 9342     		cmp	r3, r2
 2847 0046 35D0     		beq	.L236
 2848 0048 1832     		adds	r2, r2, #24
 2849 004a 9342     		cmp	r3, r2
 2850 004c 32D0     		beq	.L236
 2851 004e 1832     		adds	r2, r2, #24
 2852 0050 9342     		cmp	r3, r2
 2853 0052 2FD0     		beq	.L236
 2854 0054 1832     		adds	r2, r2, #24
 2855 0056 9342     		cmp	r3, r2
 2856 0058 2CD0     		beq	.L236
 2857 005a 1832     		adds	r2, r2, #24
 2858 005c 9342     		cmp	r3, r2
 2859 005e 29D0     		beq	.L236
 2860 0060 02F55672 		add	r2, r2, #856
 2861 0064 9342     		cmp	r3, r2
 2862 0066 25D0     		beq	.L236
 2863 0068 1832     		adds	r2, r2, #24
 2864 006a 9342     		cmp	r3, r2
 2865 006c 22D0     		beq	.L236
 2866 006e 1832     		adds	r2, r2, #24
 2867 0070 9342     		cmp	r3, r2
 2868 0072 1FD0     		beq	.L236
 2869 0074 1832     		adds	r2, r2, #24
ARM GAS  C:\Users\thewo\AppData\Local\Temp\ccgZg82m.s 			page 51


 2870 0076 9342     		cmp	r3, r2
 2871 0078 1CD0     		beq	.L236
 2872 007a 1832     		adds	r2, r2, #24
 2873 007c 9342     		cmp	r3, r2
 2874 007e 19D0     		beq	.L236
 2875 0080 1832     		adds	r2, r2, #24
 2876 0082 9342     		cmp	r3, r2
 2877 0084 16D0     		beq	.L236
 2878 0086 1832     		adds	r2, r2, #24
 2879 0088 9342     		cmp	r3, r2
 2880 008a 13D0     		beq	.L236
 2881 008c 1832     		adds	r2, r2, #24
 2882 008e 9342     		cmp	r3, r2
 2883 0090 10D0     		beq	.L236
 2884 0092 1B68     		ldr	r3, [r3]
 2885 0094 13F0200F 		tst	r3, #32
 2886 0098 2AD1     		bne	.L264
 2887 009a 77BB     		cbnz	r7, .L243
 2888 009c E36D     		ldr	r3, [r4, #92]
 2889 009e 03F01F03 		and	r3, r3, #31
 2890 00a2 4FF00209 		mov	r9, #2
 2891 00a6 09FA03F9 		lsl	r9, r9, r3
 2892              	.L244:
 2893 00aa A36D     		ldr	r3, [r4, #88]
 2894 00ac 1D46     		mov	r5, r3
 2895 00ae 03F10408 		add	r8, r3, #4
 2896 00b2 BBE0     		b	.L255
 2897              	.L236:
 2898 00b4 1B68     		ldr	r3, [r3]
 2899 00b6 13F4807F 		tst	r3, #256
 2900 00ba 0CD1     		bne	.L265
 2901 00bc 87B9     		cbnz	r7, .L240
 2902 00be E36D     		ldr	r3, [r4, #92]
 2903 00c0 03F01F03 		and	r3, r3, #31
 2904 00c4 4FF02009 		mov	r9, #32
 2905 00c8 09FA03F9 		lsl	r9, r9, r3
 2906              	.L241:
 2907 00cc A36D     		ldr	r3, [r4, #88]
 2908 00ce 1D46     		mov	r5, r3
 2909 00d0 03F10808 		add	r8, r3, #8
 2910 00d4 AAE0     		b	.L255
 2911              	.L265:
 2912 00d6 4FF48073 		mov	r3, #256
 2913 00da 6365     		str	r3, [r4, #84]
 2914 00dc 0120     		movs	r0, #1
 2915 00de A4E7     		b	.L234
 2916              	.L240:
 2917 00e0 E36D     		ldr	r3, [r4, #92]
 2918 00e2 03F01F03 		and	r3, r3, #31
 2919 00e6 4FF01009 		mov	r9, #16
 2920 00ea 09FA03F9 		lsl	r9, r9, r3
 2921 00ee EDE7     		b	.L241
 2922              	.L264:
 2923 00f0 4FF48073 		mov	r3, #256
 2924 00f4 6365     		str	r3, [r4, #84]
 2925 00f6 0120     		movs	r0, #1
 2926 00f8 97E7     		b	.L234
ARM GAS  C:\Users\thewo\AppData\Local\Temp\ccgZg82m.s 			page 52


 2927              	.L243:
 2928 00fa E36D     		ldr	r3, [r4, #92]
 2929 00fc 03F01F03 		and	r3, r3, #31
 2930 0100 4FF00409 		mov	r9, #4
 2931 0104 09FA03F9 		lsl	r9, r9, r3
 2932 0108 CFE7     		b	.L244
 2933              	.L270:
 2934 010a 00BF     		.align	2
 2935              	.L269:
 2936 010c 10000240 		.word	1073872912
 2937 0110 28000240 		.word	1073872936
 2938              	.L245:
 2939 0114 2A68     		ldr	r2, [r5]
 2940 0116 E36D     		ldr	r3, [r4, #92]
 2941 0118 03F01F03 		and	r3, r3, #31
 2942 011c DA40     		lsrs	r2, r2, r3
 2943 011e 12F0010F 		tst	r2, #1
 2944 0122 08D0     		beq	.L248
 2945 0124 626D     		ldr	r2, [r4, #84]
 2946 0126 42F00202 		orr	r2, r2, #2
 2947 012a 6265     		str	r2, [r4, #84]
 2948 012c 0122     		movs	r2, #1
 2949 012e 02FA03F3 		lsl	r3, r2, r3
 2950 0132 C8F80030 		str	r3, [r8]
 2951              	.L248:
 2952 0136 2968     		ldr	r1, [r5]
 2953 0138 E36D     		ldr	r3, [r4, #92]
 2954 013a 03F01F02 		and	r2, r3, #31
 2955 013e 0423     		movs	r3, #4
 2956 0140 9340     		lsls	r3, r3, r2
 2957 0142 1942     		tst	r1, r3
 2958 0144 05D0     		beq	.L249
 2959 0146 626D     		ldr	r2, [r4, #84]
 2960 0148 42F00402 		orr	r2, r2, #4
 2961 014c 6265     		str	r2, [r4, #84]
 2962 014e C8F80030 		str	r3, [r8]
 2963              	.L249:
 2964 0152 2968     		ldr	r1, [r5]
 2965 0154 E36D     		ldr	r3, [r4, #92]
 2966 0156 03F01F02 		and	r2, r3, #31
 2967 015a 0823     		movs	r3, #8
 2968 015c 9340     		lsls	r3, r3, r2
 2969 015e 1942     		tst	r1, r3
 2970 0160 40F0BD80 		bne	.L266
 2971              	.L247:
 2972 0164 B6F1FF3F 		cmp	r6, #-1
 2973 0168 40F0C680 		bne	.L267
 2974              	.L250:
 2975 016c 2368     		ldr	r3, [r4]
 2976 016e 9049     		ldr	r1, .L271
 2977 0170 904A     		ldr	r2, .L271+4
 2978 0172 9342     		cmp	r3, r2
 2979 0174 18BF     		it	ne
 2980 0176 8B42     		cmpne	r3, r1
 2981 0178 42D0     		beq	.L252
 2982 017a 1832     		adds	r2, r2, #24
 2983 017c 9342     		cmp	r3, r2
ARM GAS  C:\Users\thewo\AppData\Local\Temp\ccgZg82m.s 			page 53


 2984 017e 3FD0     		beq	.L252
 2985 0180 1832     		adds	r2, r2, #24
 2986 0182 9342     		cmp	r3, r2
 2987 0184 3CD0     		beq	.L252
 2988 0186 1832     		adds	r2, r2, #24
 2989 0188 9342     		cmp	r3, r2
 2990 018a 39D0     		beq	.L252
 2991 018c 1832     		adds	r2, r2, #24
 2992 018e 9342     		cmp	r3, r2
 2993 0190 36D0     		beq	.L252
 2994 0192 1832     		adds	r2, r2, #24
 2995 0194 9342     		cmp	r3, r2
 2996 0196 33D0     		beq	.L252
 2997 0198 1832     		adds	r2, r2, #24
 2998 019a 9342     		cmp	r3, r2
 2999 019c 30D0     		beq	.L252
 3000 019e 02F55672 		add	r2, r2, #856
 3001 01a2 9342     		cmp	r3, r2
 3002 01a4 2CD0     		beq	.L252
 3003 01a6 1832     		adds	r2, r2, #24
 3004 01a8 9342     		cmp	r3, r2
 3005 01aa 29D0     		beq	.L252
 3006 01ac 1832     		adds	r2, r2, #24
 3007 01ae 9342     		cmp	r3, r2
 3008 01b0 26D0     		beq	.L252
 3009 01b2 1832     		adds	r2, r2, #24
 3010 01b4 9342     		cmp	r3, r2
 3011 01b6 23D0     		beq	.L252
 3012 01b8 1832     		adds	r2, r2, #24
 3013 01ba 9342     		cmp	r3, r2
 3014 01bc 20D0     		beq	.L252
 3015 01be 1832     		adds	r2, r2, #24
 3016 01c0 9342     		cmp	r3, r2
 3017 01c2 1DD0     		beq	.L252
 3018 01c4 1832     		adds	r2, r2, #24
 3019 01c6 9342     		cmp	r3, r2
 3020 01c8 1AD0     		beq	.L252
 3021 01ca 1832     		adds	r2, r2, #24
 3022 01cc 9342     		cmp	r3, r2
 3023 01ce 17D0     		beq	.L252
 3024 01d0 794A     		ldr	r2, .L271+8
 3025 01d2 9342     		cmp	r3, r2
 3026 01d4 14D0     		beq	.L252
 3027 01d6 1432     		adds	r2, r2, #20
 3028 01d8 9342     		cmp	r3, r2
 3029 01da 11D0     		beq	.L252
 3030 01dc 1432     		adds	r2, r2, #20
 3031 01de 9342     		cmp	r3, r2
 3032 01e0 0ED0     		beq	.L252
 3033 01e2 1432     		adds	r2, r2, #20
 3034 01e4 9342     		cmp	r3, r2
 3035 01e6 0BD0     		beq	.L252
 3036 01e8 1432     		adds	r2, r2, #20
 3037 01ea 9342     		cmp	r3, r2
 3038 01ec 08D0     		beq	.L252
 3039 01ee 1432     		adds	r2, r2, #20
 3040 01f0 9342     		cmp	r3, r2
ARM GAS  C:\Users\thewo\AppData\Local\Temp\ccgZg82m.s 			page 54


 3041 01f2 05D0     		beq	.L252
 3042 01f4 1432     		adds	r2, r2, #20
 3043 01f6 9342     		cmp	r3, r2
 3044 01f8 02D0     		beq	.L252
 3045 01fa 1432     		adds	r2, r2, #20
 3046 01fc 9342     		cmp	r3, r2
 3047 01fe 15D1     		bne	.L255
 3048              	.L252:
 3049 0200 E36E     		ldr	r3, [r4, #108]
 3050 0202 4BB1     		cbz	r3, .L254
 3051 0204 236F     		ldr	r3, [r4, #112]
 3052 0206 1968     		ldr	r1, [r3]
 3053 0208 626F     		ldr	r2, [r4, #116]
 3054 020a 1142     		tst	r1, r2
 3055 020c 04D0     		beq	.L254
 3056 020e 5A60     		str	r2, [r3, #4]
 3057 0210 636D     		ldr	r3, [r4, #84]
 3058 0212 43F48063 		orr	r3, r3, #1024
 3059 0216 6365     		str	r3, [r4, #84]
 3060              	.L254:
 3061 0218 636E     		ldr	r3, [r4, #100]
 3062 021a 1968     		ldr	r1, [r3]
 3063 021c A26E     		ldr	r2, [r4, #104]
 3064 021e 1142     		tst	r1, r2
 3065 0220 04D0     		beq	.L255
 3066 0222 5A60     		str	r2, [r3, #4]
 3067 0224 636D     		ldr	r3, [r4, #84]
 3068 0226 43F40073 		orr	r3, r3, #512
 3069 022a 6365     		str	r3, [r4, #84]
 3070              	.L255:
 3071 022c 2B68     		ldr	r3, [r5]
 3072 022e 13EA090F 		tst	r3, r9
 3073 0232 71D1     		bne	.L268
 3074 0234 2368     		ldr	r3, [r4]
 3075 0236 5E49     		ldr	r1, .L271
 3076 0238 5E4A     		ldr	r2, .L271+4
 3077 023a 9342     		cmp	r3, r2
 3078 023c 18BF     		it	ne
 3079 023e 8B42     		cmpne	r3, r1
 3080 0240 3FF468AF 		beq	.L245
 3081 0244 1832     		adds	r2, r2, #24
 3082 0246 9342     		cmp	r3, r2
 3083 0248 3FF464AF 		beq	.L245
 3084 024c 1832     		adds	r2, r2, #24
 3085 024e 9342     		cmp	r3, r2
 3086 0250 3FF460AF 		beq	.L245
 3087 0254 1832     		adds	r2, r2, #24
 3088 0256 9342     		cmp	r3, r2
 3089 0258 3FF45CAF 		beq	.L245
 3090 025c 1832     		adds	r2, r2, #24
 3091 025e 9342     		cmp	r3, r2
 3092 0260 3FF458AF 		beq	.L245
 3093 0264 1832     		adds	r2, r2, #24
 3094 0266 9342     		cmp	r3, r2
 3095 0268 3FF454AF 		beq	.L245
 3096 026c 1832     		adds	r2, r2, #24
 3097 026e 9342     		cmp	r3, r2
ARM GAS  C:\Users\thewo\AppData\Local\Temp\ccgZg82m.s 			page 55


 3098 0270 3FF450AF 		beq	.L245
 3099 0274 02F55672 		add	r2, r2, #856
 3100 0278 9342     		cmp	r3, r2
 3101 027a 3FF44BAF 		beq	.L245
 3102 027e 1832     		adds	r2, r2, #24
 3103 0280 9342     		cmp	r3, r2
 3104 0282 3FF447AF 		beq	.L245
 3105 0286 1832     		adds	r2, r2, #24
 3106 0288 9342     		cmp	r3, r2
 3107 028a 3FF443AF 		beq	.L245
 3108 028e 1832     		adds	r2, r2, #24
 3109 0290 9342     		cmp	r3, r2
 3110 0292 3FF43FAF 		beq	.L245
 3111 0296 1832     		adds	r2, r2, #24
 3112 0298 9342     		cmp	r3, r2
 3113 029a 3FF43BAF 		beq	.L245
 3114 029e 1832     		adds	r2, r2, #24
 3115 02a0 9342     		cmp	r3, r2
 3116 02a2 3FF437AF 		beq	.L245
 3117 02a6 1832     		adds	r2, r2, #24
 3118 02a8 9342     		cmp	r3, r2
 3119 02aa 3FF433AF 		beq	.L245
 3120 02ae 1832     		adds	r2, r2, #24
 3121 02b0 9342     		cmp	r3, r2
 3122 02b2 3FF42FAF 		beq	.L245
 3123 02b6 2968     		ldr	r1, [r5]
 3124 02b8 E36D     		ldr	r3, [r4, #92]
 3125 02ba 03F01F03 		and	r3, r3, #31
 3126 02be 0822     		movs	r2, #8
 3127 02c0 9A40     		lsls	r2, r2, r3
 3128 02c2 1142     		tst	r1, r2
 3129 02c4 3FF44EAF 		beq	.L247
 3130 02c8 0120     		movs	r0, #1
 3131 02ca 00FA03F3 		lsl	r3, r0, r3
 3132 02ce 2B60     		str	r3, [r5]
 3133 02d0 6065     		str	r0, [r4, #84]
 3134 02d2 84F83500 		strb	r0, [r4, #53]
 3135 02d6 0023     		movs	r3, #0
 3136 02d8 84F83430 		strb	r3, [r4, #52]
 3137 02dc A5E6     		b	.L234
 3138              	.L266:
 3139 02de 626D     		ldr	r2, [r4, #84]
 3140 02e0 42F00102 		orr	r2, r2, #1
 3141 02e4 6265     		str	r2, [r4, #84]
 3142 02e6 C8F80030 		str	r3, [r8]
 3143 02ea 0120     		movs	r0, #1
 3144 02ec 84F83500 		strb	r0, [r4, #53]
 3145 02f0 0023     		movs	r3, #0
 3146 02f2 84F83430 		strb	r3, [r4, #52]
 3147 02f6 98E6     		b	.L234
 3148              	.L267:
 3149 02f8 FFF7FEFF 		bl	HAL_GetTick
 3150 02fc A0EB0A00 		sub	r0, r0, r10
 3151 0300 B042     		cmp	r0, r6
 3152 0302 02D8     		bhi	.L251
 3153 0304 002E     		cmp	r6, #0
 3154 0306 7FF431AF 		bne	.L250
ARM GAS  C:\Users\thewo\AppData\Local\Temp\ccgZg82m.s 			page 56


 3155              	.L251:
 3156 030a 2023     		movs	r3, #32
 3157 030c 6365     		str	r3, [r4, #84]
 3158 030e 2046     		mov	r0, r4
 3159 0310 FFF7FEFF 		bl	HAL_DMA_Abort
 3160 0314 0120     		movs	r0, #1
 3161 0316 88E6     		b	.L234
 3162              	.L268:
 3163 0318 002F     		cmp	r7, #0
 3164 031a 4FD1     		bne	.L257
 3165 031c 2368     		ldr	r3, [r4]
 3166 031e 2449     		ldr	r1, .L271
 3167 0320 244A     		ldr	r2, .L271+4
 3168 0322 9342     		cmp	r3, r2
 3169 0324 18BF     		it	ne
 3170 0326 8B42     		cmpne	r3, r1
 3171 0328 32D0     		beq	.L258
 3172 032a 1832     		adds	r2, r2, #24
 3173 032c 9342     		cmp	r3, r2
 3174 032e 2FD0     		beq	.L258
 3175 0330 1832     		adds	r2, r2, #24
 3176 0332 9342     		cmp	r3, r2
 3177 0334 2CD0     		beq	.L258
 3178 0336 1832     		adds	r2, r2, #24
 3179 0338 9342     		cmp	r3, r2
 3180 033a 29D0     		beq	.L258
 3181 033c 1832     		adds	r2, r2, #24
 3182 033e 9342     		cmp	r3, r2
 3183 0340 26D0     		beq	.L258
 3184 0342 1832     		adds	r2, r2, #24
 3185 0344 9342     		cmp	r3, r2
 3186 0346 23D0     		beq	.L258
 3187 0348 1832     		adds	r2, r2, #24
 3188 034a 9342     		cmp	r3, r2
 3189 034c 20D0     		beq	.L258
 3190 034e 02F55672 		add	r2, r2, #856
 3191 0352 9342     		cmp	r3, r2
 3192 0354 1CD0     		beq	.L258
 3193 0356 1832     		adds	r2, r2, #24
 3194 0358 9342     		cmp	r3, r2
 3195 035a 19D0     		beq	.L258
 3196 035c 1832     		adds	r2, r2, #24
 3197 035e 9342     		cmp	r3, r2
 3198 0360 16D0     		beq	.L258
 3199 0362 1832     		adds	r2, r2, #24
 3200 0364 9342     		cmp	r3, r2
 3201 0366 13D0     		beq	.L258
 3202 0368 1832     		adds	r2, r2, #24
 3203 036a 9342     		cmp	r3, r2
 3204 036c 10D0     		beq	.L258
 3205 036e 1832     		adds	r2, r2, #24
 3206 0370 9342     		cmp	r3, r2
 3207 0372 0DD0     		beq	.L258
 3208 0374 1832     		adds	r2, r2, #24
 3209 0376 9342     		cmp	r3, r2
 3210 0378 0AD0     		beq	.L258
 3211 037a 1832     		adds	r2, r2, #24
ARM GAS  C:\Users\thewo\AppData\Local\Temp\ccgZg82m.s 			page 57


 3212 037c 9342     		cmp	r3, r2
 3213 037e 07D0     		beq	.L258
 3214 0380 E36D     		ldr	r3, [r4, #92]
 3215 0382 03F01F02 		and	r2, r3, #31
 3216 0386 0223     		movs	r3, #2
 3217 0388 9340     		lsls	r3, r3, r2
 3218 038a C8F80030 		str	r3, [r8]
 3219 038e 06E0     		b	.L259
 3220              	.L258:
 3221 0390 E36D     		ldr	r3, [r4, #92]
 3222 0392 03F01F02 		and	r2, r3, #31
 3223 0396 3023     		movs	r3, #48
 3224 0398 9340     		lsls	r3, r3, r2
 3225 039a C8F80030 		str	r3, [r8]
 3226              	.L259:
 3227 039e 0123     		movs	r3, #1
 3228 03a0 84F83530 		strb	r3, [r4, #53]
 3229 03a4 0023     		movs	r3, #0
 3230 03a6 84F83430 		strb	r3, [r4, #52]
 3231 03aa 3846     		mov	r0, r7
 3232 03ac 3DE6     		b	.L234
 3233              	.L272:
 3234 03ae 00BF     		.align	2
 3235              	.L271:
 3236 03b0 10000240 		.word	1073872912
 3237 03b4 28000240 		.word	1073872936
 3238 03b8 08540258 		.word	1476547592
 3239              	.L257:
 3240 03bc 2368     		ldr	r3, [r4]
 3241 03be 2249     		ldr	r1, .L273
 3242 03c0 224A     		ldr	r2, .L273+4
 3243 03c2 9342     		cmp	r3, r2
 3244 03c4 18BF     		it	ne
 3245 03c6 8B42     		cmpne	r3, r1
 3246 03c8 33D0     		beq	.L260
 3247 03ca 1832     		adds	r2, r2, #24
 3248 03cc 9342     		cmp	r3, r2
 3249 03ce 30D0     		beq	.L260
 3250 03d0 1832     		adds	r2, r2, #24
 3251 03d2 9342     		cmp	r3, r2
 3252 03d4 2DD0     		beq	.L260
 3253 03d6 1832     		adds	r2, r2, #24
 3254 03d8 9342     		cmp	r3, r2
 3255 03da 2AD0     		beq	.L260
 3256 03dc 1832     		adds	r2, r2, #24
 3257 03de 9342     		cmp	r3, r2
 3258 03e0 27D0     		beq	.L260
 3259 03e2 1832     		adds	r2, r2, #24
 3260 03e4 9342     		cmp	r3, r2
 3261 03e6 24D0     		beq	.L260
 3262 03e8 1832     		adds	r2, r2, #24
 3263 03ea 9342     		cmp	r3, r2
 3264 03ec 21D0     		beq	.L260
 3265 03ee 02F55672 		add	r2, r2, #856
 3266 03f2 9342     		cmp	r3, r2
 3267 03f4 1DD0     		beq	.L260
 3268 03f6 1832     		adds	r2, r2, #24
ARM GAS  C:\Users\thewo\AppData\Local\Temp\ccgZg82m.s 			page 58


 3269 03f8 9342     		cmp	r3, r2
 3270 03fa 1AD0     		beq	.L260
 3271 03fc 1832     		adds	r2, r2, #24
 3272 03fe 9342     		cmp	r3, r2
 3273 0400 17D0     		beq	.L260
 3274 0402 1832     		adds	r2, r2, #24
 3275 0404 9342     		cmp	r3, r2
 3276 0406 14D0     		beq	.L260
 3277 0408 1832     		adds	r2, r2, #24
 3278 040a 9342     		cmp	r3, r2
 3279 040c 11D0     		beq	.L260
 3280 040e 1832     		adds	r2, r2, #24
 3281 0410 9342     		cmp	r3, r2
 3282 0412 0ED0     		beq	.L260
 3283 0414 1832     		adds	r2, r2, #24
 3284 0416 9342     		cmp	r3, r2
 3285 0418 0BD0     		beq	.L260
 3286 041a 1832     		adds	r2, r2, #24
 3287 041c 9342     		cmp	r3, r2
 3288 041e 08D0     		beq	.L260
 3289 0420 E26D     		ldr	r2, [r4, #92]
 3290 0422 02F01F02 		and	r2, r2, #31
 3291 0426 0423     		movs	r3, #4
 3292 0428 9340     		lsls	r3, r3, r2
 3293 042a C8F80030 		str	r3, [r8]
 3294 042e 0020     		movs	r0, #0
 3295 0430 FBE5     		b	.L234
 3296              	.L260:
 3297 0432 E26D     		ldr	r2, [r4, #92]
 3298 0434 02F01F02 		and	r2, r2, #31
 3299 0438 1023     		movs	r3, #16
 3300 043a 9340     		lsls	r3, r3, r2
 3301 043c C8F80030 		str	r3, [r8]
 3302 0440 0020     		movs	r0, #0
 3303 0442 F2E5     		b	.L234
 3304              	.L261:
 3305 0444 0120     		movs	r0, #1
 3306 0446 F0E5     		b	.L234
 3307              	.L274:
 3308              		.align	2
 3309              	.L273:
 3310 0448 10000240 		.word	1073872912
 3311 044c 28000240 		.word	1073872936
 3313              		.section	.text.HAL_DMA_IRQHandler,"ax",%progbits
 3314              		.align	1
 3315              		.global	HAL_DMA_IRQHandler
 3316              		.syntax unified
 3317              		.thumb
 3318              		.thumb_func
 3320              	HAL_DMA_IRQHandler:
 3321              		@ args = 0, pretend = 0, frame = 8
 3322              		@ frame_needed = 0, uses_anonymous_args = 0
 3323 0000 F0B5     		push	{r4, r5, r6, r7, lr}
 3324 0002 83B0     		sub	sp, sp, #12
 3325 0004 0446     		mov	r4, r0
 3326 0006 0023     		movs	r3, #0
 3327 0008 0193     		str	r3, [sp, #4]
ARM GAS  C:\Users\thewo\AppData\Local\Temp\ccgZg82m.s 			page 59


 3328 000a 7D4B     		ldr	r3, .L335
 3329 000c 1D68     		ldr	r5, [r3]
 3330 000e 7D4B     		ldr	r3, .L335+4
 3331 0010 A3FB0535 		umull	r3, r5, r3, r5
 3332 0014 AD0A     		lsrs	r5, r5, #10
 3333 0016 876D     		ldr	r7, [r0, #88]
 3334 0018 3E68     		ldr	r6, [r7]
 3335 001a D7F800C0 		ldr	ip, [r7]
 3336 001e 0368     		ldr	r3, [r0]
 3337 0020 7949     		ldr	r1, .L335+8
 3338 0022 7A48     		ldr	r0, .L335+12
 3339 0024 8342     		cmp	r3, r0
 3340 0026 18BF     		it	ne
 3341 0028 8B42     		cmpne	r3, r1
 3342 002a 0CBF     		ite	eq
 3343 002c 0120     		moveq	r0, #1
 3344 002e 0020     		movne	r0, #0
 3345 0030 61D0     		beq	.L276
 3346 0032 774A     		ldr	r2, .L335+16
 3347 0034 9342     		cmp	r3, r2
 3348 0036 5ED0     		beq	.L276
 3349 0038 1832     		adds	r2, r2, #24
 3350 003a 9342     		cmp	r3, r2
 3351 003c 5BD0     		beq	.L276
 3352 003e 1832     		adds	r2, r2, #24
 3353 0040 9342     		cmp	r3, r2
 3354 0042 58D0     		beq	.L276
 3355 0044 1832     		adds	r2, r2, #24
 3356 0046 9342     		cmp	r3, r2
 3357 0048 55D0     		beq	.L276
 3358 004a 1832     		adds	r2, r2, #24
 3359 004c 9342     		cmp	r3, r2
 3360 004e 52D0     		beq	.L276
 3361 0050 1832     		adds	r2, r2, #24
 3362 0052 9342     		cmp	r3, r2
 3363 0054 4FD0     		beq	.L276
 3364 0056 02F55672 		add	r2, r2, #856
 3365 005a 9342     		cmp	r3, r2
 3366 005c 4BD0     		beq	.L276
 3367 005e 1832     		adds	r2, r2, #24
 3368 0060 9342     		cmp	r3, r2
 3369 0062 48D0     		beq	.L276
 3370 0064 1832     		adds	r2, r2, #24
 3371 0066 9342     		cmp	r3, r2
 3372 0068 45D0     		beq	.L276
 3373 006a 1832     		adds	r2, r2, #24
 3374 006c 9342     		cmp	r3, r2
 3375 006e 42D0     		beq	.L276
 3376 0070 1832     		adds	r2, r2, #24
 3377 0072 9342     		cmp	r3, r2
 3378 0074 3FD0     		beq	.L276
 3379 0076 1832     		adds	r2, r2, #24
 3380 0078 9342     		cmp	r3, r2
 3381 007a 3CD0     		beq	.L276
 3382 007c 1832     		adds	r2, r2, #24
 3383 007e 9342     		cmp	r3, r2
 3384 0080 39D0     		beq	.L276
ARM GAS  C:\Users\thewo\AppData\Local\Temp\ccgZg82m.s 			page 60


 3385 0082 1832     		adds	r2, r2, #24
 3386 0084 9342     		cmp	r3, r2
 3387 0086 36D0     		beq	.L276
 3388 0088 6249     		ldr	r1, .L335+20
 3389 008a 634A     		ldr	r2, .L335+24
 3390 008c 9342     		cmp	r3, r2
 3391 008e 18BF     		it	ne
 3392 0090 8B42     		cmpne	r3, r1
 3393 0092 12D0     		beq	.L277
 3394 0094 614A     		ldr	r2, .L335+28
 3395 0096 9342     		cmp	r3, r2
 3396 0098 0FD0     		beq	.L277
 3397 009a 1432     		adds	r2, r2, #20
 3398 009c 9342     		cmp	r3, r2
 3399 009e 0CD0     		beq	.L277
 3400 00a0 1432     		adds	r2, r2, #20
 3401 00a2 9342     		cmp	r3, r2
 3402 00a4 09D0     		beq	.L277
 3403 00a6 1432     		adds	r2, r2, #20
 3404 00a8 9342     		cmp	r3, r2
 3405 00aa 06D0     		beq	.L277
 3406 00ac 1432     		adds	r2, r2, #20
 3407 00ae 9342     		cmp	r3, r2
 3408 00b0 03D0     		beq	.L277
 3409 00b2 1432     		adds	r2, r2, #20
 3410 00b4 9342     		cmp	r3, r2
 3411 00b6 40F05F82 		bne	.L275
 3412              	.L277:
 3413 00ba 1A68     		ldr	r2, [r3]
 3414 00bc E16D     		ldr	r1, [r4, #92]
 3415 00be 01F01F01 		and	r1, r1, #31
 3416 00c2 0420     		movs	r0, #4
 3417 00c4 8840     		lsls	r0, r0, r1
 3418 00c6 10EA0C0F 		tst	r0, ip
 3419 00ca 00F0A582 		beq	.L318
 3420 00ce 12F0040F 		tst	r2, #4
 3421 00d2 00F0A182 		beq	.L318
 3422 00d6 7860     		str	r0, [r7, #4]
 3423 00d8 12F4004F 		tst	r2, #32768
 3424 00dc 00F05882 		beq	.L319
 3425 00e0 12F4803F 		tst	r2, #65536
 3426 00e4 40F04E82 		bne	.L320
 3427 00e8 A36C     		ldr	r3, [r4, #72]
 3428 00ea 002B     		cmp	r3, #0
 3429 00ec 00F04482 		beq	.L275
 3430 00f0 2046     		mov	r0, r4
 3431 00f2 9847     		blx	r3
 3432 00f4 40E2     		b	.L275
 3433              	.L276:
 3434 00f6 E26D     		ldr	r2, [r4, #92]
 3435 00f8 02F01F01 		and	r1, r2, #31
 3436 00fc 0822     		movs	r2, #8
 3437 00fe 8A40     		lsls	r2, r2, r1
 3438 0100 3242     		tst	r2, r6
 3439 0102 41D0     		beq	.L279
 3440 0104 70BB     		cbnz	r0, .L280
 3441 0106 424A     		ldr	r2, .L335+16
ARM GAS  C:\Users\thewo\AppData\Local\Temp\ccgZg82m.s 			page 61


 3442 0108 9342     		cmp	r3, r2
 3443 010a 2BD0     		beq	.L280
 3444 010c 1832     		adds	r2, r2, #24
 3445 010e 9342     		cmp	r3, r2
 3446 0110 28D0     		beq	.L280
 3447 0112 1832     		adds	r2, r2, #24
 3448 0114 9342     		cmp	r3, r2
 3449 0116 25D0     		beq	.L280
 3450 0118 1832     		adds	r2, r2, #24
 3451 011a 9342     		cmp	r3, r2
 3452 011c 22D0     		beq	.L280
 3453 011e 1832     		adds	r2, r2, #24
 3454 0120 9342     		cmp	r3, r2
 3455 0122 1FD0     		beq	.L280
 3456 0124 1832     		adds	r2, r2, #24
 3457 0126 9342     		cmp	r3, r2
 3458 0128 1CD0     		beq	.L280
 3459 012a 02F55672 		add	r2, r2, #856
 3460 012e 9342     		cmp	r3, r2
 3461 0130 18D0     		beq	.L280
 3462 0132 1832     		adds	r2, r2, #24
 3463 0134 9342     		cmp	r3, r2
 3464 0136 15D0     		beq	.L280
 3465 0138 1832     		adds	r2, r2, #24
 3466 013a 9342     		cmp	r3, r2
 3467 013c 12D0     		beq	.L280
 3468 013e 1832     		adds	r2, r2, #24
 3469 0140 9342     		cmp	r3, r2
 3470 0142 0FD0     		beq	.L280
 3471 0144 1832     		adds	r2, r2, #24
 3472 0146 9342     		cmp	r3, r2
 3473 0148 0CD0     		beq	.L280
 3474 014a 1832     		adds	r2, r2, #24
 3475 014c 9342     		cmp	r3, r2
 3476 014e 09D0     		beq	.L280
 3477 0150 1832     		adds	r2, r2, #24
 3478 0152 9342     		cmp	r3, r2
 3479 0154 06D0     		beq	.L280
 3480 0156 1832     		adds	r2, r2, #24
 3481 0158 9342     		cmp	r3, r2
 3482 015a 03D0     		beq	.L280
 3483 015c 1A68     		ldr	r2, [r3]
 3484 015e C2F3C002 		ubfx	r2, r2, #3, #1
 3485 0162 02E0     		b	.L282
 3486              	.L280:
 3487 0164 1A68     		ldr	r2, [r3]
 3488 0166 C2F38002 		ubfx	r2, r2, #2, #1
 3489              	.L282:
 3490 016a 6AB1     		cbz	r2, .L279
 3491 016c 1A68     		ldr	r2, [r3]
 3492 016e 22F00402 		bic	r2, r2, #4
 3493 0172 1A60     		str	r2, [r3]
 3494 0174 E36D     		ldr	r3, [r4, #92]
 3495 0176 03F01F02 		and	r2, r3, #31
 3496 017a 0823     		movs	r3, #8
 3497 017c 9340     		lsls	r3, r3, r2
 3498 017e BB60     		str	r3, [r7, #8]
ARM GAS  C:\Users\thewo\AppData\Local\Temp\ccgZg82m.s 			page 62


 3499 0180 636D     		ldr	r3, [r4, #84]
 3500 0182 43F00103 		orr	r3, r3, #1
 3501 0186 6365     		str	r3, [r4, #84]
 3502              	.L279:
 3503 0188 E26D     		ldr	r2, [r4, #92]
 3504 018a 02F01F02 		and	r2, r2, #31
 3505 018e 26FA02F3 		lsr	r3, r6, r2
 3506 0192 13F0010F 		tst	r3, #1
 3507 0196 47D0     		beq	.L283
 3508 0198 2368     		ldr	r3, [r4]
 3509 019a 1B48     		ldr	r0, .L335+8
 3510 019c 1B49     		ldr	r1, .L335+12
 3511 019e 8B42     		cmp	r3, r1
 3512 01a0 18BF     		it	ne
 3513 01a2 8342     		cmpne	r3, r0
 3514 01a4 3CD0     		beq	.L284
 3515 01a6 1831     		adds	r1, r1, #24
 3516 01a8 8B42     		cmp	r3, r1
 3517 01aa 39D0     		beq	.L284
 3518 01ac 1831     		adds	r1, r1, #24
 3519 01ae 8B42     		cmp	r3, r1
 3520 01b0 36D0     		beq	.L284
 3521 01b2 1831     		adds	r1, r1, #24
 3522 01b4 8B42     		cmp	r3, r1
 3523 01b6 33D0     		beq	.L284
 3524 01b8 1831     		adds	r1, r1, #24
 3525 01ba 8B42     		cmp	r3, r1
 3526 01bc 30D0     		beq	.L284
 3527 01be 1831     		adds	r1, r1, #24
 3528 01c0 8B42     		cmp	r3, r1
 3529 01c2 2DD0     		beq	.L284
 3530 01c4 1831     		adds	r1, r1, #24
 3531 01c6 8B42     		cmp	r3, r1
 3532 01c8 2AD0     		beq	.L284
 3533 01ca 01F55671 		add	r1, r1, #856
 3534 01ce 8B42     		cmp	r3, r1
 3535 01d0 26D0     		beq	.L284
 3536 01d2 1831     		adds	r1, r1, #24
 3537 01d4 8B42     		cmp	r3, r1
 3538 01d6 23D0     		beq	.L284
 3539 01d8 1831     		adds	r1, r1, #24
 3540 01da 8B42     		cmp	r3, r1
 3541 01dc 20D0     		beq	.L284
 3542 01de 1831     		adds	r1, r1, #24
 3543 01e0 8B42     		cmp	r3, r1
 3544 01e2 1DD0     		beq	.L284
 3545 01e4 1831     		adds	r1, r1, #24
 3546 01e6 8B42     		cmp	r3, r1
 3547 01e8 1AD0     		beq	.L284
 3548 01ea 1831     		adds	r1, r1, #24
 3549 01ec 8B42     		cmp	r3, r1
 3550 01ee 17D0     		beq	.L284
 3551 01f0 1831     		adds	r1, r1, #24
 3552 01f2 8B42     		cmp	r3, r1
 3553 01f4 14D0     		beq	.L284
 3554 01f6 1831     		adds	r1, r1, #24
 3555 01f8 8B42     		cmp	r3, r1
ARM GAS  C:\Users\thewo\AppData\Local\Temp\ccgZg82m.s 			page 63


 3556 01fa 11D0     		beq	.L284
 3557 01fc 1B68     		ldr	r3, [r3]
 3558 01fe 13E0     		b	.L283
 3559              	.L336:
 3560              		.align	2
 3561              	.L335:
 3562 0200 00000000 		.word	SystemCoreClock
 3563 0204 B5814E1B 		.word	458129845
 3564 0208 10000240 		.word	1073872912
 3565 020c 28000240 		.word	1073872936
 3566 0210 40000240 		.word	1073872960
 3567 0214 08540258 		.word	1476547592
 3568 0218 1C540258 		.word	1476547612
 3569 021c 30540258 		.word	1476547632
 3570              	.L284:
 3571 0220 5B69     		ldr	r3, [r3, #20]
 3572 0222 13F0800F 		tst	r3, #128
 3573 0226 3BD1     		bne	.L286
 3574              	.L283:
 3575 0228 E36D     		ldr	r3, [r4, #92]
 3576 022a 03F01F03 		and	r3, r3, #31
 3577 022e 0422     		movs	r2, #4
 3578 0230 02FA03F3 		lsl	r3, r2, r3
 3579 0234 3342     		tst	r3, r6
 3580 0236 3FD0     		beq	.L287
 3581 0238 2268     		ldr	r2, [r4]
 3582 023a 9548     		ldr	r0, .L337
 3583 023c 9549     		ldr	r1, .L337+4
 3584 023e 8A42     		cmp	r2, r1
 3585 0240 18BF     		it	ne
 3586 0242 8242     		cmpne	r2, r0
 3587 0244 34D0     		beq	.L288
 3588 0246 1831     		adds	r1, r1, #24
 3589 0248 8A42     		cmp	r2, r1
 3590 024a 31D0     		beq	.L288
 3591 024c 1831     		adds	r1, r1, #24
 3592 024e 8A42     		cmp	r2, r1
 3593 0250 2ED0     		beq	.L288
 3594 0252 1831     		adds	r1, r1, #24
 3595 0254 8A42     		cmp	r2, r1
 3596 0256 2BD0     		beq	.L288
 3597 0258 1831     		adds	r1, r1, #24
 3598 025a 8A42     		cmp	r2, r1
 3599 025c 28D0     		beq	.L288
 3600 025e 1831     		adds	r1, r1, #24
 3601 0260 8A42     		cmp	r2, r1
 3602 0262 25D0     		beq	.L288
 3603 0264 1831     		adds	r1, r1, #24
 3604 0266 8A42     		cmp	r2, r1
 3605 0268 22D0     		beq	.L288
 3606 026a 01F55671 		add	r1, r1, #856
 3607 026e 8A42     		cmp	r2, r1
 3608 0270 1ED0     		beq	.L288
 3609 0272 1831     		adds	r1, r1, #24
 3610 0274 8A42     		cmp	r2, r1
 3611 0276 1BD0     		beq	.L288
 3612 0278 1831     		adds	r1, r1, #24
ARM GAS  C:\Users\thewo\AppData\Local\Temp\ccgZg82m.s 			page 64


 3613 027a 8A42     		cmp	r2, r1
 3614 027c 18D0     		beq	.L288
 3615 027e 1831     		adds	r1, r1, #24
 3616 0280 8A42     		cmp	r2, r1
 3617 0282 15D0     		beq	.L288
 3618 0284 1831     		adds	r1, r1, #24
 3619 0286 8A42     		cmp	r2, r1
 3620 0288 12D0     		beq	.L288
 3621 028a 1831     		adds	r1, r1, #24
 3622 028c 8A42     		cmp	r2, r1
 3623 028e 0FD0     		beq	.L288
 3624 0290 1831     		adds	r1, r1, #24
 3625 0292 8A42     		cmp	r2, r1
 3626 0294 0CD0     		beq	.L288
 3627 0296 1831     		adds	r1, r1, #24
 3628 0298 8A42     		cmp	r2, r1
 3629 029a 09D0     		beq	.L288
 3630 029c 1368     		ldr	r3, [r2]
 3631 029e 0BE0     		b	.L287
 3632              	.L286:
 3633 02a0 0123     		movs	r3, #1
 3634 02a2 9340     		lsls	r3, r3, r2
 3635 02a4 BB60     		str	r3, [r7, #8]
 3636 02a6 636D     		ldr	r3, [r4, #84]
 3637 02a8 43F00203 		orr	r3, r3, #2
 3638 02ac 6365     		str	r3, [r4, #84]
 3639 02ae BBE7     		b	.L283
 3640              	.L288:
 3641 02b0 1268     		ldr	r2, [r2]
 3642 02b2 12F0020F 		tst	r2, #2
 3643 02b6 3DD1     		bne	.L290
 3644              	.L287:
 3645 02b8 E36D     		ldr	r3, [r4, #92]
 3646 02ba 03F01F03 		and	r3, r3, #31
 3647 02be 1022     		movs	r2, #16
 3648 02c0 02FA03F3 		lsl	r3, r2, r3
 3649 02c4 3342     		tst	r3, r6
 3650 02c6 5FD0     		beq	.L291
 3651 02c8 2268     		ldr	r2, [r4]
 3652 02ca 7148     		ldr	r0, .L337
 3653 02cc 7149     		ldr	r1, .L337+4
 3654 02ce 8A42     		cmp	r2, r1
 3655 02d0 18BF     		it	ne
 3656 02d2 8242     		cmpne	r2, r0
 3657 02d4 34D0     		beq	.L292
 3658 02d6 1831     		adds	r1, r1, #24
 3659 02d8 8A42     		cmp	r2, r1
 3660 02da 31D0     		beq	.L292
 3661 02dc 1831     		adds	r1, r1, #24
 3662 02de 8A42     		cmp	r2, r1
 3663 02e0 2ED0     		beq	.L292
 3664 02e2 1831     		adds	r1, r1, #24
 3665 02e4 8A42     		cmp	r2, r1
 3666 02e6 2BD0     		beq	.L292
 3667 02e8 1831     		adds	r1, r1, #24
 3668 02ea 8A42     		cmp	r2, r1
 3669 02ec 28D0     		beq	.L292
ARM GAS  C:\Users\thewo\AppData\Local\Temp\ccgZg82m.s 			page 65


 3670 02ee 1831     		adds	r1, r1, #24
 3671 02f0 8A42     		cmp	r2, r1
 3672 02f2 25D0     		beq	.L292
 3673 02f4 1831     		adds	r1, r1, #24
 3674 02f6 8A42     		cmp	r2, r1
 3675 02f8 22D0     		beq	.L292
 3676 02fa 01F55671 		add	r1, r1, #856
 3677 02fe 8A42     		cmp	r2, r1
 3678 0300 1ED0     		beq	.L292
 3679 0302 1831     		adds	r1, r1, #24
 3680 0304 8A42     		cmp	r2, r1
 3681 0306 1BD0     		beq	.L292
 3682 0308 1831     		adds	r1, r1, #24
 3683 030a 8A42     		cmp	r2, r1
 3684 030c 18D0     		beq	.L292
 3685 030e 1831     		adds	r1, r1, #24
 3686 0310 8A42     		cmp	r2, r1
 3687 0312 15D0     		beq	.L292
 3688 0314 1831     		adds	r1, r1, #24
 3689 0316 8A42     		cmp	r2, r1
 3690 0318 12D0     		beq	.L292
 3691 031a 1831     		adds	r1, r1, #24
 3692 031c 8A42     		cmp	r2, r1
 3693 031e 0FD0     		beq	.L292
 3694 0320 1831     		adds	r1, r1, #24
 3695 0322 8A42     		cmp	r2, r1
 3696 0324 0CD0     		beq	.L292
 3697 0326 1831     		adds	r1, r1, #24
 3698 0328 8A42     		cmp	r2, r1
 3699 032a 09D0     		beq	.L292
 3700 032c 1268     		ldr	r2, [r2]
 3701 032e C2F38002 		ubfx	r2, r2, #2, #1
 3702 0332 08E0     		b	.L294
 3703              	.L290:
 3704 0334 BB60     		str	r3, [r7, #8]
 3705 0336 636D     		ldr	r3, [r4, #84]
 3706 0338 43F00403 		orr	r3, r3, #4
 3707 033c 6365     		str	r3, [r4, #84]
 3708 033e BBE7     		b	.L287
 3709              	.L292:
 3710 0340 1268     		ldr	r2, [r2]
 3711 0342 C2F3C002 		ubfx	r2, r2, #3, #1
 3712              	.L294:
 3713 0346 FAB1     		cbz	r2, .L291
 3714 0348 BB60     		str	r3, [r7, #8]
 3715 034a 2368     		ldr	r3, [r4]
 3716 034c 1A68     		ldr	r2, [r3]
 3717 034e 12F4802F 		tst	r2, #262144
 3718 0352 0DD0     		beq	.L295
 3719 0354 1B68     		ldr	r3, [r3]
 3720 0356 13F4002F 		tst	r3, #524288
 3721 035a 04D1     		bne	.L296
 3722 035c 236C     		ldr	r3, [r4, #64]
 3723 035e 9BB1     		cbz	r3, .L291
 3724 0360 2046     		mov	r0, r4
 3725 0362 9847     		blx	r3
 3726 0364 10E0     		b	.L291
ARM GAS  C:\Users\thewo\AppData\Local\Temp\ccgZg82m.s 			page 66


 3727              	.L296:
 3728 0366 A36C     		ldr	r3, [r4, #72]
 3729 0368 73B1     		cbz	r3, .L291
 3730 036a 2046     		mov	r0, r4
 3731 036c 9847     		blx	r3
 3732 036e 0BE0     		b	.L291
 3733              	.L295:
 3734 0370 1A68     		ldr	r2, [r3]
 3735 0372 12F4807F 		tst	r2, #256
 3736 0376 03D1     		bne	.L297
 3737 0378 1A68     		ldr	r2, [r3]
 3738 037a 22F00802 		bic	r2, r2, #8
 3739 037e 1A60     		str	r2, [r3]
 3740              	.L297:
 3741 0380 236C     		ldr	r3, [r4, #64]
 3742 0382 0BB1     		cbz	r3, .L291
 3743 0384 2046     		mov	r0, r4
 3744 0386 9847     		blx	r3
 3745              	.L291:
 3746 0388 E36D     		ldr	r3, [r4, #92]
 3747 038a 03F01F03 		and	r3, r3, #31
 3748 038e 2022     		movs	r2, #32
 3749 0390 02FA03F3 		lsl	r3, r2, r3
 3750 0394 3342     		tst	r3, r6
 3751 0396 00F09180 		beq	.L298
 3752 039a 2268     		ldr	r2, [r4]
 3753 039c 3C48     		ldr	r0, .L337
 3754 039e 3D49     		ldr	r1, .L337+4
 3755 03a0 8A42     		cmp	r2, r1
 3756 03a2 18BF     		it	ne
 3757 03a4 8242     		cmpne	r2, r0
 3758 03a6 2ED0     		beq	.L299
 3759 03a8 1831     		adds	r1, r1, #24
 3760 03aa 8A42     		cmp	r2, r1
 3761 03ac 2BD0     		beq	.L299
 3762 03ae 1831     		adds	r1, r1, #24
 3763 03b0 8A42     		cmp	r2, r1
 3764 03b2 28D0     		beq	.L299
 3765 03b4 1831     		adds	r1, r1, #24
 3766 03b6 8A42     		cmp	r2, r1
 3767 03b8 25D0     		beq	.L299
 3768 03ba 1831     		adds	r1, r1, #24
 3769 03bc 8A42     		cmp	r2, r1
 3770 03be 22D0     		beq	.L299
 3771 03c0 1831     		adds	r1, r1, #24
 3772 03c2 8A42     		cmp	r2, r1
 3773 03c4 1FD0     		beq	.L299
 3774 03c6 1831     		adds	r1, r1, #24
 3775 03c8 8A42     		cmp	r2, r1
 3776 03ca 1CD0     		beq	.L299
 3777 03cc 01F55671 		add	r1, r1, #856
 3778 03d0 8A42     		cmp	r2, r1
 3779 03d2 18D0     		beq	.L299
 3780 03d4 1831     		adds	r1, r1, #24
 3781 03d6 8A42     		cmp	r2, r1
 3782 03d8 15D0     		beq	.L299
 3783 03da 1831     		adds	r1, r1, #24
ARM GAS  C:\Users\thewo\AppData\Local\Temp\ccgZg82m.s 			page 67


 3784 03dc 8A42     		cmp	r2, r1
 3785 03de 12D0     		beq	.L299
 3786 03e0 1831     		adds	r1, r1, #24
 3787 03e2 8A42     		cmp	r2, r1
 3788 03e4 0FD0     		beq	.L299
 3789 03e6 1831     		adds	r1, r1, #24
 3790 03e8 8A42     		cmp	r2, r1
 3791 03ea 0CD0     		beq	.L299
 3792 03ec 1831     		adds	r1, r1, #24
 3793 03ee 8A42     		cmp	r2, r1
 3794 03f0 09D0     		beq	.L299
 3795 03f2 1831     		adds	r1, r1, #24
 3796 03f4 8A42     		cmp	r2, r1
 3797 03f6 06D0     		beq	.L299
 3798 03f8 1831     		adds	r1, r1, #24
 3799 03fa 8A42     		cmp	r2, r1
 3800 03fc 03D0     		beq	.L299
 3801 03fe 1268     		ldr	r2, [r2]
 3802 0400 C2F34002 		ubfx	r2, r2, #1, #1
 3803 0404 02E0     		b	.L301
 3804              	.L299:
 3805 0406 1268     		ldr	r2, [r2]
 3806 0408 C2F30012 		ubfx	r2, r2, #4, #1
 3807              	.L301:
 3808 040c 002A     		cmp	r2, #0
 3809 040e 55D0     		beq	.L298
 3810 0410 BB60     		str	r3, [r7, #8]
 3811 0412 94F83530 		ldrb	r3, [r4, #53]	@ zero_extendqisi2
 3812 0416 042B     		cmp	r3, #4
 3813 0418 0ED0     		beq	.L333
 3814 041a 2368     		ldr	r3, [r4]
 3815 041c 1A68     		ldr	r2, [r3]
 3816 041e 12F4802F 		tst	r2, #262144
 3817 0422 39D0     		beq	.L307
 3818 0424 1B68     		ldr	r3, [r3]
 3819 0426 13F4002F 		tst	r3, #524288
 3820 042a 2CD1     		bne	.L308
 3821 042c 636C     		ldr	r3, [r4, #68]
 3822 042e 002B     		cmp	r3, #0
 3823 0430 44D0     		beq	.L298
 3824 0432 2046     		mov	r0, r4
 3825 0434 9847     		blx	r3
 3826 0436 41E0     		b	.L298
 3827              	.L333:
 3828 0438 2268     		ldr	r2, [r4]
 3829 043a 1368     		ldr	r3, [r2]
 3830 043c 23F01603 		bic	r3, r3, #22
 3831 0440 1360     		str	r3, [r2]
 3832 0442 2268     		ldr	r2, [r4]
 3833 0444 5369     		ldr	r3, [r2, #20]
 3834 0446 23F08003 		bic	r3, r3, #128
 3835 044a 5361     		str	r3, [r2, #20]
 3836 044c 236C     		ldr	r3, [r4, #64]
 3837 044e B3B1     		cbz	r3, .L334
 3838              	.L303:
 3839 0450 2268     		ldr	r2, [r4]
 3840 0452 1368     		ldr	r3, [r2]
ARM GAS  C:\Users\thewo\AppData\Local\Temp\ccgZg82m.s 			page 68


 3841 0454 23F00803 		bic	r3, r3, #8
 3842 0458 1360     		str	r3, [r2]
 3843              	.L304:
 3844 045a E36D     		ldr	r3, [r4, #92]
 3845 045c 03F01F02 		and	r2, r3, #31
 3846 0460 3F23     		movs	r3, #63
 3847 0462 9340     		lsls	r3, r3, r2
 3848 0464 BB60     		str	r3, [r7, #8]
 3849 0466 0123     		movs	r3, #1
 3850 0468 84F83530 		strb	r3, [r4, #53]
 3851 046c 0023     		movs	r3, #0
 3852 046e 84F83430 		strb	r3, [r4, #52]
 3853 0472 236D     		ldr	r3, [r4, #80]
 3854 0474 002B     		cmp	r3, #0
 3855 0476 7FD0     		beq	.L275
 3856 0478 2046     		mov	r0, r4
 3857 047a 9847     		blx	r3
 3858 047c 7CE0     		b	.L275
 3859              	.L334:
 3860 047e A36C     		ldr	r3, [r4, #72]
 3861 0480 002B     		cmp	r3, #0
 3862 0482 E5D1     		bne	.L303
 3863 0484 E9E7     		b	.L304
 3864              	.L308:
 3865 0486 E36B     		ldr	r3, [r4, #60]
 3866 0488 C3B1     		cbz	r3, .L298
 3867 048a 2046     		mov	r0, r4
 3868 048c 9847     		blx	r3
 3869 048e 15E0     		b	.L298
 3870              	.L338:
 3871              		.align	2
 3872              	.L337:
 3873 0490 10000240 		.word	1073872912
 3874 0494 28000240 		.word	1073872936
 3875              	.L307:
 3876 0498 1A68     		ldr	r2, [r3]
 3877 049a 12F4807F 		tst	r2, #256
 3878 049e 09D1     		bne	.L309
 3879 04a0 1A68     		ldr	r2, [r3]
 3880 04a2 22F01002 		bic	r2, r2, #16
 3881 04a6 1A60     		str	r2, [r3]
 3882 04a8 0123     		movs	r3, #1
 3883 04aa 84F83530 		strb	r3, [r4, #53]
 3884 04ae 0023     		movs	r3, #0
 3885 04b0 84F83430 		strb	r3, [r4, #52]
 3886              	.L309:
 3887 04b4 E36B     		ldr	r3, [r4, #60]
 3888 04b6 0BB1     		cbz	r3, .L298
 3889 04b8 2046     		mov	r0, r4
 3890 04ba 9847     		blx	r3
 3891              	.L298:
 3892 04bc 636D     		ldr	r3, [r4, #84]
 3893 04be 002B     		cmp	r3, #0
 3894 04c0 5AD0     		beq	.L275
 3895 04c2 636D     		ldr	r3, [r4, #84]
 3896 04c4 13F0010F 		tst	r3, #1
 3897 04c8 52D0     		beq	.L310
ARM GAS  C:\Users\thewo\AppData\Local\Temp\ccgZg82m.s 			page 69


 3898 04ca 0423     		movs	r3, #4
 3899 04cc 84F83530 		strb	r3, [r4, #53]
 3900 04d0 2368     		ldr	r3, [r4]
 3901 04d2 9649     		ldr	r1, .L339
 3902 04d4 964A     		ldr	r2, .L339+4
 3903 04d6 9342     		cmp	r3, r2
 3904 04d8 18BF     		it	ne
 3905 04da 8B42     		cmpne	r3, r1
 3906 04dc 2FD0     		beq	.L311
 3907 04de 1832     		adds	r2, r2, #24
 3908 04e0 9342     		cmp	r3, r2
 3909 04e2 2CD0     		beq	.L311
 3910 04e4 1832     		adds	r2, r2, #24
 3911 04e6 9342     		cmp	r3, r2
 3912 04e8 29D0     		beq	.L311
 3913 04ea 1832     		adds	r2, r2, #24
 3914 04ec 9342     		cmp	r3, r2
 3915 04ee 26D0     		beq	.L311
 3916 04f0 1832     		adds	r2, r2, #24
 3917 04f2 9342     		cmp	r3, r2
 3918 04f4 23D0     		beq	.L311
 3919 04f6 1832     		adds	r2, r2, #24
 3920 04f8 9342     		cmp	r3, r2
 3921 04fa 20D0     		beq	.L311
 3922 04fc 1832     		adds	r2, r2, #24
 3923 04fe 9342     		cmp	r3, r2
 3924 0500 1DD0     		beq	.L311
 3925 0502 02F55672 		add	r2, r2, #856
 3926 0506 9342     		cmp	r3, r2
 3927 0508 19D0     		beq	.L311
 3928 050a 1832     		adds	r2, r2, #24
 3929 050c 9342     		cmp	r3, r2
 3930 050e 16D0     		beq	.L311
 3931 0510 1832     		adds	r2, r2, #24
 3932 0512 9342     		cmp	r3, r2
 3933 0514 13D0     		beq	.L311
 3934 0516 1832     		adds	r2, r2, #24
 3935 0518 9342     		cmp	r3, r2
 3936 051a 10D0     		beq	.L311
 3937 051c 1832     		adds	r2, r2, #24
 3938 051e 9342     		cmp	r3, r2
 3939 0520 0DD0     		beq	.L311
 3940 0522 1832     		adds	r2, r2, #24
 3941 0524 9342     		cmp	r3, r2
 3942 0526 0AD0     		beq	.L311
 3943 0528 1832     		adds	r2, r2, #24
 3944 052a 9342     		cmp	r3, r2
 3945 052c 07D0     		beq	.L311
 3946 052e 1832     		adds	r2, r2, #24
 3947 0530 9342     		cmp	r3, r2
 3948 0532 04D0     		beq	.L311
 3949 0534 1A68     		ldr	r2, [r3]
 3950 0536 22F00102 		bic	r2, r2, #1
 3951 053a 1A60     		str	r2, [r3]
 3952 053c 03E0     		b	.L315
 3953              	.L311:
 3954 053e 1A68     		ldr	r2, [r3]
ARM GAS  C:\Users\thewo\AppData\Local\Temp\ccgZg82m.s 			page 70


 3955 0540 22F00102 		bic	r2, r2, #1
 3956 0544 1A60     		str	r2, [r3]
 3957              	.L315:
 3958 0546 019B     		ldr	r3, [sp, #4]
 3959 0548 0133     		adds	r3, r3, #1
 3960 054a 0193     		str	r3, [sp, #4]
 3961 054c AB42     		cmp	r3, r5
 3962 054e 04D8     		bhi	.L314
 3963 0550 2368     		ldr	r3, [r4]
 3964 0552 1B68     		ldr	r3, [r3]
 3965 0554 13F0010F 		tst	r3, #1
 3966 0558 F5D1     		bne	.L315
 3967              	.L314:
 3968 055a 2368     		ldr	r3, [r4]
 3969 055c 1B68     		ldr	r3, [r3]
 3970 055e 13F0010F 		tst	r3, #1
 3971 0562 0BD0     		beq	.L316
 3972 0564 0323     		movs	r3, #3
 3973 0566 84F83530 		strb	r3, [r4, #53]
 3974              	.L317:
 3975 056a 0023     		movs	r3, #0
 3976 056c 84F83430 		strb	r3, [r4, #52]
 3977              	.L310:
 3978 0570 E36C     		ldr	r3, [r4, #76]
 3979 0572 0BB1     		cbz	r3, .L275
 3980 0574 2046     		mov	r0, r4
 3981 0576 9847     		blx	r3
 3982              	.L275:
 3983 0578 03B0     		add	sp, sp, #12
 3984              		@ sp needed
 3985 057a F0BD     		pop	{r4, r5, r6, r7, pc}
 3986              	.L316:
 3987 057c 0123     		movs	r3, #1
 3988 057e 84F83530 		strb	r3, [r4, #53]
 3989 0582 F2E7     		b	.L317
 3990              	.L320:
 3991 0584 236C     		ldr	r3, [r4, #64]
 3992 0586 002B     		cmp	r3, #0
 3993 0588 F6D0     		beq	.L275
 3994 058a 2046     		mov	r0, r4
 3995 058c 9847     		blx	r3
 3996 058e F3E7     		b	.L275
 3997              	.L319:
 3998 0590 12F0200F 		tst	r2, #32
 3999 0594 3AD1     		bne	.L321
 4000 0596 2368     		ldr	r3, [r4]
 4001 0598 6449     		ldr	r1, .L339
 4002 059a 654A     		ldr	r2, .L339+4
 4003 059c 9342     		cmp	r3, r2
 4004 059e 18BF     		it	ne
 4005 05a0 8B42     		cmpne	r3, r1
 4006 05a2 2FD0     		beq	.L322
 4007 05a4 1832     		adds	r2, r2, #24
 4008 05a6 9342     		cmp	r3, r2
 4009 05a8 2CD0     		beq	.L322
 4010 05aa 1832     		adds	r2, r2, #24
 4011 05ac 9342     		cmp	r3, r2
ARM GAS  C:\Users\thewo\AppData\Local\Temp\ccgZg82m.s 			page 71


 4012 05ae 29D0     		beq	.L322
 4013 05b0 1832     		adds	r2, r2, #24
 4014 05b2 9342     		cmp	r3, r2
 4015 05b4 26D0     		beq	.L322
 4016 05b6 1832     		adds	r2, r2, #24
 4017 05b8 9342     		cmp	r3, r2
 4018 05ba 23D0     		beq	.L322
 4019 05bc 1832     		adds	r2, r2, #24
 4020 05be 9342     		cmp	r3, r2
 4021 05c0 20D0     		beq	.L322
 4022 05c2 1832     		adds	r2, r2, #24
 4023 05c4 9342     		cmp	r3, r2
 4024 05c6 1DD0     		beq	.L322
 4025 05c8 02F55672 		add	r2, r2, #856
 4026 05cc 9342     		cmp	r3, r2
 4027 05ce 19D0     		beq	.L322
 4028 05d0 1832     		adds	r2, r2, #24
 4029 05d2 9342     		cmp	r3, r2
 4030 05d4 16D0     		beq	.L322
 4031 05d6 1832     		adds	r2, r2, #24
 4032 05d8 9342     		cmp	r3, r2
 4033 05da 13D0     		beq	.L322
 4034 05dc 1832     		adds	r2, r2, #24
 4035 05de 9342     		cmp	r3, r2
 4036 05e0 10D0     		beq	.L322
 4037 05e2 1832     		adds	r2, r2, #24
 4038 05e4 9342     		cmp	r3, r2
 4039 05e6 0DD0     		beq	.L322
 4040 05e8 1832     		adds	r2, r2, #24
 4041 05ea 9342     		cmp	r3, r2
 4042 05ec 0AD0     		beq	.L322
 4043 05ee 1832     		adds	r2, r2, #24
 4044 05f0 9342     		cmp	r3, r2
 4045 05f2 07D0     		beq	.L322
 4046 05f4 1832     		adds	r2, r2, #24
 4047 05f6 9342     		cmp	r3, r2
 4048 05f8 04D0     		beq	.L322
 4049 05fa 1A68     		ldr	r2, [r3]
 4050 05fc 22F00402 		bic	r2, r2, #4
 4051 0600 1A60     		str	r2, [r3]
 4052 0602 03E0     		b	.L321
 4053              	.L322:
 4054 0604 1A68     		ldr	r2, [r3]
 4055 0606 22F00802 		bic	r2, r2, #8
 4056 060a 1A60     		str	r2, [r3]
 4057              	.L321:
 4058 060c 236C     		ldr	r3, [r4, #64]
 4059 060e 002B     		cmp	r3, #0
 4060 0610 B2D0     		beq	.L275
 4061 0612 2046     		mov	r0, r4
 4062 0614 9847     		blx	r3
 4063 0616 AFE7     		b	.L275
 4064              	.L318:
 4065 0618 0220     		movs	r0, #2
 4066 061a 8840     		lsls	r0, r0, r1
 4067 061c 10EA0C0F 		tst	r0, ip
 4068 0620 60D0     		beq	.L324
ARM GAS  C:\Users\thewo\AppData\Local\Temp\ccgZg82m.s 			page 72


 4069 0622 12F0020F 		tst	r2, #2
 4070 0626 5DD0     		beq	.L324
 4071 0628 7860     		str	r0, [r7, #4]
 4072 062a 12F4004F 		tst	r2, #32768
 4073 062e 0ED0     		beq	.L325
 4074 0630 12F4803F 		tst	r2, #65536
 4075 0634 05D1     		bne	.L326
 4076 0636 636C     		ldr	r3, [r4, #68]
 4077 0638 002B     		cmp	r3, #0
 4078 063a 9DD0     		beq	.L275
 4079 063c 2046     		mov	r0, r4
 4080 063e 9847     		blx	r3
 4081 0640 9AE7     		b	.L275
 4082              	.L326:
 4083 0642 E36B     		ldr	r3, [r4, #60]
 4084 0644 002B     		cmp	r3, #0
 4085 0646 97D0     		beq	.L275
 4086 0648 2046     		mov	r0, r4
 4087 064a 9847     		blx	r3
 4088 064c 94E7     		b	.L275
 4089              	.L325:
 4090 064e 12F0200F 		tst	r2, #32
 4091 0652 40D1     		bne	.L327
 4092 0654 2368     		ldr	r3, [r4]
 4093 0656 3549     		ldr	r1, .L339
 4094 0658 354A     		ldr	r2, .L339+4
 4095 065a 9342     		cmp	r3, r2
 4096 065c 18BF     		it	ne
 4097 065e 8B42     		cmpne	r3, r1
 4098 0660 2FD0     		beq	.L328
 4099 0662 1832     		adds	r2, r2, #24
 4100 0664 9342     		cmp	r3, r2
 4101 0666 2CD0     		beq	.L328
 4102 0668 1832     		adds	r2, r2, #24
 4103 066a 9342     		cmp	r3, r2
 4104 066c 29D0     		beq	.L328
 4105 066e 1832     		adds	r2, r2, #24
 4106 0670 9342     		cmp	r3, r2
 4107 0672 26D0     		beq	.L328
 4108 0674 1832     		adds	r2, r2, #24
 4109 0676 9342     		cmp	r3, r2
 4110 0678 23D0     		beq	.L328
 4111 067a 1832     		adds	r2, r2, #24
 4112 067c 9342     		cmp	r3, r2
 4113 067e 20D0     		beq	.L328
 4114 0680 1832     		adds	r2, r2, #24
 4115 0682 9342     		cmp	r3, r2
 4116 0684 1DD0     		beq	.L328
 4117 0686 02F55672 		add	r2, r2, #856
 4118 068a 9342     		cmp	r3, r2
 4119 068c 19D0     		beq	.L328
 4120 068e 1832     		adds	r2, r2, #24
 4121 0690 9342     		cmp	r3, r2
 4122 0692 16D0     		beq	.L328
 4123 0694 1832     		adds	r2, r2, #24
 4124 0696 9342     		cmp	r3, r2
 4125 0698 13D0     		beq	.L328
ARM GAS  C:\Users\thewo\AppData\Local\Temp\ccgZg82m.s 			page 73


 4126 069a 1832     		adds	r2, r2, #24
 4127 069c 9342     		cmp	r3, r2
 4128 069e 10D0     		beq	.L328
 4129 06a0 1832     		adds	r2, r2, #24
 4130 06a2 9342     		cmp	r3, r2
 4131 06a4 0DD0     		beq	.L328
 4132 06a6 1832     		adds	r2, r2, #24
 4133 06a8 9342     		cmp	r3, r2
 4134 06aa 0AD0     		beq	.L328
 4135 06ac 1832     		adds	r2, r2, #24
 4136 06ae 9342     		cmp	r3, r2
 4137 06b0 07D0     		beq	.L328
 4138 06b2 1832     		adds	r2, r2, #24
 4139 06b4 9342     		cmp	r3, r2
 4140 06b6 04D0     		beq	.L328
 4141 06b8 1A68     		ldr	r2, [r3]
 4142 06ba 22F00A02 		bic	r2, r2, #10
 4143 06be 1A60     		str	r2, [r3]
 4144 06c0 03E0     		b	.L330
 4145              	.L328:
 4146 06c2 1A68     		ldr	r2, [r3]
 4147 06c4 22F01402 		bic	r2, r2, #20
 4148 06c8 1A60     		str	r2, [r3]
 4149              	.L330:
 4150 06ca 0123     		movs	r3, #1
 4151 06cc 84F83530 		strb	r3, [r4, #53]
 4152 06d0 0023     		movs	r3, #0
 4153 06d2 84F83430 		strb	r3, [r4, #52]
 4154              	.L327:
 4155 06d6 E36B     		ldr	r3, [r4, #60]
 4156 06d8 002B     		cmp	r3, #0
 4157 06da 3FF44DAF 		beq	.L275
 4158 06de 2046     		mov	r0, r4
 4159 06e0 9847     		blx	r3
 4160 06e2 49E7     		b	.L275
 4161              	.L324:
 4162 06e4 0820     		movs	r0, #8
 4163 06e6 00FA01F1 		lsl	r1, r0, r1
 4164 06ea 11EA0C0F 		tst	r1, ip
 4165 06ee 3FF443AF 		beq	.L275
 4166 06f2 12F0080F 		tst	r2, #8
 4167 06f6 3FF43FAF 		beq	.L275
 4168 06fa 1A68     		ldr	r2, [r3]
 4169 06fc 22F00E02 		bic	r2, r2, #14
 4170 0700 1A60     		str	r2, [r3]
 4171 0702 E36D     		ldr	r3, [r4, #92]
 4172 0704 03F01F03 		and	r3, r3, #31
 4173 0708 0122     		movs	r2, #1
 4174 070a 02FA03F3 		lsl	r3, r2, r3
 4175 070e 7B60     		str	r3, [r7, #4]
 4176 0710 6265     		str	r2, [r4, #84]
 4177 0712 84F83520 		strb	r2, [r4, #53]
 4178 0716 0023     		movs	r3, #0
 4179 0718 84F83430 		strb	r3, [r4, #52]
 4180 071c E36C     		ldr	r3, [r4, #76]
 4181 071e 002B     		cmp	r3, #0
 4182 0720 3FF42AAF 		beq	.L275
ARM GAS  C:\Users\thewo\AppData\Local\Temp\ccgZg82m.s 			page 74


 4183 0724 2046     		mov	r0, r4
 4184 0726 9847     		blx	r3
 4185 0728 26E7     		b	.L275
 4186              	.L340:
 4187 072a 00BF     		.align	2
 4188              	.L339:
 4189 072c 10000240 		.word	1073872912
 4190 0730 28000240 		.word	1073872936
 4192              		.section	.text.HAL_DMA_RegisterCallback,"ax",%progbits
 4193              		.align	1
 4194              		.global	HAL_DMA_RegisterCallback
 4195              		.syntax unified
 4196              		.thumb
 4197              		.thumb_func
 4199              	HAL_DMA_RegisterCallback:
 4200              		@ args = 0, pretend = 0, frame = 0
 4201              		@ frame_needed = 0, uses_anonymous_args = 0
 4202              		@ link register save eliminated.
 4203 0000 0346     		mov	r3, r0
 4204 0002 58B3     		cbz	r0, .L351
 4205 0004 90F83400 		ldrb	r0, [r0, #52]	@ zero_extendqisi2
 4206 0008 0128     		cmp	r0, #1
 4207 000a 29D0     		beq	.L352
 4208 000c 0120     		movs	r0, #1
 4209 000e 83F83400 		strb	r0, [r3, #52]
 4210 0012 93F835C0 		ldrb	ip, [r3, #53]	@ zero_extendqisi2
 4211 0016 5FFA8CF0 		uxtb	r0, ip
 4212 001a BCF1010F 		cmp	ip, #1
 4213 001e 04D0     		beq	.L355
 4214 0020 0120     		movs	r0, #1
 4215              	.L343:
 4216 0022 0022     		movs	r2, #0
 4217 0024 83F83420 		strb	r2, [r3, #52]
 4218 0028 7047     		bx	lr
 4219              	.L355:
 4220 002a 0529     		cmp	r1, #5
 4221 002c F9D8     		bhi	.L343
 4222 002e DFE801F0 		tbb	[pc, r1]
 4223              	.L345:
 4224 0032 03       		.byte	(.L350-.L345)/2
 4225 0033 06       		.byte	(.L349-.L345)/2
 4226 0034 09       		.byte	(.L348-.L345)/2
 4227 0035 0C       		.byte	(.L347-.L345)/2
 4228 0036 0F       		.byte	(.L346-.L345)/2
 4229 0037 12       		.byte	(.L344-.L345)/2
 4230              		.p2align 1
 4231              	.L350:
 4232 0038 DA63     		str	r2, [r3, #60]
 4233 003a 0846     		mov	r0, r1
 4234 003c F1E7     		b	.L343
 4235              	.L349:
 4236 003e 1A64     		str	r2, [r3, #64]
 4237 0040 0020     		movs	r0, #0
 4238 0042 EEE7     		b	.L343
 4239              	.L348:
 4240 0044 5A64     		str	r2, [r3, #68]
 4241 0046 0020     		movs	r0, #0
ARM GAS  C:\Users\thewo\AppData\Local\Temp\ccgZg82m.s 			page 75


 4242 0048 EBE7     		b	.L343
 4243              	.L347:
 4244 004a 9A64     		str	r2, [r3, #72]
 4245 004c 0020     		movs	r0, #0
 4246 004e E8E7     		b	.L343
 4247              	.L346:
 4248 0050 DA64     		str	r2, [r3, #76]
 4249 0052 0020     		movs	r0, #0
 4250 0054 E5E7     		b	.L343
 4251              	.L344:
 4252 0056 1A65     		str	r2, [r3, #80]
 4253 0058 0020     		movs	r0, #0
 4254 005a E2E7     		b	.L343
 4255              	.L351:
 4256 005c 0120     		movs	r0, #1
 4257 005e 7047     		bx	lr
 4258              	.L352:
 4259 0060 0220     		movs	r0, #2
 4260 0062 7047     		bx	lr
 4262              		.section	.text.HAL_DMA_UnRegisterCallback,"ax",%progbits
 4263              		.align	1
 4264              		.global	HAL_DMA_UnRegisterCallback
 4265              		.syntax unified
 4266              		.thumb
 4267              		.thumb_func
 4269              	HAL_DMA_UnRegisterCallback:
 4270              		@ args = 0, pretend = 0, frame = 0
 4271              		@ frame_needed = 0, uses_anonymous_args = 0
 4272              		@ link register save eliminated.
 4273 0000 0346     		mov	r3, r0
 4274 0002 0028     		cmp	r0, #0
 4275 0004 33D0     		beq	.L367
 4276 0006 90F83420 		ldrb	r2, [r0, #52]	@ zero_extendqisi2
 4277 000a 012A     		cmp	r2, #1
 4278 000c 31D0     		beq	.L368
 4279 000e 0122     		movs	r2, #1
 4280 0010 80F83420 		strb	r2, [r0, #52]
 4281 0014 90F83520 		ldrb	r2, [r0, #53]	@ zero_extendqisi2
 4282 0018 D0B2     		uxtb	r0, r2
 4283 001a 012A     		cmp	r2, #1
 4284 001c 04D0     		beq	.L371
 4285 001e 0120     		movs	r0, #1
 4286              	.L358:
 4287 0020 0022     		movs	r2, #0
 4288 0022 83F83420 		strb	r2, [r3, #52]
 4289 0026 7047     		bx	lr
 4290              	.L371:
 4291 0028 0629     		cmp	r1, #6
 4292 002a F9D8     		bhi	.L358
 4293 002c DFE801F0 		tbb	[pc, r1]
 4294              	.L360:
 4295 0030 04       		.byte	(.L366-.L360)/2
 4296 0031 08       		.byte	(.L365-.L360)/2
 4297 0032 0B       		.byte	(.L364-.L360)/2
 4298 0033 0E       		.byte	(.L363-.L360)/2
 4299 0034 11       		.byte	(.L362-.L360)/2
 4300 0035 14       		.byte	(.L361-.L360)/2
ARM GAS  C:\Users\thewo\AppData\Local\Temp\ccgZg82m.s 			page 76


 4301 0036 17       		.byte	(.L359-.L360)/2
 4302 0037 00       		.p2align 1
 4303              	.L366:
 4304 0038 0022     		movs	r2, #0
 4305 003a DA63     		str	r2, [r3, #60]
 4306 003c 0846     		mov	r0, r1
 4307 003e EFE7     		b	.L358
 4308              	.L365:
 4309 0040 0020     		movs	r0, #0
 4310 0042 1864     		str	r0, [r3, #64]
 4311 0044 ECE7     		b	.L358
 4312              	.L364:
 4313 0046 0020     		movs	r0, #0
 4314 0048 5864     		str	r0, [r3, #68]
 4315 004a E9E7     		b	.L358
 4316              	.L363:
 4317 004c 0020     		movs	r0, #0
 4318 004e 9864     		str	r0, [r3, #72]
 4319 0050 E6E7     		b	.L358
 4320              	.L362:
 4321 0052 0020     		movs	r0, #0
 4322 0054 D864     		str	r0, [r3, #76]
 4323 0056 E3E7     		b	.L358
 4324              	.L361:
 4325 0058 0020     		movs	r0, #0
 4326 005a 1865     		str	r0, [r3, #80]
 4327 005c E0E7     		b	.L358
 4328              	.L359:
 4329 005e 0020     		movs	r0, #0
 4330 0060 D863     		str	r0, [r3, #60]
 4331 0062 1864     		str	r0, [r3, #64]
 4332 0064 5864     		str	r0, [r3, #68]
 4333 0066 9864     		str	r0, [r3, #72]
 4334 0068 D864     		str	r0, [r3, #76]
 4335 006a 1865     		str	r0, [r3, #80]
 4336 006c D8E7     		b	.L358
 4337              	.L367:
 4338 006e 0120     		movs	r0, #1
 4339 0070 7047     		bx	lr
 4340              	.L368:
 4341 0072 0220     		movs	r0, #2
 4342 0074 7047     		bx	lr
 4344              		.section	.text.HAL_DMA_GetState,"ax",%progbits
 4345              		.align	1
 4346              		.global	HAL_DMA_GetState
 4347              		.syntax unified
 4348              		.thumb
 4349              		.thumb_func
 4351              	HAL_DMA_GetState:
 4352              		@ args = 0, pretend = 0, frame = 0
 4353              		@ frame_needed = 0, uses_anonymous_args = 0
 4354              		@ link register save eliminated.
 4355 0000 90F83500 		ldrb	r0, [r0, #53]	@ zero_extendqisi2
 4356 0004 7047     		bx	lr
 4358              		.section	.text.HAL_DMA_GetError,"ax",%progbits
 4359              		.align	1
 4360              		.global	HAL_DMA_GetError
ARM GAS  C:\Users\thewo\AppData\Local\Temp\ccgZg82m.s 			page 77


 4361              		.syntax unified
 4362              		.thumb
 4363              		.thumb_func
 4365              	HAL_DMA_GetError:
 4366              		@ args = 0, pretend = 0, frame = 0
 4367              		@ frame_needed = 0, uses_anonymous_args = 0
 4368              		@ link register save eliminated.
 4369 0000 406D     		ldr	r0, [r0, #84]
 4370 0002 7047     		bx	lr
 4372              		.section	.rodata.flagBitshiftOffset.0,"a"
 4373              		.align	2
 4376              	flagBitshiftOffset.0:
 4377 0000 00061016 		.ascii	"\000\006\020\026\000\006\020\026"
 4377      00061016 
 4378              		.ident	"GCC: (xPack GNU Arm Embedded GCC x86_64) 14.2.1 20241119"
ARM GAS  C:\Users\thewo\AppData\Local\Temp\ccgZg82m.s 			page 78

