ARM GAS  C:\Users\thewo\AppData\Local\Temp\ccwHwmiB.s 			page 1


   1              		.cpu cortex-m7
   2              		.arch armv7e-m
   3              		.fpu fpv5-d16
   4              		.eabi_attribute 28, 1
   5              		.eabi_attribute 20, 1
   6              		.eabi_attribute 21, 1
   7              		.eabi_attribute 23, 3
   8              		.eabi_attribute 24, 1
   9              		.eabi_attribute 25, 1
  10              		.eabi_attribute 26, 1
  11              		.eabi_attribute 30, 1
  12              		.eabi_attribute 34, 1
  13              		.eabi_attribute 18, 4
  14              		.file	"stm32h7xx_hal_flash_ex.c"
  15              		.text
  16              		.section	.text.FLASH_OB_GetWRP,"ax",%progbits
  17              		.align	1
  18              		.syntax unified
  19              		.thumb
  20              		.thumb_func
  22              	FLASH_OB_GetWRP:
  23              		@ args = 0, pretend = 0, frame = 0
  24              		@ frame_needed = 0, uses_anonymous_args = 0
  25              		@ link register save eliminated.
  26 0000 012A     		cmp	r2, #1
  27 0002 06D0     		beq	.L6
  28 0004 0023     		movs	r3, #0
  29              	.L2:
  30 0006 DB43     		mvns	r3, r3
  31 0008 DBB2     		uxtb	r3, r3
  32 000a 0B60     		str	r3, [r1]
  33 000c 23B9     		cbnz	r3, .L3
  34 000e 0360     		str	r3, [r0]
  35 0010 7047     		bx	lr
  36              	.L6:
  37 0012 034B     		ldr	r3, .L7
  38 0014 9B6B     		ldr	r3, [r3, #56]
  39 0016 F6E7     		b	.L2
  40              	.L3:
  41 0018 0123     		movs	r3, #1
  42 001a 0360     		str	r3, [r0]
  43 001c 7047     		bx	lr
  44              	.L8:
  45 001e 00BF     		.align	2
  46              	.L7:
  47 0020 00200052 		.word	1375739904
  49              		.section	.text.FLASH_OB_GetRDP,"ax",%progbits
  50              		.align	1
  51              		.syntax unified
  52              		.thumb
  53              		.thumb_func
  55              	FLASH_OB_GetRDP:
  56              		@ args = 0, pretend = 0, frame = 0
  57              		@ frame_needed = 0, uses_anonymous_args = 0
  58              		@ link register save eliminated.
  59 0000 064B     		ldr	r3, .L12
  60 0002 D869     		ldr	r0, [r3, #28]
ARM GAS  C:\Users\thewo\AppData\Local\Temp\ccwHwmiB.s 			page 2


  61 0004 00F47F40 		and	r0, r0, #65280
  62 0008 B0F52A4F 		cmp	r0, #43520
  63 000c 18BF     		it	ne
  64 000e B0F54C4F 		cmpne	r0, #52224
  65 0012 00D1     		bne	.L11
  66              	.L9:
  67 0014 7047     		bx	lr
  68              	.L11:
  69 0016 4FF4AA40 		mov	r0, #21760
  70 001a FBE7     		b	.L9
  71              	.L13:
  72              		.align	2
  73              	.L12:
  74 001c 00200052 		.word	1375739904
  76              		.section	.text.FLASH_OB_GetUser,"ax",%progbits
  77              		.align	1
  78              		.syntax unified
  79              		.thumb
  80              		.thumb_func
  82              	FLASH_OB_GetUser:
  83              		@ args = 0, pretend = 0, frame = 0
  84              		@ frame_needed = 0, uses_anonymous_args = 0
  85              		@ link register save eliminated.
  86 0000 024B     		ldr	r3, .L15
  87 0002 DB69     		ldr	r3, [r3, #28]
  88 0004 0248     		ldr	r0, .L15+4
  89 0006 1840     		ands	r0, r0, r3
  90 0008 7047     		bx	lr
  91              	.L16:
  92 000a 00BF     		.align	2
  93              	.L15:
  94 000c 00200052 		.word	1375739904
  95 0010 F300FFFF 		.word	-65293
  97              		.section	.text.FLASH_OB_GetPCROP,"ax",%progbits
  98              		.align	1
  99              		.syntax unified
 100              		.thumb
 101              		.thumb_func
 103              	FLASH_OB_GetPCROP:
 104              		@ args = 0, pretend = 0, frame = 0
 105              		@ frame_needed = 0, uses_anonymous_args = 0
 106              		@ link register save eliminated.
 107 0000 10B4     		push	{r4}
 108 0002 012B     		cmp	r3, #1
 109 0004 13D0     		beq	.L21
 110 0006 4FF0000C 		mov	ip, #0
 111 000a 6346     		mov	r3, ip
 112              	.L18:
 113 000c 03F00044 		and	r4, r3, #-2147483648
 114 0010 0460     		str	r4, [r0]
 115 0012 0948     		ldr	r0, .L22
 116 0014 00EA0320 		and	r0, r0, r3, lsl #8
 117 0018 6044     		add	r0, r0, ip
 118 001a 0860     		str	r0, [r1]
 119 001c C3F30B43 		ubfx	r3, r3, #16, #12
 120 0020 1360     		str	r3, [r2]
 121 0022 0CEB0323 		add	r3, ip, r3, lsl #8
ARM GAS  C:\Users\thewo\AppData\Local\Temp\ccwHwmiB.s 			page 3


 122 0026 1360     		str	r3, [r2]
 123 0028 5DF8044B 		ldr	r4, [sp], #4
 124 002c 7047     		bx	lr
 125              	.L21:
 126 002e 034B     		ldr	r3, .L22+4
 127 0030 9B6A     		ldr	r3, [r3, #40]
 128 0032 4FF0006C 		mov	ip, #134217728
 129 0036 E9E7     		b	.L18
 130              	.L23:
 131              		.align	2
 132              	.L22:
 133 0038 00FF0F00 		.word	1048320
 134 003c 00200052 		.word	1375739904
 136              		.section	.text.FLASH_OB_GetBOR,"ax",%progbits
 137              		.align	1
 138              		.syntax unified
 139              		.thumb
 140              		.thumb_func
 142              	FLASH_OB_GetBOR:
 143              		@ args = 0, pretend = 0, frame = 0
 144              		@ frame_needed = 0, uses_anonymous_args = 0
 145              		@ link register save eliminated.
 146 0000 024B     		ldr	r3, .L25
 147 0002 D869     		ldr	r0, [r3, #28]
 148 0004 00F00C00 		and	r0, r0, #12
 149 0008 7047     		bx	lr
 150              	.L26:
 151 000a 00BF     		.align	2
 152              	.L25:
 153 000c 00200052 		.word	1375739904
 155              		.section	.text.FLASH_OB_GetBootAdd,"ax",%progbits
 156              		.align	1
 157              		.syntax unified
 158              		.thumb
 159              		.thumb_func
 161              	FLASH_OB_GetBootAdd:
 162              		@ args = 0, pretend = 0, frame = 0
 163              		@ frame_needed = 0, uses_anonymous_args = 0
 164              		@ link register save eliminated.
 165 0000 034B     		ldr	r3, .L28
 166 0002 1B6C     		ldr	r3, [r3, #64]
 167 0004 1A04     		lsls	r2, r3, #16
 168 0006 0260     		str	r2, [r0]
 169 0008 6FF30F03 		bfc	r3, #0, #16
 170 000c 0B60     		str	r3, [r1]
 171 000e 7047     		bx	lr
 172              	.L29:
 173              		.align	2
 174              	.L28:
 175 0010 00200052 		.word	1375739904
 177              		.section	.text.FLASH_OB_GetSecureArea,"ax",%progbits
 178              		.align	1
 179              		.syntax unified
 180              		.thumb
 181              		.thumb_func
 183              	FLASH_OB_GetSecureArea:
 184              		@ args = 0, pretend = 0, frame = 0
ARM GAS  C:\Users\thewo\AppData\Local\Temp\ccwHwmiB.s 			page 4


 185              		@ frame_needed = 0, uses_anonymous_args = 0
 186              		@ link register save eliminated.
 187 0000 10B4     		push	{r4}
 188 0002 012B     		cmp	r3, #1
 189 0004 13D0     		beq	.L34
 190 0006 4FF0000C 		mov	ip, #0
 191 000a 6346     		mov	r3, ip
 192              	.L31:
 193 000c 03F00044 		and	r4, r3, #-2147483648
 194 0010 0460     		str	r4, [r0]
 195 0012 0948     		ldr	r0, .L35
 196 0014 00EA0320 		and	r0, r0, r3, lsl #8
 197 0018 6044     		add	r0, r0, ip
 198 001a 0860     		str	r0, [r1]
 199 001c C3F30B43 		ubfx	r3, r3, #16, #12
 200 0020 1360     		str	r3, [r2]
 201 0022 0CEB0323 		add	r3, ip, r3, lsl #8
 202 0026 1360     		str	r3, [r2]
 203 0028 5DF8044B 		ldr	r4, [sp], #4
 204 002c 7047     		bx	lr
 205              	.L34:
 206 002e 034B     		ldr	r3, .L35+4
 207 0030 1B6B     		ldr	r3, [r3, #48]
 208 0032 4FF0006C 		mov	ip, #134217728
 209 0036 E9E7     		b	.L31
 210              	.L36:
 211              		.align	2
 212              	.L35:
 213 0038 00FF0F00 		.word	1048320
 214 003c 00200052 		.word	1375739904
 216              		.section	.text.FLASH_OB_SharedRAM_GetConfig,"ax",%progbits
 217              		.align	1
 218              		.syntax unified
 219              		.thumb
 220              		.thumb_func
 222              	FLASH_OB_SharedRAM_GetConfig:
 223              		@ args = 0, pretend = 0, frame = 0
 224              		@ frame_needed = 0, uses_anonymous_args = 0
 225              		@ link register save eliminated.
 226 0000 024B     		ldr	r3, .L38
 227 0002 186F     		ldr	r0, [r3, #112]
 228 0004 00F00300 		and	r0, r0, #3
 229 0008 7047     		bx	lr
 230              	.L39:
 231 000a 00BF     		.align	2
 232              	.L38:
 233 000c 00200052 		.word	1375739904
 235              		.section	.text.FLASH_OB_CPUFreq_GetBoost,"ax",%progbits
 236              		.align	1
 237              		.syntax unified
 238              		.thumb
 239              		.thumb_func
 241              	FLASH_OB_CPUFreq_GetBoost:
 242              		@ args = 0, pretend = 0, frame = 0
 243              		@ frame_needed = 0, uses_anonymous_args = 0
 244              		@ link register save eliminated.
 245 0000 024B     		ldr	r3, .L41
ARM GAS  C:\Users\thewo\AppData\Local\Temp\ccwHwmiB.s 			page 5


 246 0002 186F     		ldr	r0, [r3, #112]
 247 0004 00F00400 		and	r0, r0, #4
 248 0008 7047     		bx	lr
 249              	.L42:
 250 000a 00BF     		.align	2
 251              	.L41:
 252 000c 00200052 		.word	1375739904
 254              		.section	.rodata.FLASH_MassErase.str1.4,"aMS",%progbits,1
 255              		.align	2
 256              	.LC0:
 257 0000 44726976 		.ascii	"Drivers/STM32H7xx_HAL_Driver/Src/stm32h7xx_hal_flas"
 257      6572732F 
 257      53544D33 
 257      32483778 
 257      785F4841 
 258 0033 685F6578 		.ascii	"h_ex.c\000"
 258      2E6300
 259              		.section	.text.FLASH_MassErase,"ax",%progbits
 260              		.align	1
 261              		.syntax unified
 262              		.thumb
 263              		.thumb_func
 265              	FLASH_MassErase:
 266              		@ args = 0, pretend = 0, frame = 0
 267              		@ frame_needed = 0, uses_anonymous_args = 0
 268 0000 38B5     		push	{r3, r4, r5, lr}
 269 0002 0446     		mov	r4, r0
 270 0004 0D46     		mov	r5, r1
 271 0006 0028     		cmp	r0, #0
 272 0008 18BF     		it	ne
 273 000a 1028     		cmpne	r0, #16
 274 000c 06D0     		beq	.L44
 275 000e B0F13003 		subs	r3, r0, #48
 276 0012 18BF     		it	ne
 277 0014 0123     		movne	r3, #1
 278 0016 2028     		cmp	r0, #32
 279 0018 00D0     		beq	.L44
 280 001a 73B9     		cbnz	r3, .L48
 281              	.L44:
 282 001c 012D     		cmp	r5, #1
 283 001e 12D1     		bne	.L49
 284              	.L45:
 285 0020 0D4B     		ldr	r3, .L50
 286 0022 DA68     		ldr	r2, [r3, #12]
 287 0024 22F03002 		bic	r2, r2, #48
 288 0028 DA60     		str	r2, [r3, #12]
 289 002a DA68     		ldr	r2, [r3, #12]
 290 002c 2243     		orrs	r2, r2, r4
 291 002e DA60     		str	r2, [r3, #12]
 292 0030 DA68     		ldr	r2, [r3, #12]
 293 0032 42F08802 		orr	r2, r2, #136
 294 0036 DA60     		str	r2, [r3, #12]
 295              	.L43:
 296 0038 38BD     		pop	{r3, r4, r5, pc}
 297              	.L48:
 298 003a 40F25341 		movw	r1, #1107
 299 003e 0748     		ldr	r0, .L50+4
ARM GAS  C:\Users\thewo\AppData\Local\Temp\ccwHwmiB.s 			page 6


 300 0040 FFF7FEFF 		bl	assert_failed
 301 0044 EAE7     		b	.L44
 302              	.L49:
 303 0046 40F25741 		movw	r1, #1111
 304 004a 0448     		ldr	r0, .L50+4
 305 004c FFF7FEFF 		bl	assert_failed
 306 0050 15F0010F 		tst	r5, #1
 307 0054 F0D0     		beq	.L43
 308 0056 E3E7     		b	.L45
 309              	.L51:
 310              		.align	2
 311              	.L50:
 312 0058 00200052 		.word	1375739904
 313 005c 00000000 		.word	.LC0
 315              		.section	.text.FLASH_OB_EnableWRP,"ax",%progbits
 316              		.align	1
 317              		.syntax unified
 318              		.thumb
 319              		.thumb_func
 321              	FLASH_OB_EnableWRP:
 322              		@ args = 0, pretend = 0, frame = 0
 323              		@ frame_needed = 0, uses_anonymous_args = 0
 324 0000 38B5     		push	{r3, r4, r5, lr}
 325 0002 0446     		mov	r4, r0
 326 0004 0D46     		mov	r5, r1
 327 0006 431E     		subs	r3, r0, #1
 328 0008 FE2B     		cmp	r3, #254
 329 000a 08D8     		bhi	.L57
 330              	.L53:
 331 000c 012D     		cmp	r5, #1
 332 000e 0CD1     		bne	.L58
 333              	.L54:
 334 0010 0A4A     		ldr	r2, .L59
 335 0012 D36B     		ldr	r3, [r2, #60]
 336 0014 E4B2     		uxtb	r4, r4
 337 0016 23EA0403 		bic	r3, r3, r4
 338 001a D363     		str	r3, [r2, #60]
 339              	.L52:
 340 001c 38BD     		pop	{r3, r4, r5, pc}
 341              	.L57:
 342 001e 4FF49B61 		mov	r1, #1240
 343 0022 0748     		ldr	r0, .L59+4
 344 0024 FFF7FEFF 		bl	assert_failed
 345 0028 F0E7     		b	.L53
 346              	.L58:
 347 002a 40F2D941 		movw	r1, #1241
 348 002e 0448     		ldr	r0, .L59+4
 349 0030 FFF7FEFF 		bl	assert_failed
 350 0034 15F0010F 		tst	r5, #1
 351 0038 F0D0     		beq	.L52
 352 003a E9E7     		b	.L54
 353              	.L60:
 354              		.align	2
 355              	.L59:
 356 003c 00200052 		.word	1375739904
 357 0040 00000000 		.word	.LC0
 359              		.section	.text.FLASH_OB_DisableWRP,"ax",%progbits
ARM GAS  C:\Users\thewo\AppData\Local\Temp\ccwHwmiB.s 			page 7


 360              		.align	1
 361              		.syntax unified
 362              		.thumb
 363              		.thumb_func
 365              	FLASH_OB_DisableWRP:
 366              		@ args = 0, pretend = 0, frame = 0
 367              		@ frame_needed = 0, uses_anonymous_args = 0
 368 0000 38B5     		push	{r3, r4, r5, lr}
 369 0002 0446     		mov	r4, r0
 370 0004 0D46     		mov	r5, r1
 371 0006 431E     		subs	r3, r0, #1
 372 0008 FE2B     		cmp	r3, #254
 373 000a 07D8     		bhi	.L66
 374              	.L62:
 375 000c 012D     		cmp	r5, #1
 376 000e 0BD1     		bne	.L67
 377              	.L63:
 378 0010 0A4A     		ldr	r2, .L68
 379 0012 D36B     		ldr	r3, [r2, #60]
 380 0014 E4B2     		uxtb	r4, r4
 381 0016 2343     		orrs	r3, r3, r4
 382 0018 D363     		str	r3, [r2, #60]
 383              	.L61:
 384 001a 38BD     		pop	{r3, r4, r5, pc}
 385              	.L66:
 386 001c 40F2FB41 		movw	r1, #1275
 387 0020 0748     		ldr	r0, .L68+4
 388 0022 FFF7FEFF 		bl	assert_failed
 389 0026 F1E7     		b	.L62
 390              	.L67:
 391 0028 40F2FC41 		movw	r1, #1276
 392 002c 0448     		ldr	r0, .L68+4
 393 002e FFF7FEFF 		bl	assert_failed
 394 0032 15F0010F 		tst	r5, #1
 395 0036 F0D0     		beq	.L61
 396 0038 EAE7     		b	.L63
 397              	.L69:
 398 003a 00BF     		.align	2
 399              	.L68:
 400 003c 00200052 		.word	1375739904
 401 0040 00000000 		.word	.LC0
 403              		.section	.text.FLASH_OB_RDPConfig,"ax",%progbits
 404              		.align	1
 405              		.syntax unified
 406              		.thumb
 407              		.thumb_func
 409              	FLASH_OB_RDPConfig:
 410              		@ args = 0, pretend = 0, frame = 0
 411              		@ frame_needed = 0, uses_anonymous_args = 0
 412 0000 10B5     		push	{r4, lr}
 413 0002 0446     		mov	r4, r0
 414 0004 B0F52A4F 		cmp	r0, #43520
 415 0008 18BF     		it	ne
 416 000a B0F5AA4F 		cmpne	r0, #21760
 417 000e 02D0     		beq	.L71
 418 0010 B0F54C4F 		cmp	r0, #52224
 419 0014 06D1     		bne	.L73
ARM GAS  C:\Users\thewo\AppData\Local\Temp\ccwHwmiB.s 			page 8


 420              	.L71:
 421 0016 064A     		ldr	r2, .L74
 422 0018 136A     		ldr	r3, [r2, #32]
 423 001a 23F47F43 		bic	r3, r3, #65280
 424 001e 2343     		orrs	r3, r3, r4
 425 0020 1362     		str	r3, [r2, #32]
 426 0022 10BD     		pop	{r4, pc}
 427              	.L73:
 428 0024 4FF4AA61 		mov	r1, #1360
 429 0028 0248     		ldr	r0, .L74+4
 430 002a FFF7FEFF 		bl	assert_failed
 431 002e F2E7     		b	.L71
 432              	.L75:
 433              		.align	2
 434              	.L74:
 435 0030 00200052 		.word	1375739904
 436 0034 00000000 		.word	.LC0
 438              		.section	.text.FLASH_OB_UserConfig,"ax",%progbits
 439              		.align	1
 440              		.syntax unified
 441              		.thumb
 442              		.thumb_func
 444              	FLASH_OB_UserConfig:
 445              		@ args = 0, pretend = 0, frame = 0
 446              		@ frame_needed = 0, uses_anonymous_args = 0
 447 0000 2DE9F041 		push	{r4, r5, r6, r7, r8, lr}
 448 0004 0446     		mov	r4, r0
 449 0006 0F46     		mov	r7, r1
 450 0008 43F2FF03 		movw	r3, #12543
 451 000c 1842     		tst	r0, r3
 452 000e 02D0     		beq	.L77
 453 0010 394B     		ldr	r3, .L93
 454 0012 0340     		ands	r3, r3, r0
 455 0014 23B1     		cbz	r3, .L78
 456              	.L77:
 457 0016 40F29C51 		movw	r1, #1436
 458 001a 3848     		ldr	r0, .L93+4
 459 001c FFF7FEFF 		bl	assert_failed
 460              	.L78:
 461 0020 14F00105 		ands	r5, r4, #1
 462 0024 5FD0     		beq	.L90
 463 0026 07F01005 		and	r5, r7, #16
 464 002a 1026     		movs	r6, #16
 465              	.L79:
 466 002c 14F0020F 		tst	r4, #2
 467 0030 04D0     		beq	.L80
 468 0032 07F04003 		and	r3, r7, #64
 469 0036 1D43     		orrs	r5, r5, r3
 470 0038 46F04006 		orr	r6, r6, #64
 471              	.L80:
 472 003c 14F0040F 		tst	r4, #4
 473 0040 04D0     		beq	.L81
 474 0042 07F08003 		and	r3, r7, #128
 475 0046 1D43     		orrs	r5, r5, r3
 476 0048 46F08006 		orr	r6, r6, #128
 477              	.L81:
 478 004c 14F0080F 		tst	r4, #8
ARM GAS  C:\Users\thewo\AppData\Local\Temp\ccwHwmiB.s 			page 9


 479 0050 04D0     		beq	.L82
 480 0052 07F40033 		and	r3, r7, #131072
 481 0056 1D43     		orrs	r5, r5, r3
 482 0058 46F40036 		orr	r6, r6, #131072
 483              	.L82:
 484 005c 14F0100F 		tst	r4, #16
 485 0060 04D0     		beq	.L83
 486 0062 07F48023 		and	r3, r7, #262144
 487 0066 1D43     		orrs	r5, r5, r3
 488 0068 46F48026 		orr	r6, r6, #262144
 489              	.L83:
 490 006c 14F0200F 		tst	r4, #32
 491 0070 11D0     		beq	.L84
 492 0072 07F4C018 		and	r8, r7, #1572864
 493 0076 B8F1000F 		cmp	r8, #0
 494 007a 18BF     		it	ne
 495 007c B8F5002F 		cmpne	r8, #524288
 496 0080 05D0     		beq	.L85
 497 0082 B8F5801F 		cmp	r8, #1048576
 498 0086 02D0     		beq	.L85
 499 0088 B8F5C01F 		cmp	r8, #1572864
 500 008c 2DD1     		bne	.L92
 501              	.L85:
 502 008e 45EA0805 		orr	r5, r5, r8
 503 0092 46F4C016 		orr	r6, r6, #1572864
 504              	.L84:
 505 0096 14F0400F 		tst	r4, #64
 506 009a 04D0     		beq	.L86
 507 009c 07F40013 		and	r3, r7, #2097152
 508 00a0 1D43     		orrs	r5, r5, r3
 509 00a2 46F40016 		orr	r6, r6, #2097152
 510              	.L86:
 511 00a6 14F4805F 		tst	r4, #4096
 512 00aa 04D0     		beq	.L87
 513 00ac 07F08073 		and	r3, r7, #16777216
 514 00b0 1D43     		orrs	r5, r5, r3
 515 00b2 46F08076 		orr	r6, r6, #16777216
 516              	.L87:
 517 00b6 14F4005F 		tst	r4, #8192
 518 00ba 04D0     		beq	.L88
 519 00bc 07F00073 		and	r3, r7, #33554432
 520 00c0 1D43     		orrs	r5, r5, r3
 521 00c2 46F00076 		orr	r6, r6, #33554432
 522              	.L88:
 523 00c6 14F0800F 		tst	r4, #128
 524 00ca 04D0     		beq	.L89
 525 00cc 07F00057 		and	r7, r7, #536870912
 526 00d0 3D43     		orrs	r5, r5, r7
 527 00d2 46F00056 		orr	r6, r6, #536870912
 528              	.L89:
 529 00d6 0A4A     		ldr	r2, .L93+8
 530 00d8 136A     		ldr	r3, [r2, #32]
 531 00da 23EA0603 		bic	r3, r3, r6
 532 00de 2B43     		orrs	r3, r3, r5
 533 00e0 1362     		str	r3, [r2, #32]
 534 00e2 BDE8F081 		pop	{r4, r5, r6, r7, r8, pc}
 535              	.L90:
ARM GAS  C:\Users\thewo\AppData\Local\Temp\ccwHwmiB.s 			page 10


 536 00e6 2E46     		mov	r6, r5
 537 00e8 A0E7     		b	.L79
 538              	.L92:
 539 00ea 40F2DD51 		movw	r1, #1501
 540 00ee 0348     		ldr	r0, .L93+4
 541 00f0 FFF7FEFF 		bl	assert_failed
 542 00f4 CBE7     		b	.L85
 543              	.L94:
 544 00f6 00BF     		.align	2
 545              	.L93:
 546 00f8 00CFFFFF 		.word	-12544
 547 00fc 00000000 		.word	.LC0
 548 0100 00200052 		.word	1375739904
 550              		.section	.text.FLASH_OB_PCROPConfig,"ax",%progbits
 551              		.align	1
 552              		.syntax unified
 553              		.thumb
 554              		.thumb_func
 556              	FLASH_OB_PCROPConfig:
 557              		@ args = 0, pretend = 0, frame = 0
 558              		@ frame_needed = 0, uses_anonymous_args = 0
 559 0000 F8B5     		push	{r3, r4, r5, r6, r7, lr}
 560 0002 0546     		mov	r5, r0
 561 0004 0E46     		mov	r6, r1
 562 0006 1446     		mov	r4, r2
 563 0008 1F46     		mov	r7, r3
 564 000a 012B     		cmp	r3, #1
 565 000c 19D1     		bne	.L102
 566              	.L96:
 567 000e 002D     		cmp	r5, #0
 568 0010 18BF     		it	ne
 569 0012 B5F1004F 		cmpne	r5, #-2147483648
 570 0016 1AD1     		bne	.L103
 571              	.L97:
 572 0018 17F0010F 		tst	r7, #1
 573 001c 10D0     		beq	.L95
 574 001e 06F17846 		add	r6, r6, #-134217728
 575 0022 B6F5801F 		cmp	r6, #1048576
 576 0026 18D2     		bcs	.L104
 577              	.L99:
 578 0028 04F17844 		add	r4, r4, #-134217728
 579 002c B4F5801F 		cmp	r4, #1048576
 580 0030 19D2     		bcs	.L105
 581              	.L100:
 582 0032 240A     		lsrs	r4, r4, #8
 583 0034 2404     		lsls	r4, r4, #16
 584 0036 44EA1624 		orr	r4, r4, r6, lsr #8
 585 003a 2C43     		orrs	r4, r4, r5
 586 003c 0D4B     		ldr	r3, .L106
 587 003e DC62     		str	r4, [r3, #44]
 588              	.L95:
 589 0040 F8BD     		pop	{r3, r4, r5, r6, r7, pc}
 590              	.L102:
 591 0042 40F27761 		movw	r1, #1655
 592 0046 0C48     		ldr	r0, .L106+4
 593 0048 FFF7FEFF 		bl	assert_failed
 594 004c DFE7     		b	.L96
ARM GAS  C:\Users\thewo\AppData\Local\Temp\ccwHwmiB.s 			page 11


 595              	.L103:
 596 004e 4FF4CF61 		mov	r1, #1656
 597 0052 0948     		ldr	r0, .L106+4
 598 0054 FFF7FEFF 		bl	assert_failed
 599 0058 DEE7     		b	.L97
 600              	.L104:
 601 005a 40F27C61 		movw	r1, #1660
 602 005e 0648     		ldr	r0, .L106+4
 603 0060 FFF7FEFF 		bl	assert_failed
 604 0064 E0E7     		b	.L99
 605              	.L105:
 606 0066 40F27D61 		movw	r1, #1661
 607 006a 0348     		ldr	r0, .L106+4
 608 006c FFF7FEFF 		bl	assert_failed
 609 0070 DFE7     		b	.L100
 610              	.L107:
 611 0072 00BF     		.align	2
 612              	.L106:
 613 0074 00200052 		.word	1375739904
 614 0078 00000000 		.word	.LC0
 616              		.section	.text.FLASH_OB_BOR_LevelConfig,"ax",%progbits
 617              		.align	1
 618              		.syntax unified
 619              		.thumb
 620              		.thumb_func
 622              	FLASH_OB_BOR_LevelConfig:
 623              		@ args = 0, pretend = 0, frame = 0
 624              		@ frame_needed = 0, uses_anonymous_args = 0
 625 0000 10B5     		push	{r4, lr}
 626 0002 0446     		mov	r4, r0
 627 0004 0028     		cmp	r0, #0
 628 0006 18BF     		it	ne
 629 0008 0428     		cmpne	r0, #4
 630 000a 06D0     		beq	.L109
 631 000c B0F10C03 		subs	r3, r0, #12
 632 0010 18BF     		it	ne
 633 0012 0123     		movne	r3, #1
 634 0014 0828     		cmp	r0, #8
 635 0016 00D0     		beq	.L109
 636 0018 33B9     		cbnz	r3, .L111
 637              	.L109:
 638 001a 064A     		ldr	r2, .L112
 639 001c 136A     		ldr	r3, [r2, #32]
 640 001e 23F00C03 		bic	r3, r3, #12
 641 0022 2343     		orrs	r3, r3, r4
 642 0024 1362     		str	r3, [r2, #32]
 643 0026 10BD     		pop	{r4, pc}
 644              	.L111:
 645 0028 40F2CB61 		movw	r1, #1739
 646 002c 0248     		ldr	r0, .L112+4
 647 002e FFF7FEFF 		bl	assert_failed
 648 0032 F2E7     		b	.L109
 649              	.L113:
 650              		.align	2
 651              	.L112:
 652 0034 00200052 		.word	1375739904
 653 0038 00000000 		.word	.LC0
ARM GAS  C:\Users\thewo\AppData\Local\Temp\ccwHwmiB.s 			page 12


 655              		.section	.text.FLASH_OB_BootAddConfig,"ax",%progbits
 656              		.align	1
 657              		.syntax unified
 658              		.thumb
 659              		.thumb_func
 661              	FLASH_OB_BootAddConfig:
 662              		@ args = 0, pretend = 0, frame = 0
 663              		@ frame_needed = 0, uses_anonymous_args = 0
 664 0000 70B5     		push	{r4, r5, r6, lr}
 665 0002 0446     		mov	r4, r0
 666 0004 0E46     		mov	r6, r1
 667 0006 1546     		mov	r5, r2
 668 0008 431E     		subs	r3, r0, #1
 669 000a 022B     		cmp	r3, #2
 670 000c 18D8     		bhi	.L121
 671              	.L115:
 672 000e 14F0010F 		tst	r4, #1
 673 0012 09D0     		beq	.L116
 674 0014 134B     		ldr	r3, .L124
 675 0016 9E42     		cmp	r6, r3
 676 0018 18D8     		bhi	.L122
 677              	.L117:
 678 001a 134A     		ldr	r2, .L124+4
 679 001c 536C     		ldr	r3, [r2, #68]
 680 001e 6FF30F03 		bfc	r3, #0, #16
 681 0022 43EA1643 		orr	r3, r3, r6, lsr #16
 682 0026 5364     		str	r3, [r2, #68]
 683              	.L116:
 684 0028 14F0020F 		tst	r4, #2
 685 002c 07D0     		beq	.L114
 686 002e 0D4B     		ldr	r3, .L124
 687 0030 9D42     		cmp	r5, r3
 688 0032 11D8     		bhi	.L123
 689              	.L119:
 690 0034 0C4A     		ldr	r2, .L124+4
 691 0036 536C     		ldr	r3, [r2, #68]
 692 0038 9BB2     		uxth	r3, r3
 693 003a 2B43     		orrs	r3, r3, r5
 694 003c 5364     		str	r3, [r2, #68]
 695              	.L114:
 696 003e 70BD     		pop	{r4, r5, r6, pc}
 697              	.L121:
 698 0040 40F2EC61 		movw	r1, #1772
 699 0044 0948     		ldr	r0, .L124+8
 700 0046 FFF7FEFF 		bl	assert_failed
 701 004a E0E7     		b	.L115
 702              	.L122:
 703 004c 40F2F161 		movw	r1, #1777
 704 0050 0648     		ldr	r0, .L124+8
 705 0052 FFF7FEFF 		bl	assert_failed
 706 0056 E0E7     		b	.L117
 707              	.L123:
 708 0058 40F2FE61 		movw	r1, #1790
 709 005c 0348     		ldr	r0, .L124+8
 710 005e FFF7FEFF 		bl	assert_failed
 711 0062 E7E7     		b	.L119
 712              	.L125:
ARM GAS  C:\Users\thewo\AppData\Local\Temp\ccwHwmiB.s 			page 13


 713              		.align	2
 714              	.L124:
 715 0064 0000FF3F 		.word	1073676288
 716 0068 00200052 		.word	1375739904
 717 006c 00000000 		.word	.LC0
 719              		.section	.text.FLASH_OB_SecureAreaConfig,"ax",%progbits
 720              		.align	1
 721              		.syntax unified
 722              		.thumb
 723              		.thumb_func
 725              	FLASH_OB_SecureAreaConfig:
 726              		@ args = 0, pretend = 0, frame = 0
 727              		@ frame_needed = 0, uses_anonymous_args = 0
 728 0000 F8B5     		push	{r3, r4, r5, r6, r7, lr}
 729 0002 0546     		mov	r5, r0
 730 0004 0E46     		mov	r6, r1
 731 0006 1446     		mov	r4, r2
 732 0008 1F46     		mov	r7, r3
 733 000a 012B     		cmp	r3, #1
 734 000c 1BD1     		bne	.L133
 735              	.L127:
 736 000e 002D     		cmp	r5, #0
 737 0010 18BF     		it	ne
 738 0012 B5F1004F 		cmpne	r5, #-2147483648
 739 0016 1CD1     		bne	.L134
 740              	.L128:
 741 0018 17F0010F 		tst	r7, #1
 742 001c 12D0     		beq	.L126
 743 001e 06F17846 		add	r6, r6, #-134217728
 744 0022 B6F5801F 		cmp	r6, #1048576
 745 0026 1AD2     		bcs	.L135
 746              	.L130:
 747 0028 04F17844 		add	r4, r4, #-134217728
 748 002c B4F5801F 		cmp	r4, #1048576
 749 0030 1BD2     		bcs	.L136
 750              	.L131:
 751 0032 240A     		lsrs	r4, r4, #8
 752 0034 2404     		lsls	r4, r4, #16
 753 0036 44EA1624 		orr	r4, r4, r6, lsr #8
 754 003a 05F00045 		and	r5, r5, #-2147483648
 755 003e 2C43     		orrs	r4, r4, r5
 756 0040 0D4B     		ldr	r3, .L137
 757 0042 5C63     		str	r4, [r3, #52]
 758              	.L126:
 759 0044 F8BD     		pop	{r3, r4, r5, r6, r7, pc}
 760              	.L133:
 761 0046 40F26671 		movw	r1, #1894
 762 004a 0C48     		ldr	r0, .L137+4
 763 004c FFF7FEFF 		bl	assert_failed
 764 0050 DDE7     		b	.L127
 765              	.L134:
 766 0052 40F26771 		movw	r1, #1895
 767 0056 0948     		ldr	r0, .L137+4
 768 0058 FFF7FEFF 		bl	assert_failed
 769 005c DCE7     		b	.L128
 770              	.L135:
 771 005e 40F26C71 		movw	r1, #1900
ARM GAS  C:\Users\thewo\AppData\Local\Temp\ccwHwmiB.s 			page 14


 772 0062 0648     		ldr	r0, .L137+4
 773 0064 FFF7FEFF 		bl	assert_failed
 774 0068 DEE7     		b	.L130
 775              	.L136:
 776 006a 40F26D71 		movw	r1, #1901
 777 006e 0348     		ldr	r0, .L137+4
 778 0070 FFF7FEFF 		bl	assert_failed
 779 0074 DDE7     		b	.L131
 780              	.L138:
 781 0076 00BF     		.align	2
 782              	.L137:
 783 0078 00200052 		.word	1375739904
 784 007c 00000000 		.word	.LC0
 786              		.section	.text.FLASH_OB_SharedRAM_Config,"ax",%progbits
 787              		.align	1
 788              		.syntax unified
 789              		.thumb
 790              		.thumb_func
 792              	FLASH_OB_SharedRAM_Config:
 793              		@ args = 0, pretend = 0, frame = 0
 794              		@ frame_needed = 0, uses_anonymous_args = 0
 795 0000 10B5     		push	{r4, lr}
 796 0002 0446     		mov	r4, r0
 797 0004 0328     		cmp	r0, #3
 798 0006 06D8     		bhi	.L142
 799              	.L140:
 800 0008 064A     		ldr	r2, .L143
 801 000a 536F     		ldr	r3, [r2, #116]
 802 000c 23F00303 		bic	r3, r3, #3
 803 0010 2343     		orrs	r3, r3, r4
 804 0012 5367     		str	r3, [r2, #116]
 805 0014 10BD     		pop	{r4, pc}
 806              	.L142:
 807 0016 40F60E01 		movw	r1, #2062
 808 001a 0348     		ldr	r0, .L143+4
 809 001c FFF7FEFF 		bl	assert_failed
 810 0020 F2E7     		b	.L140
 811              	.L144:
 812 0022 00BF     		.align	2
 813              	.L143:
 814 0024 00200052 		.word	1375739904
 815 0028 00000000 		.word	.LC0
 817              		.section	.text.FLASH_OB_CPUFreq_BoostConfig,"ax",%progbits
 818              		.align	1
 819              		.syntax unified
 820              		.thumb
 821              		.thumb_func
 823              	FLASH_OB_CPUFreq_BoostConfig:
 824              		@ args = 0, pretend = 0, frame = 0
 825              		@ frame_needed = 0, uses_anonymous_args = 0
 826 0000 10B5     		push	{r4, lr}
 827 0002 0446     		mov	r4, r0
 828 0004 0028     		cmp	r0, #0
 829 0006 18BF     		it	ne
 830 0008 0428     		cmpne	r0, #4
 831 000a 06D1     		bne	.L148
 832              	.L146:
ARM GAS  C:\Users\thewo\AppData\Local\Temp\ccwHwmiB.s 			page 15


 833 000c 064A     		ldr	r2, .L149
 834 000e 536F     		ldr	r3, [r2, #116]
 835 0010 23F00403 		bic	r3, r3, #4
 836 0014 2343     		orrs	r3, r3, r4
 837 0016 5367     		str	r3, [r2, #116]
 838 0018 10BD     		pop	{r4, pc}
 839              	.L148:
 840 001a 40F62901 		movw	r1, #2089
 841 001e 0348     		ldr	r0, .L149+4
 842 0020 FFF7FEFF 		bl	assert_failed
 843 0024 F2E7     		b	.L146
 844              	.L150:
 845 0026 00BF     		.align	2
 846              	.L149:
 847 0028 00200052 		.word	1375739904
 848 002c 00000000 		.word	.LC0
 850              		.section	.text.FLASH_CRC_AddSector,"ax",%progbits
 851              		.align	1
 852              		.syntax unified
 853              		.thumb
 854              		.thumb_func
 856              	FLASH_CRC_AddSector:
 857              		@ args = 0, pretend = 0, frame = 0
 858              		@ frame_needed = 0, uses_anonymous_args = 0
 859 0000 38B5     		push	{r3, r4, r5, lr}
 860 0002 0446     		mov	r4, r0
 861 0004 0D46     		mov	r5, r1
 862 0006 0728     		cmp	r0, #7
 863 0008 02D8     		bhi	.L155
 864              	.L152:
 865 000a 012D     		cmp	r5, #1
 866 000c 06D0     		beq	.L156
 867              	.L151:
 868 000e 38BD     		pop	{r3, r4, r5, pc}
 869              	.L155:
 870 0010 40F2B171 		movw	r1, #1969
 871 0014 0748     		ldr	r0, .L157
 872 0016 FFF7FEFF 		bl	assert_failed
 873 001a F6E7     		b	.L152
 874              	.L156:
 875 001c 064A     		ldr	r2, .L157+4
 876 001e 136D     		ldr	r3, [r2, #80]
 877 0020 23F00703 		bic	r3, r3, #7
 878 0024 1365     		str	r3, [r2, #80]
 879 0026 136D     		ldr	r3, [r2, #80]
 880 0028 2343     		orrs	r3, r3, r4
 881 002a 43F40073 		orr	r3, r3, #512
 882 002e 1365     		str	r3, [r2, #80]
 883 0030 EDE7     		b	.L151
 884              	.L158:
 885 0032 00BF     		.align	2
 886              	.L157:
 887 0034 00000000 		.word	.LC0
 888 0038 00200052 		.word	1375739904
 890              		.section	.text.FLASH_CRC_SelectAddress,"ax",%progbits
 891              		.align	1
 892              		.syntax unified
ARM GAS  C:\Users\thewo\AppData\Local\Temp\ccwHwmiB.s 			page 16


 893              		.thumb
 894              		.thumb_func
 896              	FLASH_CRC_SelectAddress:
 897              		@ args = 0, pretend = 0, frame = 0
 898              		@ frame_needed = 0, uses_anonymous_args = 0
 899 0000 012A     		cmp	r2, #1
 900 0002 00D0     		beq	.L167
 901 0004 7047     		bx	lr
 902              	.L167:
 903 0006 38B5     		push	{r3, r4, r5, lr}
 904 0008 0546     		mov	r5, r0
 905 000a 0C46     		mov	r4, r1
 906 000c 00F17843 		add	r3, r0, #-134217728
 907 0010 B3F5801F 		cmp	r3, #1048576
 908 0014 08D2     		bcs	.L168
 909              	.L161:
 910 0016 04F17843 		add	r3, r4, #-134217728
 911 001a B3F5801F 		cmp	r3, #1048576
 912 001e 09D2     		bcs	.L169
 913              	.L162:
 914 0020 074B     		ldr	r3, .L170
 915 0022 5D65     		str	r5, [r3, #84]
 916 0024 9C65     		str	r4, [r3, #88]
 917 0026 38BD     		pop	{r3, r4, r5, pc}
 918              	.L168:
 919 0028 40F2D271 		movw	r1, #2002
 920 002c 0548     		ldr	r0, .L170+4
 921 002e FFF7FEFF 		bl	assert_failed
 922 0032 F0E7     		b	.L161
 923              	.L169:
 924 0034 40F2D371 		movw	r1, #2003
 925 0038 0248     		ldr	r0, .L170+4
 926 003a FFF7FEFF 		bl	assert_failed
 927 003e EFE7     		b	.L162
 928              	.L171:
 929              		.align	2
 930              	.L170:
 931 0040 00200052 		.word	1375739904
 932 0044 00000000 		.word	.LC0
 934              		.section	.text.HAL_FLASHEx_OBProgram,"ax",%progbits
 935              		.align	1
 936              		.global	HAL_FLASHEx_OBProgram
 937              		.syntax unified
 938              		.thumb
 939              		.thumb_func
 941              	HAL_FLASHEx_OBProgram:
 942              		@ args = 0, pretend = 0, frame = 0
 943              		@ frame_needed = 0, uses_anonymous_args = 0
 944 0000 38B5     		push	{r3, r4, r5, lr}
 945 0002 0446     		mov	r4, r0
 946 0004 0268     		ldr	r2, [r0]
 947 0006 40F27F33 		movw	r3, #895
 948 000a 1A42     		tst	r2, r3
 949 000c 03D0     		beq	.L173
 950 000e A3F2FF63 		subw	r3, r3, #1791
 951 0012 1340     		ands	r3, r3, r2
 952 0014 23B1     		cbz	r3, .L174
ARM GAS  C:\Users\thewo\AppData\Local\Temp\ccwHwmiB.s 			page 17


 953              	.L173:
 954 0016 40F2AD11 		movw	r1, #429
 955 001a 4248     		ldr	r0, .L200
 956 001c FFF7FEFF 		bl	assert_failed
 957              	.L174:
 958 0020 414B     		ldr	r3, .L200+4
 959 0022 1B7D     		ldrb	r3, [r3, #20]	@ zero_extendqisi2
 960 0024 012B     		cmp	r3, #1
 961 0026 7BD0     		beq	.L188
 962 0028 3F4B     		ldr	r3, .L200+4
 963 002a 0121     		movs	r1, #1
 964 002c 1975     		strb	r1, [r3, #20]
 965 002e 0022     		movs	r2, #0
 966 0030 9A61     		str	r2, [r3, #24]
 967 0032 4CF25030 		movw	r0, #50000
 968 0036 FFF7FEFF 		bl	FLASH_WaitForLastOperation
 969 003a 0546     		mov	r5, r0
 970 003c 0028     		cmp	r0, #0
 971 003e 69D1     		bne	.L189
 972 0040 2368     		ldr	r3, [r4]
 973 0042 13F0010F 		tst	r3, #1
 974 0046 09D0     		beq	.L177
 975 0048 6368     		ldr	r3, [r4, #4]
 976 004a 012B     		cmp	r3, #1
 977 004c 33D8     		bhi	.L191
 978              	.L178:
 979 004e 6368     		ldr	r3, [r4, #4]
 980 0050 012B     		cmp	r3, #1
 981 0052 36D0     		beq	.L192
 982 0054 E169     		ldr	r1, [r4, #28]
 983 0056 A068     		ldr	r0, [r4, #8]
 984 0058 FFF7FEFF 		bl	FLASH_OB_DisableWRP
 985              	.L177:
 986 005c 2368     		ldr	r3, [r4]
 987 005e 13F0020F 		tst	r3, #2
 988 0062 33D1     		bne	.L193
 989              	.L180:
 990 0064 2368     		ldr	r3, [r4]
 991 0066 13F0040F 		tst	r3, #4
 992 006a 33D1     		bne	.L194
 993              	.L181:
 994 006c 2368     		ldr	r3, [r4]
 995 006e 13F0080F 		tst	r3, #8
 996 0072 08D0     		beq	.L182
 997 0074 E369     		ldr	r3, [r4, #28]
 998 0076 012B     		cmp	r3, #1
 999 0078 31D1     		bne	.L195
 1000              	.L183:
 1001 007a E369     		ldr	r3, [r4, #28]
 1002 007c A26A     		ldr	r2, [r4, #40]
 1003 007e 616A     		ldr	r1, [r4, #36]
 1004 0080 206A     		ldr	r0, [r4, #32]
 1005 0082 FFF7FEFF 		bl	FLASH_OB_PCROPConfig
 1006              	.L182:
 1007 0086 2368     		ldr	r3, [r4]
 1008 0088 13F0100F 		tst	r3, #16
 1009 008c 2DD1     		bne	.L196
ARM GAS  C:\Users\thewo\AppData\Local\Temp\ccwHwmiB.s 			page 18


 1010              	.L184:
 1011 008e 2368     		ldr	r3, [r4]
 1012 0090 13F0400F 		tst	r3, #64
 1013 0094 2DD1     		bne	.L197
 1014              	.L185:
 1015 0096 2368     		ldr	r3, [r4]
 1016 0098 13F0200F 		tst	r3, #32
 1017 009c 2FD1     		bne	.L198
 1018              	.L186:
 1019 009e 2368     		ldr	r3, [r4]
 1020 00a0 13F4807F 		tst	r3, #256
 1021 00a4 32D1     		bne	.L199
 1022              	.L187:
 1023 00a6 2368     		ldr	r3, [r4]
 1024 00a8 13F4007F 		tst	r3, #512
 1025 00ac 33D0     		beq	.L176
 1026 00ae A06C     		ldr	r0, [r4, #72]
 1027 00b0 FFF7FEFF 		bl	FLASH_OB_CPUFreq_BoostConfig
 1028 00b4 2FE0     		b	.L176
 1029              	.L191:
 1030 00b6 4FF4E571 		mov	r1, #458
 1031 00ba 1A48     		ldr	r0, .L200
 1032 00bc FFF7FEFF 		bl	assert_failed
 1033 00c0 C5E7     		b	.L178
 1034              	.L192:
 1035 00c2 E169     		ldr	r1, [r4, #28]
 1036 00c4 A068     		ldr	r0, [r4, #8]
 1037 00c6 FFF7FEFF 		bl	FLASH_OB_EnableWRP
 1038 00ca C7E7     		b	.L177
 1039              	.L193:
 1040 00cc E068     		ldr	r0, [r4, #12]
 1041 00ce FFF7FEFF 		bl	FLASH_OB_RDPConfig
 1042 00d2 C7E7     		b	.L180
 1043              	.L194:
 1044 00d4 A169     		ldr	r1, [r4, #24]
 1045 00d6 6069     		ldr	r0, [r4, #20]
 1046 00d8 FFF7FEFF 		bl	FLASH_OB_UserConfig
 1047 00dc C6E7     		b	.L181
 1048              	.L195:
 1049 00de 40F2E911 		movw	r1, #489
 1050 00e2 1048     		ldr	r0, .L200
 1051 00e4 FFF7FEFF 		bl	assert_failed
 1052 00e8 C7E7     		b	.L183
 1053              	.L196:
 1054 00ea 2069     		ldr	r0, [r4, #16]
 1055 00ec FFF7FEFF 		bl	FLASH_OB_BOR_LevelConfig
 1056 00f0 CDE7     		b	.L184
 1057              	.L197:
 1058 00f2 626B     		ldr	r2, [r4, #52]
 1059 00f4 216B     		ldr	r1, [r4, #48]
 1060 00f6 E06A     		ldr	r0, [r4, #44]
 1061 00f8 FFF7FEFF 		bl	FLASH_OB_BootAddConfig
 1062 00fc CBE7     		b	.L185
 1063              	.L198:
 1064 00fe E369     		ldr	r3, [r4, #28]
 1065 0100 226C     		ldr	r2, [r4, #64]
 1066 0102 E16B     		ldr	r1, [r4, #60]
ARM GAS  C:\Users\thewo\AppData\Local\Temp\ccwHwmiB.s 			page 19


 1067 0104 A06B     		ldr	r0, [r4, #56]
 1068 0106 FFF7FEFF 		bl	FLASH_OB_SecureAreaConfig
 1069 010a C8E7     		b	.L186
 1070              	.L199:
 1071 010c 606C     		ldr	r0, [r4, #68]
 1072 010e FFF7FEFF 		bl	FLASH_OB_SharedRAM_Config
 1073 0112 C8E7     		b	.L187
 1074              	.L189:
 1075 0114 0125     		movs	r5, #1
 1076              	.L176:
 1077 0116 044B     		ldr	r3, .L200+4
 1078 0118 0022     		movs	r2, #0
 1079 011a 1A75     		strb	r2, [r3, #20]
 1080              	.L175:
 1081 011c 2846     		mov	r0, r5
 1082 011e 38BD     		pop	{r3, r4, r5, pc}
 1083              	.L188:
 1084 0120 0225     		movs	r5, #2
 1085 0122 FBE7     		b	.L175
 1086              	.L201:
 1087              		.align	2
 1088              	.L200:
 1089 0124 00000000 		.word	.LC0
 1090 0128 00000000 		.word	pFlash
 1092              		.section	.text.HAL_FLASHEx_OBGetConfig,"ax",%progbits
 1093              		.align	1
 1094              		.global	HAL_FLASHEx_OBGetConfig
 1095              		.syntax unified
 1096              		.thumb
 1097              		.thumb_func
 1099              	HAL_FLASHEx_OBGetConfig:
 1100              		@ args = 0, pretend = 0, frame = 0
 1101              		@ frame_needed = 0, uses_anonymous_args = 0
 1102 0000 10B5     		push	{r4, lr}
 1103 0002 0446     		mov	r4, r0
 1104 0004 1623     		movs	r3, #22
 1105 0006 0360     		str	r3, [r0]
 1106 0008 FFF7FEFF 		bl	FLASH_OB_GetRDP
 1107 000c E060     		str	r0, [r4, #12]
 1108 000e FFF7FEFF 		bl	FLASH_OB_GetUser
 1109 0012 A061     		str	r0, [r4, #24]
 1110 0014 FFF7FEFF 		bl	FLASH_OB_GetBOR
 1111 0018 2061     		str	r0, [r4, #16]
 1112 001a E269     		ldr	r2, [r4, #28]
 1113 001c 012A     		cmp	r2, #1
 1114 001e 17D0     		beq	.L205
 1115              	.L203:
 1116 0020 04F13401 		add	r1, r4, #52
 1117 0024 04F13000 		add	r0, r4, #48
 1118 0028 FFF7FEFF 		bl	FLASH_OB_GetBootAdd
 1119 002c 2368     		ldr	r3, [r4]
 1120 002e 43F04002 		orr	r2, r3, #64
 1121 0032 2260     		str	r2, [r4]
 1122 0034 43F4A073 		orr	r3, r3, #320
 1123 0038 2360     		str	r3, [r4]
 1124 003a FFF7FEFF 		bl	FLASH_OB_SharedRAM_GetConfig
 1125 003e 6064     		str	r0, [r4, #68]
ARM GAS  C:\Users\thewo\AppData\Local\Temp\ccwHwmiB.s 			page 20


 1126 0040 2368     		ldr	r3, [r4]
 1127 0042 43F40073 		orr	r3, r3, #512
 1128 0046 2360     		str	r3, [r4]
 1129 0048 FFF7FEFF 		bl	FLASH_OB_CPUFreq_GetBoost
 1130 004c A064     		str	r0, [r4, #72]
 1131 004e 10BD     		pop	{r4, pc}
 1132              	.L205:
 1133 0050 2368     		ldr	r3, [r4]
 1134 0052 43F02903 		orr	r3, r3, #41
 1135 0056 2146     		mov	r1, r4
 1136 0058 41F8083B 		str	r3, [r1], #8
 1137 005c 201D     		adds	r0, r4, #4
 1138 005e FFF7FEFF 		bl	FLASH_OB_GetWRP
 1139 0062 E369     		ldr	r3, [r4, #28]
 1140 0064 04F12802 		add	r2, r4, #40
 1141 0068 04F12401 		add	r1, r4, #36
 1142 006c 04F12000 		add	r0, r4, #32
 1143 0070 FFF7FEFF 		bl	FLASH_OB_GetPCROP
 1144 0074 E369     		ldr	r3, [r4, #28]
 1145 0076 04F14002 		add	r2, r4, #64
 1146 007a 04F13C01 		add	r1, r4, #60
 1147 007e 04F13800 		add	r0, r4, #56
 1148 0082 FFF7FEFF 		bl	FLASH_OB_GetSecureArea
 1149 0086 CBE7     		b	.L203
 1151              		.section	.text.HAL_FLASHEx_Unlock_Bank1,"ax",%progbits
 1152              		.align	1
 1153              		.global	HAL_FLASHEx_Unlock_Bank1
 1154              		.syntax unified
 1155              		.thumb
 1156              		.thumb_func
 1158              	HAL_FLASHEx_Unlock_Bank1:
 1159              		@ args = 0, pretend = 0, frame = 0
 1160              		@ frame_needed = 0, uses_anonymous_args = 0
 1161              		@ link register save eliminated.
 1162 0000 0A4B     		ldr	r3, .L210
 1163 0002 DB68     		ldr	r3, [r3, #12]
 1164 0004 13F0010F 		tst	r3, #1
 1165 0008 0BD0     		beq	.L208
 1166 000a 084B     		ldr	r3, .L210
 1167 000c 084A     		ldr	r2, .L210+4
 1168 000e 5A60     		str	r2, [r3, #4]
 1169 0010 02F18832 		add	r2, r2, #-2004318072
 1170 0014 5A60     		str	r2, [r3, #4]
 1171 0016 DB68     		ldr	r3, [r3, #12]
 1172 0018 13F0010F 		tst	r3, #1
 1173 001c 03D1     		bne	.L209
 1174 001e 0020     		movs	r0, #0
 1175 0020 7047     		bx	lr
 1176              	.L208:
 1177 0022 0020     		movs	r0, #0
 1178 0024 7047     		bx	lr
 1179              	.L209:
 1180 0026 0120     		movs	r0, #1
 1181 0028 7047     		bx	lr
 1182              	.L211:
 1183 002a 00BF     		.align	2
 1184              	.L210:
ARM GAS  C:\Users\thewo\AppData\Local\Temp\ccwHwmiB.s 			page 21


 1185 002c 00200052 		.word	1375739904
 1186 0030 23016745 		.word	1164378403
 1188              		.section	.text.HAL_FLASHEx_Lock_Bank1,"ax",%progbits
 1189              		.align	1
 1190              		.global	HAL_FLASHEx_Lock_Bank1
 1191              		.syntax unified
 1192              		.thumb
 1193              		.thumb_func
 1195              	HAL_FLASHEx_Lock_Bank1:
 1196              		@ args = 0, pretend = 0, frame = 0
 1197              		@ frame_needed = 0, uses_anonymous_args = 0
 1198              		@ link register save eliminated.
 1199 0000 034A     		ldr	r2, .L213
 1200 0002 D368     		ldr	r3, [r2, #12]
 1201 0004 43F00103 		orr	r3, r3, #1
 1202 0008 D360     		str	r3, [r2, #12]
 1203 000a 0020     		movs	r0, #0
 1204 000c 7047     		bx	lr
 1205              	.L214:
 1206 000e 00BF     		.align	2
 1207              	.L213:
 1208 0010 00200052 		.word	1375739904
 1210              		.section	.text.HAL_FLASHEx_ComputeCRC,"ax",%progbits
 1211              		.align	1
 1212              		.global	HAL_FLASHEx_ComputeCRC
 1213              		.syntax unified
 1214              		.thumb
 1215              		.thumb_func
 1217              	HAL_FLASHEx_ComputeCRC:
 1218              		@ args = 0, pretend = 0, frame = 0
 1219              		@ frame_needed = 0, uses_anonymous_args = 0
 1220 0000 70B5     		push	{r4, r5, r6, lr}
 1221 0002 0446     		mov	r4, r0
 1222 0004 0D46     		mov	r5, r1
 1223 0006 8368     		ldr	r3, [r0, #8]
 1224 0008 012B     		cmp	r3, #1
 1225 000a 11D1     		bne	.L225
 1226              	.L216:
 1227 000c 2368     		ldr	r3, [r4]
 1228 000e 002B     		cmp	r3, #0
 1229 0010 18BF     		it	ne
 1230 0012 B3F5807F 		cmpne	r3, #256
 1231 0016 02D0     		beq	.L217
 1232 0018 304A     		ldr	r2, .L229
 1233 001a 9342     		cmp	r3, r2
 1234 001c 0ED1     		bne	.L226
 1235              	.L217:
 1236 001e 4CF25030 		movw	r0, #50000
 1237 0022 FFF7FEFF 		bl	FLASH_OB_WaitForLastOperation
 1238 0026 10B9     		cbnz	r0, .L218
 1239 0028 A368     		ldr	r3, [r4, #8]
 1240 002a 012B     		cmp	r3, #1
 1241 002c 0CD0     		beq	.L227
 1242              	.L218:
 1243 002e 70BD     		pop	{r4, r5, r6, pc}
 1244              	.L225:
 1245 0030 4FF43371 		mov	r1, #716
ARM GAS  C:\Users\thewo\AppData\Local\Temp\ccwHwmiB.s 			page 22


 1246 0034 2A48     		ldr	r0, .L229+4
 1247 0036 FFF7FEFF 		bl	assert_failed
 1248 003a E7E7     		b	.L216
 1249              	.L226:
 1250 003c 40F2CD21 		movw	r1, #717
 1251 0040 2748     		ldr	r0, .L229+4
 1252 0042 FFF7FEFF 		bl	assert_failed
 1253 0046 EAE7     		b	.L217
 1254              	.L227:
 1255 0048 264B     		ldr	r3, .L229+8
 1256 004a DA68     		ldr	r2, [r3, #12]
 1257 004c 42F40042 		orr	r2, r2, #32768
 1258 0050 DA60     		str	r2, [r3, #12]
 1259 0052 5A69     		ldr	r2, [r3, #20]
 1260 0054 42F0C052 		orr	r2, r2, #402653184
 1261 0058 5A61     		str	r2, [r3, #20]
 1262 005a 1A6D     		ldr	r2, [r3, #80]
 1263 005c 6168     		ldr	r1, [r4, #4]
 1264 005e 2068     		ldr	r0, [r4]
 1265 0060 0143     		orrs	r1, r1, r0
 1266 0062 0A43     		orrs	r2, r2, r1
 1267 0064 42F40032 		orr	r2, r2, #131072
 1268 0068 1A65     		str	r2, [r3, #80]
 1269 006a 2368     		ldr	r3, [r4]
 1270 006c B3F5807F 		cmp	r3, #256
 1271 0070 08D0     		beq	.L228
 1272 0072 1A4A     		ldr	r2, .L229
 1273 0074 9342     		cmp	r3, r2
 1274 0076 2AD1     		bne	.L223
 1275 0078 1A4A     		ldr	r2, .L229+8
 1276 007a 136D     		ldr	r3, [r2, #80]
 1277 007c 43F48003 		orr	r3, r3, #4194304
 1278 0080 1365     		str	r3, [r2, #80]
 1279 0082 10E0     		b	.L222
 1280              	.L228:
 1281 0084 174A     		ldr	r2, .L229+8
 1282 0086 136D     		ldr	r3, [r2, #80]
 1283 0088 43F48063 		orr	r3, r3, #1024
 1284 008c 1365     		str	r3, [r2, #80]
 1285 008e E668     		ldr	r6, [r4, #12]
 1286 0090 04E0     		b	.L220
 1287              	.L221:
 1288 0092 0121     		movs	r1, #1
 1289 0094 3046     		mov	r0, r6
 1290 0096 FFF7FEFF 		bl	FLASH_CRC_AddSector
 1291 009a 0136     		adds	r6, r6, #1
 1292              	.L220:
 1293 009c 2369     		ldr	r3, [r4, #16]
 1294 009e E268     		ldr	r2, [r4, #12]
 1295 00a0 1344     		add	r3, r3, r2
 1296 00a2 B342     		cmp	r3, r6
 1297 00a4 F5D8     		bhi	.L221
 1298              	.L222:
 1299 00a6 0F4C     		ldr	r4, .L229+8
 1300 00a8 236D     		ldr	r3, [r4, #80]
 1301 00aa 43F48033 		orr	r3, r3, #65536
 1302 00ae 2365     		str	r3, [r4, #80]
ARM GAS  C:\Users\thewo\AppData\Local\Temp\ccwHwmiB.s 			page 23


 1303 00b0 0121     		movs	r1, #1
 1304 00b2 4CF25030 		movw	r0, #50000
 1305 00b6 FFF7FEFF 		bl	FLASH_CRC_WaitForLastOperation
 1306 00ba E36D     		ldr	r3, [r4, #92]
 1307 00bc 2B60     		str	r3, [r5]
 1308 00be E368     		ldr	r3, [r4, #12]
 1309 00c0 23F40043 		bic	r3, r3, #32768
 1310 00c4 E360     		str	r3, [r4, #12]
 1311 00c6 4FF0C053 		mov	r3, #402653184
 1312 00ca 6361     		str	r3, [r4, #20]
 1313 00cc AFE7     		b	.L218
 1314              	.L223:
 1315 00ce 0122     		movs	r2, #1
 1316 00d0 A169     		ldr	r1, [r4, #24]
 1317 00d2 6069     		ldr	r0, [r4, #20]
 1318 00d4 FFF7FEFF 		bl	FLASH_CRC_SelectAddress
 1319 00d8 E5E7     		b	.L222
 1320              	.L230:
 1321 00da 00BF     		.align	2
 1322              	.L229:
 1323 00dc 00014000 		.word	4194560
 1324 00e0 00000000 		.word	.LC0
 1325 00e4 00200052 		.word	1375739904
 1327              		.section	.text.FLASH_Erase_Sector,"ax",%progbits
 1328              		.align	1
 1329              		.global	FLASH_Erase_Sector
 1330              		.syntax unified
 1331              		.thumb
 1332              		.thumb_func
 1334              	FLASH_Erase_Sector:
 1335              		@ args = 0, pretend = 0, frame = 0
 1336              		@ frame_needed = 0, uses_anonymous_args = 0
 1337 0000 70B5     		push	{r4, r5, r6, lr}
 1338 0002 0646     		mov	r6, r0
 1339 0004 0D46     		mov	r5, r1
 1340 0006 1446     		mov	r4, r2
 1341 0008 0728     		cmp	r0, #7
 1342 000a 1CD8     		bhi	.L237
 1343              	.L232:
 1344 000c 012D     		cmp	r5, #1
 1345 000e 20D1     		bne	.L238
 1346              	.L233:
 1347 0010 002C     		cmp	r4, #0
 1348 0012 18BF     		it	ne
 1349 0014 102C     		cmpne	r4, #16
 1350 0016 06D0     		beq	.L234
 1351 0018 B4F13003 		subs	r3, r4, #48
 1352 001c 18BF     		it	ne
 1353 001e 0123     		movne	r3, #1
 1354 0020 202C     		cmp	r4, #32
 1355 0022 00D0     		beq	.L234
 1356 0024 DBB9     		cbnz	r3, .L239
 1357              	.L234:
 1358 0026 15F0010F 		tst	r5, #1
 1359 002a 0BD0     		beq	.L231
 1360 002c 0F4A     		ldr	r2, .L240
 1361 002e D368     		ldr	r3, [r2, #12]
ARM GAS  C:\Users\thewo\AppData\Local\Temp\ccwHwmiB.s 			page 24


 1362 0030 23F4E663 		bic	r3, r3, #1840
 1363 0034 D360     		str	r3, [r2, #12]
 1364 0036 D368     		ldr	r3, [r2, #12]
 1365 0038 44EA0620 		orr	r0, r4, r6, lsl #8
 1366 003c 0343     		orrs	r3, r3, r0
 1367 003e 43F08403 		orr	r3, r3, #132
 1368 0042 D360     		str	r3, [r2, #12]
 1369              	.L231:
 1370 0044 70BD     		pop	{r4, r5, r6, pc}
 1371              	.L237:
 1372 0046 40F29E41 		movw	r1, #1182
 1373 004a 0948     		ldr	r0, .L240+4
 1374 004c FFF7FEFF 		bl	assert_failed
 1375 0050 DCE7     		b	.L232
 1376              	.L238:
 1377 0052 40F29F41 		movw	r1, #1183
 1378 0056 0648     		ldr	r0, .L240+4
 1379 0058 FFF7FEFF 		bl	assert_failed
 1380 005c D8E7     		b	.L233
 1381              	.L239:
 1382 005e 40F2A141 		movw	r1, #1185
 1383 0062 0348     		ldr	r0, .L240+4
 1384 0064 FFF7FEFF 		bl	assert_failed
 1385 0068 DDE7     		b	.L234
 1386              	.L241:
 1387 006a 00BF     		.align	2
 1388              	.L240:
 1389 006c 00200052 		.word	1375739904
 1390 0070 00000000 		.word	.LC0
 1392              		.section	.text.HAL_FLASHEx_Erase,"ax",%progbits
 1393              		.align	1
 1394              		.global	HAL_FLASHEx_Erase
 1395              		.syntax unified
 1396              		.thumb
 1397              		.thumb_func
 1399              	HAL_FLASHEx_Erase:
 1400              		@ args = 0, pretend = 0, frame = 0
 1401              		@ frame_needed = 0, uses_anonymous_args = 0
 1402 0000 F8B5     		push	{r3, r4, r5, r6, r7, lr}
 1403 0002 0446     		mov	r4, r0
 1404 0004 0F46     		mov	r7, r1
 1405 0006 0368     		ldr	r3, [r0]
 1406 0008 012B     		cmp	r3, #1
 1407 000a 18D8     		bhi	.L259
 1408              	.L243:
 1409 000c 6368     		ldr	r3, [r4, #4]
 1410 000e 012B     		cmp	r3, #1
 1411 0010 1AD1     		bne	.L260
 1412              	.L244:
 1413 0012 324B     		ldr	r3, .L265
 1414 0014 1B7D     		ldrb	r3, [r3, #20]	@ zero_extendqisi2
 1415 0016 012B     		cmp	r3, #1
 1416 0018 5ED0     		beq	.L254
 1417 001a 304B     		ldr	r3, .L265
 1418 001c 0122     		movs	r2, #1
 1419 001e 1A75     		strb	r2, [r3, #20]
 1420 0020 0022     		movs	r2, #0
ARM GAS  C:\Users\thewo\AppData\Local\Temp\ccwHwmiB.s 			page 25


 1421 0022 9A61     		str	r2, [r3, #24]
 1422 0024 6368     		ldr	r3, [r4, #4]
 1423 0026 13F0010F 		tst	r3, #1
 1424 002a 12D1     		bne	.L261
 1425              	.L246:
 1426 002c 2368     		ldr	r3, [r4]
 1427 002e 012B     		cmp	r3, #1
 1428 0030 18D0     		beq	.L262
 1429 0032 4FF0FF33 		mov	r3, #-1
 1430 0036 3B60     		str	r3, [r7]
 1431 0038 A568     		ldr	r5, [r4, #8]
 1432 003a 0026     		movs	r6, #0
 1433 003c 2CE0     		b	.L250
 1434              	.L259:
 1435 003e C021     		movs	r1, #192
 1436 0040 2748     		ldr	r0, .L265+4
 1437 0042 FFF7FEFF 		bl	assert_failed
 1438 0046 E1E7     		b	.L243
 1439              	.L260:
 1440 0048 C121     		movs	r1, #193
 1441 004a 2548     		ldr	r0, .L265+4
 1442 004c FFF7FEFF 		bl	assert_failed
 1443 0050 DFE7     		b	.L244
 1444              	.L261:
 1445 0052 0121     		movs	r1, #1
 1446 0054 4CF25030 		movw	r0, #50000
 1447 0058 FFF7FEFF 		bl	FLASH_WaitForLastOperation
 1448 005c 0028     		cmp	r0, #0
 1449 005e E5D0     		beq	.L246
 1450 0060 0126     		movs	r6, #1
 1451 0062 34E0     		b	.L247
 1452              	.L262:
 1453 0064 6168     		ldr	r1, [r4, #4]
 1454 0066 2069     		ldr	r0, [r4, #16]
 1455 0068 FFF7FEFF 		bl	FLASH_MassErase
 1456 006c 6368     		ldr	r3, [r4, #4]
 1457 006e 13F0010F 		tst	r3, #1
 1458 0072 01D1     		bne	.L263
 1459 0074 0026     		movs	r6, #0
 1460 0076 2AE0     		b	.L247
 1461              	.L263:
 1462 0078 0121     		movs	r1, #1
 1463 007a 4CF25030 		movw	r0, #50000
 1464 007e FFF7FEFF 		bl	FLASH_WaitForLastOperation
 1465 0082 0646     		mov	r6, r0
 1466 0084 00B1     		cbz	r0, .L249
 1467 0086 0126     		movs	r6, #1
 1468              	.L249:
 1469 0088 164A     		ldr	r2, .L265+8
 1470 008a D368     		ldr	r3, [r2, #12]
 1471 008c 23F00803 		bic	r3, r3, #8
 1472 0090 D360     		str	r3, [r2, #12]
 1473 0092 1CE0     		b	.L247
 1474              	.L251:
 1475 0094 D6B9     		cbnz	r6, .L264
 1476 0096 0135     		adds	r5, r5, #1
 1477              	.L250:
ARM GAS  C:\Users\thewo\AppData\Local\Temp\ccwHwmiB.s 			page 26


 1478 0098 E368     		ldr	r3, [r4, #12]
 1479 009a A268     		ldr	r2, [r4, #8]
 1480 009c 1344     		add	r3, r3, r2
 1481 009e AB42     		cmp	r3, r5
 1482 00a0 15D9     		bls	.L247
 1483 00a2 2269     		ldr	r2, [r4, #16]
 1484 00a4 6168     		ldr	r1, [r4, #4]
 1485 00a6 2846     		mov	r0, r5
 1486 00a8 FFF7FEFF 		bl	FLASH_Erase_Sector
 1487 00ac 6368     		ldr	r3, [r4, #4]
 1488 00ae 13F0010F 		tst	r3, #1
 1489 00b2 EFD0     		beq	.L251
 1490 00b4 0121     		movs	r1, #1
 1491 00b6 4CF25030 		movw	r0, #50000
 1492 00ba FFF7FEFF 		bl	FLASH_WaitForLastOperation
 1493 00be 0646     		mov	r6, r0
 1494 00c0 084A     		ldr	r2, .L265+8
 1495 00c2 D168     		ldr	r1, [r2, #12]
 1496 00c4 084B     		ldr	r3, .L265+12
 1497 00c6 0B40     		ands	r3, r3, r1
 1498 00c8 D360     		str	r3, [r2, #12]
 1499 00ca E3E7     		b	.L251
 1500              	.L264:
 1501 00cc 3D60     		str	r5, [r7]
 1502              	.L247:
 1503 00ce 034B     		ldr	r3, .L265
 1504 00d0 0022     		movs	r2, #0
 1505 00d2 1A75     		strb	r2, [r3, #20]
 1506              	.L245:
 1507 00d4 3046     		mov	r0, r6
 1508 00d6 F8BD     		pop	{r3, r4, r5, r6, r7, pc}
 1509              	.L254:
 1510 00d8 0226     		movs	r6, #2
 1511 00da FBE7     		b	.L245
 1512              	.L266:
 1513              		.align	2
 1514              	.L265:
 1515 00dc 00000000 		.word	pFlash
 1516 00e0 00000000 		.word	.LC0
 1517 00e4 00200052 		.word	1375739904
 1518 00e8 FBF8FFFF 		.word	-1797
 1520              		.section	.text.HAL_FLASHEx_Erase_IT,"ax",%progbits
 1521              		.align	1
 1522              		.global	HAL_FLASHEx_Erase_IT
 1523              		.syntax unified
 1524              		.thumb
 1525              		.thumb_func
 1527              	HAL_FLASHEx_Erase_IT:
 1528              		@ args = 0, pretend = 0, frame = 0
 1529              		@ frame_needed = 0, uses_anonymous_args = 0
 1530 0000 10B5     		push	{r4, lr}
 1531 0002 0446     		mov	r4, r0
 1532 0004 0368     		ldr	r3, [r0]
 1533 0006 012B     		cmp	r3, #1
 1534 0008 26D8     		bhi	.L278
 1535              	.L268:
 1536 000a 6368     		ldr	r3, [r4, #4]
ARM GAS  C:\Users\thewo\AppData\Local\Temp\ccwHwmiB.s 			page 27


 1537 000c 012B     		cmp	r3, #1
 1538 000e 29D1     		bne	.L279
 1539              	.L269:
 1540 0010 284B     		ldr	r3, .L282
 1541 0012 1B7D     		ldrb	r3, [r3, #20]	@ zero_extendqisi2
 1542 0014 012B     		cmp	r3, #1
 1543 0016 4AD0     		beq	.L276
 1544 0018 264B     		ldr	r3, .L282
 1545 001a 0122     		movs	r2, #1
 1546 001c 1A75     		strb	r2, [r3, #20]
 1547 001e 0022     		movs	r2, #0
 1548 0020 9A61     		str	r2, [r3, #24]
 1549 0022 6368     		ldr	r3, [r4, #4]
 1550 0024 13F0010F 		tst	r3, #1
 1551 0028 22D1     		bne	.L280
 1552              	.L271:
 1553 002a 6368     		ldr	r3, [r4, #4]
 1554 002c 13F0010F 		tst	r3, #1
 1555 0030 04D0     		beq	.L272
 1556 0032 214A     		ldr	r2, .L282+4
 1557 0034 D368     		ldr	r3, [r2, #12]
 1558 0036 43F4DE03 		orr	r3, r3, #7274496
 1559 003a D360     		str	r3, [r2, #12]
 1560              	.L272:
 1561 003c 2368     		ldr	r3, [r4]
 1562 003e 012B     		cmp	r3, #1
 1563 0040 26D1     		bne	.L273
 1564 0042 6168     		ldr	r1, [r4, #4]
 1565 0044 0129     		cmp	r1, #1
 1566 0046 1FD0     		beq	.L281
 1567 0048 1A4B     		ldr	r3, .L282
 1568 004a 0722     		movs	r2, #7
 1569 004c 1A70     		strb	r2, [r3]
 1570              	.L275:
 1571 004e 2069     		ldr	r0, [r4, #16]
 1572 0050 FFF7FEFF 		bl	FLASH_MassErase
 1573 0054 0020     		movs	r0, #0
 1574              	.L270:
 1575 0056 10BD     		pop	{r4, pc}
 1576              	.L278:
 1577 0058 4FF49A71 		mov	r1, #308
 1578 005c 1748     		ldr	r0, .L282+8
 1579 005e FFF7FEFF 		bl	assert_failed
 1580 0062 D2E7     		b	.L268
 1581              	.L279:
 1582 0064 40F23511 		movw	r1, #309
 1583 0068 1448     		ldr	r0, .L282+8
 1584 006a FFF7FEFF 		bl	assert_failed
 1585 006e CFE7     		b	.L269
 1586              	.L280:
 1587 0070 0121     		movs	r1, #1
 1588 0072 4CF25030 		movw	r0, #50000
 1589 0076 FFF7FEFF 		bl	FLASH_WaitForLastOperation
 1590 007a 0028     		cmp	r0, #0
 1591 007c D5D0     		beq	.L271
 1592 007e 0D4B     		ldr	r3, .L282
 1593 0080 0022     		movs	r2, #0
ARM GAS  C:\Users\thewo\AppData\Local\Temp\ccwHwmiB.s 			page 28


 1594 0082 1A75     		strb	r2, [r3, #20]
 1595 0084 0120     		movs	r0, #1
 1596 0086 E6E7     		b	.L270
 1597              	.L281:
 1598 0088 0A4B     		ldr	r3, .L282
 1599 008a 0222     		movs	r2, #2
 1600 008c 1A70     		strb	r2, [r3]
 1601 008e DEE7     		b	.L275
 1602              	.L273:
 1603 0090 084B     		ldr	r3, .L282
 1604 0092 0122     		movs	r2, #1
 1605 0094 1A70     		strb	r2, [r3]
 1606 0096 E268     		ldr	r2, [r4, #12]
 1607 0098 5A60     		str	r2, [r3, #4]
 1608 009a A268     		ldr	r2, [r4, #8]
 1609 009c DA60     		str	r2, [r3, #12]
 1610 009e 2269     		ldr	r2, [r4, #16]
 1611 00a0 9A60     		str	r2, [r3, #8]
 1612 00a2 6168     		ldr	r1, [r4, #4]
 1613 00a4 A068     		ldr	r0, [r4, #8]
 1614 00a6 FFF7FEFF 		bl	FLASH_Erase_Sector
 1615 00aa 0020     		movs	r0, #0
 1616 00ac D3E7     		b	.L270
 1617              	.L276:
 1618 00ae 0220     		movs	r0, #2
 1619 00b0 D1E7     		b	.L270
 1620              	.L283:
 1621 00b2 00BF     		.align	2
 1622              	.L282:
 1623 00b4 00000000 		.word	pFlash
 1624 00b8 00200052 		.word	1375739904
 1625 00bc 00000000 		.word	.LC0
 1627              		.ident	"GCC: (xPack GNU Arm Embedded GCC x86_64) 14.2.1 20241119"
ARM GAS  C:\Users\thewo\AppData\Local\Temp\ccwHwmiB.s 			page 29

