ARM GAS  C:\Users\thewo\AppData\Local\Temp\ccuoMfMg.s 			page 1


   1              		.cpu cortex-m7
   2              		.arch armv7e-m
   3              		.fpu fpv5-d16
   4              		.eabi_attribute 28, 1
   5              		.eabi_attribute 20, 1
   6              		.eabi_attribute 21, 1
   7              		.eabi_attribute 23, 3
   8              		.eabi_attribute 24, 1
   9              		.eabi_attribute 25, 1
  10              		.eabi_attribute 26, 1
  11              		.eabi_attribute 30, 1
  12              		.eabi_attribute 34, 1
  13              		.eabi_attribute 18, 4
  14              		.file	"stm32h7xx_hal_rcc.c"
  15              		.text
  16              		.section	.text.HAL_RCC_DeInit,"ax",%progbits
  17              		.align	1
  18              		.global	HAL_RCC_DeInit
  19              		.syntax unified
  20              		.thumb
  21              		.thumb_func
  23              	HAL_RCC_DeInit:
  24              		@ args = 0, pretend = 0, frame = 0
  25              		@ frame_needed = 0, uses_anonymous_args = 0
  26 0000 38B5     		push	{r3, r4, r5, lr}
  27 0002 684B     		ldr	r3, .L33
  28 0004 1B68     		ldr	r3, [r3]
  29 0006 03F00F03 		and	r3, r3, #15
  30 000a 062B     		cmp	r3, #6
  31 000c 0CD8     		bhi	.L2
  32 000e 654A     		ldr	r2, .L33
  33 0010 1368     		ldr	r3, [r2]
  34 0012 23F00F03 		bic	r3, r3, #15
  35 0016 43F00703 		orr	r3, r3, #7
  36 001a 1360     		str	r3, [r2]
  37 001c 1368     		ldr	r3, [r2]
  38 001e 03F00F03 		and	r3, r3, #15
  39 0022 072B     		cmp	r3, #7
  40 0024 40F0BA80 		bne	.L16
  41              	.L2:
  42 0028 FFF7FEFF 		bl	HAL_GetTick
  43 002c 0446     		mov	r4, r0
  44 002e 5E4A     		ldr	r2, .L33+4
  45 0030 1368     		ldr	r3, [r2]
  46 0032 43F00103 		orr	r3, r3, #1
  47 0036 1360     		str	r3, [r2]
  48              	.L4:
  49 0038 5B4B     		ldr	r3, .L33+4
  50 003a 1B68     		ldr	r3, [r3]
  51 003c 13F0040F 		tst	r3, #4
  52 0040 06D1     		bne	.L26
  53 0042 FFF7FEFF 		bl	HAL_GetTick
  54 0046 001B     		subs	r0, r0, r4
  55 0048 0228     		cmp	r0, #2
  56 004a F5D9     		bls	.L4
  57 004c 0324     		movs	r4, #3
  58 004e A6E0     		b	.L3
ARM GAS  C:\Users\thewo\AppData\Local\Temp\ccuoMfMg.s 			page 2


  59              	.L26:
  60 0050 554B     		ldr	r3, .L33+4
  61 0052 5A68     		ldr	r2, [r3, #4]
  62 0054 42F08042 		orr	r2, r2, #1073741824
  63 0058 5A60     		str	r2, [r3, #4]
  64 005a 0022     		movs	r2, #0
  65 005c 1A61     		str	r2, [r3, #16]
  66 005e 534B     		ldr	r3, .L33+8
  67 0060 534A     		ldr	r2, .L33+12
  68 0062 1360     		str	r3, [r2]
  69 0064 534A     		ldr	r2, .L33+16
  70 0066 1360     		str	r3, [r2]
  71 0068 534B     		ldr	r3, .L33+20
  72 006a 1868     		ldr	r0, [r3]
  73 006c FFF7FEFF 		bl	HAL_InitTick
  74 0070 0446     		mov	r4, r0
  75 0072 08B1     		cbz	r0, .L27
  76 0074 0124     		movs	r4, #1
  77 0076 92E0     		b	.L3
  78              	.L27:
  79 0078 FFF7FEFF 		bl	HAL_GetTick
  80 007c 0546     		mov	r5, r0
  81              	.L6:
  82 007e 4A4B     		ldr	r3, .L33+4
  83 0080 1B69     		ldr	r3, [r3, #16]
  84 0082 13F0380F 		tst	r3, #56
  85 0086 08D0     		beq	.L28
  86 0088 FFF7FEFF 		bl	HAL_GetTick
  87 008c 401B     		subs	r0, r0, r5
  88 008e 41F28833 		movw	r3, #5000
  89 0092 9842     		cmp	r0, r3
  90 0094 F3D9     		bls	.L6
  91 0096 0324     		movs	r4, #3
  92 0098 81E0     		b	.L3
  93              	.L28:
  94 009a FFF7FEFF 		bl	HAL_GetTick
  95 009e 0546     		mov	r5, r0
  96 00a0 414A     		ldr	r2, .L33+4
  97 00a2 1168     		ldr	r1, [r2]
  98 00a4 454B     		ldr	r3, .L33+24
  99 00a6 0B40     		ands	r3, r3, r1
 100 00a8 1360     		str	r3, [r2]
 101              	.L8:
 102 00aa 3F4B     		ldr	r3, .L33+4
 103 00ac 1B68     		ldr	r3, [r3]
 104 00ae 13F4003F 		tst	r3, #131072
 105 00b2 06D0     		beq	.L29
 106 00b4 FFF7FEFF 		bl	HAL_GetTick
 107 00b8 401B     		subs	r0, r0, r5
 108 00ba 6428     		cmp	r0, #100
 109 00bc F5D9     		bls	.L8
 110 00be 0324     		movs	r4, #3
 111 00c0 6DE0     		b	.L3
 112              	.L29:
 113 00c2 FFF7FEFF 		bl	HAL_GetTick
 114 00c6 0546     		mov	r5, r0
 115 00c8 374A     		ldr	r2, .L33+4
ARM GAS  C:\Users\thewo\AppData\Local\Temp\ccuoMfMg.s 			page 3


 116 00ca 1368     		ldr	r3, [r2]
 117 00cc 23F08073 		bic	r3, r3, #16777216
 118 00d0 1360     		str	r3, [r2]
 119              	.L10:
 120 00d2 354B     		ldr	r3, .L33+4
 121 00d4 1B68     		ldr	r3, [r3]
 122 00d6 13F0007F 		tst	r3, #33554432
 123 00da 06D0     		beq	.L30
 124 00dc FFF7FEFF 		bl	HAL_GetTick
 125 00e0 401B     		subs	r0, r0, r5
 126 00e2 0228     		cmp	r0, #2
 127 00e4 F5D9     		bls	.L10
 128 00e6 0324     		movs	r4, #3
 129 00e8 59E0     		b	.L3
 130              	.L30:
 131 00ea FFF7FEFF 		bl	HAL_GetTick
 132 00ee 0546     		mov	r5, r0
 133 00f0 2D4A     		ldr	r2, .L33+4
 134 00f2 1368     		ldr	r3, [r2]
 135 00f4 23F08063 		bic	r3, r3, #67108864
 136 00f8 1360     		str	r3, [r2]
 137              	.L12:
 138 00fa 2B4B     		ldr	r3, .L33+4
 139 00fc 1B68     		ldr	r3, [r3]
 140 00fe 13F0006F 		tst	r3, #134217728
 141 0102 06D0     		beq	.L31
 142 0104 FFF7FEFF 		bl	HAL_GetTick
 143 0108 401B     		subs	r0, r0, r5
 144 010a 0228     		cmp	r0, #2
 145 010c F5D9     		bls	.L12
 146 010e 0324     		movs	r4, #3
 147 0110 45E0     		b	.L3
 148              	.L31:
 149 0112 FFF7FEFF 		bl	HAL_GetTick
 150 0116 0546     		mov	r5, r0
 151 0118 234A     		ldr	r2, .L33+4
 152 011a 1368     		ldr	r3, [r2]
 153 011c 23F08053 		bic	r3, r3, #268435456
 154 0120 1360     		str	r3, [r2]
 155              	.L14:
 156 0122 214B     		ldr	r3, .L33+4
 157 0124 1B68     		ldr	r3, [r3]
 158 0126 13F0005F 		tst	r3, #536870912
 159 012a 06D0     		beq	.L32
 160 012c FFF7FEFF 		bl	HAL_GetTick
 161 0130 401B     		subs	r0, r0, r5
 162 0132 0228     		cmp	r0, #2
 163 0134 F5D9     		bls	.L14
 164 0136 0324     		movs	r4, #3
 165 0138 31E0     		b	.L3
 166              	.L32:
 167 013a 1B4B     		ldr	r3, .L33+4
 168 013c 0022     		movs	r2, #0
 169 013e 9A61     		str	r2, [r3, #24]
 170 0140 DA61     		str	r2, [r3, #28]
 171 0142 1A62     		str	r2, [r3, #32]
 172 0144 1E49     		ldr	r1, .L33+28
ARM GAS  C:\Users\thewo\AppData\Local\Temp\ccuoMfMg.s 			page 4


 173 0146 9962     		str	r1, [r3, #40]
 174 0148 1E49     		ldr	r1, .L33+32
 175 014a D962     		str	r1, [r3, #44]
 176 014c 1E49     		ldr	r1, .L33+36
 177 014e 1963     		str	r1, [r3, #48]
 178 0150 5A63     		str	r2, [r3, #52]
 179 0152 9963     		str	r1, [r3, #56]
 180 0154 DA63     		str	r2, [r3, #60]
 181 0156 1964     		str	r1, [r3, #64]
 182 0158 5A64     		str	r2, [r3, #68]
 183 015a 1968     		ldr	r1, [r3]
 184 015c 21F48021 		bic	r1, r1, #262144
 185 0160 1960     		str	r1, [r3]
 186 0162 1A66     		str	r2, [r3, #96]
 187 0164 4FF0FF32 		mov	r2, #-1
 188 0168 9A66     		str	r2, [r3, #104]
 189 016a D3F8D020 		ldr	r2, [r3, #208]
 190 016e 42F48032 		orr	r2, r2, #65536
 191 0172 C3F8D020 		str	r2, [r3, #208]
 192 0176 0B4B     		ldr	r3, .L33
 193 0178 1B68     		ldr	r3, [r3]
 194 017a 13F0080F 		tst	r3, #8
 195 017e 0ED0     		beq	.L3
 196 0180 084A     		ldr	r2, .L33
 197 0182 1368     		ldr	r3, [r2]
 198 0184 23F00F03 		bic	r3, r3, #15
 199 0188 43F00703 		orr	r3, r3, #7
 200 018c 1360     		str	r3, [r2]
 201 018e 1368     		ldr	r3, [r2]
 202 0190 03F00F03 		and	r3, r3, #15
 203 0194 072B     		cmp	r3, #7
 204 0196 02D0     		beq	.L3
 205 0198 0124     		movs	r4, #1
 206 019a 00E0     		b	.L3
 207              	.L16:
 208 019c 0124     		movs	r4, #1
 209              	.L3:
 210 019e 2046     		mov	r0, r4
 211 01a0 38BD     		pop	{r3, r4, r5, pc}
 212              	.L34:
 213 01a2 00BF     		.align	2
 214              	.L33:
 215 01a4 00200052 		.word	1375739904
 216 01a8 00440258 		.word	1476543488
 217 01ac 0090D003 		.word	64000000
 218 01b0 00000000 		.word	SystemCoreClock
 219 01b4 00000000 		.word	SystemD2Clock
 220 01b8 00000000 		.word	uwTickPrio
 221 01bc 45EDF6FF 		.word	-594619
 222 01c0 00020202 		.word	33686016
 223 01c4 0000FF01 		.word	33488896
 224 01c8 80020101 		.word	16843392
 226              		.section	.rodata.HAL_RCC_OscConfig.str1.4,"aMS",%progbits,1
 227              		.align	2
 228              	.LC0:
 229 0000 44726976 		.ascii	"Drivers/STM32H7xx_HAL_Driver/Src/stm32h7xx_hal_rcc."
 229      6572732F 
ARM GAS  C:\Users\thewo\AppData\Local\Temp\ccuoMfMg.s 			page 5


 229      53544D33 
 229      32483778 
 229      785F4841 
 230 0033 6300     		.ascii	"c\000"
 231              		.section	.text.HAL_RCC_OscConfig,"ax",%progbits
 232              		.align	1
 233              		.weak	HAL_RCC_OscConfig
 234              		.syntax unified
 235              		.thumb
 236              		.thumb_func
 238              	HAL_RCC_OscConfig:
 239              		@ args = 0, pretend = 0, frame = 0
 240              		@ frame_needed = 0, uses_anonymous_args = 0
 241 0000 0028     		cmp	r0, #0
 242 0002 00F0AF83 		beq	.L122
 243 0006 38B5     		push	{r3, r4, r5, lr}
 244 0008 0446     		mov	r4, r0
 245 000a 0368     		ldr	r3, [r0]
 246 000c 13B1     		cbz	r3, .L37
 247 000e 13F03F0F 		tst	r3, #63
 248 0012 25D0     		beq	.L156
 249              	.L37:
 250 0014 2368     		ldr	r3, [r4]
 251 0016 13F0010F 		tst	r3, #1
 252 001a 3AD0     		beq	.L38
 253 001c 6368     		ldr	r3, [r4, #4]
 254 001e 002B     		cmp	r3, #0
 255 0020 18BF     		it	ne
 256 0022 B3F5803F 		cmpne	r3, #65536
 257 0026 02D0     		beq	.L39
 258 0028 B3F5A02F 		cmp	r3, #327680
 259 002c 1ED1     		bne	.L157
 260              	.L39:
 261 002e 964A     		ldr	r2, .L191
 262 0030 1369     		ldr	r3, [r2, #16]
 263 0032 03F03803 		and	r3, r3, #56
 264 0036 926A     		ldr	r2, [r2, #40]
 265 0038 102B     		cmp	r3, #16
 266 003a 21D0     		beq	.L40
 267 003c 182B     		cmp	r3, #24
 268 003e 1BD0     		beq	.L158
 269              	.L41:
 270 0040 6368     		ldr	r3, [r4, #4]
 271 0042 B3F5803F 		cmp	r3, #65536
 272 0046 57D0     		beq	.L159
 273 0048 002B     		cmp	r3, #0
 274 004a 6BD1     		bne	.L44
 275 004c 8E4B     		ldr	r3, .L191
 276 004e 1A68     		ldr	r2, [r3]
 277 0050 22F48032 		bic	r2, r2, #65536
 278 0054 1A60     		str	r2, [r3]
 279 0056 1A68     		ldr	r2, [r3]
 280 0058 22F48022 		bic	r2, r2, #262144
 281 005c 1A60     		str	r2, [r3]
 282 005e 50E0     		b	.L43
 283              	.L156:
 284 0060 40F2A111 		movw	r1, #417
ARM GAS  C:\Users\thewo\AppData\Local\Temp\ccuoMfMg.s 			page 6


 285 0064 8948     		ldr	r0, .L191+4
 286 0066 FFF7FEFF 		bl	assert_failed
 287 006a D3E7     		b	.L37
 288              	.L157:
 289 006c 4FF4D371 		mov	r1, #422
 290 0070 8648     		ldr	r0, .L191+4
 291 0072 FFF7FEFF 		bl	assert_failed
 292 0076 DAE7     		b	.L39
 293              	.L158:
 294 0078 02F00302 		and	r2, r2, #3
 295 007c 022A     		cmp	r2, #2
 296 007e DFD1     		bne	.L41
 297              	.L40:
 298 0080 814B     		ldr	r3, .L191
 299 0082 1B68     		ldr	r3, [r3]
 300 0084 13F4003F 		tst	r3, #131072
 301 0088 03D0     		beq	.L38
 302 008a 6368     		ldr	r3, [r4, #4]
 303 008c 002B     		cmp	r3, #0
 304 008e 00F06B83 		beq	.L160
 305              	.L38:
 306 0092 2368     		ldr	r3, [r4]
 307 0094 13F0020F 		tst	r3, #2
 308 0098 00F0A080 		beq	.L51
 309 009c E368     		ldr	r3, [r4, #12]
 310 009e 092B     		cmp	r3, #9
 311 00a0 18BF     		it	ne
 312 00a2 012B     		cmpne	r3, #1
 313 00a4 03D9     		bls	.L52
 314 00a6 112B     		cmp	r3, #17
 315 00a8 01D0     		beq	.L52
 316 00aa 192B     		cmp	r3, #25
 317 00ac 60D1     		bne	.L161
 318              	.L52:
 319 00ae 2369     		ldr	r3, [r4, #16]
 320 00b0 7F2B     		cmp	r3, #127
 321 00b2 63D8     		bhi	.L162
 322              	.L53:
 323 00b4 744A     		ldr	r2, .L191
 324 00b6 1369     		ldr	r3, [r2, #16]
 325 00b8 926A     		ldr	r2, [r2, #40]
 326 00ba 13F03803 		ands	r3, r3, #56
 327 00be 66D0     		beq	.L54
 328 00c0 182B     		cmp	r3, #24
 329 00c2 61D0     		beq	.L163
 330              	.L55:
 331 00c4 E368     		ldr	r3, [r4, #12]
 332 00c6 002B     		cmp	r3, #0
 333 00c8 00F0BD80 		beq	.L59
 334 00cc 6E49     		ldr	r1, .L191
 335 00ce 0A68     		ldr	r2, [r1]
 336 00d0 22F01902 		bic	r2, r2, #25
 337 00d4 1343     		orrs	r3, r3, r2
 338 00d6 0B60     		str	r3, [r1]
 339 00d8 FFF7FEFF 		bl	HAL_GetTick
 340 00dc 0546     		mov	r5, r0
 341              	.L60:
ARM GAS  C:\Users\thewo\AppData\Local\Temp\ccuoMfMg.s 			page 7


 342 00de 6A4B     		ldr	r3, .L191
 343 00e0 1B68     		ldr	r3, [r3]
 344 00e2 13F0040F 		tst	r3, #4
 345 00e6 40F0A580 		bne	.L164
 346 00ea FFF7FEFF 		bl	HAL_GetTick
 347 00ee 401B     		subs	r0, r0, r5
 348 00f0 0228     		cmp	r0, #2
 349 00f2 F4D9     		bls	.L60
 350 00f4 0320     		movs	r0, #3
 351 00f6 68E0     		b	.L36
 352              	.L159:
 353 00f8 634A     		ldr	r2, .L191
 354 00fa 1368     		ldr	r3, [r2]
 355 00fc 43F48033 		orr	r3, r3, #65536
 356 0100 1360     		str	r3, [r2]
 357              	.L43:
 358 0102 6368     		ldr	r3, [r4, #4]
 359 0104 2BB3     		cbz	r3, .L46
 360 0106 FFF7FEFF 		bl	HAL_GetTick
 361 010a 0546     		mov	r5, r0
 362              	.L47:
 363 010c 5E4B     		ldr	r3, .L191
 364 010e 1B68     		ldr	r3, [r3]
 365 0110 13F4003F 		tst	r3, #131072
 366 0114 BDD1     		bne	.L38
 367 0116 FFF7FEFF 		bl	HAL_GetTick
 368 011a 401B     		subs	r0, r0, r5
 369 011c 6428     		cmp	r0, #100
 370 011e F5D9     		bls	.L47
 371 0120 0320     		movs	r0, #3
 372 0122 52E0     		b	.L36
 373              	.L44:
 374 0124 B3F5A02F 		cmp	r3, #327680
 375 0128 09D0     		beq	.L165
 376 012a 574B     		ldr	r3, .L191
 377 012c 1A68     		ldr	r2, [r3]
 378 012e 22F48032 		bic	r2, r2, #65536
 379 0132 1A60     		str	r2, [r3]
 380 0134 1A68     		ldr	r2, [r3]
 381 0136 22F48022 		bic	r2, r2, #262144
 382 013a 1A60     		str	r2, [r3]
 383 013c E1E7     		b	.L43
 384              	.L165:
 385 013e 524B     		ldr	r3, .L191
 386 0140 1A68     		ldr	r2, [r3]
 387 0142 42F48022 		orr	r2, r2, #262144
 388 0146 1A60     		str	r2, [r3]
 389 0148 1A68     		ldr	r2, [r3]
 390 014a 42F48032 		orr	r2, r2, #65536
 391 014e 1A60     		str	r2, [r3]
 392 0150 D7E7     		b	.L43
 393              	.L46:
 394 0152 FFF7FEFF 		bl	HAL_GetTick
 395 0156 0546     		mov	r5, r0
 396              	.L49:
 397 0158 4B4B     		ldr	r3, .L191
 398 015a 1B68     		ldr	r3, [r3]
ARM GAS  C:\Users\thewo\AppData\Local\Temp\ccuoMfMg.s 			page 8


 399 015c 13F4003F 		tst	r3, #131072
 400 0160 97D0     		beq	.L38
 401 0162 FFF7FEFF 		bl	HAL_GetTick
 402 0166 401B     		subs	r0, r0, r5
 403 0168 6428     		cmp	r0, #100
 404 016a F5D9     		bls	.L49
 405 016c 0320     		movs	r0, #3
 406 016e 2CE0     		b	.L36
 407              	.L161:
 408 0170 4FF4ED71 		mov	r1, #474
 409 0174 4548     		ldr	r0, .L191+4
 410 0176 FFF7FEFF 		bl	assert_failed
 411 017a 98E7     		b	.L52
 412              	.L162:
 413 017c 40F2DB11 		movw	r1, #475
 414 0180 4248     		ldr	r0, .L191+4
 415 0182 FFF7FEFF 		bl	assert_failed
 416 0186 95E7     		b	.L53
 417              	.L163:
 418 0188 12F0030F 		tst	r2, #3
 419 018c 9AD1     		bne	.L55
 420              	.L54:
 421 018e 3E4B     		ldr	r3, .L191
 422 0190 1B68     		ldr	r3, [r3]
 423 0192 13F0040F 		tst	r3, #4
 424 0196 03D0     		beq	.L56
 425 0198 E368     		ldr	r3, [r4, #12]
 426 019a 002B     		cmp	r3, #0
 427 019c 00F0E682 		beq	.L126
 428              	.L56:
 429 01a0 394A     		ldr	r2, .L191
 430 01a2 1368     		ldr	r3, [r2]
 431 01a4 23F01903 		bic	r3, r3, #25
 432 01a8 E168     		ldr	r1, [r4, #12]
 433 01aa 0B43     		orrs	r3, r3, r1
 434 01ac 1360     		str	r3, [r2]
 435 01ae FFF7FEFF 		bl	HAL_GetTick
 436 01b2 0546     		mov	r5, r0
 437              	.L57:
 438 01b4 344B     		ldr	r3, .L191
 439 01b6 1B68     		ldr	r3, [r3]
 440 01b8 13F0040F 		tst	r3, #4
 441 01bc 06D1     		bne	.L166
 442 01be FFF7FEFF 		bl	HAL_GetTick
 443 01c2 401B     		subs	r0, r0, r5
 444 01c4 0228     		cmp	r0, #2
 445 01c6 F5D9     		bls	.L57
 446 01c8 0320     		movs	r0, #3
 447              	.L36:
 448 01ca 38BD     		pop	{r3, r4, r5, pc}
 449              	.L166:
 450 01cc 2E4A     		ldr	r2, .L191
 451 01ce 5368     		ldr	r3, [r2, #4]
 452 01d0 23F0FE43 		bic	r3, r3, #2130706432
 453 01d4 2169     		ldr	r1, [r4, #16]
 454 01d6 43EA0163 		orr	r3, r3, r1, lsl #24
 455 01da 5360     		str	r3, [r2, #4]
ARM GAS  C:\Users\thewo\AppData\Local\Temp\ccuoMfMg.s 			page 9


 456              	.L51:
 457 01dc 2368     		ldr	r3, [r4]
 458 01de 13F0100F 		tst	r3, #16
 459 01e2 6AD0     		beq	.L64
 460 01e4 E369     		ldr	r3, [r4, #28]
 461 01e6 002B     		cmp	r3, #0
 462 01e8 18BF     		it	ne
 463 01ea 802B     		cmpne	r3, #128
 464 01ec 3FD1     		bne	.L167
 465              	.L65:
 466 01ee 236A     		ldr	r3, [r4, #32]
 467 01f0 3F2B     		cmp	r3, #63
 468 01f2 42D8     		bhi	.L168
 469              	.L66:
 470 01f4 244A     		ldr	r2, .L191
 471 01f6 1369     		ldr	r3, [r2, #16]
 472 01f8 03F03803 		and	r3, r3, #56
 473 01fc 926A     		ldr	r2, [r2, #40]
 474 01fe 082B     		cmp	r3, #8
 475 0200 4AD0     		beq	.L67
 476 0202 182B     		cmp	r3, #24
 477 0204 44D0     		beq	.L169
 478              	.L68:
 479 0206 E369     		ldr	r3, [r4, #28]
 480 0208 002B     		cmp	r3, #0
 481 020a 7DD0     		beq	.L70
 482 020c 1E4A     		ldr	r2, .L191
 483 020e 1368     		ldr	r3, [r2]
 484 0210 43F08003 		orr	r3, r3, #128
 485 0214 1360     		str	r3, [r2]
 486 0216 FFF7FEFF 		bl	HAL_GetTick
 487 021a 0546     		mov	r5, r0
 488              	.L71:
 489 021c 1A4B     		ldr	r3, .L191
 490 021e 1B68     		ldr	r3, [r3]
 491 0220 13F4807F 		tst	r3, #256
 492 0224 67D1     		bne	.L170
 493 0226 FFF7FEFF 		bl	HAL_GetTick
 494 022a 401B     		subs	r0, r0, r5
 495 022c 0228     		cmp	r0, #2
 496 022e F5D9     		bls	.L71
 497 0230 0320     		movs	r0, #3
 498 0232 CAE7     		b	.L36
 499              	.L164:
 500 0234 144A     		ldr	r2, .L191
 501 0236 5368     		ldr	r3, [r2, #4]
 502 0238 23F0FE43 		bic	r3, r3, #2130706432
 503 023c 2169     		ldr	r1, [r4, #16]
 504 023e 43EA0163 		orr	r3, r3, r1, lsl #24
 505 0242 5360     		str	r3, [r2, #4]
 506 0244 CAE7     		b	.L51
 507              	.L59:
 508 0246 104A     		ldr	r2, .L191
 509 0248 1368     		ldr	r3, [r2]
 510 024a 23F00103 		bic	r3, r3, #1
 511 024e 1360     		str	r3, [r2]
 512 0250 FFF7FEFF 		bl	HAL_GetTick
ARM GAS  C:\Users\thewo\AppData\Local\Temp\ccuoMfMg.s 			page 10


 513 0254 0546     		mov	r5, r0
 514              	.L62:
 515 0256 0C4B     		ldr	r3, .L191
 516 0258 1B68     		ldr	r3, [r3]
 517 025a 13F0040F 		tst	r3, #4
 518 025e BDD0     		beq	.L51
 519 0260 FFF7FEFF 		bl	HAL_GetTick
 520 0264 401B     		subs	r0, r0, r5
 521 0266 0228     		cmp	r0, #2
 522 0268 F5D9     		bls	.L62
 523 026a 0320     		movs	r0, #3
 524 026c ADE7     		b	.L36
 525              	.L167:
 526 026e 40F22B21 		movw	r1, #555
 527 0272 0648     		ldr	r0, .L191+4
 528 0274 FFF7FEFF 		bl	assert_failed
 529 0278 B9E7     		b	.L65
 530              	.L168:
 531 027a 4FF40B71 		mov	r1, #556
 532 027e 0348     		ldr	r0, .L191+4
 533 0280 FFF7FEFF 		bl	assert_failed
 534 0284 B6E7     		b	.L66
 535              	.L192:
 536 0286 00BF     		.align	2
 537              	.L191:
 538 0288 00440258 		.word	1476543488
 539 028c 00000000 		.word	.LC0
 540              	.L169:
 541 0290 02F00302 		and	r2, r2, #3
 542 0294 012A     		cmp	r2, #1
 543 0296 B6D1     		bne	.L68
 544              	.L67:
 545 0298 864B     		ldr	r3, .L193
 546 029a 1B68     		ldr	r3, [r3]
 547 029c 13F4807F 		tst	r3, #256
 548 02a0 03D0     		beq	.L69
 549 02a2 E369     		ldr	r3, [r4, #28]
 550 02a4 802B     		cmp	r3, #128
 551 02a6 40F06382 		bne	.L130
 552              	.L69:
 553 02aa 824A     		ldr	r2, .L193
 554 02ac D368     		ldr	r3, [r2, #12]
 555 02ae 23F07C53 		bic	r3, r3, #1056964608
 556 02b2 216A     		ldr	r1, [r4, #32]
 557 02b4 43EA0163 		orr	r3, r3, r1, lsl #24
 558 02b8 D360     		str	r3, [r2, #12]
 559              	.L64:
 560 02ba 2368     		ldr	r3, [r4]
 561 02bc 13F0080F 		tst	r3, #8
 562 02c0 50D0     		beq	.L75
 563 02c2 6369     		ldr	r3, [r4, #20]
 564 02c4 012B     		cmp	r3, #1
 565 02c6 33D8     		bhi	.L171
 566              	.L76:
 567 02c8 6369     		ldr	r3, [r4, #20]
 568 02ca 002B     		cmp	r3, #0
 569 02cc 36D0     		beq	.L77
ARM GAS  C:\Users\thewo\AppData\Local\Temp\ccuoMfMg.s 			page 11


 570 02ce 794A     		ldr	r2, .L193
 571 02d0 536F     		ldr	r3, [r2, #116]
 572 02d2 43F00103 		orr	r3, r3, #1
 573 02d6 5367     		str	r3, [r2, #116]
 574 02d8 FFF7FEFF 		bl	HAL_GetTick
 575 02dc 0546     		mov	r5, r0
 576              	.L78:
 577 02de 754B     		ldr	r3, .L193
 578 02e0 5B6F     		ldr	r3, [r3, #116]
 579 02e2 13F0020F 		tst	r3, #2
 580 02e6 3DD1     		bne	.L75
 581 02e8 FFF7FEFF 		bl	HAL_GetTick
 582 02ec 401B     		subs	r0, r0, r5
 583 02ee 0228     		cmp	r0, #2
 584 02f0 F5D9     		bls	.L78
 585 02f2 0320     		movs	r0, #3
 586 02f4 69E7     		b	.L36
 587              	.L170:
 588 02f6 6F4A     		ldr	r2, .L193
 589 02f8 D368     		ldr	r3, [r2, #12]
 590 02fa 23F07C53 		bic	r3, r3, #1056964608
 591 02fe 216A     		ldr	r1, [r4, #32]
 592 0300 43EA0163 		orr	r3, r3, r1, lsl #24
 593 0304 D360     		str	r3, [r2, #12]
 594 0306 D8E7     		b	.L64
 595              	.L70:
 596 0308 6A4A     		ldr	r2, .L193
 597 030a 1368     		ldr	r3, [r2]
 598 030c 23F08003 		bic	r3, r3, #128
 599 0310 1360     		str	r3, [r2]
 600 0312 FFF7FEFF 		bl	HAL_GetTick
 601 0316 0546     		mov	r5, r0
 602              	.L73:
 603 0318 664B     		ldr	r3, .L193
 604 031a 1B68     		ldr	r3, [r3]
 605 031c 13F4807F 		tst	r3, #256
 606 0320 CBD0     		beq	.L64
 607 0322 FFF7FEFF 		bl	HAL_GetTick
 608 0326 401B     		subs	r0, r0, r5
 609 0328 0228     		cmp	r0, #2
 610 032a F5D9     		bls	.L73
 611 032c 0320     		movs	r0, #3
 612 032e 4CE7     		b	.L36
 613              	.L171:
 614 0330 40F26D21 		movw	r1, #621
 615 0334 6048     		ldr	r0, .L193+4
 616 0336 FFF7FEFF 		bl	assert_failed
 617 033a C5E7     		b	.L76
 618              	.L77:
 619 033c 5D4A     		ldr	r2, .L193
 620 033e 536F     		ldr	r3, [r2, #116]
 621 0340 23F00103 		bic	r3, r3, #1
 622 0344 5367     		str	r3, [r2, #116]
 623 0346 FFF7FEFF 		bl	HAL_GetTick
 624 034a 0546     		mov	r5, r0
 625              	.L80:
 626 034c 594B     		ldr	r3, .L193
ARM GAS  C:\Users\thewo\AppData\Local\Temp\ccuoMfMg.s 			page 12


 627 034e 5B6F     		ldr	r3, [r3, #116]
 628 0350 13F0020F 		tst	r3, #2
 629 0354 06D0     		beq	.L75
 630 0356 FFF7FEFF 		bl	HAL_GetTick
 631 035a 401B     		subs	r0, r0, r5
 632 035c 0228     		cmp	r0, #2
 633 035e F5D9     		bls	.L80
 634 0360 0320     		movs	r0, #3
 635 0362 32E7     		b	.L36
 636              	.L75:
 637 0364 2368     		ldr	r3, [r4]
 638 0366 13F0200F 		tst	r3, #32
 639 036a 32D0     		beq	.L82
 640 036c A369     		ldr	r3, [r4, #24]
 641 036e 012B     		cmp	r3, #1
 642 0370 15D8     		bhi	.L172
 643              	.L83:
 644 0372 A369     		ldr	r3, [r4, #24]
 645 0374 CBB1     		cbz	r3, .L84
 646 0376 4F4A     		ldr	r2, .L193
 647 0378 1368     		ldr	r3, [r2]
 648 037a 43F48053 		orr	r3, r3, #4096
 649 037e 1360     		str	r3, [r2]
 650 0380 FFF7FEFF 		bl	HAL_GetTick
 651 0384 0546     		mov	r5, r0
 652              	.L85:
 653 0386 4B4B     		ldr	r3, .L193
 654 0388 1B68     		ldr	r3, [r3]
 655 038a 13F4005F 		tst	r3, #8192
 656 038e 20D1     		bne	.L82
 657 0390 FFF7FEFF 		bl	HAL_GetTick
 658 0394 401B     		subs	r0, r0, r5
 659 0396 0228     		cmp	r0, #2
 660 0398 F5D9     		bls	.L85
 661 039a 0320     		movs	r0, #3
 662 039c 15E7     		b	.L36
 663              	.L172:
 664 039e 4FF42671 		mov	r1, #664
 665 03a2 4548     		ldr	r0, .L193+4
 666 03a4 FFF7FEFF 		bl	assert_failed
 667 03a8 E3E7     		b	.L83
 668              	.L84:
 669 03aa 424A     		ldr	r2, .L193
 670 03ac 1368     		ldr	r3, [r2]
 671 03ae 23F48053 		bic	r3, r3, #4096
 672 03b2 1360     		str	r3, [r2]
 673 03b4 FFF7FEFF 		bl	HAL_GetTick
 674 03b8 0546     		mov	r5, r0
 675              	.L87:
 676 03ba 3E4B     		ldr	r3, .L193
 677 03bc 1B68     		ldr	r3, [r3]
 678 03be 13F4005F 		tst	r3, #8192
 679 03c2 06D0     		beq	.L82
 680 03c4 FFF7FEFF 		bl	HAL_GetTick
 681 03c8 401B     		subs	r0, r0, r5
 682 03ca 0228     		cmp	r0, #2
 683 03cc F5D9     		bls	.L87
ARM GAS  C:\Users\thewo\AppData\Local\Temp\ccuoMfMg.s 			page 13


 684 03ce 0320     		movs	r0, #3
 685 03d0 FBE6     		b	.L36
 686              	.L82:
 687 03d2 2368     		ldr	r3, [r4]
 688 03d4 13F0040F 		tst	r3, #4
 689 03d8 72D0     		beq	.L89
 690 03da A368     		ldr	r3, [r4, #8]
 691 03dc 052B     		cmp	r3, #5
 692 03de 18BF     		it	ne
 693 03e0 012B     		cmpne	r3, #1
 694 03e2 13D8     		bhi	.L173
 695              	.L90:
 696 03e4 354A     		ldr	r2, .L193+8
 697 03e6 1368     		ldr	r3, [r2]
 698 03e8 43F48073 		orr	r3, r3, #256
 699 03ec 1360     		str	r3, [r2]
 700 03ee FFF7FEFF 		bl	HAL_GetTick
 701 03f2 0546     		mov	r5, r0
 702              	.L91:
 703 03f4 314B     		ldr	r3, .L193+8
 704 03f6 1B68     		ldr	r3, [r3]
 705 03f8 13F4807F 		tst	r3, #256
 706 03fc 0CD1     		bne	.L174
 707 03fe FFF7FEFF 		bl	HAL_GetTick
 708 0402 401B     		subs	r0, r0, r5
 709 0404 6428     		cmp	r0, #100
 710 0406 F5D9     		bls	.L91
 711 0408 0320     		movs	r0, #3
 712 040a DEE6     		b	.L36
 713              	.L173:
 714 040c 40F2C221 		movw	r1, #706
 715 0410 2948     		ldr	r0, .L193+4
 716 0412 FFF7FEFF 		bl	assert_failed
 717 0416 E5E7     		b	.L90
 718              	.L174:
 719 0418 A368     		ldr	r3, [r4, #8]
 720 041a 012B     		cmp	r3, #1
 721 041c 0AD0     		beq	.L175
 722 041e 0BBB     		cbnz	r3, .L95
 723 0420 244B     		ldr	r3, .L193
 724 0422 1A6F     		ldr	r2, [r3, #112]
 725 0424 22F00102 		bic	r2, r2, #1
 726 0428 1A67     		str	r2, [r3, #112]
 727 042a 1A6F     		ldr	r2, [r3, #112]
 728 042c 22F00402 		bic	r2, r2, #4
 729 0430 1A67     		str	r2, [r3, #112]
 730 0432 04E0     		b	.L94
 731              	.L175:
 732 0434 1F4A     		ldr	r2, .L193
 733 0436 136F     		ldr	r3, [r2, #112]
 734 0438 43F00103 		orr	r3, r3, #1
 735 043c 1367     		str	r3, [r2, #112]
 736              	.L94:
 737 043e A368     		ldr	r3, [r4, #8]
 738 0440 33B3     		cbz	r3, .L97
 739 0442 FFF7FEFF 		bl	HAL_GetTick
 740 0446 0546     		mov	r5, r0
ARM GAS  C:\Users\thewo\AppData\Local\Temp\ccuoMfMg.s 			page 14


 741              	.L98:
 742 0448 1A4B     		ldr	r3, .L193
 743 044a 1B6F     		ldr	r3, [r3, #112]
 744 044c 13F0020F 		tst	r3, #2
 745 0450 36D1     		bne	.L89
 746 0452 FFF7FEFF 		bl	HAL_GetTick
 747 0456 401B     		subs	r0, r0, r5
 748 0458 41F28833 		movw	r3, #5000
 749 045c 9842     		cmp	r0, r3
 750 045e F3D9     		bls	.L98
 751 0460 0320     		movs	r0, #3
 752 0462 B2E6     		b	.L36
 753              	.L95:
 754 0464 052B     		cmp	r3, #5
 755 0466 09D0     		beq	.L176
 756 0468 124B     		ldr	r3, .L193
 757 046a 1A6F     		ldr	r2, [r3, #112]
 758 046c 22F00102 		bic	r2, r2, #1
 759 0470 1A67     		str	r2, [r3, #112]
 760 0472 1A6F     		ldr	r2, [r3, #112]
 761 0474 22F00402 		bic	r2, r2, #4
 762 0478 1A67     		str	r2, [r3, #112]
 763 047a E0E7     		b	.L94
 764              	.L176:
 765 047c 0D4B     		ldr	r3, .L193
 766 047e 1A6F     		ldr	r2, [r3, #112]
 767 0480 42F00402 		orr	r2, r2, #4
 768 0484 1A67     		str	r2, [r3, #112]
 769 0486 1A6F     		ldr	r2, [r3, #112]
 770 0488 42F00102 		orr	r2, r2, #1
 771 048c 1A67     		str	r2, [r3, #112]
 772 048e D6E7     		b	.L94
 773              	.L97:
 774 0490 FFF7FEFF 		bl	HAL_GetTick
 775 0494 0546     		mov	r5, r0
 776              	.L100:
 777 0496 074B     		ldr	r3, .L193
 778 0498 1B6F     		ldr	r3, [r3, #112]
 779 049a 13F0020F 		tst	r3, #2
 780 049e 0FD0     		beq	.L89
 781 04a0 FFF7FEFF 		bl	HAL_GetTick
 782 04a4 401B     		subs	r0, r0, r5
 783 04a6 41F28833 		movw	r3, #5000
 784 04aa 9842     		cmp	r0, r3
 785 04ac F3D9     		bls	.L100
 786 04ae 0320     		movs	r0, #3
 787 04b0 8BE6     		b	.L36
 788              	.L194:
 789 04b2 00BF     		.align	2
 790              	.L193:
 791 04b4 00440258 		.word	1476543488
 792 04b8 00000000 		.word	.LC0
 793 04bc 00480258 		.word	1476544512
 794              	.L89:
 795 04c0 636A     		ldr	r3, [r4, #36]
 796 04c2 022B     		cmp	r3, #2
 797 04c4 4FD8     		bhi	.L177
ARM GAS  C:\Users\thewo\AppData\Local\Temp\ccuoMfMg.s 			page 15


 798              	.L102:
 799 04c6 636A     		ldr	r3, [r4, #36]
 800 04c8 002B     		cmp	r3, #0
 801 04ca 00F05981 		beq	.L140
 802 04ce A94A     		ldr	r2, .L195
 803 04d0 1269     		ldr	r2, [r2, #16]
 804 04d2 02F03802 		and	r2, r2, #56
 805 04d6 182A     		cmp	r2, #24
 806 04d8 00F0F380 		beq	.L103
 807 04dc 022B     		cmp	r3, #2
 808 04de 40F0DA80 		bne	.L104
 809 04e2 A36A     		ldr	r3, [r4, #40]
 810 04e4 032B     		cmp	r3, #3
 811 04e6 18BF     		it	ne
 812 04e8 012B     		cmpne	r3, #1
 813 04ea 01D9     		bls	.L105
 814 04ec 022B     		cmp	r3, #2
 815 04ee 40D1     		bne	.L178
 816              	.L105:
 817 04f0 236C     		ldr	r3, [r4, #64]
 818 04f2 002B     		cmp	r3, #0
 819 04f4 18BF     		it	ne
 820 04f6 042B     		cmpne	r3, #4
 821 04f8 03D0     		beq	.L106
 822 04fa 082B     		cmp	r3, #8
 823 04fc 01D0     		beq	.L106
 824 04fe 0C2B     		cmp	r3, #12
 825 0500 3DD1     		bne	.L179
 826              	.L106:
 827 0502 636C     		ldr	r3, [r4, #68]
 828 0504 002B     		cmp	r3, #0
 829 0506 18BF     		it	ne
 830 0508 022B     		cmpne	r3, #2
 831 050a 3ED1     		bne	.L180
 832              	.L107:
 833 050c E36A     		ldr	r3, [r4, #44]
 834 050e 013B     		subs	r3, r3, #1
 835 0510 3E2B     		cmp	r3, #62
 836 0512 40D8     		bhi	.L181
 837              	.L108:
 838 0514 236B     		ldr	r3, [r4, #48]
 839 0516 043B     		subs	r3, r3, #4
 840 0518 B3F5FE7F 		cmp	r3, #508
 841 051c 41D8     		bhi	.L182
 842              	.L109:
 843 051e 636B     		ldr	r3, [r4, #52]
 844 0520 013B     		subs	r3, r3, #1
 845 0522 7F2B     		cmp	r3, #127
 846 0524 43D8     		bhi	.L183
 847              	.L110:
 848 0526 A36B     		ldr	r3, [r4, #56]
 849 0528 013B     		subs	r3, r3, #1
 850 052a 7F2B     		cmp	r3, #127
 851 052c 45D8     		bhi	.L184
 852              	.L111:
 853 052e E36B     		ldr	r3, [r4, #60]
 854 0530 013B     		subs	r3, r3, #1
ARM GAS  C:\Users\thewo\AppData\Local\Temp\ccuoMfMg.s 			page 16


 855 0532 7F2B     		cmp	r3, #127
 856 0534 47D8     		bhi	.L185
 857              	.L112:
 858 0536 A36C     		ldr	r3, [r4, #72]
 859 0538 B3F5005F 		cmp	r3, #8192
 860 053c 49D2     		bcs	.L186
 861              	.L113:
 862 053e 8D4A     		ldr	r2, .L195
 863 0540 1368     		ldr	r3, [r2]
 864 0542 23F08073 		bic	r3, r3, #16777216
 865 0546 1360     		str	r3, [r2]
 866 0548 FFF7FEFF 		bl	HAL_GetTick
 867 054c 0546     		mov	r5, r0
 868              	.L114:
 869 054e 894B     		ldr	r3, .L195
 870 0550 1B68     		ldr	r3, [r3]
 871 0552 13F0007F 		tst	r3, #33554432
 872 0556 42D0     		beq	.L187
 873 0558 FFF7FEFF 		bl	HAL_GetTick
 874 055c 401B     		subs	r0, r0, r5
 875 055e 0228     		cmp	r0, #2
 876 0560 F5D9     		bls	.L114
 877 0562 0320     		movs	r0, #3
 878 0564 31E6     		b	.L36
 879              	.L177:
 880 0566 4FF43D71 		mov	r1, #756
 881 056a 8348     		ldr	r0, .L195+4
 882 056c FFF7FEFF 		bl	assert_failed
 883 0570 A9E7     		b	.L102
 884              	.L178:
 885 0572 40F2FD21 		movw	r1, #765
 886 0576 8048     		ldr	r0, .L195+4
 887 0578 FFF7FEFF 		bl	assert_failed
 888 057c B8E7     		b	.L105
 889              	.L179:
 890 057e 40F2FE21 		movw	r1, #766
 891 0582 7D48     		ldr	r0, .L195+4
 892 0584 FFF7FEFF 		bl	assert_failed
 893 0588 BBE7     		b	.L106
 894              	.L180:
 895 058a 40F2FF21 		movw	r1, #767
 896 058e 7A48     		ldr	r0, .L195+4
 897 0590 FFF7FEFF 		bl	assert_failed
 898 0594 BAE7     		b	.L107
 899              	.L181:
 900 0596 4FF44071 		mov	r1, #768
 901 059a 7748     		ldr	r0, .L195+4
 902 059c FFF7FEFF 		bl	assert_failed
 903 05a0 B8E7     		b	.L108
 904              	.L182:
 905 05a2 40F20131 		movw	r1, #769
 906 05a6 7448     		ldr	r0, .L195+4
 907 05a8 FFF7FEFF 		bl	assert_failed
 908 05ac B7E7     		b	.L109
 909              	.L183:
 910 05ae 40F20231 		movw	r1, #770
 911 05b2 7148     		ldr	r0, .L195+4
ARM GAS  C:\Users\thewo\AppData\Local\Temp\ccuoMfMg.s 			page 17


 912 05b4 FFF7FEFF 		bl	assert_failed
 913 05b8 B5E7     		b	.L110
 914              	.L184:
 915 05ba 40F20331 		movw	r1, #771
 916 05be 6E48     		ldr	r0, .L195+4
 917 05c0 FFF7FEFF 		bl	assert_failed
 918 05c4 B3E7     		b	.L111
 919              	.L185:
 920 05c6 4FF44171 		mov	r1, #772
 921 05ca 6B48     		ldr	r0, .L195+4
 922 05cc FFF7FEFF 		bl	assert_failed
 923 05d0 B1E7     		b	.L112
 924              	.L186:
 925 05d2 40F20531 		movw	r1, #773
 926 05d6 6848     		ldr	r0, .L195+4
 927 05d8 FFF7FEFF 		bl	assert_failed
 928 05dc AFE7     		b	.L113
 929              	.L187:
 930 05de 654B     		ldr	r3, .L195
 931 05e0 996A     		ldr	r1, [r3, #40]
 932 05e2 664A     		ldr	r2, .L195+8
 933 05e4 0A40     		ands	r2, r2, r1
 934 05e6 A16A     		ldr	r1, [r4, #40]
 935 05e8 E06A     		ldr	r0, [r4, #44]
 936 05ea 41EA0011 		orr	r1, r1, r0, lsl #4
 937 05ee 0A43     		orrs	r2, r2, r1
 938 05f0 9A62     		str	r2, [r3, #40]
 939 05f2 226B     		ldr	r2, [r4, #48]
 940 05f4 013A     		subs	r2, r2, #1
 941 05f6 C2F30802 		ubfx	r2, r2, #0, #9
 942 05fa 616B     		ldr	r1, [r4, #52]
 943 05fc 0139     		subs	r1, r1, #1
 944 05fe 4902     		lsls	r1, r1, #9
 945 0600 89B2     		uxth	r1, r1
 946 0602 0A43     		orrs	r2, r2, r1
 947 0604 A16B     		ldr	r1, [r4, #56]
 948 0606 0139     		subs	r1, r1, #1
 949 0608 0904     		lsls	r1, r1, #16
 950 060a 01F4FE01 		and	r1, r1, #8323072
 951 060e 0A43     		orrs	r2, r2, r1
 952 0610 E16B     		ldr	r1, [r4, #60]
 953 0612 0139     		subs	r1, r1, #1
 954 0614 0906     		lsls	r1, r1, #24
 955 0616 01F0FE41 		and	r1, r1, #2130706432
 956 061a 0A43     		orrs	r2, r2, r1
 957 061c 1A63     		str	r2, [r3, #48]
 958 061e DA6A     		ldr	r2, [r3, #44]
 959 0620 22F00102 		bic	r2, r2, #1
 960 0624 DA62     		str	r2, [r3, #44]
 961 0626 5A6B     		ldr	r2, [r3, #52]
 962 0628 6FF3CF02 		bfc	r2, #3, #13
 963 062c A16C     		ldr	r1, [r4, #72]
 964 062e 42EAC102 		orr	r2, r2, r1, lsl #3
 965 0632 5A63     		str	r2, [r3, #52]
 966 0634 DA6A     		ldr	r2, [r3, #44]
 967 0636 22F00C02 		bic	r2, r2, #12
 968 063a 216C     		ldr	r1, [r4, #64]
ARM GAS  C:\Users\thewo\AppData\Local\Temp\ccuoMfMg.s 			page 18


 969 063c 0A43     		orrs	r2, r2, r1
 970 063e DA62     		str	r2, [r3, #44]
 971 0640 DA6A     		ldr	r2, [r3, #44]
 972 0642 22F00202 		bic	r2, r2, #2
 973 0646 616C     		ldr	r1, [r4, #68]
 974 0648 0A43     		orrs	r2, r2, r1
 975 064a DA62     		str	r2, [r3, #44]
 976 064c DA6A     		ldr	r2, [r3, #44]
 977 064e 42F48032 		orr	r2, r2, #65536
 978 0652 DA62     		str	r2, [r3, #44]
 979 0654 DA6A     		ldr	r2, [r3, #44]
 980 0656 42F40032 		orr	r2, r2, #131072
 981 065a DA62     		str	r2, [r3, #44]
 982 065c DA6A     		ldr	r2, [r3, #44]
 983 065e 42F48022 		orr	r2, r2, #262144
 984 0662 DA62     		str	r2, [r3, #44]
 985 0664 DA6A     		ldr	r2, [r3, #44]
 986 0666 42F00102 		orr	r2, r2, #1
 987 066a DA62     		str	r2, [r3, #44]
 988 066c 1A68     		ldr	r2, [r3]
 989 066e 42F08072 		orr	r2, r2, #16777216
 990 0672 1A60     		str	r2, [r3]
 991 0674 FFF7FEFF 		bl	HAL_GetTick
 992 0678 0446     		mov	r4, r0
 993              	.L116:
 994 067a 3E4B     		ldr	r3, .L195
 995 067c 1B68     		ldr	r3, [r3]
 996 067e 13F0007F 		tst	r3, #33554432
 997 0682 06D1     		bne	.L188
 998 0684 FFF7FEFF 		bl	HAL_GetTick
 999 0688 001B     		subs	r0, r0, r4
 1000 068a 0228     		cmp	r0, #2
 1001 068c F5D9     		bls	.L116
 1002 068e 0320     		movs	r0, #3
 1003 0690 9BE5     		b	.L36
 1004              	.L188:
 1005 0692 0020     		movs	r0, #0
 1006 0694 99E5     		b	.L36
 1007              	.L104:
 1008 0696 374A     		ldr	r2, .L195
 1009 0698 1368     		ldr	r3, [r2]
 1010 069a 23F08073 		bic	r3, r3, #16777216
 1011 069e 1360     		str	r3, [r2]
 1012 06a0 FFF7FEFF 		bl	HAL_GetTick
 1013 06a4 0446     		mov	r4, r0
 1014              	.L118:
 1015 06a6 334B     		ldr	r3, .L195
 1016 06a8 1B68     		ldr	r3, [r3]
 1017 06aa 13F0007F 		tst	r3, #33554432
 1018 06ae 06D0     		beq	.L189
 1019 06b0 FFF7FEFF 		bl	HAL_GetTick
 1020 06b4 001B     		subs	r0, r0, r4
 1021 06b6 0228     		cmp	r0, #2
 1022 06b8 F5D9     		bls	.L118
 1023 06ba 0320     		movs	r0, #3
 1024 06bc 85E5     		b	.L36
 1025              	.L189:
ARM GAS  C:\Users\thewo\AppData\Local\Temp\ccuoMfMg.s 			page 19


 1026 06be 0020     		movs	r0, #0
 1027 06c0 83E5     		b	.L36
 1028              	.L103:
 1029 06c2 2C4A     		ldr	r2, .L195
 1030 06c4 916A     		ldr	r1, [r2, #40]
 1031 06c6 106B     		ldr	r0, [r2, #48]
 1032 06c8 012B     		cmp	r3, #1
 1033 06ca 5BD0     		beq	.L144
 1034 06cc 01F00303 		and	r3, r1, #3
 1035 06d0 A26A     		ldr	r2, [r4, #40]
 1036 06d2 9342     		cmp	r3, r2
 1037 06d4 58D1     		bne	.L145
 1038 06d6 C1F30511 		ubfx	r1, r1, #4, #6
 1039 06da E36A     		ldr	r3, [r4, #44]
 1040 06dc 9942     		cmp	r1, r3
 1041 06de 55D1     		bne	.L146
 1042 06e0 C0F30802 		ubfx	r2, r0, #0, #9
 1043 06e4 236B     		ldr	r3, [r4, #48]
 1044 06e6 013B     		subs	r3, r3, #1
 1045 06e8 9A42     		cmp	r2, r3
 1046 06ea 51D1     		bne	.L147
 1047 06ec C0F34622 		ubfx	r2, r0, #9, #7
 1048 06f0 636B     		ldr	r3, [r4, #52]
 1049 06f2 013B     		subs	r3, r3, #1
 1050 06f4 9A42     		cmp	r2, r3
 1051 06f6 4DD1     		bne	.L148
 1052 06f8 C0F30642 		ubfx	r2, r0, #16, #7
 1053 06fc A36B     		ldr	r3, [r4, #56]
 1054 06fe 013B     		subs	r3, r3, #1
 1055 0700 9A42     		cmp	r2, r3
 1056 0702 49D1     		bne	.L149
 1057 0704 C0F30660 		ubfx	r0, r0, #24, #7
 1058 0708 E36B     		ldr	r3, [r4, #60]
 1059 070a 013B     		subs	r3, r3, #1
 1060 070c 9842     		cmp	r0, r3
 1061 070e 45D1     		bne	.L150
 1062 0710 184B     		ldr	r3, .L195
 1063 0712 5B6B     		ldr	r3, [r3, #52]
 1064 0714 C3F3CC03 		ubfx	r3, r3, #3, #13
 1065 0718 A26C     		ldr	r2, [r4, #72]
 1066 071a 9A42     		cmp	r2, r3
 1067 071c 40D0     		beq	.L151
 1068 071e B2F5005F 		cmp	r2, #8192
 1069 0722 19D2     		bcs	.L190
 1070              	.L120:
 1071 0724 134A     		ldr	r2, .L195
 1072 0726 D36A     		ldr	r3, [r2, #44]
 1073 0728 23F00103 		bic	r3, r3, #1
 1074 072c D362     		str	r3, [r2, #44]
 1075 072e FFF7FEFF 		bl	HAL_GetTick
 1076 0732 0546     		mov	r5, r0
 1077              	.L121:
 1078 0734 FFF7FEFF 		bl	HAL_GetTick
 1079 0738 A842     		cmp	r0, r5
 1080 073a FBD0     		beq	.L121
 1081 073c 0D4A     		ldr	r2, .L195
 1082 073e 536B     		ldr	r3, [r2, #52]
ARM GAS  C:\Users\thewo\AppData\Local\Temp\ccuoMfMg.s 			page 20


 1083 0740 6FF3CF03 		bfc	r3, #3, #13
 1084 0744 A16C     		ldr	r1, [r4, #72]
 1085 0746 43EAC103 		orr	r3, r3, r1, lsl #3
 1086 074a 5363     		str	r3, [r2, #52]
 1087 074c D36A     		ldr	r3, [r2, #44]
 1088 074e 43F00103 		orr	r3, r3, #1
 1089 0752 D362     		str	r3, [r2, #44]
 1090 0754 0020     		movs	r0, #0
 1091 0756 38E5     		b	.L36
 1092              	.L190:
 1093 0758 4FF45B71 		mov	r1, #876
 1094 075c 0648     		ldr	r0, .L195+4
 1095 075e FFF7FEFF 		bl	assert_failed
 1096 0762 DFE7     		b	.L120
 1097              	.L122:
 1098 0764 0120     		movs	r0, #1
 1099 0766 7047     		bx	lr
 1100              	.L160:
 1101 0768 0120     		movs	r0, #1
 1102 076a 2EE5     		b	.L36
 1103              	.L126:
 1104 076c 0120     		movs	r0, #1
 1105 076e 2CE5     		b	.L36
 1106              	.L130:
 1107 0770 0120     		movs	r0, #1
 1108 0772 2AE5     		b	.L36
 1109              	.L196:
 1110              		.align	2
 1111              	.L195:
 1112 0774 00440258 		.word	1476543488
 1113 0778 00000000 		.word	.LC0
 1114 077c 0CFCFFFF 		.word	-1012
 1115              	.L140:
 1116 0780 0020     		movs	r0, #0
 1117 0782 22E5     		b	.L36
 1118              	.L144:
 1119 0784 0120     		movs	r0, #1
 1120 0786 20E5     		b	.L36
 1121              	.L145:
 1122 0788 0120     		movs	r0, #1
 1123 078a 1EE5     		b	.L36
 1124              	.L146:
 1125 078c 0120     		movs	r0, #1
 1126 078e 1CE5     		b	.L36
 1127              	.L147:
 1128 0790 0120     		movs	r0, #1
 1129 0792 1AE5     		b	.L36
 1130              	.L148:
 1131 0794 0120     		movs	r0, #1
 1132 0796 18E5     		b	.L36
 1133              	.L149:
 1134 0798 0120     		movs	r0, #1
 1135 079a 16E5     		b	.L36
 1136              	.L150:
 1137 079c 0120     		movs	r0, #1
 1138 079e 14E5     		b	.L36
 1139              	.L151:
ARM GAS  C:\Users\thewo\AppData\Local\Temp\ccuoMfMg.s 			page 21


 1140 07a0 0020     		movs	r0, #0
 1141 07a2 12E5     		b	.L36
 1143              		.section	.text.HAL_RCC_MCOConfig,"ax",%progbits
 1144              		.align	1
 1145              		.global	HAL_RCC_MCOConfig
 1146              		.syntax unified
 1147              		.thumb
 1148              		.thumb_func
 1150              	HAL_RCC_MCOConfig:
 1151              		@ args = 0, pretend = 0, frame = 32
 1152              		@ frame_needed = 0, uses_anonymous_args = 0
 1153 0000 70B5     		push	{r4, r5, r6, lr}
 1154 0002 88B0     		sub	sp, sp, #32
 1155 0004 0646     		mov	r6, r0
 1156 0006 0D46     		mov	r5, r1
 1157 0008 1446     		mov	r4, r2
 1158 000a 0128     		cmp	r0, #1
 1159 000c 6DD8     		bhi	.L205
 1160              	.L198:
 1161 000e B4F5802F 		cmp	r4, #262144
 1162 0012 18BF     		it	ne
 1163 0014 B4F5002F 		cmpne	r4, #524288
 1164 0018 32D0     		beq	.L199
 1165 001a B4F58013 		subs	r3, r4, #1048576
 1166 001e 18BF     		it	ne
 1167 0020 0123     		movne	r3, #1
 1168 0022 B4F5402F 		cmp	r4, #786432
 1169 0026 2BD0     		beq	.L199
 1170 0028 53B3     		cbz	r3, .L199
 1171 002a B4F5C013 		subs	r3, r4, #1572864
 1172 002e 18BF     		it	ne
 1173 0030 0123     		movne	r3, #1
 1174 0032 B4F5A01F 		cmp	r4, #1310720
 1175 0036 23D0     		beq	.L199
 1176 0038 13B3     		cbz	r3, .L199
 1177 003a B4F50013 		subs	r3, r4, #2097152
 1178 003e 18BF     		it	ne
 1179 0040 0123     		movne	r3, #1
 1180 0042 B4F5E01F 		cmp	r4, #1835008
 1181 0046 1BD0     		beq	.L199
 1182 0048 D3B1     		cbz	r3, .L199
 1183 004a B4F52013 		subs	r3, r4, #2621440
 1184 004e 18BF     		it	ne
 1185 0050 0123     		movne	r3, #1
 1186 0052 B4F5101F 		cmp	r4, #2359296
 1187 0056 13D0     		beq	.L199
 1188 0058 93B1     		cbz	r3, .L199
 1189 005a B4F54013 		subs	r3, r4, #3145728
 1190 005e 18BF     		it	ne
 1191 0060 0123     		movne	r3, #1
 1192 0062 B4F5301F 		cmp	r4, #2883584
 1193 0066 0BD0     		beq	.L199
 1194 0068 53B1     		cbz	r3, .L199
 1195 006a B4F56013 		subs	r3, r4, #3670016
 1196 006e 18BF     		it	ne
 1197 0070 0123     		movne	r3, #1
 1198 0072 B4F5501F 		cmp	r4, #3407872
ARM GAS  C:\Users\thewo\AppData\Local\Temp\ccuoMfMg.s 			page 22


 1199 0076 03D0     		beq	.L199
 1200 0078 13B1     		cbz	r3, .L199
 1201 007a B4F5701F 		cmp	r4, #3932160
 1202 007e 3AD1     		bne	.L206
 1203              	.L199:
 1204 0080 002E     		cmp	r6, #0
 1205 0082 44D1     		bne	.L200
 1206 0084 002D     		cmp	r5, #0
 1207 0086 18BF     		it	ne
 1208 0088 B5F5800F 		cmpne	r5, #4194304
 1209 008c 0AD0     		beq	.L201
 1210 008e B5F54003 		subs	r3, r5, #12582912
 1211 0092 18BF     		it	ne
 1212 0094 0123     		movne	r3, #1
 1213 0096 B5F5000F 		cmp	r5, #8388608
 1214 009a 03D0     		beq	.L201
 1215 009c 13B1     		cbz	r3, .L201
 1216 009e B5F1807F 		cmp	r5, #16777216
 1217 00a2 2ED1     		bne	.L207
 1218              	.L201:
 1219 00a4 394E     		ldr	r6, .L209
 1220 00a6 D6F8E030 		ldr	r3, [r6, #224]
 1221 00aa 43F00103 		orr	r3, r3, #1
 1222 00ae C6F8E030 		str	r3, [r6, #224]
 1223 00b2 D6F8E030 		ldr	r3, [r6, #224]
 1224 00b6 03F00103 		and	r3, r3, #1
 1225 00ba 0193     		str	r3, [sp, #4]
 1226 00bc 019B     		ldr	r3, [sp, #4]
 1227 00be 4FF48073 		mov	r3, #256
 1228 00c2 0393     		str	r3, [sp, #12]
 1229 00c4 0223     		movs	r3, #2
 1230 00c6 0493     		str	r3, [sp, #16]
 1231 00c8 0323     		movs	r3, #3
 1232 00ca 0693     		str	r3, [sp, #24]
 1233 00cc 0023     		movs	r3, #0
 1234 00ce 0593     		str	r3, [sp, #20]
 1235 00d0 0793     		str	r3, [sp, #28]
 1236 00d2 03A9     		add	r1, sp, #12
 1237 00d4 2E48     		ldr	r0, .L209+4
 1238 00d6 FFF7FEFF 		bl	HAL_GPIO_Init
 1239 00da 3369     		ldr	r3, [r6, #16]
 1240 00dc 23F0FE73 		bic	r3, r3, #33292288
 1241 00e0 2C43     		orrs	r4, r4, r5
 1242 00e2 1C43     		orrs	r4, r4, r3
 1243 00e4 3461     		str	r4, [r6, #16]
 1244              	.L197:
 1245 00e6 08B0     		add	sp, sp, #32
 1246              		@ sp needed
 1247 00e8 70BD     		pop	{r4, r5, r6, pc}
 1248              	.L205:
 1249 00ea 40F20A51 		movw	r1, #1290
 1250 00ee 2948     		ldr	r0, .L209+8
 1251 00f0 FFF7FEFF 		bl	assert_failed
 1252 00f4 8BE7     		b	.L198
 1253              	.L206:
 1254 00f6 40F20B51 		movw	r1, #1291
 1255 00fa 2648     		ldr	r0, .L209+8
ARM GAS  C:\Users\thewo\AppData\Local\Temp\ccuoMfMg.s 			page 23


 1256 00fc FFF7FEFF 		bl	assert_failed
 1257 0100 BEE7     		b	.L199
 1258              	.L207:
 1259 0102 40F20F51 		movw	r1, #1295
 1260 0106 2348     		ldr	r0, .L209+8
 1261 0108 FFF7FEFF 		bl	assert_failed
 1262 010c CAE7     		b	.L201
 1263              	.L200:
 1264 010e 002D     		cmp	r5, #0
 1265 0110 18BF     		it	ne
 1266 0112 B5F1005F 		cmpne	r5, #536870912
 1267 0116 0FD0     		beq	.L203
 1268 0118 B5F1C043 		subs	r3, r5, #1610612736
 1269 011c 18BF     		it	ne
 1270 011e 0123     		movne	r3, #1
 1271 0120 B5F1804F 		cmp	r5, #1073741824
 1272 0124 08D0     		beq	.L203
 1273 0126 3BB1     		cbz	r3, .L203
 1274 0128 B5F12043 		subs	r3, r5, #-1610612736
 1275 012c 18BF     		it	ne
 1276 012e 0123     		movne	r3, #1
 1277 0130 B5F1004F 		cmp	r5, #-2147483648
 1278 0134 00D0     		beq	.L203
 1279 0136 13BB     		cbnz	r3, .L208
 1280              	.L203:
 1281 0138 144E     		ldr	r6, .L209
 1282 013a D6F8E030 		ldr	r3, [r6, #224]
 1283 013e 43F00403 		orr	r3, r3, #4
 1284 0142 C6F8E030 		str	r3, [r6, #224]
 1285 0146 D6F8E030 		ldr	r3, [r6, #224]
 1286 014a 03F00403 		and	r3, r3, #4
 1287 014e 0293     		str	r3, [sp, #8]
 1288 0150 029B     		ldr	r3, [sp, #8]
 1289 0152 4FF40073 		mov	r3, #512
 1290 0156 0393     		str	r3, [sp, #12]
 1291 0158 0223     		movs	r3, #2
 1292 015a 0493     		str	r3, [sp, #16]
 1293 015c 0323     		movs	r3, #3
 1294 015e 0693     		str	r3, [sp, #24]
 1295 0160 0023     		movs	r3, #0
 1296 0162 0593     		str	r3, [sp, #20]
 1297 0164 0793     		str	r3, [sp, #28]
 1298 0166 03A9     		add	r1, sp, #12
 1299 0168 0B48     		ldr	r0, .L209+12
 1300 016a FFF7FEFF 		bl	HAL_GPIO_Init
 1301 016e 3369     		ldr	r3, [r6, #16]
 1302 0170 23F07E43 		bic	r3, r3, #-33554432
 1303 0174 45EAC415 		orr	r5, r5, r4, lsl #7
 1304 0178 2B43     		orrs	r3, r3, r5
 1305 017a 3361     		str	r3, [r6, #16]
 1306 017c B3E7     		b	.L197
 1307              	.L208:
 1308 017e 40F22151 		movw	r1, #1313
 1309 0182 0448     		ldr	r0, .L209+8
 1310 0184 FFF7FEFF 		bl	assert_failed
 1311 0188 D6E7     		b	.L203
 1312              	.L210:
ARM GAS  C:\Users\thewo\AppData\Local\Temp\ccuoMfMg.s 			page 24


 1313 018a 00BF     		.align	2
 1314              	.L209:
 1315 018c 00440258 		.word	1476543488
 1316 0190 00000258 		.word	1476526080
 1317 0194 00000000 		.word	.LC0
 1318 0198 00080258 		.word	1476528128
 1320              		.section	.text.HAL_RCC_EnableCSS,"ax",%progbits
 1321              		.align	1
 1322              		.global	HAL_RCC_EnableCSS
 1323              		.syntax unified
 1324              		.thumb
 1325              		.thumb_func
 1327              	HAL_RCC_EnableCSS:
 1328              		@ args = 0, pretend = 0, frame = 0
 1329              		@ frame_needed = 0, uses_anonymous_args = 0
 1330              		@ link register save eliminated.
 1331 0000 024A     		ldr	r2, .L212
 1332 0002 1368     		ldr	r3, [r2]
 1333 0004 43F40023 		orr	r3, r3, #524288
 1334 0008 1360     		str	r3, [r2]
 1335 000a 7047     		bx	lr
 1336              	.L213:
 1337              		.align	2
 1338              	.L212:
 1339 000c 00440258 		.word	1476543488
 1341              		.section	.text.HAL_RCC_DisableCSS,"ax",%progbits
 1342              		.align	1
 1343              		.global	HAL_RCC_DisableCSS
 1344              		.syntax unified
 1345              		.thumb
 1346              		.thumb_func
 1348              	HAL_RCC_DisableCSS:
 1349              		@ args = 0, pretend = 0, frame = 0
 1350              		@ frame_needed = 0, uses_anonymous_args = 0
 1351              		@ link register save eliminated.
 1352 0000 024A     		ldr	r2, .L215
 1353 0002 1368     		ldr	r3, [r2]
 1354 0004 23F40023 		bic	r3, r3, #524288
 1355 0008 1360     		str	r3, [r2]
 1356 000a 7047     		bx	lr
 1357              	.L216:
 1358              		.align	2
 1359              	.L215:
 1360 000c 00440258 		.word	1476543488
 1362              		.section	.text.HAL_RCC_GetSysClockFreq,"ax",%progbits
 1363              		.align	1
 1364              		.global	HAL_RCC_GetSysClockFreq
 1365              		.syntax unified
 1366              		.thumb
 1367              		.thumb_func
 1369              	HAL_RCC_GetSysClockFreq:
 1370              		@ args = 0, pretend = 0, frame = 0
 1371              		@ frame_needed = 0, uses_anonymous_args = 0
 1372              		@ link register save eliminated.
 1373 0000 754B     		ldr	r3, .L231
 1374 0002 1B69     		ldr	r3, [r3, #16]
 1375 0004 03F03803 		and	r3, r3, #56
ARM GAS  C:\Users\thewo\AppData\Local\Temp\ccuoMfMg.s 			page 25


 1376 0008 102B     		cmp	r3, #16
 1377 000a 00F0DE80 		beq	.L225
 1378 000e 182B     		cmp	r3, #24
 1379 0010 0FD0     		beq	.L219
 1380 0012 002B     		cmp	r3, #0
 1381 0014 40F0DB80 		bne	.L226
 1382 0018 6F4B     		ldr	r3, .L231
 1383 001a 1B68     		ldr	r3, [r3]
 1384 001c 13F0200F 		tst	r3, #32
 1385 0020 00F0D780 		beq	.L227
 1386 0024 6C4B     		ldr	r3, .L231
 1387 0026 1B68     		ldr	r3, [r3]
 1388 0028 C3F3C103 		ubfx	r3, r3, #3, #2
 1389 002c 6B48     		ldr	r0, .L231+4
 1390 002e D840     		lsrs	r0, r0, r3
 1391 0030 7047     		bx	lr
 1392              	.L219:
 1393 0032 10B4     		push	{r4}
 1394 0034 684B     		ldr	r3, .L231
 1395 0036 9A6A     		ldr	r2, [r3, #40]
 1396 0038 02F00302 		and	r2, r2, #3
 1397 003c 9C6A     		ldr	r4, [r3, #40]
 1398 003e C4F30510 		ubfx	r0, r4, #4, #6
 1399 0042 D96A     		ldr	r1, [r3, #44]
 1400 0044 01F00101 		and	r1, r1, #1
 1401 0048 5B6B     		ldr	r3, [r3, #52]
 1402 004a C3F3CC03 		ubfx	r3, r3, #3, #13
 1403 004e 01FB03F3 		mul	r3, r1, r3
 1404 0052 07EE903A 		vmov	s15, r3	@ int
 1405 0056 F8EE677A 		vcvt.f32.u32	s15, s15
 1406 005a 14F47C7F 		tst	r4, #1008
 1407 005e 77D0     		beq	.L217
 1408 0060 012A     		cmp	r2, #1
 1409 0062 4AD0     		beq	.L220
 1410 0064 022A     		cmp	r2, #2
 1411 0066 76D0     		beq	.L221
 1412 0068 002A     		cmp	r2, #0
 1413 006a 40F09180 		bne	.L222
 1414 006e 5A4B     		ldr	r3, .L231
 1415 0070 1B68     		ldr	r3, [r3]
 1416 0072 13F0200F 		tst	r3, #32
 1417 0076 23D0     		beq	.L223
 1418 0078 5749     		ldr	r1, .L231
 1419 007a 0A68     		ldr	r2, [r1]
 1420 007c C2F3C102 		ubfx	r2, r2, #3, #2
 1421 0080 564B     		ldr	r3, .L231+4
 1422 0082 D340     		lsrs	r3, r3, r2
 1423 0084 07EE103A 		vmov	s14, r3	@ int
 1424 0088 F8EE476A 		vcvt.f32.u32	s13, s14
 1425 008c 07EE100A 		vmov	s14, r0	@ int
 1426 0090 B8EE476A 		vcvt.f32.u32	s12, s14
 1427 0094 86EE867A 		vdiv.f32	s14, s13, s12
 1428 0098 0B6B     		ldr	r3, [r1, #48]
 1429 009a C3F30803 		ubfx	r3, r3, #0, #9
 1430 009e 06EE903A 		vmov	s13, r3	@ int
 1431 00a2 F8EE666A 		vcvt.f32.u32	s13, s13
 1432 00a6 9FED4E6A 		vldr.32	s12, .L231+8
ARM GAS  C:\Users\thewo\AppData\Local\Temp\ccuoMfMg.s 			page 26


 1433 00aa 67EE867A 		vmul.f32	s15, s15, s12
 1434 00ae 76EEA77A 		vadd.f32	s15, s13, s15
 1435 00b2 F7EE006A 		vmov.f32	s13, #1.0e+0
 1436 00b6 77EEA67A 		vadd.f32	s15, s15, s13
 1437 00ba 27EE277A 		vmul.f32	s14, s14, s15
 1438 00be 38E0     		b	.L224
 1439              	.L223:
 1440 00c0 07EE100A 		vmov	s14, r0	@ int
 1441 00c4 F8EE476A 		vcvt.f32.u32	s13, s14
 1442 00c8 9FED466A 		vldr.32	s12, .L231+12
 1443 00cc 86EE267A 		vdiv.f32	s14, s12, s13
 1444 00d0 414B     		ldr	r3, .L231
 1445 00d2 1B6B     		ldr	r3, [r3, #48]
 1446 00d4 C3F30803 		ubfx	r3, r3, #0, #9
 1447 00d8 06EE903A 		vmov	s13, r3	@ int
 1448 00dc F8EE666A 		vcvt.f32.u32	s13, s13
 1449 00e0 9FED3F6A 		vldr.32	s12, .L231+8
 1450 00e4 67EE867A 		vmul.f32	s15, s15, s12
 1451 00e8 76EEA77A 		vadd.f32	s15, s13, s15
 1452 00ec F7EE006A 		vmov.f32	s13, #1.0e+0
 1453 00f0 77EEA67A 		vadd.f32	s15, s15, s13
 1454 00f4 27EE277A 		vmul.f32	s14, s14, s15
 1455 00f8 1BE0     		b	.L224
 1456              	.L220:
 1457 00fa 07EE100A 		vmov	s14, r0	@ int
 1458 00fe F8EE476A 		vcvt.f32.u32	s13, s14
 1459 0102 9FED396A 		vldr.32	s12, .L231+16
 1460 0106 86EE267A 		vdiv.f32	s14, s12, s13
 1461 010a 334B     		ldr	r3, .L231
 1462 010c 1B6B     		ldr	r3, [r3, #48]
 1463 010e C3F30803 		ubfx	r3, r3, #0, #9
 1464 0112 06EE903A 		vmov	s13, r3	@ int
 1465 0116 F8EE666A 		vcvt.f32.u32	s13, s13
 1466 011a 9FED316A 		vldr.32	s12, .L231+8
 1467 011e 67EE867A 		vmul.f32	s15, s15, s12
 1468 0122 76EEA77A 		vadd.f32	s15, s13, s15
 1469 0126 F7EE006A 		vmov.f32	s13, #1.0e+0
 1470 012a 77EEA67A 		vadd.f32	s15, s15, s13
 1471 012e 27EE277A 		vmul.f32	s14, s14, s15
 1472              	.L224:
 1473 0132 294B     		ldr	r3, .L231
 1474 0134 1B6B     		ldr	r3, [r3, #48]
 1475 0136 C3F34623 		ubfx	r3, r3, #9, #7
 1476 013a 0133     		adds	r3, r3, #1
 1477 013c 07EE903A 		vmov	s15, r3	@ int
 1478 0140 F8EE677A 		vcvt.f32.u32	s15, s15
 1479 0144 C7EE276A 		vdiv.f32	s13, s14, s15
 1480 0148 FCEEE67A 		vcvt.u32.f32	s15, s13
 1481 014c 17EE900A 		vmov	r0, s15	@ int
 1482              	.L217:
 1483 0150 5DF8044B 		ldr	r4, [sp], #4
 1484 0154 7047     		bx	lr
 1485              	.L221:
 1486 0156 07EE100A 		vmov	s14, r0	@ int
 1487 015a F8EE476A 		vcvt.f32.u32	s13, s14
 1488 015e 9FED236A 		vldr.32	s12, .L231+20
 1489 0162 86EE267A 		vdiv.f32	s14, s12, s13
ARM GAS  C:\Users\thewo\AppData\Local\Temp\ccuoMfMg.s 			page 27


 1490 0166 1C4B     		ldr	r3, .L231
 1491 0168 1B6B     		ldr	r3, [r3, #48]
 1492 016a C3F30803 		ubfx	r3, r3, #0, #9
 1493 016e 06EE903A 		vmov	s13, r3	@ int
 1494 0172 F8EE666A 		vcvt.f32.u32	s13, s13
 1495 0176 9FED1A6A 		vldr.32	s12, .L231+8
 1496 017a 67EE867A 		vmul.f32	s15, s15, s12
 1497 017e 76EEA77A 		vadd.f32	s15, s13, s15
 1498 0182 F7EE006A 		vmov.f32	s13, #1.0e+0
 1499 0186 77EEA67A 		vadd.f32	s15, s15, s13
 1500 018a 27EE277A 		vmul.f32	s14, s14, s15
 1501 018e D0E7     		b	.L224
 1502              	.L222:
 1503 0190 07EE100A 		vmov	s14, r0	@ int
 1504 0194 F8EE476A 		vcvt.f32.u32	s13, s14
 1505 0198 9FED136A 		vldr.32	s12, .L231+16
 1506 019c 86EE267A 		vdiv.f32	s14, s12, s13
 1507 01a0 0D4B     		ldr	r3, .L231
 1508 01a2 1B6B     		ldr	r3, [r3, #48]
 1509 01a4 C3F30803 		ubfx	r3, r3, #0, #9
 1510 01a8 06EE903A 		vmov	s13, r3	@ int
 1511 01ac F8EE666A 		vcvt.f32.u32	s13, s13
 1512 01b0 9FED0B6A 		vldr.32	s12, .L231+8
 1513 01b4 67EE867A 		vmul.f32	s15, s15, s12
 1514 01b8 76EEA77A 		vadd.f32	s15, s13, s15
 1515 01bc F7EE006A 		vmov.f32	s13, #1.0e+0
 1516 01c0 77EEA67A 		vadd.f32	s15, s15, s13
 1517 01c4 27EE277A 		vmul.f32	s14, s14, s15
 1518 01c8 B3E7     		b	.L224
 1519              	.L225:
 1520 01ca 0948     		ldr	r0, .L231+24
 1521 01cc 7047     		bx	lr
 1522              	.L226:
 1523 01ce 0948     		ldr	r0, .L231+28
 1524 01d0 7047     		bx	lr
 1525              	.L227:
 1526 01d2 0248     		ldr	r0, .L231+4
 1527 01d4 7047     		bx	lr
 1528              	.L232:
 1529 01d6 00BF     		.align	2
 1530              	.L231:
 1531 01d8 00440258 		.word	1476543488
 1532 01dc 0090D003 		.word	64000000
 1533 01e0 00000039 		.word	956301312
 1534 01e4 0024744C 		.word	1282679808
 1535 01e8 0024744A 		.word	1249125376
 1536 01ec 001BB74B 		.word	1270291200
 1537 01f0 00366E01 		.word	24000000
 1538 01f4 00093D00 		.word	4000000
 1540              		.section	.text.HAL_RCC_ClockConfig,"ax",%progbits
 1541              		.align	1
 1542              		.global	HAL_RCC_ClockConfig
 1543              		.syntax unified
 1544              		.thumb
 1545              		.thumb_func
 1547              	HAL_RCC_ClockConfig:
 1548              		@ args = 0, pretend = 0, frame = 0
ARM GAS  C:\Users\thewo\AppData\Local\Temp\ccuoMfMg.s 			page 28


 1549              		@ frame_needed = 0, uses_anonymous_args = 0
 1550 0000 0028     		cmp	r0, #0
 1551 0002 00F02A82 		beq	.L268
 1552 0006 70B5     		push	{r4, r5, r6, lr}
 1553 0008 0D46     		mov	r5, r1
 1554 000a 0446     		mov	r4, r0
 1555 000c 0368     		ldr	r3, [r0]
 1556 000e 013B     		subs	r3, r3, #1
 1557 0010 3E2B     		cmp	r3, #62
 1558 0012 00F2DD80 		bhi	.L280
 1559              	.L235:
 1560 0016 0F2D     		cmp	r5, #15
 1561 0018 00F2E080 		bhi	.L281
 1562              	.L236:
 1563 001c 9E4B     		ldr	r3, .L298
 1564 001e 1B68     		ldr	r3, [r3]
 1565 0020 03F00F03 		and	r3, r3, #15
 1566 0024 AB42     		cmp	r3, r5
 1567 0026 0BD2     		bcs	.L237
 1568 0028 9B4A     		ldr	r2, .L298
 1569 002a 1368     		ldr	r3, [r2]
 1570 002c 23F00F03 		bic	r3, r3, #15
 1571 0030 2B43     		orrs	r3, r3, r5
 1572 0032 1360     		str	r3, [r2]
 1573 0034 1368     		ldr	r3, [r2]
 1574 0036 03F00F03 		and	r3, r3, #15
 1575 003a AB42     		cmp	r3, r5
 1576 003c 40F00F82 		bne	.L269
 1577              	.L237:
 1578 0040 2368     		ldr	r3, [r4]
 1579 0042 13F0040F 		tst	r3, #4
 1580 0046 18D0     		beq	.L238
 1581 0048 2269     		ldr	r2, [r4, #16]
 1582 004a 944B     		ldr	r3, .L298+4
 1583 004c 9B69     		ldr	r3, [r3, #24]
 1584 004e 03F07003 		and	r3, r3, #112
 1585 0052 9A42     		cmp	r2, r3
 1586 0054 11D9     		bls	.L238
 1587 0056 002A     		cmp	r2, #0
 1588 0058 18BF     		it	ne
 1589 005a 402A     		cmpne	r2, #64
 1590 005c 06D0     		beq	.L239
 1591 005e 502A     		cmp	r2, #80
 1592 0060 04D0     		beq	.L239
 1593 0062 602A     		cmp	r2, #96
 1594 0064 02D0     		beq	.L239
 1595 0066 702A     		cmp	r2, #112
 1596 0068 40F0BE80 		bne	.L282
 1597              	.L239:
 1598 006c 8B4A     		ldr	r2, .L298+4
 1599 006e 9369     		ldr	r3, [r2, #24]
 1600 0070 23F07003 		bic	r3, r3, #112
 1601 0074 2169     		ldr	r1, [r4, #16]
 1602 0076 0B43     		orrs	r3, r3, r1
 1603 0078 9361     		str	r3, [r2, #24]
 1604              	.L238:
 1605 007a 2368     		ldr	r3, [r4]
ARM GAS  C:\Users\thewo\AppData\Local\Temp\ccuoMfMg.s 			page 29


 1606 007c 13F0080F 		tst	r3, #8
 1607 0080 18D0     		beq	.L240
 1608 0082 6269     		ldr	r2, [r4, #20]
 1609 0084 854B     		ldr	r3, .L298+4
 1610 0086 DB69     		ldr	r3, [r3, #28]
 1611 0088 03F07003 		and	r3, r3, #112
 1612 008c 9A42     		cmp	r2, r3
 1613 008e 11D9     		bls	.L240
 1614 0090 002A     		cmp	r2, #0
 1615 0092 18BF     		it	ne
 1616 0094 402A     		cmpne	r2, #64
 1617 0096 06D0     		beq	.L241
 1618 0098 502A     		cmp	r2, #80
 1619 009a 04D0     		beq	.L241
 1620 009c 602A     		cmp	r2, #96
 1621 009e 02D0     		beq	.L241
 1622 00a0 702A     		cmp	r2, #112
 1623 00a2 40F0A780 		bne	.L283
 1624              	.L241:
 1625 00a6 7D4A     		ldr	r2, .L298+4
 1626 00a8 D369     		ldr	r3, [r2, #28]
 1627 00aa 23F07003 		bic	r3, r3, #112
 1628 00ae 6169     		ldr	r1, [r4, #20]
 1629 00b0 0B43     		orrs	r3, r3, r1
 1630 00b2 D361     		str	r3, [r2, #28]
 1631              	.L240:
 1632 00b4 2368     		ldr	r3, [r4]
 1633 00b6 13F0100F 		tst	r3, #16
 1634 00ba 1CD0     		beq	.L242
 1635 00bc A269     		ldr	r2, [r4, #24]
 1636 00be 774B     		ldr	r3, .L298+4
 1637 00c0 DB69     		ldr	r3, [r3, #28]
 1638 00c2 03F4E063 		and	r3, r3, #1792
 1639 00c6 9A42     		cmp	r2, r3
 1640 00c8 15D9     		bls	.L242
 1641 00ca 002A     		cmp	r2, #0
 1642 00cc 18BF     		it	ne
 1643 00ce B2F5806F 		cmpne	r2, #1024
 1644 00d2 09D0     		beq	.L243
 1645 00d4 B2F5A06F 		cmp	r2, #1280
 1646 00d8 06D0     		beq	.L243
 1647 00da B2F5C06F 		cmp	r2, #1536
 1648 00de 03D0     		beq	.L243
 1649 00e0 B2F5E06F 		cmp	r2, #1792
 1650 00e4 40F08C80 		bne	.L284
 1651              	.L243:
 1652 00e8 6C4A     		ldr	r2, .L298+4
 1653 00ea D369     		ldr	r3, [r2, #28]
 1654 00ec 23F4E063 		bic	r3, r3, #1792
 1655 00f0 A169     		ldr	r1, [r4, #24]
 1656 00f2 0B43     		orrs	r3, r3, r1
 1657 00f4 D361     		str	r3, [r2, #28]
 1658              	.L242:
 1659 00f6 2368     		ldr	r3, [r4]
 1660 00f8 13F0200F 		tst	r3, #32
 1661 00fc 17D0     		beq	.L244
 1662 00fe E269     		ldr	r2, [r4, #28]
ARM GAS  C:\Users\thewo\AppData\Local\Temp\ccuoMfMg.s 			page 30


 1663 0100 664B     		ldr	r3, .L298+4
 1664 0102 1B6A     		ldr	r3, [r3, #32]
 1665 0104 03F07003 		and	r3, r3, #112
 1666 0108 9A42     		cmp	r2, r3
 1667 010a 10D9     		bls	.L244
 1668 010c 002A     		cmp	r2, #0
 1669 010e 18BF     		it	ne
 1670 0110 402A     		cmpne	r2, #64
 1671 0112 05D0     		beq	.L245
 1672 0114 502A     		cmp	r2, #80
 1673 0116 03D0     		beq	.L245
 1674 0118 602A     		cmp	r2, #96
 1675 011a 01D0     		beq	.L245
 1676 011c 702A     		cmp	r2, #112
 1677 011e 75D1     		bne	.L285
 1678              	.L245:
 1679 0120 5E4A     		ldr	r2, .L298+4
 1680 0122 136A     		ldr	r3, [r2, #32]
 1681 0124 23F07003 		bic	r3, r3, #112
 1682 0128 E169     		ldr	r1, [r4, #28]
 1683 012a 0B43     		orrs	r3, r3, r1
 1684 012c 1362     		str	r3, [r2, #32]
 1685              	.L244:
 1686 012e 2368     		ldr	r3, [r4]
 1687 0130 13F0020F 		tst	r3, #2
 1688 0134 14D0     		beq	.L246
 1689 0136 E268     		ldr	r2, [r4, #12]
 1690 0138 584B     		ldr	r3, .L298+4
 1691 013a 9B69     		ldr	r3, [r3, #24]
 1692 013c 03F00F03 		and	r3, r3, #15
 1693 0140 9A42     		cmp	r2, r3
 1694 0142 0DD9     		bls	.L246
 1695 0144 002A     		cmp	r2, #0
 1696 0146 18BF     		it	ne
 1697 0148 082A     		cmpne	r2, #8
 1698 014a 02D0     		beq	.L247
 1699 014c 093A     		subs	r2, r2, #9
 1700 014e 062A     		cmp	r2, #6
 1701 0150 62D8     		bhi	.L286
 1702              	.L247:
 1703 0152 524A     		ldr	r2, .L298+4
 1704 0154 9369     		ldr	r3, [r2, #24]
 1705 0156 23F00F03 		bic	r3, r3, #15
 1706 015a E168     		ldr	r1, [r4, #12]
 1707 015c 0B43     		orrs	r3, r3, r1
 1708 015e 9361     		str	r3, [r2, #24]
 1709              	.L246:
 1710 0160 2368     		ldr	r3, [r4]
 1711 0162 13F0010F 		tst	r3, #1
 1712 0166 00F09D80 		beq	.L248
 1713 016a A368     		ldr	r3, [r4, #8]
 1714 016c 002B     		cmp	r3, #0
 1715 016e 18BF     		it	ne
 1716 0170 B3F5006F 		cmpne	r3, #2048
 1717 0174 14D0     		beq	.L249
 1718 0176 B3F5106F 		cmp	r3, #2304
 1719 017a 11D0     		beq	.L249
ARM GAS  C:\Users\thewo\AppData\Local\Temp\ccuoMfMg.s 			page 31


 1720 017c B3F5206F 		cmp	r3, #2560
 1721 0180 0ED0     		beq	.L249
 1722 0182 B3F5306F 		cmp	r3, #2816
 1723 0186 0BD0     		beq	.L249
 1724 0188 B3F5406F 		cmp	r3, #3072
 1725 018c 08D0     		beq	.L249
 1726 018e B3F5506F 		cmp	r3, #3328
 1727 0192 05D0     		beq	.L249
 1728 0194 B3F5606F 		cmp	r3, #3584
 1729 0198 02D0     		beq	.L249
 1730 019a B3F5706F 		cmp	r3, #3840
 1731 019e 41D1     		bne	.L287
 1732              	.L249:
 1733 01a0 6368     		ldr	r3, [r4, #4]
 1734 01a2 032B     		cmp	r3, #3
 1735 01a4 44D8     		bhi	.L288
 1736              	.L250:
 1737 01a6 3D4A     		ldr	r2, .L298+4
 1738 01a8 9369     		ldr	r3, [r2, #24]
 1739 01aa 23F47063 		bic	r3, r3, #3840
 1740 01ae A168     		ldr	r1, [r4, #8]
 1741 01b0 0B43     		orrs	r3, r3, r1
 1742 01b2 9361     		str	r3, [r2, #24]
 1743 01b4 6368     		ldr	r3, [r4, #4]
 1744 01b6 022B     		cmp	r3, #2
 1745 01b8 40D0     		beq	.L289
 1746 01ba 032B     		cmp	r3, #3
 1747 01bc 5DD0     		beq	.L290
 1748 01be 012B     		cmp	r3, #1
 1749 01c0 62D0     		beq	.L291
 1750 01c2 364A     		ldr	r2, .L298+4
 1751 01c4 1268     		ldr	r2, [r2]
 1752 01c6 12F0040F 		tst	r2, #4
 1753 01ca 3CD1     		bne	.L252
 1754 01cc 0120     		movs	r0, #1
 1755 01ce 25E1     		b	.L234
 1756              	.L280:
 1757 01d0 40F2A731 		movw	r1, #935
 1758 01d4 3248     		ldr	r0, .L298+8
 1759 01d6 FFF7FEFF 		bl	assert_failed
 1760 01da 1CE7     		b	.L235
 1761              	.L281:
 1762 01dc 4FF46A71 		mov	r1, #936
 1763 01e0 2F48     		ldr	r0, .L298+8
 1764 01e2 FFF7FEFF 		bl	assert_failed
 1765 01e6 19E7     		b	.L236
 1766              	.L282:
 1767 01e8 4FF47171 		mov	r1, #964
 1768 01ec 2C48     		ldr	r0, .L298+8
 1769 01ee FFF7FEFF 		bl	assert_failed
 1770 01f2 3BE7     		b	.L239
 1771              	.L283:
 1772 01f4 40F2D631 		movw	r1, #982
 1773 01f8 2948     		ldr	r0, .L298+8
 1774 01fa FFF7FEFF 		bl	assert_failed
 1775 01fe 52E7     		b	.L241
 1776              	.L284:
ARM GAS  C:\Users\thewo\AppData\Local\Temp\ccuoMfMg.s 			page 32


 1777 0200 40F2E731 		movw	r1, #999
 1778 0204 2648     		ldr	r0, .L298+8
 1779 0206 FFF7FEFF 		bl	assert_failed
 1780 020a 6DE7     		b	.L243
 1781              	.L285:
 1782 020c 40F2F931 		movw	r1, #1017
 1783 0210 2348     		ldr	r0, .L298+8
 1784 0212 FFF7FEFF 		bl	assert_failed
 1785 0216 83E7     		b	.L245
 1786              	.L286:
 1787 0218 40F20C41 		movw	r1, #1036
 1788 021c 2048     		ldr	r0, .L298+8
 1789 021e FFF7FEFF 		bl	assert_failed
 1790 0222 96E7     		b	.L247
 1791              	.L287:
 1792 0224 40F21C41 		movw	r1, #1052
 1793 0228 1D48     		ldr	r0, .L298+8
 1794 022a FFF7FEFF 		bl	assert_failed
 1795 022e B7E7     		b	.L249
 1796              	.L288:
 1797 0230 40F21D41 		movw	r1, #1053
 1798 0234 1A48     		ldr	r0, .L298+8
 1799 0236 FFF7FEFF 		bl	assert_failed
 1800 023a B4E7     		b	.L250
 1801              	.L289:
 1802 023c 1268     		ldr	r2, [r2]
 1803 023e 12F4003F 		tst	r2, #131072
 1804 0242 00F00E81 		beq	.L292
 1805              	.L252:
 1806 0246 1549     		ldr	r1, .L298+4
 1807 0248 0A69     		ldr	r2, [r1, #16]
 1808 024a 22F00702 		bic	r2, r2, #7
 1809 024e 1343     		orrs	r3, r3, r2
 1810 0250 0B61     		str	r3, [r1, #16]
 1811 0252 FFF7FEFF 		bl	HAL_GetTick
 1812 0256 0646     		mov	r6, r0
 1813              	.L255:
 1814 0258 104B     		ldr	r3, .L298+4
 1815 025a 1B69     		ldr	r3, [r3, #16]
 1816 025c 03F03803 		and	r3, r3, #56
 1817 0260 6268     		ldr	r2, [r4, #4]
 1818 0262 B3EBC20F 		cmp	r3, r2, lsl #3
 1819 0266 1DD0     		beq	.L248
 1820 0268 FFF7FEFF 		bl	HAL_GetTick
 1821 026c 801B     		subs	r0, r0, r6
 1822 026e 41F28833 		movw	r3, #5000
 1823 0272 9842     		cmp	r0, r3
 1824 0274 F0D9     		bls	.L255
 1825 0276 0320     		movs	r0, #3
 1826 0278 D0E0     		b	.L234
 1827              	.L290:
 1828 027a 084A     		ldr	r2, .L298+4
 1829 027c 1268     		ldr	r2, [r2]
 1830 027e 12F0007F 		tst	r2, #33554432
 1831 0282 E0D1     		bne	.L252
 1832 0284 0120     		movs	r0, #1
 1833 0286 C9E0     		b	.L234
ARM GAS  C:\Users\thewo\AppData\Local\Temp\ccuoMfMg.s 			page 33


 1834              	.L291:
 1835 0288 044A     		ldr	r2, .L298+4
 1836 028a 1268     		ldr	r2, [r2]
 1837 028c 12F4807F 		tst	r2, #256
 1838 0290 D9D1     		bne	.L252
 1839 0292 0120     		movs	r0, #1
 1840 0294 C2E0     		b	.L234
 1841              	.L299:
 1842 0296 00BF     		.align	2
 1843              	.L298:
 1844 0298 00200052 		.word	1375739904
 1845 029c 00440258 		.word	1476543488
 1846 02a0 00000000 		.word	.LC0
 1847              	.L248:
 1848 02a4 2368     		ldr	r3, [r4]
 1849 02a6 13F0020F 		tst	r3, #2
 1850 02aa 15D0     		beq	.L257
 1851 02ac E268     		ldr	r2, [r4, #12]
 1852 02ae 6F4B     		ldr	r3, .L300
 1853 02b0 9B69     		ldr	r3, [r3, #24]
 1854 02b2 03F00F03 		and	r3, r3, #15
 1855 02b6 9A42     		cmp	r2, r3
 1856 02b8 0ED2     		bcs	.L257
 1857 02ba 002A     		cmp	r2, #0
 1858 02bc 18BF     		it	ne
 1859 02be 082A     		cmpne	r2, #8
 1860 02c0 03D0     		beq	.L258
 1861 02c2 093A     		subs	r2, r2, #9
 1862 02c4 062A     		cmp	r2, #6
 1863 02c6 00F2AA80 		bhi	.L293
 1864              	.L258:
 1865 02ca 684A     		ldr	r2, .L300
 1866 02cc 9369     		ldr	r3, [r2, #24]
 1867 02ce 23F00F03 		bic	r3, r3, #15
 1868 02d2 E168     		ldr	r1, [r4, #12]
 1869 02d4 0B43     		orrs	r3, r3, r1
 1870 02d6 9361     		str	r3, [r2, #24]
 1871              	.L257:
 1872 02d8 654B     		ldr	r3, .L300+4
 1873 02da 1B68     		ldr	r3, [r3]
 1874 02dc 03F00F03 		and	r3, r3, #15
 1875 02e0 AB42     		cmp	r3, r5
 1876 02e2 0BD9     		bls	.L259
 1877 02e4 624A     		ldr	r2, .L300+4
 1878 02e6 1368     		ldr	r3, [r2]
 1879 02e8 23F00F03 		bic	r3, r3, #15
 1880 02ec 2B43     		orrs	r3, r3, r5
 1881 02ee 1360     		str	r3, [r2]
 1882 02f0 1368     		ldr	r3, [r2]
 1883 02f2 03F00F03 		and	r3, r3, #15
 1884 02f6 AB42     		cmp	r3, r5
 1885 02f8 40F0B580 		bne	.L275
 1886              	.L259:
 1887 02fc 2368     		ldr	r3, [r4]
 1888 02fe 13F0040F 		tst	r3, #4
 1889 0302 18D0     		beq	.L260
 1890 0304 2269     		ldr	r2, [r4, #16]
ARM GAS  C:\Users\thewo\AppData\Local\Temp\ccuoMfMg.s 			page 34


 1891 0306 594B     		ldr	r3, .L300
 1892 0308 9B69     		ldr	r3, [r3, #24]
 1893 030a 03F07003 		and	r3, r3, #112
 1894 030e 9A42     		cmp	r2, r3
 1895 0310 11D2     		bcs	.L260
 1896 0312 002A     		cmp	r2, #0
 1897 0314 18BF     		it	ne
 1898 0316 402A     		cmpne	r2, #64
 1899 0318 06D0     		beq	.L261
 1900 031a 502A     		cmp	r2, #80
 1901 031c 04D0     		beq	.L261
 1902 031e 602A     		cmp	r2, #96
 1903 0320 02D0     		beq	.L261
 1904 0322 702A     		cmp	r2, #112
 1905 0324 40F08180 		bne	.L294
 1906              	.L261:
 1907 0328 504A     		ldr	r2, .L300
 1908 032a 9369     		ldr	r3, [r2, #24]
 1909 032c 23F07003 		bic	r3, r3, #112
 1910 0330 2169     		ldr	r1, [r4, #16]
 1911 0332 0B43     		orrs	r3, r3, r1
 1912 0334 9361     		str	r3, [r2, #24]
 1913              	.L260:
 1914 0336 2368     		ldr	r3, [r4]
 1915 0338 13F0080F 		tst	r3, #8
 1916 033c 17D0     		beq	.L262
 1917 033e 6269     		ldr	r2, [r4, #20]
 1918 0340 4A4B     		ldr	r3, .L300
 1919 0342 DB69     		ldr	r3, [r3, #28]
 1920 0344 03F07003 		and	r3, r3, #112
 1921 0348 9A42     		cmp	r2, r3
 1922 034a 10D2     		bcs	.L262
 1923 034c 002A     		cmp	r2, #0
 1924 034e 18BF     		it	ne
 1925 0350 402A     		cmpne	r2, #64
 1926 0352 05D0     		beq	.L263
 1927 0354 502A     		cmp	r2, #80
 1928 0356 03D0     		beq	.L263
 1929 0358 602A     		cmp	r2, #96
 1930 035a 01D0     		beq	.L263
 1931 035c 702A     		cmp	r2, #112
 1932 035e 6AD1     		bne	.L295
 1933              	.L263:
 1934 0360 424A     		ldr	r2, .L300
 1935 0362 D369     		ldr	r3, [r2, #28]
 1936 0364 23F07003 		bic	r3, r3, #112
 1937 0368 6169     		ldr	r1, [r4, #20]
 1938 036a 0B43     		orrs	r3, r3, r1
 1939 036c D361     		str	r3, [r2, #28]
 1940              	.L262:
 1941 036e 2368     		ldr	r3, [r4]
 1942 0370 13F0100F 		tst	r3, #16
 1943 0374 1BD0     		beq	.L264
 1944 0376 A269     		ldr	r2, [r4, #24]
 1945 0378 3C4B     		ldr	r3, .L300
 1946 037a DB69     		ldr	r3, [r3, #28]
 1947 037c 03F4E063 		and	r3, r3, #1792
ARM GAS  C:\Users\thewo\AppData\Local\Temp\ccuoMfMg.s 			page 35


 1948 0380 9A42     		cmp	r2, r3
 1949 0382 14D2     		bcs	.L264
 1950 0384 002A     		cmp	r2, #0
 1951 0386 18BF     		it	ne
 1952 0388 B2F5806F 		cmpne	r2, #1024
 1953 038c 08D0     		beq	.L265
 1954 038e B2F5A06F 		cmp	r2, #1280
 1955 0392 05D0     		beq	.L265
 1956 0394 B2F5C06F 		cmp	r2, #1536
 1957 0398 02D0     		beq	.L265
 1958 039a B2F5E06F 		cmp	r2, #1792
 1959 039e 50D1     		bne	.L296
 1960              	.L265:
 1961 03a0 324A     		ldr	r2, .L300
 1962 03a2 D369     		ldr	r3, [r2, #28]
 1963 03a4 23F4E063 		bic	r3, r3, #1792
 1964 03a8 A169     		ldr	r1, [r4, #24]
 1965 03aa 0B43     		orrs	r3, r3, r1
 1966 03ac D361     		str	r3, [r2, #28]
 1967              	.L264:
 1968 03ae 2368     		ldr	r3, [r4]
 1969 03b0 13F0200F 		tst	r3, #32
 1970 03b4 17D0     		beq	.L266
 1971 03b6 E269     		ldr	r2, [r4, #28]
 1972 03b8 2C4B     		ldr	r3, .L300
 1973 03ba 1B6A     		ldr	r3, [r3, #32]
 1974 03bc 03F07003 		and	r3, r3, #112
 1975 03c0 9A42     		cmp	r2, r3
 1976 03c2 10D2     		bcs	.L266
 1977 03c4 002A     		cmp	r2, #0
 1978 03c6 18BF     		it	ne
 1979 03c8 402A     		cmpne	r2, #64
 1980 03ca 05D0     		beq	.L267
 1981 03cc 502A     		cmp	r2, #80
 1982 03ce 03D0     		beq	.L267
 1983 03d0 602A     		cmp	r2, #96
 1984 03d2 01D0     		beq	.L267
 1985 03d4 702A     		cmp	r2, #112
 1986 03d6 3AD1     		bne	.L297
 1987              	.L267:
 1988 03d8 244A     		ldr	r2, .L300
 1989 03da 136A     		ldr	r3, [r2, #32]
 1990 03dc 23F07003 		bic	r3, r3, #112
 1991 03e0 E169     		ldr	r1, [r4, #28]
 1992 03e2 0B43     		orrs	r3, r3, r1
 1993 03e4 1362     		str	r3, [r2, #32]
 1994              	.L266:
 1995 03e6 FFF7FEFF 		bl	HAL_RCC_GetSysClockFreq
 1996 03ea 2049     		ldr	r1, .L300
 1997 03ec 8B69     		ldr	r3, [r1, #24]
 1998 03ee C3F30323 		ubfx	r3, r3, #8, #4
 1999 03f2 204A     		ldr	r2, .L300+8
 2000 03f4 D35C     		ldrb	r3, [r2, r3]	@ zero_extendqisi2
 2001 03f6 03F01F03 		and	r3, r3, #31
 2002 03fa D840     		lsrs	r0, r0, r3
 2003 03fc 8B69     		ldr	r3, [r1, #24]
 2004 03fe 03F00F03 		and	r3, r3, #15
ARM GAS  C:\Users\thewo\AppData\Local\Temp\ccuoMfMg.s 			page 36


 2005 0402 D35C     		ldrb	r3, [r2, r3]	@ zero_extendqisi2
 2006 0404 03F01F03 		and	r3, r3, #31
 2007 0408 20FA03F3 		lsr	r3, r0, r3
 2008 040c 1A4A     		ldr	r2, .L300+12
 2009 040e 1360     		str	r3, [r2]
 2010 0410 1A4B     		ldr	r3, .L300+16
 2011 0412 1860     		str	r0, [r3]
 2012 0414 1A4B     		ldr	r3, .L300+20
 2013 0416 1868     		ldr	r0, [r3]
 2014 0418 FFF7FEFF 		bl	HAL_InitTick
 2015              	.L234:
 2016 041c 70BD     		pop	{r4, r5, r6, pc}
 2017              	.L293:
 2018 041e 40F25E41 		movw	r1, #1118
 2019 0422 1848     		ldr	r0, .L300+24
 2020 0424 FFF7FEFF 		bl	assert_failed
 2021 0428 4FE7     		b	.L258
 2022              	.L294:
 2023 042a 40F27F41 		movw	r1, #1151
 2024 042e 1548     		ldr	r0, .L300+24
 2025 0430 FFF7FEFF 		bl	assert_failed
 2026 0434 78E7     		b	.L261
 2027              	.L295:
 2028 0436 40F29141 		movw	r1, #1169
 2029 043a 1248     		ldr	r0, .L300+24
 2030 043c FFF7FEFF 		bl	assert_failed
 2031 0440 8EE7     		b	.L263
 2032              	.L296:
 2033 0442 40F2A341 		movw	r1, #1187
 2034 0446 0F48     		ldr	r0, .L300+24
 2035 0448 FFF7FEFF 		bl	assert_failed
 2036 044c A8E7     		b	.L265
 2037              	.L297:
 2038 044e 40F2B541 		movw	r1, #1205
 2039 0452 0C48     		ldr	r0, .L300+24
 2040 0454 FFF7FEFF 		bl	assert_failed
 2041 0458 BEE7     		b	.L267
 2042              	.L268:
 2043 045a 0120     		movs	r0, #1
 2044 045c 7047     		bx	lr
 2045              	.L269:
 2046 045e 0120     		movs	r0, #1
 2047 0460 DCE7     		b	.L234
 2048              	.L292:
 2049 0462 0120     		movs	r0, #1
 2050 0464 DAE7     		b	.L234
 2051              	.L275:
 2052 0466 0120     		movs	r0, #1
 2053 0468 D8E7     		b	.L234
 2054              	.L301:
 2055 046a 00BF     		.align	2
 2056              	.L300:
 2057 046c 00440258 		.word	1476543488
 2058 0470 00200052 		.word	1375739904
 2059 0474 00000000 		.word	D1CorePrescTable
 2060 0478 00000000 		.word	SystemD2Clock
 2061 047c 00000000 		.word	SystemCoreClock
ARM GAS  C:\Users\thewo\AppData\Local\Temp\ccuoMfMg.s 			page 37


 2062 0480 00000000 		.word	uwTickPrio
 2063 0484 00000000 		.word	.LC0
 2065              		.section	.text.HAL_RCC_GetHCLKFreq,"ax",%progbits
 2066              		.align	1
 2067              		.global	HAL_RCC_GetHCLKFreq
 2068              		.syntax unified
 2069              		.thumb
 2070              		.thumb_func
 2072              	HAL_RCC_GetHCLKFreq:
 2073              		@ args = 0, pretend = 0, frame = 0
 2074              		@ frame_needed = 0, uses_anonymous_args = 0
 2075 0000 08B5     		push	{r3, lr}
 2076 0002 FFF7FEFF 		bl	HAL_RCC_GetSysClockFreq
 2077 0006 0B4A     		ldr	r2, .L304
 2078 0008 9369     		ldr	r3, [r2, #24]
 2079 000a C3F30323 		ubfx	r3, r3, #8, #4
 2080 000e 0A49     		ldr	r1, .L304+4
 2081 0010 CB5C     		ldrb	r3, [r1, r3]	@ zero_extendqisi2
 2082 0012 03F01F03 		and	r3, r3, #31
 2083 0016 20FA03F3 		lsr	r3, r0, r3
 2084 001a 9269     		ldr	r2, [r2, #24]
 2085 001c 02F00F02 		and	r2, r2, #15
 2086 0020 885C     		ldrb	r0, [r1, r2]	@ zero_extendqisi2
 2087 0022 00F01F00 		and	r0, r0, #31
 2088 0026 23FA00F0 		lsr	r0, r3, r0
 2089 002a 044A     		ldr	r2, .L304+8
 2090 002c 1060     		str	r0, [r2]
 2091 002e 044A     		ldr	r2, .L304+12
 2092 0030 1360     		str	r3, [r2]
 2093 0032 08BD     		pop	{r3, pc}
 2094              	.L305:
 2095              		.align	2
 2096              	.L304:
 2097 0034 00440258 		.word	1476543488
 2098 0038 00000000 		.word	D1CorePrescTable
 2099 003c 00000000 		.word	SystemD2Clock
 2100 0040 00000000 		.word	SystemCoreClock
 2102              		.section	.text.HAL_RCC_GetPCLK1Freq,"ax",%progbits
 2103              		.align	1
 2104              		.global	HAL_RCC_GetPCLK1Freq
 2105              		.syntax unified
 2106              		.thumb
 2107              		.thumb_func
 2109              	HAL_RCC_GetPCLK1Freq:
 2110              		@ args = 0, pretend = 0, frame = 0
 2111              		@ frame_needed = 0, uses_anonymous_args = 0
 2112 0000 08B5     		push	{r3, lr}
 2113 0002 FFF7FEFF 		bl	HAL_RCC_GetHCLKFreq
 2114 0006 054B     		ldr	r3, .L308
 2115 0008 DB69     		ldr	r3, [r3, #28]
 2116 000a C3F30213 		ubfx	r3, r3, #4, #3
 2117 000e 044A     		ldr	r2, .L308+4
 2118 0010 D35C     		ldrb	r3, [r2, r3]	@ zero_extendqisi2
 2119 0012 03F01F03 		and	r3, r3, #31
 2120 0016 D840     		lsrs	r0, r0, r3
 2121 0018 08BD     		pop	{r3, pc}
 2122              	.L309:
ARM GAS  C:\Users\thewo\AppData\Local\Temp\ccuoMfMg.s 			page 38


 2123 001a 00BF     		.align	2
 2124              	.L308:
 2125 001c 00440258 		.word	1476543488
 2126 0020 00000000 		.word	D1CorePrescTable
 2128              		.section	.text.HAL_RCC_GetPCLK2Freq,"ax",%progbits
 2129              		.align	1
 2130              		.global	HAL_RCC_GetPCLK2Freq
 2131              		.syntax unified
 2132              		.thumb
 2133              		.thumb_func
 2135              	HAL_RCC_GetPCLK2Freq:
 2136              		@ args = 0, pretend = 0, frame = 0
 2137              		@ frame_needed = 0, uses_anonymous_args = 0
 2138 0000 08B5     		push	{r3, lr}
 2139 0002 FFF7FEFF 		bl	HAL_RCC_GetHCLKFreq
 2140 0006 054B     		ldr	r3, .L312
 2141 0008 DB69     		ldr	r3, [r3, #28]
 2142 000a C3F30223 		ubfx	r3, r3, #8, #3
 2143 000e 044A     		ldr	r2, .L312+4
 2144 0010 D35C     		ldrb	r3, [r2, r3]	@ zero_extendqisi2
 2145 0012 03F01F03 		and	r3, r3, #31
 2146 0016 D840     		lsrs	r0, r0, r3
 2147 0018 08BD     		pop	{r3, pc}
 2148              	.L313:
 2149 001a 00BF     		.align	2
 2150              	.L312:
 2151 001c 00440258 		.word	1476543488
 2152 0020 00000000 		.word	D1CorePrescTable
 2154              		.section	.text.HAL_RCC_GetOscConfig,"ax",%progbits
 2155              		.align	1
 2156              		.global	HAL_RCC_GetOscConfig
 2157              		.syntax unified
 2158              		.thumb
 2159              		.thumb_func
 2161              	HAL_RCC_GetOscConfig:
 2162              		@ args = 0, pretend = 0, frame = 0
 2163              		@ frame_needed = 0, uses_anonymous_args = 0
 2164              		@ link register save eliminated.
 2165 0000 3F23     		movs	r3, #63
 2166 0002 0360     		str	r3, [r0]
 2167 0004 444B     		ldr	r3, .L331
 2168 0006 1B68     		ldr	r3, [r3]
 2169 0008 13F4802F 		tst	r3, #262144
 2170 000c 5ED0     		beq	.L315
 2171 000e 4FF4A023 		mov	r3, #327680
 2172 0012 4360     		str	r3, [r0, #4]
 2173              	.L316:
 2174 0014 404B     		ldr	r3, .L331
 2175 0016 1B68     		ldr	r3, [r3]
 2176 0018 13F0800F 		tst	r3, #128
 2177 001c 62D0     		beq	.L318
 2178 001e 8023     		movs	r3, #128
 2179 0020 C361     		str	r3, [r0, #28]
 2180              	.L319:
 2181 0022 3D4A     		ldr	r2, .L331
 2182 0024 D368     		ldr	r3, [r2, #12]
 2183 0026 C3F30563 		ubfx	r3, r3, #24, #6
ARM GAS  C:\Users\thewo\AppData\Local\Temp\ccuoMfMg.s 			page 39


 2184 002a 0362     		str	r3, [r0, #32]
 2185 002c 1368     		ldr	r3, [r2]
 2186 002e 13F0010F 		tst	r3, #1
 2187 0032 5AD0     		beq	.L320
 2188 0034 0123     		movs	r3, #1
 2189 0036 C360     		str	r3, [r0, #12]
 2190              	.L321:
 2191 0038 374A     		ldr	r2, .L331
 2192 003a 5368     		ldr	r3, [r2, #4]
 2193 003c C3F30663 		ubfx	r3, r3, #24, #7
 2194 0040 0361     		str	r3, [r0, #16]
 2195 0042 136F     		ldr	r3, [r2, #112]
 2196 0044 13F0040F 		tst	r3, #4
 2197 0048 52D0     		beq	.L322
 2198 004a 0523     		movs	r3, #5
 2199 004c 8360     		str	r3, [r0, #8]
 2200              	.L323:
 2201 004e 324B     		ldr	r3, .L331
 2202 0050 5B6F     		ldr	r3, [r3, #116]
 2203 0052 13F0010F 		tst	r3, #1
 2204 0056 56D0     		beq	.L325
 2205 0058 0123     		movs	r3, #1
 2206 005a 4361     		str	r3, [r0, #20]
 2207              	.L326:
 2208 005c 2E4B     		ldr	r3, .L331
 2209 005e 1B68     		ldr	r3, [r3]
 2210 0060 13F4805F 		tst	r3, #4096
 2211 0064 52D0     		beq	.L327
 2212 0066 0123     		movs	r3, #1
 2213 0068 8361     		str	r3, [r0, #24]
 2214              	.L328:
 2215 006a 2B4B     		ldr	r3, .L331
 2216 006c 1B68     		ldr	r3, [r3]
 2217 006e 13F0807F 		tst	r3, #16777216
 2218 0072 4ED0     		beq	.L329
 2219 0074 0223     		movs	r3, #2
 2220 0076 4362     		str	r3, [r0, #36]
 2221              	.L330:
 2222 0078 274B     		ldr	r3, .L331
 2223 007a 9A6A     		ldr	r2, [r3, #40]
 2224 007c 02F00302 		and	r2, r2, #3
 2225 0080 8262     		str	r2, [r0, #40]
 2226 0082 9A6A     		ldr	r2, [r3, #40]
 2227 0084 C2F30512 		ubfx	r2, r2, #4, #6
 2228 0088 C262     		str	r2, [r0, #44]
 2229 008a 1A6B     		ldr	r2, [r3, #48]
 2230 008c C2F30802 		ubfx	r2, r2, #0, #9
 2231 0090 0132     		adds	r2, r2, #1
 2232 0092 0263     		str	r2, [r0, #48]
 2233 0094 1A6B     		ldr	r2, [r3, #48]
 2234 0096 C2F30662 		ubfx	r2, r2, #24, #7
 2235 009a 0132     		adds	r2, r2, #1
 2236 009c C263     		str	r2, [r0, #60]
 2237 009e 1A6B     		ldr	r2, [r3, #48]
 2238 00a0 C2F34622 		ubfx	r2, r2, #9, #7
 2239 00a4 0132     		adds	r2, r2, #1
 2240 00a6 4263     		str	r2, [r0, #52]
ARM GAS  C:\Users\thewo\AppData\Local\Temp\ccuoMfMg.s 			page 40


 2241 00a8 1A6B     		ldr	r2, [r3, #48]
 2242 00aa C2F30642 		ubfx	r2, r2, #16, #7
 2243 00ae 0132     		adds	r2, r2, #1
 2244 00b0 8263     		str	r2, [r0, #56]
 2245 00b2 DA6A     		ldr	r2, [r3, #44]
 2246 00b4 02F00C02 		and	r2, r2, #12
 2247 00b8 0264     		str	r2, [r0, #64]
 2248 00ba DA6A     		ldr	r2, [r3, #44]
 2249 00bc C2F34002 		ubfx	r2, r2, #1, #1
 2250 00c0 4264     		str	r2, [r0, #68]
 2251 00c2 5B6B     		ldr	r3, [r3, #52]
 2252 00c4 C3F3CC03 		ubfx	r3, r3, #3, #13
 2253 00c8 8364     		str	r3, [r0, #72]
 2254 00ca 7047     		bx	lr
 2255              	.L315:
 2256 00cc 124B     		ldr	r3, .L331
 2257 00ce 1B68     		ldr	r3, [r3]
 2258 00d0 13F4803F 		tst	r3, #65536
 2259 00d4 03D0     		beq	.L317
 2260 00d6 4FF48033 		mov	r3, #65536
 2261 00da 4360     		str	r3, [r0, #4]
 2262 00dc 9AE7     		b	.L316
 2263              	.L317:
 2264 00de 0023     		movs	r3, #0
 2265 00e0 4360     		str	r3, [r0, #4]
 2266 00e2 97E7     		b	.L316
 2267              	.L318:
 2268 00e4 0023     		movs	r3, #0
 2269 00e6 C361     		str	r3, [r0, #28]
 2270 00e8 9BE7     		b	.L319
 2271              	.L320:
 2272 00ea 0023     		movs	r3, #0
 2273 00ec C360     		str	r3, [r0, #12]
 2274 00ee A3E7     		b	.L321
 2275              	.L322:
 2276 00f0 094B     		ldr	r3, .L331
 2277 00f2 1B6F     		ldr	r3, [r3, #112]
 2278 00f4 13F0010F 		tst	r3, #1
 2279 00f8 02D0     		beq	.L324
 2280 00fa 0123     		movs	r3, #1
 2281 00fc 8360     		str	r3, [r0, #8]
 2282 00fe A6E7     		b	.L323
 2283              	.L324:
 2284 0100 0023     		movs	r3, #0
 2285 0102 8360     		str	r3, [r0, #8]
 2286 0104 A3E7     		b	.L323
 2287              	.L325:
 2288 0106 0023     		movs	r3, #0
 2289 0108 4361     		str	r3, [r0, #20]
 2290 010a A7E7     		b	.L326
 2291              	.L327:
 2292 010c 0023     		movs	r3, #0
 2293 010e 8361     		str	r3, [r0, #24]
 2294 0110 ABE7     		b	.L328
 2295              	.L329:
 2296 0112 0123     		movs	r3, #1
 2297 0114 4362     		str	r3, [r0, #36]
ARM GAS  C:\Users\thewo\AppData\Local\Temp\ccuoMfMg.s 			page 41


 2298 0116 AFE7     		b	.L330
 2299              	.L332:
 2300              		.align	2
 2301              	.L331:
 2302 0118 00440258 		.word	1476543488
 2304              		.section	.text.HAL_RCC_GetClockConfig,"ax",%progbits
 2305              		.align	1
 2306              		.global	HAL_RCC_GetClockConfig
 2307              		.syntax unified
 2308              		.thumb
 2309              		.thumb_func
 2311              	HAL_RCC_GetClockConfig:
 2312              		@ args = 0, pretend = 0, frame = 0
 2313              		@ frame_needed = 0, uses_anonymous_args = 0
 2314              		@ link register save eliminated.
 2315 0000 3F23     		movs	r3, #63
 2316 0002 0360     		str	r3, [r0]
 2317 0004 114B     		ldr	r3, .L334
 2318 0006 1A69     		ldr	r2, [r3, #16]
 2319 0008 02F00702 		and	r2, r2, #7
 2320 000c 4260     		str	r2, [r0, #4]
 2321 000e 9A69     		ldr	r2, [r3, #24]
 2322 0010 02F47062 		and	r2, r2, #3840
 2323 0014 8260     		str	r2, [r0, #8]
 2324 0016 9A69     		ldr	r2, [r3, #24]
 2325 0018 02F00F02 		and	r2, r2, #15
 2326 001c C260     		str	r2, [r0, #12]
 2327 001e 9A69     		ldr	r2, [r3, #24]
 2328 0020 02F07002 		and	r2, r2, #112
 2329 0024 0261     		str	r2, [r0, #16]
 2330 0026 DA69     		ldr	r2, [r3, #28]
 2331 0028 02F07002 		and	r2, r2, #112
 2332 002c 4261     		str	r2, [r0, #20]
 2333 002e DA69     		ldr	r2, [r3, #28]
 2334 0030 02F4E062 		and	r2, r2, #1792
 2335 0034 8261     		str	r2, [r0, #24]
 2336 0036 1B6A     		ldr	r3, [r3, #32]
 2337 0038 03F07003 		and	r3, r3, #112
 2338 003c C361     		str	r3, [r0, #28]
 2339 003e 044B     		ldr	r3, .L334+4
 2340 0040 1B68     		ldr	r3, [r3]
 2341 0042 03F00F03 		and	r3, r3, #15
 2342 0046 0B60     		str	r3, [r1]
 2343 0048 7047     		bx	lr
 2344              	.L335:
 2345 004a 00BF     		.align	2
 2346              	.L334:
 2347 004c 00440258 		.word	1476543488
 2348 0050 00200052 		.word	1375739904
 2350              		.section	.text.HAL_RCC_CSSCallback,"ax",%progbits
 2351              		.align	1
 2352              		.weak	HAL_RCC_CSSCallback
 2353              		.syntax unified
 2354              		.thumb
 2355              		.thumb_func
 2357              	HAL_RCC_CSSCallback:
 2358              		@ args = 0, pretend = 0, frame = 0
ARM GAS  C:\Users\thewo\AppData\Local\Temp\ccuoMfMg.s 			page 42


 2359              		@ frame_needed = 0, uses_anonymous_args = 0
 2360              		@ link register save eliminated.
 2361 0000 7047     		bx	lr
 2363              		.section	.text.HAL_RCC_NMI_IRQHandler,"ax",%progbits
 2364              		.align	1
 2365              		.global	HAL_RCC_NMI_IRQHandler
 2366              		.syntax unified
 2367              		.thumb
 2368              		.thumb_func
 2370              	HAL_RCC_NMI_IRQHandler:
 2371              		@ args = 0, pretend = 0, frame = 0
 2372              		@ frame_needed = 0, uses_anonymous_args = 0
 2373 0000 08B5     		push	{r3, lr}
 2374 0002 064B     		ldr	r3, .L341
 2375 0004 5B6E     		ldr	r3, [r3, #100]
 2376 0006 13F4806F 		tst	r3, #1024
 2377 000a 00D1     		bne	.L340
 2378              	.L337:
 2379 000c 08BD     		pop	{r3, pc}
 2380              	.L340:
 2381 000e FFF7FEFF 		bl	HAL_RCC_CSSCallback
 2382 0012 024B     		ldr	r3, .L341
 2383 0014 4FF48062 		mov	r2, #1024
 2384 0018 9A66     		str	r2, [r3, #104]
 2385 001a F7E7     		b	.L337
 2386              	.L342:
 2387              		.align	2
 2388              	.L341:
 2389 001c 00440258 		.word	1476543488
 2391              		.ident	"GCC: (xPack GNU Arm Embedded GCC x86_64) 14.2.1 20241119"
ARM GAS  C:\Users\thewo\AppData\Local\Temp\ccuoMfMg.s 			page 43

