ARM GAS  C:\Users\thewo\AppData\Local\Temp\ccCADg6a.s 			page 1


   1              		.cpu cortex-m7
   2              		.arch armv7e-m
   3              		.fpu fpv5-d16
   4              		.eabi_attribute 28, 1
   5              		.eabi_attribute 20, 1
   6              		.eabi_attribute 21, 1
   7              		.eabi_attribute 23, 3
   8              		.eabi_attribute 24, 1
   9              		.eabi_attribute 25, 1
  10              		.eabi_attribute 26, 1
  11              		.eabi_attribute 30, 1
  12              		.eabi_attribute 34, 1
  13              		.eabi_attribute 18, 4
  14              		.file	"stm32h7xx_hal_adc_ex.c"
  15              		.text
  16              		.section	.text.LL_ADC_SetCalibrationOffsetFactor,"ax",%progbits
  17              		.align	1
  18              		.syntax unified
  19              		.thumb
  20              		.thumb_func
  22              	LL_ADC_SetCalibrationOffsetFactor:
  23              		@ args = 0, pretend = 0, frame = 0
  24              		@ frame_needed = 0, uses_anonymous_args = 0
  25              		@ link register save eliminated.
  26 0000 D0F8C430 		ldr	r3, [r0, #196]
  27 0004 21F0F82C 		bic	ip, r1, #-134154240
  28 0008 23EA0C0C 		bic	ip, r3, ip
  29 000c C1F30A03 		ubfx	r3, r1, #0, #11
  30 0010 DB43     		mvns	r3, r3
  31 0012 03EA1133 		and	r3, r3, r1, lsr #12
  32 0016 03F01003 		and	r3, r3, #16
  33 001a 9A40     		lsls	r2, r2, r3
  34 001c 4CEA0202 		orr	r2, ip, r2
  35 0020 C0F8C420 		str	r2, [r0, #196]
  36 0024 7047     		bx	lr
  38              		.section	.text.LL_ADC_SetCalibrationLinearFactor,"ax",%progbits
  39              		.align	1
  40              		.syntax unified
  41              		.thumb
  42              		.thumb_func
  44              	LL_ADC_SetCalibrationLinearFactor:
  45              		@ args = 0, pretend = 0, frame = 0
  46              		@ frame_needed = 0, uses_anonymous_args = 0
  47              		@ link register save eliminated.
  48 0000 0B4B     		ldr	r3, .L6
  49 0002 9842     		cmp	r0, r3
  50 0004 12D0     		beq	.L2
  51 0006 D0F8C830 		ldr	r3, [r0, #200]
  52 000a 03F04043 		and	r3, r3, #-1073741824
  53 000e 1343     		orrs	r3, r3, r2
  54 0010 C0F8C830 		str	r3, [r0, #200]
  55 0014 8368     		ldr	r3, [r0, #8]
  56 0016 23F48033 		bic	r3, r3, #65536
  57 001a 0B43     		orrs	r3, r3, r1
  58 001c 8360     		str	r3, [r0, #8]
  59 001e 054B     		ldr	r3, .L6+4
  60              	.L4:
ARM GAS  C:\Users\thewo\AppData\Local\Temp\ccCADg6a.s 			page 2


  61 0020 8268     		ldr	r2, [r0, #8]
  62 0022 0A42     		tst	r2, r1
  63 0024 02D1     		bne	.L2
  64 0026 0BB1     		cbz	r3, .L2
  65 0028 013B     		subs	r3, r3, #1
  66 002a F9E7     		b	.L4
  67              	.L2:
  68 002c 7047     		bx	lr
  69              	.L7:
  70 002e 00BF     		.align	2
  71              	.L6:
  72 0030 00600258 		.word	1476550656
  73 0034 70000800 		.word	524400
  75              		.section	.text.LL_ADC_GetCalibrationLinearFactor,"ax",%progbits
  76              		.align	1
  77              		.syntax unified
  78              		.thumb
  79              		.thumb_func
  81              	LL_ADC_GetCalibrationLinearFactor:
  82              		@ args = 0, pretend = 0, frame = 0
  83              		@ frame_needed = 0, uses_anonymous_args = 0
  84              		@ link register save eliminated.
  85 0000 8368     		ldr	r3, [r0, #8]
  86 0002 23EA0103 		bic	r3, r3, r1
  87 0006 8360     		str	r3, [r0, #8]
  88 0008 054B     		ldr	r3, .L12
  89              	.L9:
  90 000a 8268     		ldr	r2, [r0, #8]
  91 000c 0A42     		tst	r2, r1
  92 000e 02D0     		beq	.L10
  93 0010 0BB1     		cbz	r3, .L10
  94 0012 013B     		subs	r3, r3, #1
  95 0014 F9E7     		b	.L9
  96              	.L10:
  97 0016 D0F8C800 		ldr	r0, [r0, #200]
  98 001a 20F04040 		bic	r0, r0, #-1073741824
  99 001e 7047     		bx	lr
 100              	.L13:
 101              		.align	2
 102              	.L12:
 103 0020 70000800 		.word	524400
 105              		.section	.text.LL_ADC_SetOffset,"ax",%progbits
 106              		.align	1
 107              		.syntax unified
 108              		.thumb
 109              		.thumb_func
 111              	LL_ADC_SetOffset:
 112              		@ args = 0, pretend = 0, frame = 0
 113              		@ frame_needed = 0, uses_anonymous_args = 0
 114              		@ link register save eliminated.
 115 0000 10B4     		push	{r4}
 116 0002 00F1600C 		add	ip, r0, #96
 117 0006 0D4C     		ldr	r4, .L19
 118 0008 A042     		cmp	r0, r4
 119 000a 0CD0     		beq	.L18
 120 000c 5CF82100 		ldr	r0, [ip, r1, lsl #2]
 121 0010 00F00040 		and	r0, r0, #-2147483648
ARM GAS  C:\Users\thewo\AppData\Local\Temp\ccCADg6a.s 			page 3


 122 0014 02F0F842 		and	r2, r2, #2080374784
 123 0018 1343     		orrs	r3, r3, r2
 124 001a 0343     		orrs	r3, r3, r0
 125 001c 4CF82130 		str	r3, [ip, r1, lsl #2]
 126              	.L14:
 127 0020 5DF8044B 		ldr	r4, [sp], #4
 128 0024 7047     		bx	lr
 129              	.L18:
 130 0026 5CF82100 		ldr	r0, [ip, r1, lsl #2]
 131 002a 02F0F842 		and	r2, r2, #2080374784
 132 002e 1343     		orrs	r3, r3, r2
 133 0030 43F00043 		orr	r3, r3, #-2147483648
 134 0034 4CF82130 		str	r3, [ip, r1, lsl #2]
 135 0038 F2E7     		b	.L14
 136              	.L20:
 137 003a 00BF     		.align	2
 138              	.L19:
 139 003c 00600258 		.word	1476550656
 141              		.section	.text.LL_ADC_SetOffsetState,"ax",%progbits
 142              		.align	1
 143              		.syntax unified
 144              		.thumb
 145              		.thumb_func
 147              	LL_ADC_SetOffsetState:
 148              		@ args = 0, pretend = 0, frame = 0
 149              		@ frame_needed = 0, uses_anonymous_args = 0
 150              		@ link register save eliminated.
 151 0000 00F1600C 		add	ip, r0, #96
 152 0004 094B     		ldr	r3, .L25
 153 0006 9842     		cmp	r0, r3
 154 0008 07D0     		beq	.L24
 155 000a 5CF82130 		ldr	r3, [ip, r1, lsl #2]
 156 000e 23F00043 		bic	r3, r3, #-2147483648
 157 0012 1A43     		orrs	r2, r2, r3
 158 0014 4CF82120 		str	r2, [ip, r1, lsl #2]
 159 0018 7047     		bx	lr
 160              	.L24:
 161 001a 5CF82130 		ldr	r3, [ip, r1, lsl #2]
 162 001e 23F00043 		bic	r3, r3, #-2147483648
 163 0022 1343     		orrs	r3, r3, r2
 164 0024 4CF82130 		str	r3, [ip, r1, lsl #2]
 165 0028 7047     		bx	lr
 166              	.L26:
 167 002a 00BF     		.align	2
 168              	.L25:
 169 002c 00600258 		.word	1476550656
 171              		.section	.text.LL_ADC_SetChannelSamplingTime,"ax",%progbits
 172              		.align	1
 173              		.syntax unified
 174              		.thumb
 175              		.thumb_func
 177              	LL_ADC_SetChannelSamplingTime:
 178              		@ args = 0, pretend = 0, frame = 0
 179              		@ frame_needed = 0, uses_anonymous_args = 0
 180              		@ link register save eliminated.
 181 0000 10B4     		push	{r4}
 182 0002 1430     		adds	r0, r0, #20
ARM GAS  C:\Users\thewo\AppData\Local\Temp\ccCADg6a.s 			page 4


 183 0004 4B0E     		lsrs	r3, r1, #25
 184 0006 9B00     		lsls	r3, r3, #2
 185 0008 03F00403 		and	r3, r3, #4
 186 000c C458     		ldr	r4, [r0, r3]
 187 000e C1F30451 		ubfx	r1, r1, #20, #5
 188 0012 4FF0070C 		mov	ip, #7
 189 0016 0CFA01FC 		lsl	ip, ip, r1
 190 001a 24EA0C0C 		bic	ip, r4, ip
 191 001e 8A40     		lsls	r2, r2, r1
 192 0020 4CEA0202 		orr	r2, ip, r2
 193 0024 C250     		str	r2, [r0, r3]
 194 0026 5DF8044B 		ldr	r4, [sp], #4
 195 002a 7047     		bx	lr
 197              		.section	.text.LL_ADC_SetChannelSingleDiff,"ax",%progbits
 198              		.align	1
 199              		.syntax unified
 200              		.thumb
 201              		.thumb_func
 203              	LL_ADC_SetChannelSingleDiff:
 204              		@ args = 0, pretend = 0, frame = 0
 205              		@ frame_needed = 0, uses_anonymous_args = 0
 206              		@ link register save eliminated.
 207 0000 134B     		ldr	r3, .L33
 208 0002 9842     		cmp	r0, r3
 209 0004 11D0     		beq	.L32
 210 0006 D0F8C030 		ldr	r3, [r0, #192]
 211 000a C1F3130C 		ubfx	ip, r1, #0, #20
 212 000e 23EA0C0C 		bic	ip, r3, ip
 213 0012 02F01802 		and	r2, r2, #24
 214 0016 0F4B     		ldr	r3, .L33+4
 215 0018 D340     		lsrs	r3, r3, r2
 216 001a 1940     		ands	r1, r1, r3
 217 001c C1F31301 		ubfx	r1, r1, #0, #20
 218 0020 4CEA0101 		orr	r1, ip, r1
 219 0024 C0F8C010 		str	r1, [r0, #192]
 220 0028 7047     		bx	lr
 221              	.L32:
 222 002a D0F8B030 		ldr	r3, [r0, #176]
 223 002e C1F3130C 		ubfx	ip, r1, #0, #20
 224 0032 23EA0C0C 		bic	ip, r3, ip
 225 0036 02F01802 		and	r2, r2, #24
 226 003a 064B     		ldr	r3, .L33+4
 227 003c D340     		lsrs	r3, r3, r2
 228 003e 0B40     		ands	r3, r3, r1
 229 0040 C3F31303 		ubfx	r3, r3, #0, #20
 230 0044 4CEA0303 		orr	r3, ip, r3
 231 0048 C0F8B030 		str	r3, [r0, #176]
 232 004c 7047     		bx	lr
 233              	.L34:
 234 004e 00BF     		.align	2
 235              	.L33:
 236 0050 00600258 		.word	1476550656
 237 0054 FFFF0F00 		.word	1048575
 239              		.section	.text.LL_ADC_SetChannelPreselection,"ax",%progbits
 240              		.align	1
 241              		.syntax unified
 242              		.thumb
ARM GAS  C:\Users\thewo\AppData\Local\Temp\ccCADg6a.s 			page 5


 243              		.thumb_func
 245              	LL_ADC_SetChannelPreselection:
 246              		@ args = 0, pretend = 0, frame = 0
 247              		@ frame_needed = 0, uses_anonymous_args = 0
 248              		@ link register save eliminated.
 249 0000 0C4B     		ldr	r3, .L41
 250 0002 9842     		cmp	r0, r3
 251 0004 09D0     		beq	.L35
 252 0006 C1F31303 		ubfx	r3, r1, #0, #20
 253 000a 3BB9     		cbnz	r3, .L37
 254 000c C1F38461 		ubfx	r1, r1, #26, #5
 255 0010 0122     		movs	r2, #1
 256 0012 8A40     		lsls	r2, r2, r1
 257              	.L38:
 258 0014 C369     		ldr	r3, [r0, #28]
 259 0016 1343     		orrs	r3, r3, r2
 260 0018 C361     		str	r3, [r0, #28]
 261              	.L35:
 262 001a 7047     		bx	lr
 263              	.L37:
 264              		.syntax unified
 265              	@ 1055 "Drivers/CMSIS/Include/cmsis_gcc.h" 1
 266 001c 91FAA1F1 		rbit r1, r1
 267              	@ 0 "" 2
 268              		.thumb
 269              		.syntax unified
 270 0020 31B1     		cbz	r1, .L40
 271 0022 B1FA81F1 		clz	r1, r1
 272              	.L39:
 273 0026 01F01F01 		and	r1, r1, #31
 274 002a 0122     		movs	r2, #1
 275 002c 8A40     		lsls	r2, r2, r1
 276 002e F1E7     		b	.L38
 277              	.L40:
 278 0030 2021     		movs	r1, #32
 279 0032 F8E7     		b	.L39
 280              	.L42:
 281              		.align	2
 282              	.L41:
 283 0034 00600258 		.word	1476550656
 285              		.section	.rodata.HAL_ADCEx_Calibration_Start.str1.4,"aMS",%progbits,1
 286              		.align	2
 287              	.LC0:
 288 0000 44726976 		.ascii	"Drivers/STM32H7xx_HAL_Driver/Src/stm32h7xx_hal_adc_"
 288      6572732F 
 288      53544D33 
 288      32483778 
 288      785F4841 
 289 0033 65782E63 		.ascii	"ex.c\000"
 289      00
 290              		.section	.text.HAL_ADCEx_Calibration_Start,"ax",%progbits
 291              		.align	1
 292              		.global	HAL_ADCEx_Calibration_Start
 293              		.syntax unified
 294              		.thumb
 295              		.thumb_func
 297              	HAL_ADCEx_Calibration_Start:
ARM GAS  C:\Users\thewo\AppData\Local\Temp\ccCADg6a.s 			page 6


 298              		@ args = 0, pretend = 0, frame = 8
 299              		@ frame_needed = 0, uses_anonymous_args = 0
 300 0000 70B5     		push	{r4, r5, r6, lr}
 301 0002 82B0     		sub	sp, sp, #8
 302 0004 0446     		mov	r4, r0
 303 0006 0E46     		mov	r6, r1
 304 0008 1546     		mov	r5, r2
 305 000a 0023     		movs	r3, #0
 306 000c 0193     		str	r3, [sp, #4]
 307 000e 0368     		ldr	r3, [r0]
 308 0010 2F49     		ldr	r1, .L56
 309 0012 304A     		ldr	r2, .L56+4
 310 0014 8B42     		cmp	r3, r1
 311 0016 18BF     		it	ne
 312 0018 9342     		cmpne	r3, r2
 313 001a 06D0     		beq	.L44
 314 001c 2E4A     		ldr	r2, .L56+8
 315 001e 9342     		cmp	r3, r2
 316 0020 03D0     		beq	.L44
 317 0022 8421     		movs	r1, #132
 318 0024 2D48     		ldr	r0, .L56+12
 319 0026 FFF7FEFF 		bl	assert_failed
 320              	.L44:
 321 002a 40F2FF72 		movw	r2, #2047
 322 002e 2C4B     		ldr	r3, .L56+16
 323 0030 9542     		cmp	r5, r2
 324 0032 18BF     		it	ne
 325 0034 9D42     		cmpne	r5, r3
 326 0036 29D1     		bne	.L54
 327              	.L45:
 328 0038 94F85C30 		ldrb	r3, [r4, #92]	@ zero_extendqisi2
 329 003c 012B     		cmp	r3, #1
 330 003e 45D0     		beq	.L52
 331 0040 0123     		movs	r3, #1
 332 0042 84F85C30 		strb	r3, [r4, #92]
 333 0046 2046     		mov	r0, r4
 334 0048 FFF7FEFF 		bl	ADC_Disable
 335 004c 0028     		cmp	r0, #0
 336 004e 34D1     		bne	.L47
 337 0050 226E     		ldr	r2, [r4, #96]
 338 0052 244B     		ldr	r3, .L56+20
 339 0054 1340     		ands	r3, r3, r2
 340 0056 43F00203 		orr	r3, r3, #2
 341 005a 2366     		str	r3, [r4, #96]
 342 005c 2268     		ldr	r2, [r4]
 343 005e 9168     		ldr	r1, [r2, #8]
 344 0060 214B     		ldr	r3, .L56+24
 345 0062 0B40     		ands	r3, r3, r1
 346 0064 06F48036 		and	r6, r6, #65536
 347 0068 05F08045 		and	r5, r5, #1073741824
 348 006c 2E43     		orrs	r6, r6, r5
 349 006e 3343     		orrs	r3, r3, r6
 350 0070 43F00043 		orr	r3, r3, #-2147483648
 351 0074 9360     		str	r3, [r2, #8]
 352              	.L48:
 353 0076 2368     		ldr	r3, [r4]
 354 0078 9B68     		ldr	r3, [r3, #8]
ARM GAS  C:\Users\thewo\AppData\Local\Temp\ccCADg6a.s 			page 7


 355 007a 002B     		cmp	r3, #0
 356 007c 0BDB     		blt	.L55
 357 007e 236E     		ldr	r3, [r4, #96]
 358 0080 23F00303 		bic	r3, r3, #3
 359 0084 43F00103 		orr	r3, r3, #1
 360 0088 2366     		str	r3, [r4, #96]
 361 008a 1AE0     		b	.L51
 362              	.L54:
 363 008c 8521     		movs	r1, #133
 364 008e 1348     		ldr	r0, .L56+12
 365 0090 FFF7FEFF 		bl	assert_failed
 366 0094 D0E7     		b	.L45
 367              	.L55:
 368 0096 019B     		ldr	r3, [sp, #4]
 369 0098 0133     		adds	r3, r3, #1
 370 009a 0193     		str	r3, [sp, #4]
 371 009c 019A     		ldr	r2, [sp, #4]
 372 009e 134B     		ldr	r3, .L56+28
 373 00a0 9A42     		cmp	r2, r3
 374 00a2 E8D3     		bcc	.L48
 375 00a4 236E     		ldr	r3, [r4, #96]
 376 00a6 23F01203 		bic	r3, r3, #18
 377 00aa 43F01003 		orr	r3, r3, #16
 378 00ae 2366     		str	r3, [r4, #96]
 379 00b0 0023     		movs	r3, #0
 380 00b2 84F85C30 		strb	r3, [r4, #92]
 381 00b6 0120     		movs	r0, #1
 382 00b8 06E0     		b	.L46
 383              	.L47:
 384 00ba 236E     		ldr	r3, [r4, #96]
 385 00bc 43F01003 		orr	r3, r3, #16
 386 00c0 2366     		str	r3, [r4, #96]
 387              	.L51:
 388 00c2 0023     		movs	r3, #0
 389 00c4 84F85C30 		strb	r3, [r4, #92]
 390              	.L46:
 391 00c8 02B0     		add	sp, sp, #8
 392              		@ sp needed
 393 00ca 70BD     		pop	{r4, r5, r6, pc}
 394              	.L52:
 395 00cc 0220     		movs	r0, #2
 396 00ce FBE7     		b	.L46
 397              	.L57:
 398              		.align	2
 399              	.L56:
 400 00d0 00200240 		.word	1073881088
 401 00d4 00210240 		.word	1073881344
 402 00d8 00600258 		.word	1476550656
 403 00dc 00000000 		.word	.LC0
 404 00e0 0000FF47 		.word	1207894016
 405 00e4 FDEEFFFF 		.word	-4355
 406 00e8 C0FFFE3F 		.word	1073676224
 407 00ec 00F8C325 		.word	633600000
 409              		.section	.text.HAL_ADCEx_Calibration_GetValue,"ax",%progbits
 410              		.align	1
 411              		.global	HAL_ADCEx_Calibration_GetValue
 412              		.syntax unified
ARM GAS  C:\Users\thewo\AppData\Local\Temp\ccCADg6a.s 			page 8


 413              		.thumb
 414              		.thumb_func
 416              	HAL_ADCEx_Calibration_GetValue:
 417              		@ args = 0, pretend = 0, frame = 0
 418              		@ frame_needed = 0, uses_anonymous_args = 0
 419 0000 38B5     		push	{r3, r4, r5, lr}
 420 0002 0546     		mov	r5, r0
 421 0004 0C46     		mov	r4, r1
 422 0006 0368     		ldr	r3, [r0]
 423 0008 1149     		ldr	r1, .L63
 424 000a 124A     		ldr	r2, .L63+4
 425 000c 8B42     		cmp	r3, r1
 426 000e 18BF     		it	ne
 427 0010 9342     		cmpne	r3, r2
 428 0012 06D0     		beq	.L59
 429 0014 104A     		ldr	r2, .L63+8
 430 0016 9342     		cmp	r3, r2
 431 0018 03D0     		beq	.L59
 432 001a CB21     		movs	r1, #203
 433 001c 0F48     		ldr	r0, .L63+12
 434 001e FFF7FEFF 		bl	assert_failed
 435              	.L59:
 436 0022 40F2FF72 		movw	r2, #2047
 437 0026 0E4B     		ldr	r3, .L63+16
 438 0028 9442     		cmp	r4, r2
 439 002a 18BF     		it	ne
 440 002c 9C42     		cmpne	r4, r3
 441 002e 0AD1     		bne	.L62
 442              	.L60:
 443 0030 2B68     		ldr	r3, [r5]
 444 0032 D3F8C400 		ldr	r0, [r3, #196]
 445 0036 2040     		ands	r0, r0, r4
 446 0038 20F0F820 		bic	r0, r0, #-134154240
 447 003c 240B     		lsrs	r4, r4, #12
 448 003e 04F01004 		and	r4, r4, #16
 449 0042 E040     		lsrs	r0, r0, r4
 450 0044 38BD     		pop	{r3, r4, r5, pc}
 451              	.L62:
 452 0046 CC21     		movs	r1, #204
 453 0048 0448     		ldr	r0, .L63+12
 454 004a FFF7FEFF 		bl	assert_failed
 455 004e EFE7     		b	.L60
 456              	.L64:
 457              		.align	2
 458              	.L63:
 459 0050 00200240 		.word	1073881088
 460 0054 00210240 		.word	1073881344
 461 0058 00600258 		.word	1476550656
 462 005c 00000000 		.word	.LC0
 463 0060 0000FF47 		.word	1207894016
 465              		.section	.text.HAL_ADCEx_LinearCalibration_GetValue,"ax",%progbits
 466              		.align	1
 467              		.global	HAL_ADCEx_LinearCalibration_GetValue
 468              		.syntax unified
 469              		.thumb
 470              		.thumb_func
 472              	HAL_ADCEx_LinearCalibration_GetValue:
ARM GAS  C:\Users\thewo\AppData\Local\Temp\ccCADg6a.s 			page 9


 473              		@ args = 0, pretend = 0, frame = 0
 474              		@ frame_needed = 0, uses_anonymous_args = 0
 475 0000 2DE9F843 		push	{r3, r4, r5, r6, r7, r8, r9, lr}
 476 0004 0646     		mov	r6, r0
 477 0006 0F46     		mov	r7, r1
 478 0008 0368     		ldr	r3, [r0]
 479 000a 2449     		ldr	r1, .L74
 480 000c 244A     		ldr	r2, .L74+4
 481 000e 8B42     		cmp	r3, r1
 482 0010 18BF     		it	ne
 483 0012 9342     		cmpne	r3, r2
 484 0014 06D0     		beq	.L66
 485 0016 234A     		ldr	r2, .L74+8
 486 0018 9342     		cmp	r3, r2
 487 001a 03D0     		beq	.L66
 488 001c DF21     		movs	r1, #223
 489 001e 2248     		ldr	r0, .L74+12
 490 0020 FFF7FEFF 		bl	assert_failed
 491              	.L66:
 492 0024 3368     		ldr	r3, [r6]
 493 0026 9B68     		ldr	r3, [r3, #8]
 494 0028 13F0010F 		tst	r3, #1
 495 002c 15D1     		bne	.L72
 496 002e 3046     		mov	r0, r6
 497 0030 FFF7FEFF 		bl	ADC_Enable
 498 0034 8046     		mov	r8, r0
 499              	.L67:
 500 0036 B8F1000F 		cmp	r8, #0
 501 003a 2BD1     		bne	.L68
 502 003c 3368     		ldr	r3, [r6]
 503 003e 9A68     		ldr	r2, [r3, #8]
 504 0040 12F00409 		ands	r9, r2, #4
 505 0044 07D0     		beq	.L69
 506 0046 9968     		ldr	r1, [r3, #8]
 507 0048 184A     		ldr	r2, .L74+16
 508 004a 0A40     		ands	r2, r2, r1
 509 004c 42F01002 		orr	r2, r2, #16
 510 0050 9A60     		str	r2, [r3, #8]
 511 0052 4FF00109 		mov	r9, #1
 512              	.L69:
 513 0056 0624     		movs	r4, #6
 514 0058 10E0     		b	.L70
 515              	.L72:
 516 005a 4FF00008 		mov	r8, #0
 517 005e EAE7     		b	.L67
 518              	.L71:
 519 0060 C4F10603 		rsb	r3, r4, #6
 520 0064 6FF04045 		mvn	r5, #-1073741824
 521 0068 2544     		add	r5, r5, r4
 522 006a 4FF00061 		mov	r1, #134217728
 523 006e D940     		lsrs	r1, r1, r3
 524 0070 3068     		ldr	r0, [r6]
 525 0072 FFF7FEFF 		bl	LL_ADC_GetCalibrationLinearFactor
 526 0076 47F82500 		str	r0, [r7, r5, lsl #2]
 527 007a 013C     		subs	r4, r4, #1
 528              	.L70:
 529 007c 002C     		cmp	r4, #0
ARM GAS  C:\Users\thewo\AppData\Local\Temp\ccCADg6a.s 			page 10


 530 007e EFD1     		bne	.L71
 531 0080 B9F1000F 		cmp	r9, #0
 532 0084 06D0     		beq	.L68
 533 0086 3268     		ldr	r2, [r6]
 534 0088 9168     		ldr	r1, [r2, #8]
 535 008a 084B     		ldr	r3, .L74+16
 536 008c 0B40     		ands	r3, r3, r1
 537 008e 43F00403 		orr	r3, r3, #4
 538 0092 9360     		str	r3, [r2, #8]
 539              	.L68:
 540 0094 4046     		mov	r0, r8
 541 0096 BDE8F883 		pop	{r3, r4, r5, r6, r7, r8, r9, pc}
 542              	.L75:
 543 009a 00BF     		.align	2
 544              	.L74:
 545 009c 00200240 		.word	1073881088
 546 00a0 00210240 		.word	1073881344
 547 00a4 00600258 		.word	1476550656
 548 00a8 00000000 		.word	.LC0
 549 00ac C0FFFF7F 		.word	2147483584
 551              		.section	.text.HAL_ADCEx_Calibration_SetValue,"ax",%progbits
 552              		.align	1
 553              		.global	HAL_ADCEx_Calibration_SetValue
 554              		.syntax unified
 555              		.thumb
 556              		.thumb_func
 558              	HAL_ADCEx_Calibration_SetValue:
 559              		@ args = 0, pretend = 0, frame = 0
 560              		@ frame_needed = 0, uses_anonymous_args = 0
 561 0000 70B5     		push	{r4, r5, r6, lr}
 562 0002 0446     		mov	r4, r0
 563 0004 0D46     		mov	r5, r1
 564 0006 1646     		mov	r6, r2
 565 0008 0368     		ldr	r3, [r0]
 566 000a 2E49     		ldr	r1, .L92
 567 000c 2E4A     		ldr	r2, .L92+4
 568 000e 8B42     		cmp	r3, r1
 569 0010 18BF     		it	ne
 570 0012 9342     		cmpne	r3, r2
 571 0014 07D0     		beq	.L77
 572 0016 2D4A     		ldr	r2, .L92+8
 573 0018 9342     		cmp	r3, r2
 574 001a 04D0     		beq	.L77
 575 001c 4FF48771 		mov	r1, #270
 576 0020 2B48     		ldr	r0, .L92+12
 577 0022 FFF7FEFF 		bl	assert_failed
 578              	.L77:
 579 0026 40F2FF72 		movw	r2, #2047
 580 002a 2A4B     		ldr	r3, .L92+16
 581 002c 9542     		cmp	r5, r2
 582 002e 18BF     		it	ne
 583 0030 9D42     		cmpne	r5, r3
 584 0032 2BD1     		bne	.L88
 585              	.L78:
 586 0034 2268     		ldr	r2, [r4]
 587 0036 254B     		ldr	r3, .L92+8
 588 0038 9A42     		cmp	r2, r3
ARM GAS  C:\Users\thewo\AppData\Local\Temp\ccCADg6a.s 			page 11


 589 003a 2DD0     		beq	.L89
 590 003c B6F5006F 		cmp	r6, #2048
 591 0040 32D2     		bcs	.L90
 592              	.L80:
 593 0042 94F85C30 		ldrb	r3, [r4, #92]	@ zero_extendqisi2
 594 0046 012B     		cmp	r3, #1
 595 0048 3AD0     		beq	.L86
 596 004a 0123     		movs	r3, #1
 597 004c 84F85C30 		strb	r3, [r4, #92]
 598 0050 2068     		ldr	r0, [r4]
 599 0052 8168     		ldr	r1, [r0, #8]
 600 0054 11F00401 		ands	r1, r1, #4
 601 0058 00D0     		beq	.L82
 602 005a 1946     		mov	r1, r3
 603              	.L82:
 604 005c 8368     		ldr	r3, [r0, #8]
 605 005e 13F00803 		ands	r3, r3, #8
 606 0062 00D0     		beq	.L83
 607 0064 0123     		movs	r3, #1
 608              	.L83:
 609 0066 8268     		ldr	r2, [r0, #8]
 610 0068 12F0010F 		tst	r2, #1
 611 006c 01D0     		beq	.L84
 612 006e 0B43     		orrs	r3, r3, r1
 613 0070 20D0     		beq	.L91
 614              	.L84:
 615 0072 236E     		ldr	r3, [r4, #96]
 616 0074 43F02003 		orr	r3, r3, #32
 617 0078 2366     		str	r3, [r4, #96]
 618 007a 636E     		ldr	r3, [r4, #100]
 619 007c 43F00103 		orr	r3, r3, #1
 620 0080 6366     		str	r3, [r4, #100]
 621 0082 0120     		movs	r0, #1
 622              	.L85:
 623 0084 0023     		movs	r3, #0
 624 0086 84F85C30 		strb	r3, [r4, #92]
 625              	.L81:
 626 008a 70BD     		pop	{r4, r5, r6, pc}
 627              	.L88:
 628 008c 40F20F11 		movw	r1, #271
 629 0090 0F48     		ldr	r0, .L92+12
 630 0092 FFF7FEFF 		bl	assert_failed
 631 0096 CDE7     		b	.L78
 632              	.L89:
 633 0098 7F2E     		cmp	r6, #127
 634 009a D2D9     		bls	.L80
 635 009c 4FF48A71 		mov	r1, #276
 636 00a0 0B48     		ldr	r0, .L92+12
 637 00a2 FFF7FEFF 		bl	assert_failed
 638 00a6 CCE7     		b	.L80
 639              	.L90:
 640 00a8 4FF48C71 		mov	r1, #280
 641 00ac 0848     		ldr	r0, .L92+12
 642 00ae FFF7FEFF 		bl	assert_failed
 643 00b2 C6E7     		b	.L80
 644              	.L91:
 645 00b4 3246     		mov	r2, r6
ARM GAS  C:\Users\thewo\AppData\Local\Temp\ccCADg6a.s 			page 12


 646 00b6 2946     		mov	r1, r5
 647 00b8 FFF7FEFF 		bl	LL_ADC_SetCalibrationOffsetFactor
 648 00bc 0020     		movs	r0, #0
 649 00be E1E7     		b	.L85
 650              	.L86:
 651 00c0 0220     		movs	r0, #2
 652 00c2 E2E7     		b	.L81
 653              	.L93:
 654              		.align	2
 655              	.L92:
 656 00c4 00200240 		.word	1073881088
 657 00c8 00210240 		.word	1073881344
 658 00cc 00600258 		.word	1476550656
 659 00d0 00000000 		.word	.LC0
 660 00d4 0000FF47 		.word	1207894016
 662              		.section	.text.HAL_ADCEx_LinearCalibration_SetValue,"ax",%progbits
 663              		.align	1
 664              		.global	HAL_ADCEx_LinearCalibration_SetValue
 665              		.syntax unified
 666              		.thumb
 667              		.thumb_func
 669              	HAL_ADCEx_LinearCalibration_SetValue:
 670              		@ args = 0, pretend = 0, frame = 8
 671              		@ frame_needed = 0, uses_anonymous_args = 0
 672 0000 F0B5     		push	{r4, r5, r6, r7, lr}
 673 0002 83B0     		sub	sp, sp, #12
 674 0004 0446     		mov	r4, r0
 675 0006 0E46     		mov	r6, r1
 676 0008 0023     		movs	r3, #0
 677 000a 0193     		str	r3, [sp, #4]
 678 000c 0368     		ldr	r3, [r0]
 679 000e 4749     		ldr	r1, .L113
 680 0010 474A     		ldr	r2, .L113+4
 681 0012 8B42     		cmp	r3, r1
 682 0014 18BF     		it	ne
 683 0016 9342     		cmpne	r3, r2
 684 0018 07D0     		beq	.L95
 685 001a 464A     		ldr	r2, .L113+8
 686 001c 9342     		cmp	r3, r2
 687 001e 04D0     		beq	.L95
 688 0020 40F24D11 		movw	r1, #333
 689 0024 4448     		ldr	r0, .L113+12
 690 0026 FFF7FEFF 		bl	assert_failed
 691              	.L95:
 692 002a 2368     		ldr	r3, [r4]
 693 002c 9A68     		ldr	r2, [r3, #8]
 694 002e 12F0005F 		tst	r2, #536870912
 695 0032 03D0     		beq	.L96
 696 0034 9A68     		ldr	r2, [r3, #8]
 697 0036 22F00052 		bic	r2, r2, #536870912
 698 003a 9A60     		str	r2, [r3, #8]
 699              	.L96:
 700 003c 2368     		ldr	r3, [r4]
 701 003e 9A68     		ldr	r2, [r3, #8]
 702 0040 12F0805F 		tst	r2, #268435456
 703 0044 13D1     		bne	.L97
 704 0046 9A68     		ldr	r2, [r3, #8]
ARM GAS  C:\Users\thewo\AppData\Local\Temp\ccCADg6a.s 			page 13


 705 0048 42F08052 		orr	r2, r2, #268435456
 706 004c 9A60     		str	r2, [r3, #8]
 707 004e 3B4B     		ldr	r3, .L113+16
 708 0050 1B68     		ldr	r3, [r3]
 709 0052 9B09     		lsrs	r3, r3, #6
 710 0054 3A4A     		ldr	r2, .L113+20
 711 0056 A2FB0323 		umull	r2, r3, r2, r3
 712 005a 9B09     		lsrs	r3, r3, #6
 713 005c 0133     		adds	r3, r3, #1
 714 005e 0193     		str	r3, [sp, #4]
 715 0060 02E0     		b	.L98
 716              	.L99:
 717 0062 019B     		ldr	r3, [sp, #4]
 718 0064 013B     		subs	r3, r3, #1
 719 0066 0193     		str	r3, [sp, #4]
 720              	.L98:
 721 0068 019B     		ldr	r3, [sp, #4]
 722 006a 002B     		cmp	r3, #0
 723 006c F9D1     		bne	.L99
 724              	.L97:
 725 006e 2368     		ldr	r3, [r4]
 726 0070 9A68     		ldr	r2, [r3, #8]
 727 0072 12F0805F 		tst	r2, #268435456
 728 0076 09D0     		beq	.L112
 729 0078 9A68     		ldr	r2, [r3, #8]
 730 007a 12F0010F 		tst	r2, #1
 731 007e 11D0     		beq	.L102
 732 0080 9F68     		ldr	r7, [r3, #8]
 733 0082 17F00407 		ands	r7, r7, #4
 734 0086 2AD1     		bne	.L103
 735              	.L104:
 736 0088 0625     		movs	r5, #6
 737 008a 3FE0     		b	.L107
 738              	.L112:
 739 008c 236E     		ldr	r3, [r4, #96]
 740 008e 43F01003 		orr	r3, r3, #16
 741 0092 2366     		str	r3, [r4, #96]
 742 0094 636E     		ldr	r3, [r4, #100]
 743 0096 43F00103 		orr	r3, r3, #1
 744 009a 6366     		str	r3, [r4, #100]
 745 009c 0127     		movs	r7, #1
 746              	.L101:
 747 009e 3846     		mov	r0, r7
 748 00a0 03B0     		add	sp, sp, #12
 749              		@ sp needed
 750 00a2 F0BD     		pop	{r4, r5, r6, r7, pc}
 751              	.L102:
 752 00a4 2046     		mov	r0, r4
 753 00a6 FFF7FEFF 		bl	ADC_Enable
 754 00aa 0746     		mov	r7, r0
 755 00ac 0028     		cmp	r0, #0
 756 00ae 39D1     		bne	.L109
 757 00b0 0625     		movs	r5, #6
 758 00b2 0EE0     		b	.L105
 759              	.L106:
 760 00b4 C5F10601 		rsb	r1, r5, #6
 761 00b8 6FF04043 		mvn	r3, #-1073741824
ARM GAS  C:\Users\thewo\AppData\Local\Temp\ccCADg6a.s 			page 14


 762 00bc 2B44     		add	r3, r3, r5
 763 00be 56F82320 		ldr	r2, [r6, r3, lsl #2]
 764 00c2 4FF00063 		mov	r3, #134217728
 765 00c6 23FA01F1 		lsr	r1, r3, r1
 766 00ca 2068     		ldr	r0, [r4]
 767 00cc FFF7FEFF 		bl	LL_ADC_SetCalibrationLinearFactor
 768 00d0 013D     		subs	r5, r5, #1
 769              	.L105:
 770 00d2 002D     		cmp	r5, #0
 771 00d4 EED1     		bne	.L106
 772 00d6 2046     		mov	r0, r4
 773 00d8 FFF7FEFF 		bl	ADC_Disable
 774 00dc DFE7     		b	.L101
 775              	.L103:
 776 00de 9968     		ldr	r1, [r3, #8]
 777 00e0 184A     		ldr	r2, .L113+24
 778 00e2 0A40     		ands	r2, r2, r1
 779 00e4 42F01002 		orr	r2, r2, #16
 780 00e8 9A60     		str	r2, [r3, #8]
 781 00ea 0127     		movs	r7, #1
 782 00ec CCE7     		b	.L104
 783              	.L108:
 784 00ee C5F10601 		rsb	r1, r5, #6
 785 00f2 6FF04043 		mvn	r3, #-1073741824
 786 00f6 2B44     		add	r3, r3, r5
 787 00f8 56F82320 		ldr	r2, [r6, r3, lsl #2]
 788 00fc 4FF00063 		mov	r3, #134217728
 789 0100 23FA01F1 		lsr	r1, r3, r1
 790 0104 2068     		ldr	r0, [r4]
 791 0106 FFF7FEFF 		bl	LL_ADC_SetCalibrationLinearFactor
 792 010a 013D     		subs	r5, r5, #1
 793              	.L107:
 794 010c 002D     		cmp	r5, #0
 795 010e EED1     		bne	.L108
 796 0110 57B1     		cbz	r7, .L110
 797 0112 2268     		ldr	r2, [r4]
 798 0114 9168     		ldr	r1, [r2, #8]
 799 0116 0B4B     		ldr	r3, .L113+24
 800 0118 0B40     		ands	r3, r3, r1
 801 011a 43F00403 		orr	r3, r3, #4
 802 011e 9360     		str	r3, [r2, #8]
 803 0120 0027     		movs	r7, #0
 804 0122 BCE7     		b	.L101
 805              	.L109:
 806 0124 0127     		movs	r7, #1
 807 0126 BAE7     		b	.L101
 808              	.L110:
 809 0128 0027     		movs	r7, #0
 810 012a B8E7     		b	.L101
 811              	.L114:
 812              		.align	2
 813              	.L113:
 814 012c 00200240 		.word	1073881088
 815 0130 00210240 		.word	1073881344
 816 0134 00600258 		.word	1476550656
 817 0138 00000000 		.word	.LC0
 818 013c 00000000 		.word	SystemCoreClock
ARM GAS  C:\Users\thewo\AppData\Local\Temp\ccCADg6a.s 			page 15


 819 0140 632D3E05 		.word	87960931
 820 0144 C0FFFF7F 		.word	2147483584
 822              		.section	.text.HAL_ADCEx_LinearCalibration_FactorLoad,"ax",%progbits
 823              		.align	1
 824              		.global	HAL_ADCEx_LinearCalibration_FactorLoad
 825              		.syntax unified
 826              		.thumb
 827              		.thumb_func
 829              	HAL_ADCEx_LinearCalibration_FactorLoad:
 830              		@ args = 0, pretend = 0, frame = 24
 831              		@ frame_needed = 0, uses_anonymous_args = 0
 832 0000 00B5     		push	{lr}
 833 0002 87B0     		sub	sp, sp, #28
 834 0004 0368     		ldr	r3, [r0]
 835 0006 134A     		ldr	r2, .L125
 836 0008 9342     		cmp	r3, r2
 837 000a 0AD0     		beq	.L120
 838 000c 02F58072 		add	r2, r2, #256
 839 0010 9342     		cmp	r3, r2
 840 0012 03D0     		beq	.L124
 841 0014 4FF0100C 		mov	ip, #16
 842              	.L116:
 843 0018 0023     		movs	r3, #0
 844 001a 10E0     		b	.L117
 845              	.L124:
 846 001c 4FF0080C 		mov	ip, #8
 847 0020 FAE7     		b	.L116
 848              	.L120:
 849 0022 4FF0000C 		mov	ip, #0
 850 0026 F7E7     		b	.L116
 851              	.L118:
 852 0028 03EB0C01 		add	r1, r3, ip
 853 002c 0A4A     		ldr	r2, .L125+4
 854 002e 52F82110 		ldr	r1, [r2, r1, lsl #2]
 855 0032 06AA     		add	r2, sp, #24
 856 0034 02EB8302 		add	r2, r2, r3, lsl #2
 857 0038 42F8181C 		str	r1, [r2, #-24]
 858 003c 0133     		adds	r3, r3, #1
 859              	.L117:
 860 003e 052B     		cmp	r3, #5
 861 0040 F2D9     		bls	.L118
 862 0042 6946     		mov	r1, sp
 863 0044 FFF7FEFF 		bl	HAL_ADCEx_LinearCalibration_SetValue
 864 0048 00B1     		cbz	r0, .L119
 865 004a 0120     		movs	r0, #1
 866              	.L119:
 867 004c 07B0     		add	sp, sp, #28
 868              		@ sp needed
 869 004e 5DF804FB 		ldr	pc, [sp], #4
 870              	.L126:
 871 0052 00BF     		.align	2
 872              	.L125:
 873 0054 00200240 		.word	1073881088
 874 0058 00ECF11F 		.word	535948288
 876              		.section	.text.HAL_ADCEx_InjectedStart,"ax",%progbits
 877              		.align	1
 878              		.global	HAL_ADCEx_InjectedStart
ARM GAS  C:\Users\thewo\AppData\Local\Temp\ccCADg6a.s 			page 16


 879              		.syntax unified
 880              		.thumb
 881              		.thumb_func
 883              	HAL_ADCEx_InjectedStart:
 884              		@ args = 0, pretend = 0, frame = 0
 885              		@ frame_needed = 0, uses_anonymous_args = 0
 886 0000 38B5     		push	{r3, r4, r5, lr}
 887 0002 0446     		mov	r4, r0
 888 0004 0368     		ldr	r3, [r0]
 889 0006 4449     		ldr	r1, .L151
 890 0008 444A     		ldr	r2, .L151+4
 891 000a 9342     		cmp	r3, r2
 892 000c 18BF     		it	ne
 893 000e 8B42     		cmpne	r3, r1
 894 0010 5DD1     		bne	.L142
 895 0012 02F50072 		add	r2, r2, #512
 896              	.L128:
 897 0016 9568     		ldr	r5, [r2, #8]
 898 0018 05F01F05 		and	r5, r5, #31
 899 001c 3E49     		ldr	r1, .L151
 900 001e 3F4A     		ldr	r2, .L151+4
 901 0020 8B42     		cmp	r3, r1
 902 0022 18BF     		it	ne
 903 0024 9342     		cmpne	r3, r2
 904 0026 07D0     		beq	.L129
 905 0028 3D4A     		ldr	r2, .L151+8
 906 002a 9342     		cmp	r3, r2
 907 002c 04D0     		beq	.L129
 908 002e 4FF4EB71 		mov	r1, #470
 909 0032 3C48     		ldr	r0, .L151+12
 910 0034 FFF7FEFF 		bl	assert_failed
 911              	.L129:
 912 0038 2368     		ldr	r3, [r4]
 913 003a 9A68     		ldr	r2, [r3, #8]
 914 003c 12F0080F 		tst	r2, #8
 915 0040 65D1     		bne	.L143
 916 0042 DA68     		ldr	r2, [r3, #12]
 917 0044 DB6C     		ldr	r3, [r3, #76]
 918 0046 13F4C07F 		tst	r3, #384
 919 004a 01D1     		bne	.L131
 920 004c 002A     		cmp	r2, #0
 921 004e 40DA     		bge	.L148
 922              	.L131:
 923 0050 94F85C30 		ldrb	r3, [r4, #92]	@ zero_extendqisi2
 924 0054 012B     		cmp	r3, #1
 925 0056 5CD0     		beq	.L144
 926 0058 0123     		movs	r3, #1
 927 005a 84F85C30 		strb	r3, [r4, #92]
 928 005e 2046     		mov	r0, r4
 929 0060 FFF7FEFF 		bl	ADC_Enable
 930 0064 0028     		cmp	r0, #0
 931 0066 4ED1     		bne	.L132
 932 0068 236E     		ldr	r3, [r4, #96]
 933 006a 13F4807F 		tst	r3, #256
 934 006e 36D0     		beq	.L133
 935 0070 636E     		ldr	r3, [r4, #100]
 936 0072 23F00803 		bic	r3, r3, #8
ARM GAS  C:\Users\thewo\AppData\Local\Temp\ccCADg6a.s 			page 17


 937 0076 6366     		str	r3, [r4, #100]
 938              	.L134:
 939 0078 226E     		ldr	r2, [r4, #96]
 940 007a 2B4B     		ldr	r3, .L151+16
 941 007c 1340     		ands	r3, r3, r2
 942 007e 43F48053 		orr	r3, r3, #4096
 943 0082 2366     		str	r3, [r4, #96]
 944 0084 2368     		ldr	r3, [r4]
 945 0086 254A     		ldr	r2, .L151+4
 946 0088 9342     		cmp	r3, r2
 947 008a 2BD0     		beq	.L149
 948 008c 1A46     		mov	r2, r3
 949              	.L135:
 950 008e 9342     		cmp	r3, r2
 951 0090 00D0     		beq	.L136
 952 0092 1DB9     		cbnz	r5, .L137
 953              	.L136:
 954 0094 226E     		ldr	r2, [r4, #96]
 955 0096 22F48012 		bic	r2, r2, #1048576
 956 009a 2266     		str	r2, [r4, #96]
 957              	.L137:
 958 009c 6022     		movs	r2, #96
 959 009e 1A60     		str	r2, [r3]
 960 00a0 0023     		movs	r3, #0
 961 00a2 84F85C30 		strb	r3, [r4, #92]
 962 00a6 2368     		ldr	r3, [r4]
 963 00a8 1C4A     		ldr	r2, .L151+4
 964 00aa 9342     		cmp	r3, r2
 965 00ac 1DD0     		beq	.L150
 966 00ae 1A46     		mov	r2, r3
 967              	.L138:
 968 00b0 9342     		cmp	r3, r2
 969 00b2 1DD0     		beq	.L139
 970 00b4 062D     		cmp	r5, #6
 971 00b6 14BF     		ite	ne
 972 00b8 0022     		movne	r2, #0
 973 00ba 0122     		moveq	r2, #1
 974 00bc C5B1     		cbz	r5, .L139
 975 00be BAB9     		cbnz	r2, .L139
 976 00c0 072D     		cmp	r5, #7
 977 00c2 15D0     		beq	.L139
 978 00c4 236E     		ldr	r3, [r4, #96]
 979 00c6 43F48013 		orr	r3, r3, #1048576
 980 00ca 2366     		str	r3, [r4, #96]
 981 00cc 20E0     		b	.L130
 982              	.L142:
 983 00ce 174A     		ldr	r2, .L151+20
 984 00d0 A1E7     		b	.L128
 985              	.L148:
 986 00d2 236E     		ldr	r3, [r4, #96]
 987 00d4 43F02003 		orr	r3, r3, #32
 988 00d8 2366     		str	r3, [r4, #96]
 989 00da 0120     		movs	r0, #1
 990 00dc 18E0     		b	.L130
 991              	.L133:
 992 00de 0023     		movs	r3, #0
 993 00e0 6366     		str	r3, [r4, #100]
ARM GAS  C:\Users\thewo\AppData\Local\Temp\ccCADg6a.s 			page 18


 994 00e2 C9E7     		b	.L134
 995              	.L149:
 996 00e4 A2F58072 		sub	r2, r2, #256
 997 00e8 D1E7     		b	.L135
 998              	.L150:
 999 00ea A2F58072 		sub	r2, r2, #256
 1000 00ee DFE7     		b	.L138
 1001              	.L139:
 1002 00f0 DA68     		ldr	r2, [r3, #12]
 1003 00f2 12F0007F 		tst	r2, #33554432
 1004 00f6 0BD1     		bne	.L130
 1005 00f8 9968     		ldr	r1, [r3, #8]
 1006 00fa 0D4A     		ldr	r2, .L151+24
 1007 00fc 0A40     		ands	r2, r2, r1
 1008 00fe 42F00802 		orr	r2, r2, #8
 1009 0102 9A60     		str	r2, [r3, #8]
 1010 0104 04E0     		b	.L130
 1011              	.L132:
 1012 0106 0023     		movs	r3, #0
 1013 0108 84F85C30 		strb	r3, [r4, #92]
 1014 010c 00E0     		b	.L130
 1015              	.L143:
 1016 010e 0220     		movs	r0, #2
 1017              	.L130:
 1018 0110 38BD     		pop	{r3, r4, r5, pc}
 1019              	.L144:
 1020 0112 0220     		movs	r0, #2
 1021 0114 FCE7     		b	.L130
 1022              	.L152:
 1023 0116 00BF     		.align	2
 1024              	.L151:
 1025 0118 00200240 		.word	1073881088
 1026 011c 00210240 		.word	1073881344
 1027 0120 00600258 		.word	1476550656
 1028 0124 00000000 		.word	.LC0
 1029 0128 FECFFFFF 		.word	-12290
 1030 012c 00630258 		.word	1476551424
 1031 0130 C0FFFF7F 		.word	2147483584
 1033              		.section	.text.HAL_ADCEx_InjectedStop,"ax",%progbits
 1034              		.align	1
 1035              		.global	HAL_ADCEx_InjectedStop
 1036              		.syntax unified
 1037              		.thumb
 1038              		.thumb_func
 1040              	HAL_ADCEx_InjectedStop:
 1041              		@ args = 0, pretend = 0, frame = 0
 1042              		@ frame_needed = 0, uses_anonymous_args = 0
 1043 0000 10B5     		push	{r4, lr}
 1044 0002 0446     		mov	r4, r0
 1045 0004 0368     		ldr	r3, [r0]
 1046 0006 1A49     		ldr	r1, .L160
 1047 0008 1A4A     		ldr	r2, .L160+4
 1048 000a 8B42     		cmp	r3, r1
 1049 000c 18BF     		it	ne
 1050 000e 9342     		cmpne	r3, r2
 1051 0010 07D0     		beq	.L154
 1052 0012 194A     		ldr	r2, .L160+8
ARM GAS  C:\Users\thewo\AppData\Local\Temp\ccCADg6a.s 			page 19


 1053 0014 9342     		cmp	r3, r2
 1054 0016 04D0     		beq	.L154
 1055 0018 40F25D21 		movw	r1, #605
 1056 001c 1748     		ldr	r0, .L160+12
 1057 001e FFF7FEFF 		bl	assert_failed
 1058              	.L154:
 1059 0022 94F85C30 		ldrb	r3, [r4, #92]	@ zero_extendqisi2
 1060 0026 012B     		cmp	r3, #1
 1061 0028 20D0     		beq	.L158
 1062 002a 0123     		movs	r3, #1
 1063 002c 84F85C30 		strb	r3, [r4, #92]
 1064 0030 0221     		movs	r1, #2
 1065 0032 2046     		mov	r0, r4
 1066 0034 FFF7FEFF 		bl	ADC_ConversionStop
 1067 0038 40B9     		cbnz	r0, .L156
 1068 003a 2368     		ldr	r3, [r4]
 1069 003c 9B68     		ldr	r3, [r3, #8]
 1070 003e 13F0040F 		tst	r3, #4
 1071 0042 07D0     		beq	.L157
 1072 0044 236E     		ldr	r3, [r4, #96]
 1073 0046 23F48053 		bic	r3, r3, #4096
 1074 004a 2366     		str	r3, [r4, #96]
 1075              	.L156:
 1076 004c 0023     		movs	r3, #0
 1077 004e 84F85C30 		strb	r3, [r4, #92]
 1078              	.L155:
 1079 0052 10BD     		pop	{r4, pc}
 1080              	.L157:
 1081 0054 2046     		mov	r0, r4
 1082 0056 FFF7FEFF 		bl	ADC_Disable
 1083 005a 0028     		cmp	r0, #0
 1084 005c F6D1     		bne	.L156
 1085 005e 226E     		ldr	r2, [r4, #96]
 1086 0060 074B     		ldr	r3, .L160+16
 1087 0062 1340     		ands	r3, r3, r2
 1088 0064 43F00103 		orr	r3, r3, #1
 1089 0068 2366     		str	r3, [r4, #96]
 1090 006a EFE7     		b	.L156
 1091              	.L158:
 1092 006c 0220     		movs	r0, #2
 1093 006e F0E7     		b	.L155
 1094              	.L161:
 1095              		.align	2
 1096              	.L160:
 1097 0070 00200240 		.word	1073881088
 1098 0074 00210240 		.word	1073881344
 1099 0078 00600258 		.word	1476550656
 1100 007c 00000000 		.word	.LC0
 1101 0080 FEEEFFFF 		.word	-4354
 1103              		.section	.text.HAL_ADCEx_InjectedPollForConversion,"ax",%progbits
 1104              		.align	1
 1105              		.global	HAL_ADCEx_InjectedPollForConversion
 1106              		.syntax unified
 1107              		.thumb
 1108              		.thumb_func
 1110              	HAL_ADCEx_InjectedPollForConversion:
 1111              		@ args = 0, pretend = 0, frame = 0
ARM GAS  C:\Users\thewo\AppData\Local\Temp\ccCADg6a.s 			page 20


 1112              		@ frame_needed = 0, uses_anonymous_args = 0
 1113 0000 2DE9F041 		push	{r4, r5, r6, r7, r8, lr}
 1114 0004 0446     		mov	r4, r0
 1115 0006 0D46     		mov	r5, r1
 1116 0008 0368     		ldr	r3, [r0]
 1117 000a 4849     		ldr	r1, .L191
 1118 000c 484A     		ldr	r2, .L191+4
 1119 000e 9342     		cmp	r3, r2
 1120 0010 18BF     		it	ne
 1121 0012 8B42     		cmpne	r3, r1
 1122 0014 35D1     		bne	.L180
 1123 0016 02F50072 		add	r2, r2, #512
 1124              	.L163:
 1125 001a 9768     		ldr	r7, [r2, #8]
 1126 001c 07F01F07 		and	r7, r7, #31
 1127 0020 4249     		ldr	r1, .L191
 1128 0022 434A     		ldr	r2, .L191+4
 1129 0024 8B42     		cmp	r3, r1
 1130 0026 18BF     		it	ne
 1131 0028 9342     		cmpne	r3, r2
 1132 002a 07D0     		beq	.L164
 1133 002c 414A     		ldr	r2, .L191+8
 1134 002e 9342     		cmp	r3, r2
 1135 0030 04D0     		beq	.L164
 1136 0032 40F29A21 		movw	r1, #666
 1137 0036 4048     		ldr	r0, .L191+12
 1138 0038 FFF7FEFF 		bl	assert_failed
 1139              	.L164:
 1140 003c 6369     		ldr	r3, [r4, #20]
 1141 003e 082B     		cmp	r3, #8
 1142 0040 21D0     		beq	.L187
 1143 0042 2026     		movs	r6, #32
 1144              	.L165:
 1145 0044 FFF7FEFF 		bl	HAL_GetTick
 1146 0048 8046     		mov	r8, r0
 1147              	.L167:
 1148 004a 2368     		ldr	r3, [r4]
 1149 004c 1A68     		ldr	r2, [r3]
 1150 004e 3242     		tst	r2, r6
 1151 0050 1BD1     		bne	.L188
 1152 0052 B5F1FF3F 		cmp	r5, #-1
 1153 0056 F8D0     		beq	.L167
 1154 0058 FFF7FEFF 		bl	HAL_GetTick
 1155 005c A0EB0800 		sub	r0, r0, r8
 1156 0060 A842     		cmp	r0, r5
 1157 0062 01D8     		bhi	.L168
 1158 0064 002D     		cmp	r5, #0
 1159 0066 F0D1     		bne	.L167
 1160              	.L168:
 1161 0068 2368     		ldr	r3, [r4]
 1162 006a 1B68     		ldr	r3, [r3]
 1163 006c 3342     		tst	r3, r6
 1164 006e ECD1     		bne	.L167
 1165 0070 236E     		ldr	r3, [r4, #96]
 1166 0072 43F00403 		orr	r3, r3, #4
 1167 0076 2366     		str	r3, [r4, #96]
 1168 0078 0023     		movs	r3, #0
ARM GAS  C:\Users\thewo\AppData\Local\Temp\ccCADg6a.s 			page 21


 1169 007a 84F85C30 		strb	r3, [r4, #92]
 1170 007e 0320     		movs	r0, #3
 1171 0080 49E0     		b	.L169
 1172              	.L180:
 1173 0082 2E4A     		ldr	r2, .L191+16
 1174 0084 C9E7     		b	.L163
 1175              	.L187:
 1176 0086 4026     		movs	r6, #64
 1177 0088 DCE7     		b	.L165
 1178              	.L188:
 1179 008a DA6C     		ldr	r2, [r3, #76]
 1180 008c 12F4C07F 		tst	r2, #384
 1181 0090 15D1     		bne	.L182
 1182 0092 0120     		movs	r0, #1
 1183              	.L171:
 1184 0094 DA68     		ldr	r2, [r3, #12]
 1185 0096 12F4406F 		tst	r2, #3072
 1186 009a 12D1     		bne	.L183
 1187 009c 0125     		movs	r5, #1
 1188              	.L172:
 1189 009e 244A     		ldr	r2, .L191+4
 1190 00a0 9342     		cmp	r3, r2
 1191 00a2 10D0     		beq	.L189
 1192 00a4 1A46     		mov	r2, r3
 1193              	.L173:
 1194 00a6 9342     		cmp	r3, r2
 1195 00a8 10D0     		beq	.L174
 1196 00aa 062F     		cmp	r7, #6
 1197 00ac 14BF     		ite	ne
 1198 00ae 0021     		movne	r1, #0
 1199 00b0 0121     		moveq	r1, #1
 1200 00b2 5FB1     		cbz	r7, .L174
 1201 00b4 51B9     		cbnz	r1, .L174
 1202 00b6 072F     		cmp	r7, #7
 1203 00b8 08D0     		beq	.L174
 1204 00ba D168     		ldr	r1, [r2, #12]
 1205 00bc 07E0     		b	.L176
 1206              	.L182:
 1207 00be 0020     		movs	r0, #0
 1208 00c0 E8E7     		b	.L171
 1209              	.L183:
 1210 00c2 0025     		movs	r5, #0
 1211 00c4 EBE7     		b	.L172
 1212              	.L189:
 1213 00c6 A2F58072 		sub	r2, r2, #256
 1214 00ca ECE7     		b	.L173
 1215              	.L174:
 1216 00cc D968     		ldr	r1, [r3, #12]
 1217              	.L176:
 1218 00ce 226E     		ldr	r2, [r4, #96]
 1219 00d0 42F40052 		orr	r2, r2, #8192
 1220 00d4 2266     		str	r2, [r4, #96]
 1221 00d6 30B9     		cbnz	r0, .L177
 1222 00d8 11F0007F 		tst	r1, #33554432
 1223 00dc 16D1     		bne	.L178
 1224 00de ADB1     		cbz	r5, .L178
 1225 00e0 11F4005F 		tst	r1, #8192
ARM GAS  C:\Users\thewo\AppData\Local\Temp\ccCADg6a.s 			page 22


 1226 00e4 12D1     		bne	.L178
 1227              	.L177:
 1228 00e6 1A68     		ldr	r2, [r3]
 1229 00e8 12F0400F 		tst	r2, #64
 1230 00ec 0ED0     		beq	.L178
 1231 00ee 11F4001F 		tst	r1, #2097152
 1232 00f2 0BD1     		bne	.L178
 1233 00f4 226E     		ldr	r2, [r4, #96]
 1234 00f6 22F48052 		bic	r2, r2, #4096
 1235 00fa 2266     		str	r2, [r4, #96]
 1236 00fc 226E     		ldr	r2, [r4, #96]
 1237 00fe 12F4807F 		tst	r2, #256
 1238 0102 03D1     		bne	.L178
 1239 0104 226E     		ldr	r2, [r4, #96]
 1240 0106 42F00102 		orr	r2, r2, #1
 1241 010a 2266     		str	r2, [r4, #96]
 1242              	.L178:
 1243 010c 402E     		cmp	r6, #64
 1244 010e 04D0     		beq	.L190
 1245 0110 2022     		movs	r2, #32
 1246 0112 1A60     		str	r2, [r3]
 1247 0114 0020     		movs	r0, #0
 1248              	.L169:
 1249 0116 BDE8F081 		pop	{r4, r5, r6, r7, r8, pc}
 1250              	.L190:
 1251 011a 11F4804F 		tst	r1, #16384
 1252 011e 03D1     		bne	.L185
 1253 0120 6022     		movs	r2, #96
 1254 0122 1A60     		str	r2, [r3]
 1255 0124 0020     		movs	r0, #0
 1256 0126 F6E7     		b	.L169
 1257              	.L185:
 1258 0128 0020     		movs	r0, #0
 1259 012a F4E7     		b	.L169
 1260              	.L192:
 1261              		.align	2
 1262              	.L191:
 1263 012c 00200240 		.word	1073881088
 1264 0130 00210240 		.word	1073881344
 1265 0134 00600258 		.word	1476550656
 1266 0138 00000000 		.word	.LC0
 1267 013c 00630258 		.word	1476551424
 1269              		.section	.text.HAL_ADCEx_InjectedStart_IT,"ax",%progbits
 1270              		.align	1
 1271              		.global	HAL_ADCEx_InjectedStart_IT
 1272              		.syntax unified
 1273              		.thumb
 1274              		.thumb_func
 1276              	HAL_ADCEx_InjectedStart_IT:
 1277              		@ args = 0, pretend = 0, frame = 0
 1278              		@ frame_needed = 0, uses_anonymous_args = 0
 1279 0000 38B5     		push	{r3, r4, r5, lr}
 1280 0002 0446     		mov	r4, r0
 1281 0004 0368     		ldr	r3, [r0]
 1282 0006 5549     		ldr	r1, .L221
 1283 0008 554A     		ldr	r2, .L221+4
 1284 000a 9342     		cmp	r3, r2
ARM GAS  C:\Users\thewo\AppData\Local\Temp\ccCADg6a.s 			page 23


 1285 000c 18BF     		it	ne
 1286 000e 8B42     		cmpne	r3, r1
 1287 0010 74D1     		bne	.L211
 1288 0012 02F50072 		add	r2, r2, #512
 1289              	.L194:
 1290 0016 9568     		ldr	r5, [r2, #8]
 1291 0018 05F01F05 		and	r5, r5, #31
 1292 001c 4F49     		ldr	r1, .L221
 1293 001e 504A     		ldr	r2, .L221+4
 1294 0020 8B42     		cmp	r3, r1
 1295 0022 18BF     		it	ne
 1296 0024 9342     		cmpne	r3, r2
 1297 0026 07D0     		beq	.L195
 1298 0028 4E4A     		ldr	r2, .L221+8
 1299 002a 9342     		cmp	r3, r2
 1300 002c 04D0     		beq	.L195
 1301 002e 4FF44771 		mov	r1, #796
 1302 0032 4D48     		ldr	r0, .L221+12
 1303 0034 FFF7FEFF 		bl	assert_failed
 1304              	.L195:
 1305 0038 2368     		ldr	r3, [r4]
 1306 003a 9A68     		ldr	r2, [r3, #8]
 1307 003c 12F0080F 		tst	r2, #8
 1308 0040 40F08780 		bne	.L212
 1309 0044 DA68     		ldr	r2, [r3, #12]
 1310 0046 DB6C     		ldr	r3, [r3, #76]
 1311 0048 13F4C07F 		tst	r3, #384
 1312 004c 01D1     		bne	.L197
 1313 004e 002A     		cmp	r2, #0
 1314 0050 56DA     		bge	.L217
 1315              	.L197:
 1316 0052 94F85C30 		ldrb	r3, [r4, #92]	@ zero_extendqisi2
 1317 0056 012B     		cmp	r3, #1
 1318 0058 7DD0     		beq	.L213
 1319 005a 0123     		movs	r3, #1
 1320 005c 84F85C30 		strb	r3, [r4, #92]
 1321 0060 2046     		mov	r0, r4
 1322 0062 FFF7FEFF 		bl	ADC_Enable
 1323 0066 0028     		cmp	r0, #0
 1324 0068 6FD1     		bne	.L198
 1325 006a 236E     		ldr	r3, [r4, #96]
 1326 006c 13F4807F 		tst	r3, #256
 1327 0070 4CD0     		beq	.L199
 1328 0072 636E     		ldr	r3, [r4, #100]
 1329 0074 23F00803 		bic	r3, r3, #8
 1330 0078 6366     		str	r3, [r4, #100]
 1331              	.L200:
 1332 007a 226E     		ldr	r2, [r4, #96]
 1333 007c 3B4B     		ldr	r3, .L221+16
 1334 007e 1340     		ands	r3, r3, r2
 1335 0080 43F48053 		orr	r3, r3, #4096
 1336 0084 2366     		str	r3, [r4, #96]
 1337 0086 2368     		ldr	r3, [r4]
 1338 0088 354A     		ldr	r2, .L221+4
 1339 008a 9342     		cmp	r3, r2
 1340 008c 41D0     		beq	.L218
 1341 008e 1A46     		mov	r2, r3
ARM GAS  C:\Users\thewo\AppData\Local\Temp\ccCADg6a.s 			page 24


 1342              	.L201:
 1343 0090 9342     		cmp	r3, r2
 1344 0092 00D0     		beq	.L202
 1345 0094 1DB9     		cbnz	r5, .L203
 1346              	.L202:
 1347 0096 226E     		ldr	r2, [r4, #96]
 1348 0098 22F48012 		bic	r2, r2, #1048576
 1349 009c 2266     		str	r2, [r4, #96]
 1350              	.L203:
 1351 009e 6022     		movs	r2, #96
 1352 00a0 1A60     		str	r2, [r3]
 1353 00a2 0023     		movs	r3, #0
 1354 00a4 84F85C30 		strb	r3, [r4, #92]
 1355 00a8 2368     		ldr	r3, [r4]
 1356 00aa DA68     		ldr	r2, [r3, #12]
 1357 00ac 12F4001F 		tst	r2, #2097152
 1358 00b0 03D0     		beq	.L204
 1359 00b2 5A68     		ldr	r2, [r3, #4]
 1360 00b4 42F48062 		orr	r2, r2, #1024
 1361 00b8 5A60     		str	r2, [r3, #4]
 1362              	.L204:
 1363 00ba 6369     		ldr	r3, [r4, #20]
 1364 00bc 082B     		cmp	r3, #8
 1365 00be 2BD0     		beq	.L219
 1366 00c0 2268     		ldr	r2, [r4]
 1367 00c2 5368     		ldr	r3, [r2, #4]
 1368 00c4 23F04003 		bic	r3, r3, #64
 1369 00c8 5360     		str	r3, [r2, #4]
 1370 00ca 2268     		ldr	r2, [r4]
 1371 00cc 5368     		ldr	r3, [r2, #4]
 1372 00ce 43F02003 		orr	r3, r3, #32
 1373 00d2 5360     		str	r3, [r2, #4]
 1374              	.L206:
 1375 00d4 2368     		ldr	r3, [r4]
 1376 00d6 224A     		ldr	r2, .L221+4
 1377 00d8 9342     		cmp	r3, r2
 1378 00da 28D0     		beq	.L220
 1379 00dc 1A46     		mov	r2, r3
 1380              	.L207:
 1381 00de 9342     		cmp	r3, r2
 1382 00e0 28D0     		beq	.L208
 1383 00e2 062D     		cmp	r5, #6
 1384 00e4 14BF     		ite	ne
 1385 00e6 0022     		movne	r2, #0
 1386 00e8 0122     		moveq	r2, #1
 1387 00ea 1DB3     		cbz	r5, .L208
 1388 00ec 12BB     		cbnz	r2, .L208
 1389 00ee 072D     		cmp	r5, #7
 1390 00f0 20D0     		beq	.L208
 1391 00f2 236E     		ldr	r3, [r4, #96]
 1392 00f4 43F48013 		orr	r3, r3, #1048576
 1393 00f8 2366     		str	r3, [r4, #96]
 1394 00fa 2BE0     		b	.L196
 1395              	.L211:
 1396 00fc 1C4A     		ldr	r2, .L221+20
 1397 00fe 8AE7     		b	.L194
 1398              	.L217:
ARM GAS  C:\Users\thewo\AppData\Local\Temp\ccCADg6a.s 			page 25


 1399 0100 236E     		ldr	r3, [r4, #96]
 1400 0102 43F02003 		orr	r3, r3, #32
 1401 0106 2366     		str	r3, [r4, #96]
 1402 0108 0120     		movs	r0, #1
 1403 010a 23E0     		b	.L196
 1404              	.L199:
 1405 010c 0023     		movs	r3, #0
 1406 010e 6366     		str	r3, [r4, #100]
 1407 0110 B3E7     		b	.L200
 1408              	.L218:
 1409 0112 A2F58072 		sub	r2, r2, #256
 1410 0116 BBE7     		b	.L201
 1411              	.L219:
 1412 0118 2268     		ldr	r2, [r4]
 1413 011a 5368     		ldr	r3, [r2, #4]
 1414 011c 23F02003 		bic	r3, r3, #32
 1415 0120 5360     		str	r3, [r2, #4]
 1416 0122 2268     		ldr	r2, [r4]
 1417 0124 5368     		ldr	r3, [r2, #4]
 1418 0126 43F04003 		orr	r3, r3, #64
 1419 012a 5360     		str	r3, [r2, #4]
 1420 012c D2E7     		b	.L206
 1421              	.L220:
 1422 012e A2F58072 		sub	r2, r2, #256
 1423 0132 D4E7     		b	.L207
 1424              	.L208:
 1425 0134 DA68     		ldr	r2, [r3, #12]
 1426 0136 12F0007F 		tst	r2, #33554432
 1427 013a 0BD1     		bne	.L196
 1428 013c 9968     		ldr	r1, [r3, #8]
 1429 013e 0D4A     		ldr	r2, .L221+24
 1430 0140 0A40     		ands	r2, r2, r1
 1431 0142 42F00802 		orr	r2, r2, #8
 1432 0146 9A60     		str	r2, [r3, #8]
 1433 0148 04E0     		b	.L196
 1434              	.L198:
 1435 014a 0023     		movs	r3, #0
 1436 014c 84F85C30 		strb	r3, [r4, #92]
 1437 0150 00E0     		b	.L196
 1438              	.L212:
 1439 0152 0220     		movs	r0, #2
 1440              	.L196:
 1441 0154 38BD     		pop	{r3, r4, r5, pc}
 1442              	.L213:
 1443 0156 0220     		movs	r0, #2
 1444 0158 FCE7     		b	.L196
 1445              	.L222:
 1446 015a 00BF     		.align	2
 1447              	.L221:
 1448 015c 00200240 		.word	1073881088
 1449 0160 00210240 		.word	1073881344
 1450 0164 00600258 		.word	1476550656
 1451 0168 00000000 		.word	.LC0
 1452 016c FECFFFFF 		.word	-12290
 1453 0170 00630258 		.word	1476551424
 1454 0174 C0FFFF7F 		.word	2147483584
 1456              		.section	.text.HAL_ADCEx_InjectedStop_IT,"ax",%progbits
ARM GAS  C:\Users\thewo\AppData\Local\Temp\ccCADg6a.s 			page 26


 1457              		.align	1
 1458              		.global	HAL_ADCEx_InjectedStop_IT
 1459              		.syntax unified
 1460              		.thumb
 1461              		.thumb_func
 1463              	HAL_ADCEx_InjectedStop_IT:
 1464              		@ args = 0, pretend = 0, frame = 0
 1465              		@ frame_needed = 0, uses_anonymous_args = 0
 1466 0000 10B5     		push	{r4, lr}
 1467 0002 0446     		mov	r4, r0
 1468 0004 0368     		ldr	r3, [r0]
 1469 0006 1D49     		ldr	r1, .L230
 1470 0008 1D4A     		ldr	r2, .L230+4
 1471 000a 8B42     		cmp	r3, r1
 1472 000c 18BF     		it	ne
 1473 000e 9342     		cmpne	r3, r2
 1474 0010 07D0     		beq	.L224
 1475 0012 1C4A     		ldr	r2, .L230+8
 1476 0014 9342     		cmp	r3, r2
 1477 0016 04D0     		beq	.L224
 1478 0018 40F2BB31 		movw	r1, #955
 1479 001c 1A48     		ldr	r0, .L230+12
 1480 001e FFF7FEFF 		bl	assert_failed
 1481              	.L224:
 1482 0022 94F85C30 		ldrb	r3, [r4, #92]	@ zero_extendqisi2
 1483 0026 012B     		cmp	r3, #1
 1484 0028 25D0     		beq	.L228
 1485 002a 0123     		movs	r3, #1
 1486 002c 84F85C30 		strb	r3, [r4, #92]
 1487 0030 0221     		movs	r1, #2
 1488 0032 2046     		mov	r0, r4
 1489 0034 FFF7FEFF 		bl	ADC_ConversionStop
 1490 0038 68B9     		cbnz	r0, .L226
 1491 003a 2268     		ldr	r2, [r4]
 1492 003c 5368     		ldr	r3, [r2, #4]
 1493 003e 23F48C63 		bic	r3, r3, #1120
 1494 0042 5360     		str	r3, [r2, #4]
 1495 0044 2368     		ldr	r3, [r4]
 1496 0046 9B68     		ldr	r3, [r3, #8]
 1497 0048 13F0040F 		tst	r3, #4
 1498 004c 07D0     		beq	.L227
 1499 004e 236E     		ldr	r3, [r4, #96]
 1500 0050 23F48053 		bic	r3, r3, #4096
 1501 0054 2366     		str	r3, [r4, #96]
 1502              	.L226:
 1503 0056 0023     		movs	r3, #0
 1504 0058 84F85C30 		strb	r3, [r4, #92]
 1505              	.L225:
 1506 005c 10BD     		pop	{r4, pc}
 1507              	.L227:
 1508 005e 2046     		mov	r0, r4
 1509 0060 FFF7FEFF 		bl	ADC_Disable
 1510 0064 0028     		cmp	r0, #0
 1511 0066 F6D1     		bne	.L226
 1512 0068 226E     		ldr	r2, [r4, #96]
 1513 006a 084B     		ldr	r3, .L230+16
 1514 006c 1340     		ands	r3, r3, r2
ARM GAS  C:\Users\thewo\AppData\Local\Temp\ccCADg6a.s 			page 27


 1515 006e 43F00103 		orr	r3, r3, #1
 1516 0072 2366     		str	r3, [r4, #96]
 1517 0074 EFE7     		b	.L226
 1518              	.L228:
 1519 0076 0220     		movs	r0, #2
 1520 0078 F0E7     		b	.L225
 1521              	.L231:
 1522 007a 00BF     		.align	2
 1523              	.L230:
 1524 007c 00200240 		.word	1073881088
 1525 0080 00210240 		.word	1073881344
 1526 0084 00600258 		.word	1476550656
 1527 0088 00000000 		.word	.LC0
 1528 008c FEEEFFFF 		.word	-4354
 1530              		.section	.text.HAL_ADCEx_MultiModeStart_DMA,"ax",%progbits
 1531              		.align	1
 1532              		.global	HAL_ADCEx_MultiModeStart_DMA
 1533              		.syntax unified
 1534              		.thumb
 1535              		.thumb_func
 1537              	HAL_ADCEx_MultiModeStart_DMA:
 1538              		@ args = 0, pretend = 0, frame = 112
 1539              		@ frame_needed = 0, uses_anonymous_args = 0
 1540 0000 70B5     		push	{r4, r5, r6, lr}
 1541 0002 9CB0     		sub	sp, sp, #112
 1542 0004 0446     		mov	r4, r0
 1543 0006 0D46     		mov	r5, r1
 1544 0008 1646     		mov	r6, r2
 1545 000a 0268     		ldr	r2, [r0]
 1546 000c 564B     		ldr	r3, .L262
 1547 000e 9A42     		cmp	r2, r3
 1548 0010 04D0     		beq	.L233
 1549 0012 40F20241 		movw	r1, #1026
 1550 0016 5548     		ldr	r0, .L262+4
 1551 0018 FFF7FEFF 		bl	assert_failed
 1552              	.L233:
 1553 001c 637E     		ldrb	r3, [r4, #25]	@ zero_extendqisi2
 1554 001e 012B     		cmp	r3, #1
 1555 0020 34D8     		bhi	.L254
 1556              	.L234:
 1557 0022 E06A     		ldr	r0, [r4, #44]
 1558 0024 0028     		cmp	r0, #0
 1559 0026 18BF     		it	ne
 1560 0028 B0F5806F 		cmpne	r0, #1024
 1561 002c 05D0     		beq	.L235
 1562 002e B0F5006F 		cmp	r0, #2048
 1563 0032 02D0     		beq	.L235
 1564 0034 B0F5406F 		cmp	r0, #3072
 1565 0038 2ED1     		bne	.L255
 1566              	.L235:
 1567 003a 2068     		ldr	r0, [r4]
 1568 003c 8368     		ldr	r3, [r0, #8]
 1569 003e 13F0040F 		tst	r3, #4
 1570 0042 40F08B80 		bne	.L248
 1571 0046 94F85C30 		ldrb	r3, [r4, #92]	@ zero_extendqisi2
 1572 004a 012B     		cmp	r3, #1
 1573 004c 00F08980 		beq	.L249
ARM GAS  C:\Users\thewo\AppData\Local\Temp\ccCADg6a.s 			page 28


 1574 0050 0123     		movs	r3, #1
 1575 0052 84F85C30 		strb	r3, [r4, #92]
 1576 0056 464B     		ldr	r3, .L262+8
 1577 0058 9842     		cmp	r0, r3
 1578 005a 23D0     		beq	.L256
 1579 005c 0346     		mov	r3, r0
 1580              	.L237:
 1581 005e 9842     		cmp	r0, r3
 1582 0060 23D1     		bne	.L257
 1583 0062 0023     		movs	r3, #0
 1584 0064 1893     		str	r3, [sp, #96]
 1585 0066 1993     		str	r3, [sp, #100]
 1586 0068 2268     		ldr	r2, [r4]
 1587 006a 3F4B     		ldr	r3, .L262
 1588 006c 9A42     		cmp	r2, r3
 1589 006e 4AD0     		beq	.L258
 1590 0070 0023     		movs	r3, #0
 1591 0072 0093     		str	r3, [sp]
 1592              	.L241:
 1593 0074 009B     		ldr	r3, [sp]
 1594 0076 002B     		cmp	r3, #0
 1595 0078 49D0     		beq	.L259
 1596 007a 2046     		mov	r0, r4
 1597 007c FFF7FEFF 		bl	ADC_Enable
 1598 0080 0028     		cmp	r0, #0
 1599 0082 4DD0     		beq	.L260
 1600              	.L243:
 1601 0084 0023     		movs	r3, #0
 1602 0086 84F85C30 		strb	r3, [r4, #92]
 1603 008a 68E0     		b	.L236
 1604              	.L254:
 1605 008c 40F20341 		movw	r1, #1027
 1606 0090 3648     		ldr	r0, .L262+4
 1607 0092 FFF7FEFF 		bl	assert_failed
 1608 0096 C4E7     		b	.L234
 1609              	.L255:
 1610 0098 40F20441 		movw	r1, #1028
 1611 009c 3348     		ldr	r0, .L262+4
 1612 009e FFF7FEFF 		bl	assert_failed
 1613 00a2 CAE7     		b	.L235
 1614              	.L256:
 1615 00a4 A3F58073 		sub	r3, r3, #256
 1616 00a8 D9E7     		b	.L237
 1617              	.L257:
 1618 00aa 2046     		mov	r0, r4
 1619 00ac FFF7FEFF 		bl	ADC_Enable
 1620              	.L239:
 1621 00b0 0028     		cmp	r0, #0
 1622 00b2 E7D1     		bne	.L243
 1623 00b4 226E     		ldr	r2, [r4, #96]
 1624 00b6 2F4B     		ldr	r3, .L262+12
 1625 00b8 1340     		ands	r3, r3, r2
 1626 00ba 43F48073 		orr	r3, r3, #256
 1627 00be 2366     		str	r3, [r4, #96]
 1628 00c0 0023     		movs	r3, #0
 1629 00c2 6366     		str	r3, [r4, #100]
 1630 00c4 A26D     		ldr	r2, [r4, #88]
ARM GAS  C:\Users\thewo\AppData\Local\Temp\ccCADg6a.s 			page 29


 1631 00c6 2C49     		ldr	r1, .L262+16
 1632 00c8 D163     		str	r1, [r2, #60]
 1633 00ca A26D     		ldr	r2, [r4, #88]
 1634 00cc 2B49     		ldr	r1, .L262+20
 1635 00ce 1164     		str	r1, [r2, #64]
 1636 00d0 A26D     		ldr	r2, [r4, #88]
 1637 00d2 2B49     		ldr	r1, .L262+24
 1638 00d4 D164     		str	r1, [r2, #76]
 1639 00d6 2268     		ldr	r2, [r4]
 1640 00d8 1C21     		movs	r1, #28
 1641 00da 1160     		str	r1, [r2]
 1642 00dc 84F85C30 		strb	r3, [r4, #92]
 1643 00e0 2268     		ldr	r2, [r4]
 1644 00e2 5368     		ldr	r3, [r2, #4]
 1645 00e4 43F01003 		orr	r3, r3, #16
 1646 00e8 5360     		str	r3, [r2, #4]
 1647 00ea 2168     		ldr	r1, [r4]
 1648 00ec 204B     		ldr	r3, .L262+8
 1649 00ee 9942     		cmp	r1, r3
 1650 00f0 1AD0     		beq	.L261
 1651 00f2 0B46     		mov	r3, r1
 1652              	.L244:
 1653 00f4 9942     		cmp	r1, r3
 1654 00f6 1AD0     		beq	.L245
 1655 00f8 3346     		mov	r3, r6
 1656 00fa 2A46     		mov	r2, r5
 1657 00fc 4031     		adds	r1, r1, #64
 1658 00fe A06D     		ldr	r0, [r4, #88]
 1659 0100 FFF7FEFF 		bl	HAL_DMA_Start_IT
 1660 0104 2BE0     		b	.L236
 1661              	.L258:
 1662 0106 03F58073 		add	r3, r3, #256
 1663 010a 0093     		str	r3, [sp]
 1664 010c B2E7     		b	.L241
 1665              	.L259:
 1666 010e 236E     		ldr	r3, [r4, #96]
 1667 0110 43F02003 		orr	r3, r3, #32
 1668 0114 2366     		str	r3, [r4, #96]
 1669 0116 0023     		movs	r3, #0
 1670 0118 84F85C30 		strb	r3, [r4, #92]
 1671 011c 0120     		movs	r0, #1
 1672 011e 1EE0     		b	.L236
 1673              	.L260:
 1674 0120 6846     		mov	r0, sp
 1675 0122 FFF7FEFF 		bl	ADC_Enable
 1676 0126 C3E7     		b	.L239
 1677              	.L261:
 1678 0128 A3F58073 		sub	r3, r3, #256
 1679 012c E2E7     		b	.L244
 1680              	.L245:
 1681 012e 0E4A     		ldr	r2, .L262
 1682 0130 0F4B     		ldr	r3, .L262+8
 1683 0132 9942     		cmp	r1, r3
 1684 0134 18BF     		it	ne
 1685 0136 9142     		cmpne	r1, r2
 1686 0138 0ED1     		bne	.L252
 1687 013a 1249     		ldr	r1, .L262+28
ARM GAS  C:\Users\thewo\AppData\Local\Temp\ccCADg6a.s 			page 30


 1688              	.L247:
 1689 013c 3346     		mov	r3, r6
 1690 013e 2A46     		mov	r2, r5
 1691 0140 0C31     		adds	r1, r1, #12
 1692 0142 A06D     		ldr	r0, [r4, #88]
 1693 0144 FFF7FEFF 		bl	HAL_DMA_Start_IT
 1694 0148 2268     		ldr	r2, [r4]
 1695 014a 9168     		ldr	r1, [r2, #8]
 1696 014c 0E4B     		ldr	r3, .L262+32
 1697 014e 0B40     		ands	r3, r3, r1
 1698 0150 43F00403 		orr	r3, r3, #4
 1699 0154 9360     		str	r3, [r2, #8]
 1700 0156 02E0     		b	.L236
 1701              	.L252:
 1702 0158 0C49     		ldr	r1, .L262+36
 1703 015a EFE7     		b	.L247
 1704              	.L248:
 1705 015c 0220     		movs	r0, #2
 1706              	.L236:
 1707 015e 1CB0     		add	sp, sp, #112
 1708              		@ sp needed
 1709 0160 70BD     		pop	{r4, r5, r6, pc}
 1710              	.L249:
 1711 0162 0220     		movs	r0, #2
 1712 0164 FBE7     		b	.L236
 1713              	.L263:
 1714 0166 00BF     		.align	2
 1715              	.L262:
 1716 0168 00200240 		.word	1073881088
 1717 016c 00000000 		.word	.LC0
 1718 0170 00210240 		.word	1073881344
 1719 0174 FEF0FFFF 		.word	-3842
 1720 0178 00000000 		.word	ADC_DMAConvCplt
 1721 017c 00000000 		.word	ADC_DMAHalfConvCplt
 1722 0180 00000000 		.word	ADC_DMAError
 1723 0184 00230240 		.word	1073881856
 1724 0188 C0FFFF7F 		.word	2147483584
 1725 018c 00630258 		.word	1476551424
 1727              		.section	.text.HAL_ADCEx_MultiModeStop_DMA,"ax",%progbits
 1728              		.align	1
 1729              		.global	HAL_ADCEx_MultiModeStop_DMA
 1730              		.syntax unified
 1731              		.thumb
 1732              		.thumb_func
 1734              	HAL_ADCEx_MultiModeStop_DMA:
 1735              		@ args = 0, pretend = 0, frame = 112
 1736              		@ frame_needed = 0, uses_anonymous_args = 0
 1737 0000 30B5     		push	{r4, r5, lr}
 1738 0002 9DB0     		sub	sp, sp, #116
 1739 0004 0446     		mov	r4, r0
 1740 0006 0268     		ldr	r2, [r0]
 1741 0008 464B     		ldr	r3, .L289
 1742 000a 9A42     		cmp	r2, r3
 1743 000c 04D0     		beq	.L265
 1744 000e 40F28D41 		movw	r1, #1165
 1745 0012 4548     		ldr	r0, .L289+4
 1746 0014 FFF7FEFF 		bl	assert_failed
ARM GAS  C:\Users\thewo\AppData\Local\Temp\ccCADg6a.s 			page 31


 1747              	.L265:
 1748 0018 94F85C30 		ldrb	r3, [r4, #92]	@ zero_extendqisi2
 1749 001c 012B     		cmp	r3, #1
 1750 001e 7ED0     		beq	.L283
 1751 0020 0123     		movs	r3, #1
 1752 0022 84F85C30 		strb	r3, [r4, #92]
 1753 0026 0321     		movs	r1, #3
 1754 0028 2046     		mov	r0, r4
 1755 002a FFF7FEFF 		bl	ADC_ConversionStop
 1756 002e 0546     		mov	r5, r0
 1757 0030 0028     		cmp	r0, #0
 1758 0032 62D1     		bne	.L267
 1759 0034 0023     		movs	r3, #0
 1760 0036 1893     		str	r3, [sp, #96]
 1761 0038 1993     		str	r3, [sp, #100]
 1762 003a 2268     		ldr	r2, [r4]
 1763 003c 394B     		ldr	r3, .L289
 1764 003e 9A42     		cmp	r2, r3
 1765 0040 0DD0     		beq	.L285
 1766 0042 0023     		movs	r3, #0
 1767 0044 0093     		str	r3, [sp]
 1768              	.L269:
 1769 0046 009B     		ldr	r3, [sp]
 1770 0048 6BB1     		cbz	r3, .L286
 1771 004a FFF7FEFF 		bl	HAL_GetTick
 1772 004e 0546     		mov	r5, r0
 1773 0050 009B     		ldr	r3, [sp]
 1774 0052 9B68     		ldr	r3, [r3, #8]
 1775 0054 13F00403 		ands	r3, r3, #4
 1776 0058 13D0     		beq	.L278
 1777 005a 0123     		movs	r3, #1
 1778 005c 11E0     		b	.L278
 1779              	.L285:
 1780 005e 03F58073 		add	r3, r3, #256
 1781 0062 0093     		str	r3, [sp]
 1782 0064 EFE7     		b	.L269
 1783              	.L286:
 1784 0066 236E     		ldr	r3, [r4, #96]
 1785 0068 43F02003 		orr	r3, r3, #32
 1786 006c 2366     		str	r3, [r4, #96]
 1787 006e 0023     		movs	r3, #0
 1788 0070 84F85C30 		strb	r3, [r4, #92]
 1789 0074 0125     		movs	r5, #1
 1790 0076 43E0     		b	.L266
 1791              	.L273:
 1792 0078 009B     		ldr	r3, [sp]
 1793 007a 9B68     		ldr	r3, [r3, #8]
 1794 007c 13F00403 		ands	r3, r3, #4
 1795 0080 21D1     		bne	.L276
 1796              	.L278:
 1797 0082 2268     		ldr	r2, [r4]
 1798 0084 9268     		ldr	r2, [r2, #8]
 1799 0086 12F0040F 		tst	r2, #4
 1800 008a 01D1     		bne	.L279
 1801 008c 012B     		cmp	r3, #1
 1802 008e 1CD1     		bne	.L287
 1803              	.L279:
ARM GAS  C:\Users\thewo\AppData\Local\Temp\ccCADg6a.s 			page 32


 1804 0090 FFF7FEFF 		bl	HAL_GetTick
 1805 0094 431B     		subs	r3, r0, r5
 1806 0096 052B     		cmp	r3, #5
 1807 0098 EED9     		bls	.L273
 1808 009a 009B     		ldr	r3, [sp]
 1809 009c 9B68     		ldr	r3, [r3, #8]
 1810 009e 13F00403 		ands	r3, r3, #4
 1811 00a2 00D0     		beq	.L274
 1812 00a4 0123     		movs	r3, #1
 1813              	.L274:
 1814 00a6 2268     		ldr	r2, [r4]
 1815 00a8 9268     		ldr	r2, [r2, #8]
 1816 00aa 12F0040F 		tst	r2, #4
 1817 00ae 01D1     		bne	.L275
 1818 00b0 012B     		cmp	r3, #1
 1819 00b2 E1D1     		bne	.L273
 1820              	.L275:
 1821 00b4 236E     		ldr	r3, [r4, #96]
 1822 00b6 43F01003 		orr	r3, r3, #16
 1823 00ba 2366     		str	r3, [r4, #96]
 1824 00bc 0023     		movs	r3, #0
 1825 00be 84F85C30 		strb	r3, [r4, #92]
 1826 00c2 0125     		movs	r5, #1
 1827 00c4 1CE0     		b	.L266
 1828              	.L276:
 1829 00c6 0123     		movs	r3, #1
 1830 00c8 DBE7     		b	.L278
 1831              	.L287:
 1832 00ca A06D     		ldr	r0, [r4, #88]
 1833 00cc FFF7FEFF 		bl	HAL_DMA_Abort
 1834 00d0 0546     		mov	r5, r0
 1835 00d2 0128     		cmp	r0, #1
 1836 00d4 17D0     		beq	.L288
 1837              	.L280:
 1838 00d6 2268     		ldr	r2, [r4]
 1839 00d8 5368     		ldr	r3, [r2, #4]
 1840 00da 23F01003 		bic	r3, r3, #16
 1841 00de 5360     		str	r3, [r2, #4]
 1842 00e0 B5B9     		cbnz	r5, .L281
 1843 00e2 6846     		mov	r0, sp
 1844 00e4 FFF7FEFF 		bl	ADC_Disable
 1845 00e8 2046     		mov	r0, r4
 1846 00ea FFF7FEFF 		bl	ADC_Disable
 1847              	.L282:
 1848 00ee 226E     		ldr	r2, [r4, #96]
 1849 00f0 0E4B     		ldr	r3, .L289+8
 1850 00f2 1340     		ands	r3, r3, r2
 1851 00f4 43F00103 		orr	r3, r3, #1
 1852 00f8 2366     		str	r3, [r4, #96]
 1853              	.L267:
 1854 00fa 0023     		movs	r3, #0
 1855 00fc 84F85C30 		strb	r3, [r4, #92]
 1856              	.L266:
 1857 0100 2846     		mov	r0, r5
 1858 0102 1DB0     		add	sp, sp, #116
 1859              		@ sp needed
 1860 0104 30BD     		pop	{r4, r5, pc}
ARM GAS  C:\Users\thewo\AppData\Local\Temp\ccCADg6a.s 			page 33


 1861              	.L288:
 1862 0106 236E     		ldr	r3, [r4, #96]
 1863 0108 43F04003 		orr	r3, r3, #64
 1864 010c 2366     		str	r3, [r4, #96]
 1865 010e E2E7     		b	.L280
 1866              	.L281:
 1867 0110 2046     		mov	r0, r4
 1868 0112 FFF7FEFF 		bl	ADC_Disable
 1869 0116 6846     		mov	r0, sp
 1870 0118 FFF7FEFF 		bl	ADC_Disable
 1871 011c E7E7     		b	.L282
 1872              	.L283:
 1873 011e 0225     		movs	r5, #2
 1874 0120 EEE7     		b	.L266
 1875              	.L290:
 1876 0122 00BF     		.align	2
 1877              	.L289:
 1878 0124 00200240 		.word	1073881088
 1879 0128 00000000 		.word	.LC0
 1880 012c FEEEFFFF 		.word	-4354
 1882              		.section	.text.HAL_ADCEx_MultiModeGetValue,"ax",%progbits
 1883              		.align	1
 1884              		.global	HAL_ADCEx_MultiModeGetValue
 1885              		.syntax unified
 1886              		.thumb
 1887              		.thumb_func
 1889              	HAL_ADCEx_MultiModeGetValue:
 1890              		@ args = 0, pretend = 0, frame = 0
 1891              		@ frame_needed = 0, uses_anonymous_args = 0
 1892 0000 10B5     		push	{r4, lr}
 1893 0002 0446     		mov	r4, r0
 1894 0004 0268     		ldr	r2, [r0]
 1895 0006 0A4B     		ldr	r3, .L296
 1896 0008 9A42     		cmp	r2, r3
 1897 000a 04D0     		beq	.L292
 1898 000c 40F20551 		movw	r1, #1285
 1899 0010 0848     		ldr	r0, .L296+4
 1900 0012 FFF7FEFF 		bl	assert_failed
 1901              	.L292:
 1902 0016 2368     		ldr	r3, [r4]
 1903 0018 0549     		ldr	r1, .L296
 1904 001a 074A     		ldr	r2, .L296+8
 1905 001c 9342     		cmp	r3, r2
 1906 001e 18BF     		it	ne
 1907 0020 8B42     		cmpne	r3, r1
 1908 0022 02D1     		bne	.L294
 1909 0024 054B     		ldr	r3, .L296+12
 1910              	.L293:
 1911 0026 D868     		ldr	r0, [r3, #12]
 1912 0028 10BD     		pop	{r4, pc}
 1913              	.L294:
 1914 002a 054B     		ldr	r3, .L296+16
 1915 002c FBE7     		b	.L293
 1916              	.L297:
 1917 002e 00BF     		.align	2
 1918              	.L296:
 1919 0030 00200240 		.word	1073881088
ARM GAS  C:\Users\thewo\AppData\Local\Temp\ccCADg6a.s 			page 34


 1920 0034 00000000 		.word	.LC0
 1921 0038 00210240 		.word	1073881344
 1922 003c 00230240 		.word	1073881856
 1923 0040 00630258 		.word	1476551424
 1925              		.section	.text.HAL_ADCEx_InjectedGetValue,"ax",%progbits
 1926              		.align	1
 1927              		.global	HAL_ADCEx_InjectedGetValue
 1928              		.syntax unified
 1929              		.thumb
 1930              		.thumb_func
 1932              	HAL_ADCEx_InjectedGetValue:
 1933              		@ args = 0, pretend = 0, frame = 0
 1934              		@ frame_needed = 0, uses_anonymous_args = 0
 1935 0000 38B5     		push	{r3, r4, r5, lr}
 1936 0002 0546     		mov	r5, r0
 1937 0004 0C46     		mov	r4, r1
 1938 0006 0368     		ldr	r3, [r0]
 1939 0008 1F49     		ldr	r1, .L309
 1940 000a 204A     		ldr	r2, .L309+4
 1941 000c 8B42     		cmp	r3, r1
 1942 000e 18BF     		it	ne
 1943 0010 9342     		cmpne	r3, r2
 1944 0012 07D0     		beq	.L299
 1945 0014 1E4A     		ldr	r2, .L309+8
 1946 0016 9342     		cmp	r3, r2
 1947 0018 04D0     		beq	.L299
 1948 001a 40F23351 		movw	r1, #1331
 1949 001e 1D48     		ldr	r0, .L309+12
 1950 0020 FFF7FEFF 		bl	assert_failed
 1951              	.L299:
 1952 0024 40F20F13 		movw	r3, #271
 1953 0028 092C     		cmp	r4, #9
 1954 002a 18BF     		it	ne
 1955 002c 9C42     		cmpne	r4, r3
 1956 002e 09D0     		beq	.L300
 1957 0030 40F21B33 		movw	r3, #795
 1958 0034 E31A     		subs	r3, r4, r3
 1959 0036 18BF     		it	ne
 1960 0038 0123     		movne	r3, #1
 1961 003a 40F21522 		movw	r2, #533
 1962 003e 9442     		cmp	r4, r2
 1963 0040 00D0     		beq	.L300
 1964 0042 7BB9     		cbnz	r3, .L308
 1965              	.L300:
 1966 0044 40F21523 		movw	r3, #533
 1967 0048 9C42     		cmp	r4, r3
 1968 004a 15D0     		beq	.L301
 1969 004c 40F21B33 		movw	r3, #795
 1970 0050 9C42     		cmp	r4, r3
 1971 0052 0DD0     		beq	.L302
 1972 0054 40F20F13 		movw	r3, #271
 1973 0058 9C42     		cmp	r4, r3
 1974 005a 11D0     		beq	.L303
 1975 005c 2B68     		ldr	r3, [r5]
 1976 005e D3F88000 		ldr	r0, [r3, #128]
 1977 0062 08E0     		b	.L298
 1978              	.L308:
ARM GAS  C:\Users\thewo\AppData\Local\Temp\ccCADg6a.s 			page 35


 1979 0064 40F23451 		movw	r1, #1332
 1980 0068 0A48     		ldr	r0, .L309+12
 1981 006a FFF7FEFF 		bl	assert_failed
 1982 006e E9E7     		b	.L300
 1983              	.L302:
 1984 0070 2B68     		ldr	r3, [r5]
 1985 0072 D3F88C00 		ldr	r0, [r3, #140]
 1986              	.L298:
 1987 0076 38BD     		pop	{r3, r4, r5, pc}
 1988              	.L301:
 1989 0078 2B68     		ldr	r3, [r5]
 1990 007a D3F88800 		ldr	r0, [r3, #136]
 1991 007e FAE7     		b	.L298
 1992              	.L303:
 1993 0080 2B68     		ldr	r3, [r5]
 1994 0082 D3F88400 		ldr	r0, [r3, #132]
 1995 0086 F6E7     		b	.L298
 1996              	.L310:
 1997              		.align	2
 1998              	.L309:
 1999 0088 00200240 		.word	1073881088
 2000 008c 00210240 		.word	1073881344
 2001 0090 00600258 		.word	1476550656
 2002 0094 00000000 		.word	.LC0
 2004              		.section	.text.HAL_ADCEx_InjectedConvCpltCallback,"ax",%progbits
 2005              		.align	1
 2006              		.weak	HAL_ADCEx_InjectedConvCpltCallback
 2007              		.syntax unified
 2008              		.thumb
 2009              		.thumb_func
 2011              	HAL_ADCEx_InjectedConvCpltCallback:
 2012              		@ args = 0, pretend = 0, frame = 0
 2013              		@ frame_needed = 0, uses_anonymous_args = 0
 2014              		@ link register save eliminated.
 2015 0000 7047     		bx	lr
 2017              		.section	.text.HAL_ADCEx_InjectedQueueOverflowCallback,"ax",%progbits
 2018              		.align	1
 2019              		.weak	HAL_ADCEx_InjectedQueueOverflowCallback
 2020              		.syntax unified
 2021              		.thumb
 2022              		.thumb_func
 2024              	HAL_ADCEx_InjectedQueueOverflowCallback:
 2025              		@ args = 0, pretend = 0, frame = 0
 2026              		@ frame_needed = 0, uses_anonymous_args = 0
 2027              		@ link register save eliminated.
 2028 0000 7047     		bx	lr
 2030              		.section	.text.HAL_ADCEx_LevelOutOfWindow2Callback,"ax",%progbits
 2031              		.align	1
 2032              		.weak	HAL_ADCEx_LevelOutOfWindow2Callback
 2033              		.syntax unified
 2034              		.thumb
 2035              		.thumb_func
 2037              	HAL_ADCEx_LevelOutOfWindow2Callback:
 2038              		@ args = 0, pretend = 0, frame = 0
 2039              		@ frame_needed = 0, uses_anonymous_args = 0
 2040              		@ link register save eliminated.
 2041 0000 7047     		bx	lr
ARM GAS  C:\Users\thewo\AppData\Local\Temp\ccCADg6a.s 			page 36


 2043              		.section	.text.HAL_ADCEx_LevelOutOfWindow3Callback,"ax",%progbits
 2044              		.align	1
 2045              		.weak	HAL_ADCEx_LevelOutOfWindow3Callback
 2046              		.syntax unified
 2047              		.thumb
 2048              		.thumb_func
 2050              	HAL_ADCEx_LevelOutOfWindow3Callback:
 2051              		@ args = 0, pretend = 0, frame = 0
 2052              		@ frame_needed = 0, uses_anonymous_args = 0
 2053              		@ link register save eliminated.
 2054 0000 7047     		bx	lr
 2056              		.section	.text.HAL_ADCEx_EndOfSamplingCallback,"ax",%progbits
 2057              		.align	1
 2058              		.weak	HAL_ADCEx_EndOfSamplingCallback
 2059              		.syntax unified
 2060              		.thumb
 2061              		.thumb_func
 2063              	HAL_ADCEx_EndOfSamplingCallback:
 2064              		@ args = 0, pretend = 0, frame = 0
 2065              		@ frame_needed = 0, uses_anonymous_args = 0
 2066              		@ link register save eliminated.
 2067 0000 7047     		bx	lr
 2069              		.section	.text.HAL_ADCEx_RegularStop,"ax",%progbits
 2070              		.align	1
 2071              		.global	HAL_ADCEx_RegularStop
 2072              		.syntax unified
 2073              		.thumb
 2074              		.thumb_func
 2076              	HAL_ADCEx_RegularStop:
 2077              		@ args = 0, pretend = 0, frame = 0
 2078              		@ frame_needed = 0, uses_anonymous_args = 0
 2079 0000 10B5     		push	{r4, lr}
 2080 0002 0446     		mov	r4, r0
 2081 0004 0368     		ldr	r3, [r0]
 2082 0006 1C49     		ldr	r1, .L323
 2083 0008 1C4A     		ldr	r2, .L323+4
 2084 000a 8B42     		cmp	r3, r1
 2085 000c 18BF     		it	ne
 2086 000e 9342     		cmpne	r3, r2
 2087 0010 07D0     		beq	.L317
 2088 0012 1B4A     		ldr	r2, .L323+8
 2089 0014 9342     		cmp	r3, r2
 2090 0016 04D0     		beq	.L317
 2091 0018 4FF4B561 		mov	r1, #1448
 2092 001c 1948     		ldr	r0, .L323+12
 2093 001e FFF7FEFF 		bl	assert_failed
 2094              	.L317:
 2095 0022 94F85C30 		ldrb	r3, [r4, #92]	@ zero_extendqisi2
 2096 0026 012B     		cmp	r3, #1
 2097 0028 23D0     		beq	.L321
 2098 002a 0121     		movs	r1, #1
 2099 002c 84F85C10 		strb	r1, [r4, #92]
 2100 0030 2046     		mov	r0, r4
 2101 0032 FFF7FEFF 		bl	ADC_ConversionStop
 2102 0036 60B9     		cbnz	r0, .L319
 2103 0038 236E     		ldr	r3, [r4, #96]
 2104 003a 23F48073 		bic	r3, r3, #256
ARM GAS  C:\Users\thewo\AppData\Local\Temp\ccCADg6a.s 			page 37


 2105 003e 2366     		str	r3, [r4, #96]
 2106 0040 2368     		ldr	r3, [r4]
 2107 0042 9B68     		ldr	r3, [r3, #8]
 2108 0044 13F0080F 		tst	r3, #8
 2109 0048 07D0     		beq	.L320
 2110 004a 236E     		ldr	r3, [r4, #96]
 2111 004c 43F48053 		orr	r3, r3, #4096
 2112 0050 2366     		str	r3, [r4, #96]
 2113              	.L319:
 2114 0052 0023     		movs	r3, #0
 2115 0054 84F85C30 		strb	r3, [r4, #92]
 2116              	.L318:
 2117 0058 10BD     		pop	{r4, pc}
 2118              	.L320:
 2119 005a 2046     		mov	r0, r4
 2120 005c FFF7FEFF 		bl	ADC_Disable
 2121 0060 0028     		cmp	r0, #0
 2122 0062 F6D1     		bne	.L319
 2123 0064 226E     		ldr	r2, [r4, #96]
 2124 0066 084B     		ldr	r3, .L323+16
 2125 0068 1340     		ands	r3, r3, r2
 2126 006a 43F00103 		orr	r3, r3, #1
 2127 006e 2366     		str	r3, [r4, #96]
 2128 0070 EFE7     		b	.L319
 2129              	.L321:
 2130 0072 0220     		movs	r0, #2
 2131 0074 F0E7     		b	.L318
 2132              	.L324:
 2133 0076 00BF     		.align	2
 2134              	.L323:
 2135 0078 00200240 		.word	1073881088
 2136 007c 00210240 		.word	1073881344
 2137 0080 00600258 		.word	1476550656
 2138 0084 00000000 		.word	.LC0
 2139 0088 FEEFFFFF 		.word	-4098
 2141              		.section	.text.HAL_ADCEx_RegularStop_IT,"ax",%progbits
 2142              		.align	1
 2143              		.global	HAL_ADCEx_RegularStop_IT
 2144              		.syntax unified
 2145              		.thumb
 2146              		.thumb_func
 2148              	HAL_ADCEx_RegularStop_IT:
 2149              		@ args = 0, pretend = 0, frame = 0
 2150              		@ frame_needed = 0, uses_anonymous_args = 0
 2151 0000 10B5     		push	{r4, lr}
 2152 0002 0446     		mov	r4, r0
 2153 0004 0368     		ldr	r3, [r0]
 2154 0006 1E49     		ldr	r1, .L332
 2155 0008 1E4A     		ldr	r2, .L332+4
 2156 000a 8B42     		cmp	r3, r1
 2157 000c 18BF     		it	ne
 2158 000e 9342     		cmpne	r3, r2
 2159 0010 07D0     		beq	.L326
 2160 0012 1D4A     		ldr	r2, .L332+8
 2161 0014 9342     		cmp	r3, r2
 2162 0016 04D0     		beq	.L326
 2163 0018 40F2E251 		movw	r1, #1506
ARM GAS  C:\Users\thewo\AppData\Local\Temp\ccCADg6a.s 			page 38


 2164 001c 1B48     		ldr	r0, .L332+12
 2165 001e FFF7FEFF 		bl	assert_failed
 2166              	.L326:
 2167 0022 94F85C30 		ldrb	r3, [r4, #92]	@ zero_extendqisi2
 2168 0026 012B     		cmp	r3, #1
 2169 0028 28D0     		beq	.L330
 2170 002a 0121     		movs	r1, #1
 2171 002c 84F85C10 		strb	r1, [r4, #92]
 2172 0030 2046     		mov	r0, r4
 2173 0032 FFF7FEFF 		bl	ADC_ConversionStop
 2174 0036 88B9     		cbnz	r0, .L328
 2175 0038 236E     		ldr	r3, [r4, #96]
 2176 003a 23F48073 		bic	r3, r3, #256
 2177 003e 2366     		str	r3, [r4, #96]
 2178 0040 2268     		ldr	r2, [r4]
 2179 0042 5368     		ldr	r3, [r2, #4]
 2180 0044 23F01C03 		bic	r3, r3, #28
 2181 0048 5360     		str	r3, [r2, #4]
 2182 004a 2368     		ldr	r3, [r4]
 2183 004c 9B68     		ldr	r3, [r3, #8]
 2184 004e 13F0080F 		tst	r3, #8
 2185 0052 07D0     		beq	.L329
 2186 0054 236E     		ldr	r3, [r4, #96]
 2187 0056 43F48053 		orr	r3, r3, #4096
 2188 005a 2366     		str	r3, [r4, #96]
 2189              	.L328:
 2190 005c 0023     		movs	r3, #0
 2191 005e 84F85C30 		strb	r3, [r4, #92]
 2192              	.L327:
 2193 0062 10BD     		pop	{r4, pc}
 2194              	.L329:
 2195 0064 2046     		mov	r0, r4
 2196 0066 FFF7FEFF 		bl	ADC_Disable
 2197 006a 0028     		cmp	r0, #0
 2198 006c F6D1     		bne	.L328
 2199 006e 226E     		ldr	r2, [r4, #96]
 2200 0070 074B     		ldr	r3, .L332+16
 2201 0072 1340     		ands	r3, r3, r2
 2202 0074 43F00103 		orr	r3, r3, #1
 2203 0078 2366     		str	r3, [r4, #96]
 2204 007a EFE7     		b	.L328
 2205              	.L330:
 2206 007c 0220     		movs	r0, #2
 2207 007e F0E7     		b	.L327
 2208              	.L333:
 2209              		.align	2
 2210              	.L332:
 2211 0080 00200240 		.word	1073881088
 2212 0084 00210240 		.word	1073881344
 2213 0088 00600258 		.word	1476550656
 2214 008c 00000000 		.word	.LC0
 2215 0090 FEEFFFFF 		.word	-4098
 2217              		.section	.text.HAL_ADCEx_RegularStop_DMA,"ax",%progbits
 2218              		.align	1
 2219              		.global	HAL_ADCEx_RegularStop_DMA
 2220              		.syntax unified
 2221              		.thumb
ARM GAS  C:\Users\thewo\AppData\Local\Temp\ccCADg6a.s 			page 39


 2222              		.thumb_func
 2224              	HAL_ADCEx_RegularStop_DMA:
 2225              		@ args = 0, pretend = 0, frame = 0
 2226              		@ frame_needed = 0, uses_anonymous_args = 0
 2227 0000 38B5     		push	{r3, r4, r5, lr}
 2228 0002 0446     		mov	r4, r0
 2229 0004 0368     		ldr	r3, [r0]
 2230 0006 2A49     		ldr	r1, .L345
 2231 0008 2A4A     		ldr	r2, .L345+4
 2232 000a 8B42     		cmp	r3, r1
 2233 000c 18BF     		it	ne
 2234 000e 9342     		cmpne	r3, r2
 2235 0010 07D0     		beq	.L335
 2236 0012 294A     		ldr	r2, .L345+8
 2237 0014 9342     		cmp	r3, r2
 2238 0016 04D0     		beq	.L335
 2239 0018 40F21E61 		movw	r1, #1566
 2240 001c 2748     		ldr	r0, .L345+12
 2241 001e FFF7FEFF 		bl	assert_failed
 2242              	.L335:
 2243 0022 94F85C30 		ldrb	r3, [r4, #92]	@ zero_extendqisi2
 2244 0026 012B     		cmp	r3, #1
 2245 0028 3FD0     		beq	.L342
 2246 002a 0121     		movs	r1, #1
 2247 002c 84F85C10 		strb	r1, [r4, #92]
 2248 0030 2046     		mov	r0, r4
 2249 0032 FFF7FEFF 		bl	ADC_ConversionStop
 2250 0036 0546     		mov	r5, r0
 2251 0038 20B1     		cbz	r0, .L344
 2252              	.L337:
 2253 003a 0023     		movs	r3, #0
 2254 003c 84F85C30 		strb	r3, [r4, #92]
 2255              	.L336:
 2256 0040 2846     		mov	r0, r5
 2257 0042 38BD     		pop	{r3, r4, r5, pc}
 2258              	.L344:
 2259 0044 236E     		ldr	r3, [r4, #96]
 2260 0046 23F48073 		bic	r3, r3, #256
 2261 004a 2366     		str	r3, [r4, #96]
 2262 004c 2268     		ldr	r2, [r4]
 2263 004e D368     		ldr	r3, [r2, #12]
 2264 0050 23F00303 		bic	r3, r3, #3
 2265 0054 D360     		str	r3, [r2, #12]
 2266 0056 A06D     		ldr	r0, [r4, #88]
 2267 0058 FFF7FEFF 		bl	HAL_DMA_Abort
 2268 005c 0546     		mov	r5, r0
 2269 005e 18B1     		cbz	r0, .L338
 2270 0060 236E     		ldr	r3, [r4, #96]
 2271 0062 43F04003 		orr	r3, r3, #64
 2272 0066 2366     		str	r3, [r4, #96]
 2273              	.L338:
 2274 0068 2268     		ldr	r2, [r4]
 2275 006a 5368     		ldr	r3, [r2, #4]
 2276 006c 23F01003 		bic	r3, r3, #16
 2277 0070 5360     		str	r3, [r2, #4]
 2278 0072 2368     		ldr	r3, [r4]
 2279 0074 9B68     		ldr	r3, [r3, #8]
ARM GAS  C:\Users\thewo\AppData\Local\Temp\ccCADg6a.s 			page 40


 2280 0076 13F0080F 		tst	r3, #8
 2281 007a 04D0     		beq	.L339
 2282 007c 236E     		ldr	r3, [r4, #96]
 2283 007e 43F48053 		orr	r3, r3, #4096
 2284 0082 2366     		str	r3, [r4, #96]
 2285 0084 D9E7     		b	.L337
 2286              	.L339:
 2287 0086 65B9     		cbnz	r5, .L340
 2288 0088 2046     		mov	r0, r4
 2289 008a FFF7FEFF 		bl	ADC_Disable
 2290 008e 0546     		mov	r5, r0
 2291              	.L341:
 2292 0090 002D     		cmp	r5, #0
 2293 0092 D2D1     		bne	.L337
 2294 0094 226E     		ldr	r2, [r4, #96]
 2295 0096 0A4B     		ldr	r3, .L345+16
 2296 0098 1340     		ands	r3, r3, r2
 2297 009a 43F00103 		orr	r3, r3, #1
 2298 009e 2366     		str	r3, [r4, #96]
 2299 00a0 CBE7     		b	.L337
 2300              	.L340:
 2301 00a2 2046     		mov	r0, r4
 2302 00a4 FFF7FEFF 		bl	ADC_Disable
 2303 00a8 F2E7     		b	.L341
 2304              	.L342:
 2305 00aa 0225     		movs	r5, #2
 2306 00ac C8E7     		b	.L336
 2307              	.L346:
 2308 00ae 00BF     		.align	2
 2309              	.L345:
 2310 00b0 00200240 		.word	1073881088
 2311 00b4 00210240 		.word	1073881344
 2312 00b8 00600258 		.word	1476550656
 2313 00bc 00000000 		.word	.LC0
 2314 00c0 FEEFFFFF 		.word	-4098
 2316              		.section	.text.HAL_ADCEx_RegularMultiModeStop_DMA,"ax",%progbits
 2317              		.align	1
 2318              		.global	HAL_ADCEx_RegularMultiModeStop_DMA
 2319              		.syntax unified
 2320              		.thumb
 2321              		.thumb_func
 2323              	HAL_ADCEx_RegularMultiModeStop_DMA:
 2324              		@ args = 0, pretend = 0, frame = 112
 2325              		@ frame_needed = 0, uses_anonymous_args = 0
 2326 0000 30B5     		push	{r4, r5, lr}
 2327 0002 9DB0     		sub	sp, sp, #116
 2328 0004 0446     		mov	r4, r0
 2329 0006 0268     		ldr	r2, [r0]
 2330 0008 484B     		ldr	r3, .L370
 2331 000a 9A42     		cmp	r2, r3
 2332 000c 04D0     		beq	.L348
 2333 000e 40F27761 		movw	r1, #1655
 2334 0012 4748     		ldr	r0, .L370+4
 2335 0014 FFF7FEFF 		bl	assert_failed
 2336              	.L348:
 2337 0018 94F85C30 		ldrb	r3, [r4, #92]	@ zero_extendqisi2
 2338 001c 012B     		cmp	r3, #1
ARM GAS  C:\Users\thewo\AppData\Local\Temp\ccCADg6a.s 			page 41


 2339 001e 00F08280 		beq	.L365
 2340 0022 0121     		movs	r1, #1
 2341 0024 84F85C10 		strb	r1, [r4, #92]
 2342 0028 2046     		mov	r0, r4
 2343 002a FFF7FEFF 		bl	ADC_ConversionStop
 2344 002e 0028     		cmp	r0, #0
 2345 0030 74D1     		bne	.L350
 2346 0032 236E     		ldr	r3, [r4, #96]
 2347 0034 23F48073 		bic	r3, r3, #256
 2348 0038 2366     		str	r3, [r4, #96]
 2349 003a 0023     		movs	r3, #0
 2350 003c 1893     		str	r3, [sp, #96]
 2351 003e 1993     		str	r3, [sp, #100]
 2352 0040 2268     		ldr	r2, [r4]
 2353 0042 3A4B     		ldr	r3, .L370
 2354 0044 9A42     		cmp	r2, r3
 2355 0046 0DD0     		beq	.L367
 2356 0048 0023     		movs	r3, #0
 2357 004a 0093     		str	r3, [sp]
 2358              	.L352:
 2359 004c 009B     		ldr	r3, [sp]
 2360 004e 6BB1     		cbz	r3, .L368
 2361 0050 FFF7FEFF 		bl	HAL_GetTick
 2362 0054 0546     		mov	r5, r0
 2363 0056 009B     		ldr	r3, [sp]
 2364 0058 9B68     		ldr	r3, [r3, #8]
 2365 005a 13F00403 		ands	r3, r3, #4
 2366 005e 13D0     		beq	.L361
 2367 0060 0123     		movs	r3, #1
 2368 0062 11E0     		b	.L361
 2369              	.L367:
 2370 0064 03F58073 		add	r3, r3, #256
 2371 0068 0093     		str	r3, [sp]
 2372 006a EFE7     		b	.L352
 2373              	.L368:
 2374 006c 236E     		ldr	r3, [r4, #96]
 2375 006e 43F02003 		orr	r3, r3, #32
 2376 0072 2366     		str	r3, [r4, #96]
 2377 0074 0023     		movs	r3, #0
 2378 0076 84F85C30 		strb	r3, [r4, #92]
 2379 007a 0120     		movs	r0, #1
 2380 007c 51E0     		b	.L349
 2381              	.L356:
 2382 007e 009B     		ldr	r3, [sp]
 2383 0080 9B68     		ldr	r3, [r3, #8]
 2384 0082 13F00403 		ands	r3, r3, #4
 2385 0086 21D1     		bne	.L359
 2386              	.L361:
 2387 0088 2268     		ldr	r2, [r4]
 2388 008a 9268     		ldr	r2, [r2, #8]
 2389 008c 12F0040F 		tst	r2, #4
 2390 0090 01D1     		bne	.L362
 2391 0092 012B     		cmp	r3, #1
 2392 0094 1CD1     		bne	.L369
 2393              	.L362:
 2394 0096 FFF7FEFF 		bl	HAL_GetTick
 2395 009a 431B     		subs	r3, r0, r5
ARM GAS  C:\Users\thewo\AppData\Local\Temp\ccCADg6a.s 			page 42


 2396 009c 052B     		cmp	r3, #5
 2397 009e EED9     		bls	.L356
 2398 00a0 009B     		ldr	r3, [sp]
 2399 00a2 9B68     		ldr	r3, [r3, #8]
 2400 00a4 13F00403 		ands	r3, r3, #4
 2401 00a8 00D0     		beq	.L357
 2402 00aa 0123     		movs	r3, #1
 2403              	.L357:
 2404 00ac 2268     		ldr	r2, [r4]
 2405 00ae 9268     		ldr	r2, [r2, #8]
 2406 00b0 12F0040F 		tst	r2, #4
 2407 00b4 01D1     		bne	.L358
 2408 00b6 012B     		cmp	r3, #1
 2409 00b8 E1D1     		bne	.L356
 2410              	.L358:
 2411 00ba 236E     		ldr	r3, [r4, #96]
 2412 00bc 43F01003 		orr	r3, r3, #16
 2413 00c0 2366     		str	r3, [r4, #96]
 2414 00c2 0023     		movs	r3, #0
 2415 00c4 84F85C30 		strb	r3, [r4, #92]
 2416 00c8 0120     		movs	r0, #1
 2417 00ca 2AE0     		b	.L349
 2418              	.L359:
 2419 00cc 0123     		movs	r3, #1
 2420 00ce DBE7     		b	.L361
 2421              	.L369:
 2422 00d0 A06D     		ldr	r0, [r4, #88]
 2423 00d2 FFF7FEFF 		bl	HAL_DMA_Abort
 2424 00d6 18B1     		cbz	r0, .L363
 2425 00d8 236E     		ldr	r3, [r4, #96]
 2426 00da 43F04003 		orr	r3, r3, #64
 2427 00de 2366     		str	r3, [r4, #96]
 2428              	.L363:
 2429 00e0 2268     		ldr	r2, [r4]
 2430 00e2 5368     		ldr	r3, [r2, #4]
 2431 00e4 23F01003 		bic	r3, r3, #16
 2432 00e8 5360     		str	r3, [r2, #4]
 2433 00ea B8B9     		cbnz	r0, .L350
 2434 00ec 2368     		ldr	r3, [r4]
 2435 00ee 9B68     		ldr	r3, [r3, #8]
 2436 00f0 13F0080F 		tst	r3, #8
 2437 00f4 0BD1     		bne	.L364
 2438 00f6 2046     		mov	r0, r4
 2439 00f8 FFF7FEFF 		bl	ADC_Disable
 2440 00fc 70B9     		cbnz	r0, .L350
 2441 00fe 009B     		ldr	r3, [sp]
 2442 0100 9B68     		ldr	r3, [r3, #8]
 2443 0102 13F0080F 		tst	r3, #8
 2444 0106 02D1     		bne	.L364
 2445 0108 6846     		mov	r0, sp
 2446 010a FFF7FEFF 		bl	ADC_Disable
 2447              	.L364:
 2448 010e 28B9     		cbnz	r0, .L350
 2449 0110 226E     		ldr	r2, [r4, #96]
 2450 0112 084B     		ldr	r3, .L370+8
 2451 0114 1340     		ands	r3, r3, r2
 2452 0116 43F00103 		orr	r3, r3, #1
ARM GAS  C:\Users\thewo\AppData\Local\Temp\ccCADg6a.s 			page 43


 2453 011a 2366     		str	r3, [r4, #96]
 2454              	.L350:
 2455 011c 0023     		movs	r3, #0
 2456 011e 84F85C30 		strb	r3, [r4, #92]
 2457              	.L349:
 2458 0122 1DB0     		add	sp, sp, #116
 2459              		@ sp needed
 2460 0124 30BD     		pop	{r4, r5, pc}
 2461              	.L365:
 2462 0126 0220     		movs	r0, #2
 2463 0128 FBE7     		b	.L349
 2464              	.L371:
 2465 012a 00BF     		.align	2
 2466              	.L370:
 2467 012c 00200240 		.word	1073881088
 2468 0130 00000000 		.word	.LC0
 2469 0134 FEEFFFFF 		.word	-4098
 2471              		.section	.text.HAL_ADCEx_InjectedConfigChannel,"ax",%progbits
 2472              		.align	1
 2473              		.global	HAL_ADCEx_InjectedConfigChannel
 2474              		.syntax unified
 2475              		.thumb
 2476              		.thumb_func
 2478              	HAL_ADCEx_InjectedConfigChannel:
 2479              		@ args = 0, pretend = 0, frame = 8
 2480              		@ frame_needed = 0, uses_anonymous_args = 0
 2481 0000 F0B5     		push	{r4, r5, r6, r7, lr}
 2482 0002 83B0     		sub	sp, sp, #12
 2483 0004 0546     		mov	r5, r0
 2484 0006 0C46     		mov	r4, r1
 2485 0008 0023     		movs	r3, #0
 2486 000a 0193     		str	r3, [sp, #4]
 2487 000c 0368     		ldr	r3, [r0]
 2488 000e B249     		ldr	r1, .L587
 2489 0010 B24A     		ldr	r2, .L587+4
 2490 0012 8B42     		cmp	r3, r1
 2491 0014 18BF     		it	ne
 2492 0016 9342     		cmpne	r3, r2
 2493 0018 07D0     		beq	.L373
 2494 001a B14A     		ldr	r2, .L587+8
 2495 001c 9342     		cmp	r3, r2
 2496 001e 04D0     		beq	.L373
 2497 0020 40F23371 		movw	r1, #1843
 2498 0024 AF48     		ldr	r0, .L587+12
 2499 0026 FFF7FEFF 		bl	assert_failed
 2500              	.L373:
 2501 002a A368     		ldr	r3, [r4, #8]
 2502 002c 072B     		cmp	r3, #7
 2503 002e 31D8     		bhi	.L533
 2504              	.L374:
 2505 0030 E368     		ldr	r3, [r4, #12]
 2506 0032 40F2FF71 		movw	r1, #2047
 2507 0036 AC4A     		ldr	r2, .L587+16
 2508 0038 8B42     		cmp	r3, r1
 2509 003a 18BF     		it	ne
 2510 003c 9342     		cmpne	r3, r2
 2511 003e 2FD1     		bne	.L534
ARM GAS  C:\Users\thewo\AppData\Local\Temp\ccCADg6a.s 			page 44


 2512              	.L375:
 2513 0040 94F82930 		ldrb	r3, [r4, #41]	@ zero_extendqisi2
 2514 0044 012B     		cmp	r3, #1
 2515 0046 31D8     		bhi	.L535
 2516              	.L376:
 2517 0048 94F82A30 		ldrb	r3, [r4, #42]	@ zero_extendqisi2
 2518 004c 012B     		cmp	r3, #1
 2519 004e 33D8     		bhi	.L536
 2520              	.L377:
 2521 0050 236B     		ldr	r3, [r4, #48]
 2522 0052 002B     		cmp	r3, #0
 2523 0054 18BF     		it	ne
 2524 0056 802B     		cmpne	r3, #128
 2525 0058 05D0     		beq	.L378
 2526 005a B3F5807F 		cmp	r3, #256
 2527 005e 02D0     		beq	.L378
 2528 0060 B3F5C07F 		cmp	r3, #384
 2529 0064 2ED1     		bne	.L537
 2530              	.L378:
 2531 0066 E36A     		ldr	r3, [r4, #44]
 2532 0068 802B     		cmp	r3, #128
 2533 006a 18BF     		it	ne
 2534 006c 842B     		cmpne	r3, #132
 2535 006e 3AD0     		beq	.L379
 2536 0070 B02B     		cmp	r3, #176
 2537 0072 00F21B81 		bhi	.L380
 2538 0076 942B     		cmp	r3, #148
 2539 0078 2AD2     		bcs	.L381
 2540 007a 902B     		cmp	r3, #144
 2541 007c 30D8     		bhi	.L382
 2542 007e 882B     		cmp	r3, #136
 2543 0080 2ED3     		bcc	.L382
 2544 0082 A3F18801 		sub	r1, r3, #136
 2545 0086 40F21112 		movw	r2, #273
 2546 008a CA40     		lsrs	r2, r2, r1
 2547 008c 12F0010F 		tst	r2, #1
 2548 0090 29D1     		bne	.L379
 2549 0092 25E0     		b	.L382
 2550              	.L533:
 2551 0094 40F23471 		movw	r1, #1844
 2552 0098 9248     		ldr	r0, .L587+12
 2553 009a FFF7FEFF 		bl	assert_failed
 2554 009e C7E7     		b	.L374
 2555              	.L534:
 2556 00a0 40F23571 		movw	r1, #1845
 2557 00a4 8F48     		ldr	r0, .L587+12
 2558 00a6 FFF7FEFF 		bl	assert_failed
 2559 00aa C9E7     		b	.L375
 2560              	.L535:
 2561 00ac 40F23671 		movw	r1, #1846
 2562 00b0 8C48     		ldr	r0, .L587+12
 2563 00b2 FFF7FEFF 		bl	assert_failed
 2564 00b6 C7E7     		b	.L376
 2565              	.L536:
 2566 00b8 40F23771 		movw	r1, #1847
 2567 00bc 8948     		ldr	r0, .L587+12
 2568 00be FFF7FEFF 		bl	assert_failed
ARM GAS  C:\Users\thewo\AppData\Local\Temp\ccCADg6a.s 			page 45


 2569 00c2 C5E7     		b	.L377
 2570              	.L537:
 2571 00c4 4FF4E761 		mov	r1, #1848
 2572 00c8 8648     		ldr	r0, .L587+12
 2573 00ca FFF7FEFF 		bl	assert_failed
 2574 00ce CAE7     		b	.L378
 2575              	.L381:
 2576 00d0 A3F19401 		sub	r1, r3, #148
 2577 00d4 4FF01132 		mov	r2, #286331153
 2578 00d8 CA40     		lsrs	r2, r2, r1
 2579 00da 12F0010F 		tst	r2, #1
 2580 00de 02D1     		bne	.L379
 2581              	.L382:
 2582 00e0 002B     		cmp	r3, #0
 2583 00e2 40F0F280 		bne	.L538
 2584              	.L379:
 2585 00e6 2369     		ldr	r3, [r4, #16]
 2586 00e8 042B     		cmp	r3, #4
 2587 00ea 18BF     		it	ne
 2588 00ec 002B     		cmpne	r3, #0
 2589 00ee 03D0     		beq	.L385
 2590 00f0 013B     		subs	r3, r3, #1
 2591 00f2 022B     		cmp	r3, #2
 2592 00f4 00F21E81 		bhi	.L539
 2593              	.L385:
 2594 00f8 94F83430 		ldrb	r3, [r4, #52]	@ zero_extendqisi2
 2595 00fc 012B     		cmp	r3, #1
 2596 00fe 00F21F81 		bhi	.L540
 2597              	.L386:
 2598 0102 94F82030 		ldrb	r3, [r4, #32]	@ zero_extendqisi2
 2599 0106 012B     		cmp	r3, #1
 2600 0108 00F22081 		bhi	.L541
 2601              	.L387:
 2602 010c 2A68     		ldr	r2, [r5]
 2603 010e 744B     		ldr	r3, .L587+8
 2604 0110 9A42     		cmp	r2, r3
 2605 0112 00F02181 		beq	.L542
 2606 0116 6169     		ldr	r1, [r4, #20]
 2607 0118 D368     		ldr	r3, [r2, #12]
 2608 011a 03F01C03 		and	r3, r3, #28
 2609 011e 1C2B     		cmp	r3, #28
 2610 0120 02D0     		beq	.L393
 2611 0122 D368     		ldr	r3, [r2, #12]
 2612 0124 03F01C03 		and	r3, r3, #28
 2613              	.L393:
 2614 0128 5B08     		lsrs	r3, r3, #1
 2615 012a 4FF6FF72 		movw	r2, #65535
 2616 012e 22FA03F3 		lsr	r3, r2, r3
 2617 0132 9942     		cmp	r1, r3
 2618 0134 00F23B81 		bhi	.L543
 2619              	.L392:
 2620 0138 2B69     		ldr	r3, [r5, #16]
 2621 013a CBB1     		cbz	r3, .L394
 2622 013c 6368     		ldr	r3, [r4, #4]
 2623 013e 40F20F12 		movw	r2, #271
 2624 0142 092B     		cmp	r3, #9
 2625 0144 18BF     		it	ne
ARM GAS  C:\Users\thewo\AppData\Local\Temp\ccCADg6a.s 			page 46


 2626 0146 9342     		cmpne	r3, r2
 2627 0148 08D0     		beq	.L395
 2628 014a 40F21522 		movw	r2, #533
 2629 014e 9342     		cmp	r3, r2
 2630 0150 04D0     		beq	.L395
 2631 0152 40F21B32 		movw	r2, #795
 2632 0156 9342     		cmp	r3, r2
 2633 0158 40F02F81 		bne	.L544
 2634              	.L395:
 2635 015c 636A     		ldr	r3, [r4, #36]
 2636 015e 013B     		subs	r3, r3, #1
 2637 0160 032B     		cmp	r3, #3
 2638 0162 00F23081 		bhi	.L545
 2639              	.L396:
 2640 0166 94F82830 		ldrb	r3, [r4, #40]	@ zero_extendqisi2
 2641 016a 012B     		cmp	r3, #1
 2642 016c 00F23181 		bhi	.L546
 2643              	.L394:
 2644 0170 95F84430 		ldrb	r3, [r5, #68]	@ zero_extendqisi2
 2645 0174 012B     		cmp	r3, #1
 2646 0176 00F03281 		beq	.L547
 2647 017a 6169     		ldr	r1, [r4, #20]
 2648 017c 2A68     		ldr	r2, [r5]
 2649 017e 584B     		ldr	r3, .L587+8
 2650 0180 9A42     		cmp	r2, r3
 2651 0182 00F04F81 		beq	.L548
 2652 0186 D368     		ldr	r3, [r2, #12]
 2653 0188 03F01C03 		and	r3, r3, #28
 2654 018c 1C2B     		cmp	r3, #28
 2655 018e 02D0     		beq	.L402
 2656 0190 D368     		ldr	r3, [r2, #12]
 2657 0192 03F01C03 		and	r3, r3, #28
 2658              	.L402:
 2659 0196 5B08     		lsrs	r3, r3, #1
 2660 0198 4FF6FF72 		movw	r2, #65535
 2661 019c 22FA03F3 		lsr	r3, r2, r3
 2662 01a0 9942     		cmp	r1, r3
 2663 01a2 00F24381 		bhi	.L549
 2664              	.L400:
 2665 01a6 2A68     		ldr	r2, [r5]
 2666 01a8 4D4B     		ldr	r3, .L587+8
 2667 01aa 9A42     		cmp	r2, r3
 2668 01ac 00F04481 		beq	.L550
 2669              	.L403:
 2670 01b0 228D     		ldrh	r2, [r4, #40]
 2671 01b2 40F20113 		movw	r3, #257
 2672 01b6 9A42     		cmp	r2, r3
 2673 01b8 00F04D81 		beq	.L551
 2674              	.L404:
 2675 01bc 95F82030 		ldrb	r3, [r5, #32]	@ zero_extendqisi2
 2676 01c0 012B     		cmp	r3, #1
 2677 01c2 00F04E81 		beq	.L552
 2678              	.L405:
 2679 01c6 E268     		ldr	r2, [r4, #12]
 2680 01c8 474B     		ldr	r3, .L587+16
 2681 01ca 9A42     		cmp	r2, r3
 2682 01cc 00F05481 		beq	.L406
ARM GAS  C:\Users\thewo\AppData\Local\Temp\ccCADg6a.s 			page 47


 2683 01d0 2368     		ldr	r3, [r4]
 2684 01d2 464A     		ldr	r2, .L587+20
 2685 01d4 012B     		cmp	r3, #1
 2686 01d6 18BF     		it	ne
 2687 01d8 9342     		cmpne	r3, r2
 2688 01da 00F05981 		beq	.L407
 2689 01de 444A     		ldr	r2, .L587+24
 2690 01e0 9342     		cmp	r3, r2
 2691 01e2 00F05581 		beq	.L407
 2692 01e6 434A     		ldr	r2, .L587+28
 2693 01e8 9342     		cmp	r3, r2
 2694 01ea 00F05181 		beq	.L407
 2695 01ee 424A     		ldr	r2, .L587+32
 2696 01f0 9342     		cmp	r3, r2
 2697 01f2 00F04D81 		beq	.L407
 2698 01f6 02F18662 		add	r2, r2, #70254592
 2699 01fa 1032     		adds	r2, r2, #16
 2700 01fc 9342     		cmp	r3, r2
 2701 01fe 00F04781 		beq	.L407
 2702 0202 3E4A     		ldr	r2, .L587+36
 2703 0204 9342     		cmp	r3, r2
 2704 0206 00F04381 		beq	.L407
 2705 020a 02F18662 		add	r2, r2, #70254592
 2706 020e 4032     		adds	r2, r2, #64
 2707 0210 9342     		cmp	r3, r2
 2708 0212 00F03D81 		beq	.L407
 2709 0216 3A4A     		ldr	r2, .L587+40
 2710 0218 9342     		cmp	r3, r2
 2711 021a 00F03981 		beq	.L407
 2712 021e 02F18662 		add	r2, r2, #70254592
 2713 0222 02F58072 		add	r2, r2, #256
 2714 0226 9342     		cmp	r3, r2
 2715 0228 00F03281 		beq	.L407
 2716 022c 354A     		ldr	r2, .L587+44
 2717 022e 9342     		cmp	r3, r2
 2718 0230 00F02E81 		beq	.L407
 2719 0234 02F10422 		add	r2, r2, #67109888
 2720 0238 02F54012 		add	r2, r2, #3145728
 2721 023c 9342     		cmp	r3, r2
 2722 023e 00F02781 		beq	.L407
 2723 0242 02F18662 		add	r2, r2, #70254592
 2724 0246 02F50062 		add	r2, r2, #2048
 2725 024a 9342     		cmp	r3, r2
 2726 024c 00F02081 		beq	.L407
 2727 0250 2D4A     		ldr	r2, .L587+48
 2728 0252 9342     		cmp	r3, r2
 2729 0254 00F01C81 		beq	.L407
 2730 0258 2C4A     		ldr	r2, .L587+52
 2731 025a 9342     		cmp	r3, r2
 2732 025c 00F01881 		beq	.L407
 2733 0260 2B4A     		ldr	r2, .L587+56
 2734 0262 9342     		cmp	r3, r2
 2735 0264 00F01481 		beq	.L407
 2736 0268 2A4A     		ldr	r2, .L587+60
 2737 026a 9342     		cmp	r3, r2
 2738 026c 00F01081 		beq	.L407
 2739 0270 294A     		ldr	r2, .L587+64
ARM GAS  C:\Users\thewo\AppData\Local\Temp\ccCADg6a.s 			page 48


 2740 0272 9342     		cmp	r3, r2
 2741 0274 00F00C81 		beq	.L407
 2742 0278 284A     		ldr	r2, .L587+68
 2743 027a 9342     		cmp	r3, r2
 2744 027c 00F00881 		beq	.L407
 2745 0280 274A     		ldr	r2, .L587+72
 2746 0282 9342     		cmp	r3, r2
 2747 0284 00F00481 		beq	.L407
 2748 0288 264A     		ldr	r2, .L587+76
 2749 028a 9342     		cmp	r3, r2
 2750 028c 00F00081 		beq	.L407
 2751 0290 254A     		ldr	r2, .L587+80
 2752 0292 9342     		cmp	r3, r2
 2753 0294 00F0FC80 		beq	.L407
 2754 0298 244A     		ldr	r2, .L587+84
 2755 029a 9342     		cmp	r3, r2
 2756 029c 00F0F880 		beq	.L407
 2757 02a0 40F26A71 		movw	r1, #1898
 2758 02a4 0F48     		ldr	r0, .L587+12
 2759 02a6 FFF7FEFF 		bl	assert_failed
 2760 02aa F1E0     		b	.L407
 2761              	.L380:
 2762 02ac D02B     		cmp	r3, #208
 2763 02ae 3FF617AF 		bhi	.L382
 2764 02b2 B42B     		cmp	r3, #180
 2765 02b4 FFF414AF 		bcc	.L382
 2766 02b8 A3F1B401 		sub	r1, r3, #180
 2767 02bc 1C4A     		ldr	r2, .L587+88
 2768 02be CA40     		lsrs	r2, r2, r1
 2769 02c0 12F0010F 		tst	r2, #1
 2770 02c4 7FF40FAF 		bne	.L379
 2771 02c8 0AE7     		b	.L382
 2772              	.L538:
 2773 02ca 40F23971 		movw	r1, #1849
 2774 02ce 0548     		ldr	r0, .L587+12
 2775 02d0 FFF7FEFF 		bl	assert_failed
 2776 02d4 07E7     		b	.L379
 2777              	.L588:
 2778 02d6 00BF     		.align	2
 2779              	.L587:
 2780 02d8 00200240 		.word	1073881088
 2781 02dc 00210240 		.word	1073881344
 2782 02e0 00600258 		.word	1476550656
 2783 02e4 00000000 		.word	.LC0
 2784 02e8 0000FF47 		.word	1207894016
 2785 02ec 02003004 		.word	70254594
 2786 02f0 04006008 		.word	140509188
 2787 02f4 0800900C 		.word	210763784
 2788 02f8 1000C010 		.word	281018384
 2789 02fc 40002019 		.word	421527616
 2790 0300 00018021 		.word	562036992
 2791 0304 0004002A 		.word	704644096
 2792 0308 00209036 		.word	915415040
 2793 030c 0040C03A 		.word	985677824
 2794 0310 0080F03E 		.word	1055948800
 2795 0314 00002143 		.word	1126236160
 2796 0318 00005247 		.word	1196556288
ARM GAS  C:\Users\thewo\AppData\Local\Temp\ccCADg6a.s 			page 49


 2797 031c 0000844B 		.word	1266941952
 2798 0320 0000B84F 		.word	1337458688
 2799 0324 000052C7 		.word	-950927360
 2800 0328 000021C3 		.word	-1021247488
 2801 032c 000084CB 		.word	-880541696
 2802 0330 11011011 		.word	286261521
 2803              	.L539:
 2804 0334 40F23A71 		movw	r1, #1850
 2805 0338 AC48     		ldr	r0, .L589
 2806 033a FFF7FEFF 		bl	assert_failed
 2807 033e DBE6     		b	.L385
 2808              	.L540:
 2809 0340 40F23B71 		movw	r1, #1851
 2810 0344 A948     		ldr	r0, .L589
 2811 0346 FFF7FEFF 		bl	assert_failed
 2812 034a DAE6     		b	.L386
 2813              	.L541:
 2814 034c 40F23D71 		movw	r1, #1853
 2815 0350 A648     		ldr	r0, .L589
 2816 0352 FFF7FEFF 		bl	assert_failed
 2817 0356 D9E6     		b	.L387
 2818              	.L542:
 2819 0358 E369     		ldr	r3, [r4, #28]
 2820 035a 002B     		cmp	r3, #0
 2821 035c 18BF     		it	ne
 2822 035e B3F1807F 		cmpne	r3, #16777216
 2823 0362 1AD1     		bne	.L553
 2824              	.L389:
 2825 0364 6169     		ldr	r1, [r4, #20]
 2826 0366 2A68     		ldr	r2, [r5]
 2827 0368 A14B     		ldr	r3, .L589+4
 2828 036a 9A42     		cmp	r2, r3
 2829 036c 1BD0     		beq	.L554
 2830 036e D368     		ldr	r3, [r2, #12]
 2831 0370 03F01C03 		and	r3, r3, #28
 2832 0374 1C2B     		cmp	r3, #28
 2833 0376 02D0     		beq	.L391
 2834 0378 D368     		ldr	r3, [r2, #12]
 2835 037a 03F01C03 		and	r3, r3, #28
 2836              	.L391:
 2837 037e 9B08     		lsrs	r3, r3, #2
 2838 0380 40F6FF72 		movw	r2, #4095
 2839 0384 22FA03F3 		lsr	r3, r2, r3
 2840 0388 9942     		cmp	r1, r3
 2841 038a 7FF6D5AE 		bls	.L392
 2842 038e 40F24171 		movw	r1, #1857
 2843 0392 9648     		ldr	r0, .L589
 2844 0394 FFF7FEFF 		bl	assert_failed
 2845 0398 CEE6     		b	.L392
 2846              	.L553:
 2847 039a 4FF4E861 		mov	r1, #1856
 2848 039e 9348     		ldr	r0, .L589
 2849 03a0 FFF7FEFF 		bl	assert_failed
 2850 03a4 DEE7     		b	.L389
 2851              	.L554:
 2852 03a6 D368     		ldr	r3, [r2, #12]
 2853 03a8 03F01803 		and	r3, r3, #24
ARM GAS  C:\Users\thewo\AppData\Local\Temp\ccCADg6a.s 			page 50


 2854 03ac E7E7     		b	.L391
 2855              	.L543:
 2856 03ae 40F24671 		movw	r1, #1862
 2857 03b2 8E48     		ldr	r0, .L589
 2858 03b4 FFF7FEFF 		bl	assert_failed
 2859 03b8 BEE6     		b	.L392
 2860              	.L544:
 2861 03ba 40F24B71 		movw	r1, #1867
 2862 03be 8B48     		ldr	r0, .L589
 2863 03c0 FFF7FEFF 		bl	assert_failed
 2864 03c4 CAE6     		b	.L395
 2865              	.L545:
 2866 03c6 40F24C71 		movw	r1, #1868
 2867 03ca 8848     		ldr	r0, .L589
 2868 03cc FFF7FEFF 		bl	assert_failed
 2869 03d0 C9E6     		b	.L396
 2870              	.L546:
 2871 03d2 40F24D71 		movw	r1, #1869
 2872 03d6 8548     		ldr	r0, .L589
 2873 03d8 FFF7FEFF 		bl	assert_failed
 2874 03dc C8E6     		b	.L394
 2875              	.L547:
 2876 03de 6369     		ldr	r3, [r4, #20]
 2877 03e0 AA6C     		ldr	r2, [r5, #72]
 2878 03e2 0132     		adds	r2, r2, #1
 2879 03e4 B3FBF2F1 		udiv	r1, r3, r2
 2880 03e8 2A68     		ldr	r2, [r5]
 2881 03ea 814B     		ldr	r3, .L589+4
 2882 03ec 9A42     		cmp	r2, r3
 2883 03ee 15D0     		beq	.L555
 2884 03f0 D368     		ldr	r3, [r2, #12]
 2885 03f2 03F01C03 		and	r3, r3, #28
 2886 03f6 1C2B     		cmp	r3, #28
 2887 03f8 02D0     		beq	.L399
 2888 03fa D368     		ldr	r3, [r2, #12]
 2889 03fc 03F01C03 		and	r3, r3, #28
 2890              	.L399:
 2891 0400 5B08     		lsrs	r3, r3, #1
 2892 0402 4FF6FF72 		movw	r2, #65535
 2893 0406 22FA03F3 		lsr	r3, r2, r3
 2894 040a 9942     		cmp	r1, r3
 2895 040c 7FF6CBAE 		bls	.L400
 2896 0410 40F25371 		movw	r1, #1875
 2897 0414 7548     		ldr	r0, .L589
 2898 0416 FFF7FEFF 		bl	assert_failed
 2899 041a C4E6     		b	.L400
 2900              	.L555:
 2901 041c D368     		ldr	r3, [r2, #12]
 2902 041e 03F01803 		and	r3, r3, #24
 2903 0422 EDE7     		b	.L399
 2904              	.L548:
 2905 0424 D368     		ldr	r3, [r2, #12]
 2906 0426 03F01803 		and	r3, r3, #24
 2907 042a B4E6     		b	.L402
 2908              	.L549:
 2909 042c 40F25771 		movw	r1, #1879
 2910 0430 6E48     		ldr	r0, .L589
ARM GAS  C:\Users\thewo\AppData\Local\Temp\ccCADg6a.s 			page 51


 2911 0432 FFF7FEFF 		bl	assert_failed
 2912 0436 B6E6     		b	.L400
 2913              	.L550:
 2914 0438 2369     		ldr	r3, [r4, #16]
 2915 043a 042B     		cmp	r3, #4
 2916 043c 3FF4B8AE 		beq	.L403
 2917 0440 94F83430 		ldrb	r3, [r4, #52]	@ zero_extendqisi2
 2918 0444 012B     		cmp	r3, #1
 2919 0446 7FF4B3AE 		bne	.L403
 2920 044a 40F25E71 		movw	r1, #1886
 2921 044e 6748     		ldr	r0, .L589
 2922 0450 FFF7FEFF 		bl	assert_failed
 2923 0454 ACE6     		b	.L403
 2924              	.L551:
 2925 0456 40F26271 		movw	r1, #1890
 2926 045a 6448     		ldr	r0, .L589
 2927 045c FFF7FEFF 		bl	assert_failed
 2928 0460 ACE6     		b	.L404
 2929              	.L552:
 2930 0462 94F82930 		ldrb	r3, [r4, #41]	@ zero_extendqisi2
 2931 0466 012B     		cmp	r3, #1
 2932 0468 7FF4ADAE 		bne	.L405
 2933 046c 40F26571 		movw	r1, #1893
 2934 0470 5E48     		ldr	r0, .L589
 2935 0472 FFF7FEFF 		bl	assert_failed
 2936 0476 A6E6     		b	.L405
 2937              	.L406:
 2938 0478 2A68     		ldr	r2, [r5]
 2939 047a 5E4B     		ldr	r3, .L589+8
 2940 047c 9A42     		cmp	r2, r3
 2941 047e 2AD0     		beq	.L556
 2942              	.L408:
 2943 0480 2A68     		ldr	r2, [r5]
 2944 0482 5D4B     		ldr	r3, .L589+12
 2945 0484 9A42     		cmp	r2, r3
 2946 0486 53D0     		beq	.L557
 2947              	.L409:
 2948 0488 2A68     		ldr	r2, [r5]
 2949 048a 594B     		ldr	r3, .L589+4
 2950 048c 9A42     		cmp	r2, r3
 2951 048e 79D0     		beq	.L558
 2952              	.L407:
 2953 0490 95F85C30 		ldrb	r3, [r5, #92]	@ zero_extendqisi2
 2954 0494 012B     		cmp	r3, #1
 2955 0496 00F09184 		beq	.L493
 2956 049a 0123     		movs	r3, #1
 2957 049c 85F85C30 		strb	r3, [r5, #92]
 2958 04a0 2B69     		ldr	r3, [r5, #16]
 2959 04a2 002B     		cmp	r3, #0
 2960 04a4 00F0BE80 		beq	.L411
 2961 04a8 636A     		ldr	r3, [r4, #36]
 2962 04aa 012B     		cmp	r3, #1
 2963 04ac 00F0BA80 		beq	.L411
 2964 04b0 EA6E     		ldr	r2, [r5, #108]
 2965 04b2 002A     		cmp	r2, #0
 2966 04b4 40F04B81 		bne	.L494
 2967 04b8 EB66     		str	r3, [r5, #108]
ARM GAS  C:\Users\thewo\AppData\Local\Temp\ccCADg6a.s 			page 52


 2968 04ba 0023     		movs	r3, #0
 2969 04bc AB66     		str	r3, [r5, #104]
 2970 04be E36A     		ldr	r3, [r4, #44]
 2971 04c0 002B     		cmp	r3, #0
 2972 04c2 00F04181 		beq	.L417
 2973 04c6 626A     		ldr	r2, [r4, #36]
 2974 04c8 013A     		subs	r2, r2, #1
 2975 04ca 03F07C03 		and	r3, r3, #124
 2976 04ce 1A43     		orrs	r2, r2, r3
 2977 04d0 236B     		ldr	r3, [r4, #48]
 2978 04d2 1A43     		orrs	r2, r2, r3
 2979 04d4 3CE1     		b	.L416
 2980              	.L556:
 2981 04d6 2368     		ldr	r3, [r4]
 2982 04d8 4849     		ldr	r1, .L589+16
 2983 04da 494A     		ldr	r2, .L589+20
 2984 04dc 8B42     		cmp	r3, r1
 2985 04de 18BF     		it	ne
 2986 04e0 9342     		cmpne	r3, r2
 2987 04e2 CDD0     		beq	.L408
 2988 04e4 474A     		ldr	r2, .L589+24
 2989 04e6 9342     		cmp	r3, r2
 2990 04e8 CAD0     		beq	.L408
 2991 04ea 474A     		ldr	r2, .L589+28
 2992 04ec 9342     		cmp	r3, r2
 2993 04ee C7D0     		beq	.L408
 2994 04f0 02F18662 		add	r2, r2, #70254592
 2995 04f4 1032     		adds	r2, r2, #16
 2996 04f6 9342     		cmp	r3, r2
 2997 04f8 C2D0     		beq	.L408
 2998 04fa 444A     		ldr	r2, .L589+32
 2999 04fc 9342     		cmp	r3, r2
 3000 04fe BFD0     		beq	.L408
 3001 0500 02F10422 		add	r2, r2, #67109888
 3002 0504 02F54012 		add	r2, r2, #3145728
 3003 0508 9342     		cmp	r3, r2
 3004 050a B9D0     		beq	.L408
 3005 050c 02F18662 		add	r2, r2, #70254592
 3006 0510 02F50062 		add	r2, r2, #2048
 3007 0514 9342     		cmp	r3, r2
 3008 0516 B3D0     		beq	.L408
 3009 0518 3D4A     		ldr	r2, .L589+36
 3010 051a 9342     		cmp	r3, r2
 3011 051c B0D0     		beq	.L408
 3012 051e 3D4A     		ldr	r2, .L589+40
 3013 0520 9342     		cmp	r3, r2
 3014 0522 ADD0     		beq	.L408
 3015 0524 4FF4EE61 		mov	r1, #1904
 3016 0528 3048     		ldr	r0, .L589
 3017 052a FFF7FEFF 		bl	assert_failed
 3018 052e A7E7     		b	.L408
 3019              	.L557:
 3020 0530 2368     		ldr	r3, [r4]
 3021 0532 3249     		ldr	r1, .L589+16
 3022 0534 324A     		ldr	r2, .L589+20
 3023 0536 8B42     		cmp	r3, r1
 3024 0538 18BF     		it	ne
ARM GAS  C:\Users\thewo\AppData\Local\Temp\ccCADg6a.s 			page 53


 3025 053a 9342     		cmpne	r3, r2
 3026 053c A4D0     		beq	.L409
 3027 053e 314A     		ldr	r2, .L589+24
 3028 0540 9342     		cmp	r3, r2
 3029 0542 A1D0     		beq	.L409
 3030 0544 304A     		ldr	r2, .L589+28
 3031 0546 9342     		cmp	r3, r2
 3032 0548 9ED0     		beq	.L409
 3033 054a 02F18662 		add	r2, r2, #70254592
 3034 054e 1032     		adds	r2, r2, #16
 3035 0550 9342     		cmp	r3, r2
 3036 0552 99D0     		beq	.L409
 3037 0554 2D4A     		ldr	r2, .L589+32
 3038 0556 9342     		cmp	r3, r2
 3039 0558 96D0     		beq	.L409
 3040 055a 02F10422 		add	r2, r2, #67109888
 3041 055e 02F54012 		add	r2, r2, #3145728
 3042 0562 9342     		cmp	r3, r2
 3043 0564 90D0     		beq	.L409
 3044 0566 02F18662 		add	r2, r2, #70254592
 3045 056a 02F50062 		add	r2, r2, #2048
 3046 056e 9342     		cmp	r3, r2
 3047 0570 8AD0     		beq	.L409
 3048 0572 284A     		ldr	r2, .L589+40
 3049 0574 9342     		cmp	r3, r2
 3050 0576 87D0     		beq	.L409
 3051 0578 40F27471 		movw	r1, #1908
 3052 057c 1B48     		ldr	r0, .L589
 3053 057e FFF7FEFF 		bl	assert_failed
 3054 0582 81E7     		b	.L409
 3055              	.L558:
 3056 0584 2368     		ldr	r3, [r4]
 3057 0586 1D49     		ldr	r1, .L589+16
 3058 0588 1D4A     		ldr	r2, .L589+20
 3059 058a 8B42     		cmp	r3, r1
 3060 058c 18BF     		it	ne
 3061 058e 9342     		cmpne	r3, r2
 3062 0590 3FF47EAF 		beq	.L407
 3063 0594 1B4A     		ldr	r2, .L589+24
 3064 0596 9342     		cmp	r3, r2
 3065 0598 3FF47AAF 		beq	.L407
 3066 059c 1A4A     		ldr	r2, .L589+28
 3067 059e 9342     		cmp	r3, r2
 3068 05a0 3FF476AF 		beq	.L407
 3069 05a4 02F18662 		add	r2, r2, #70254592
 3070 05a8 1032     		adds	r2, r2, #16
 3071 05aa 9342     		cmp	r3, r2
 3072 05ac 3FF470AF 		beq	.L407
 3073 05b0 164A     		ldr	r2, .L589+32
 3074 05b2 9342     		cmp	r3, r2
 3075 05b4 3FF46CAF 		beq	.L407
 3076 05b8 02F10422 		add	r2, r2, #67109888
 3077 05bc 02F54012 		add	r2, r2, #3145728
 3078 05c0 9342     		cmp	r3, r2
 3079 05c2 3FF465AF 		beq	.L407
 3080 05c6 144A     		ldr	r2, .L589+44
 3081 05c8 9342     		cmp	r3, r2
ARM GAS  C:\Users\thewo\AppData\Local\Temp\ccCADg6a.s 			page 54


 3082 05ca 3FF461AF 		beq	.L407
 3083 05ce 134A     		ldr	r2, .L589+48
 3084 05d0 9342     		cmp	r3, r2
 3085 05d2 3FF45DAF 		beq	.L407
 3086 05d6 124A     		ldr	r2, .L589+52
 3087 05d8 9342     		cmp	r3, r2
 3088 05da 3FF459AF 		beq	.L407
 3089 05de 40F27971 		movw	r1, #1913
 3090 05e2 0248     		ldr	r0, .L589
 3091 05e4 FFF7FEFF 		bl	assert_failed
 3092 05e8 52E7     		b	.L407
 3093              	.L590:
 3094 05ea 00BF     		.align	2
 3095              	.L589:
 3096 05ec 00000000 		.word	.LC0
 3097 05f0 00600258 		.word	1476550656
 3098 05f4 00200240 		.word	1073881088
 3099 05f8 00210240 		.word	1073881344
 3100 05fc 02003004 		.word	70254594
 3101 0600 04006008 		.word	140509188
 3102 0604 0800900C 		.word	210763784
 3103 0608 1000C010 		.word	281018384
 3104 060c 0004002A 		.word	704644096
 3105 0610 00002143 		.word	1126236160
 3106 0614 0000844B 		.word	1266941952
 3107 0618 00209036 		.word	915415040
 3108 061c 0040C03A 		.word	985677824
 3109 0620 0080F03E 		.word	1055948800
 3110              	.L411:
 3111 0624 6368     		ldr	r3, [r4, #4]
 3112 0626 092B     		cmp	r3, #9
 3113 0628 6ED0     		beq	.L559
 3114              	.L413:
 3115 062a 2B68     		ldr	r3, [r5]
 3116 062c 9A68     		ldr	r2, [r3, #8]
 3117 062e 12F0080F 		tst	r2, #8
 3118 0632 23D1     		bne	.L418
 3119 0634 2268     		ldr	r2, [r4]
 3120 0636 002A     		cmp	r2, #0
 3121 0638 0EDB     		blt	.L419
 3122 063a A049     		ldr	r1, .L591
 3123 063c 8B42     		cmp	r3, r1
 3124 063e 0BD0     		beq	.L419
 3125 0640 C2F31301 		ubfx	r1, r2, #0, #20
 3126 0644 0029     		cmp	r1, #0
 3127 0646 40F0A180 		bne	.L420
 3128 064a C2F38462 		ubfx	r2, r2, #26, #5
 3129 064e 0121     		movs	r1, #1
 3130 0650 9140     		lsls	r1, r1, r2
 3131              	.L421:
 3132 0652 DA69     		ldr	r2, [r3, #28]
 3133 0654 0A43     		orrs	r2, r2, r1
 3134 0656 DA61     		str	r2, [r3, #28]
 3135              	.L419:
 3136 0658 94F82930 		ldrb	r3, [r4, #41]	@ zero_extendqisi2
 3137 065c 002B     		cmp	r3, #0
 3138 065e 40F0A180 		bne	.L423
ARM GAS  C:\Users\thewo\AppData\Local\Temp\ccCADg6a.s 			page 55


 3139 0662 2968     		ldr	r1, [r5]
 3140 0664 CB68     		ldr	r3, [r1, #12]
 3141 0666 23F44013 		bic	r3, r3, #3145728
 3142 066a 94F82A00 		ldrb	r0, [r4, #42]	@ zero_extendqisi2
 3143 066e 94F82820 		ldrb	r2, [r4, #40]	@ zero_extendqisi2
 3144 0672 1205     		lsls	r2, r2, #20
 3145 0674 42EA4052 		orr	r2, r2, r0, lsl #21
 3146 0678 1343     		orrs	r3, r3, r2
 3147 067a CB60     		str	r3, [r1, #12]
 3148              	.L418:
 3149 067c 2B68     		ldr	r3, [r5]
 3150 067e 9E68     		ldr	r6, [r3, #8]
 3151 0680 16F00406 		ands	r6, r6, #4
 3152 0684 00D0     		beq	.L424
 3153 0686 0126     		movs	r6, #1
 3154              	.L424:
 3155 0688 9A68     		ldr	r2, [r3, #8]
 3156 068a 12F0080F 		tst	r2, #8
 3157 068e 40F04D82 		bne	.L496
 3158 0692 002E     		cmp	r6, #0
 3159 0694 40F06282 		bne	.L497
 3160 0698 E26A     		ldr	r2, [r4, #44]
 3161 069a 1AB1     		cbz	r2, .L426
 3162 069c 226B     		ldr	r2, [r4, #48]
 3163 069e 002A     		cmp	r2, #0
 3164 06a0 40F09080 		bne	.L427
 3165              	.L426:
 3166 06a4 94F82920 		ldrb	r2, [r4, #41]	@ zero_extendqisi2
 3167 06a8 012A     		cmp	r2, #1
 3168 06aa 00F08580 		beq	.L560
 3169 06ae DA68     		ldr	r2, [r3, #12]
 3170 06b0 22F00072 		bic	r2, r2, #33554432
 3171 06b4 DA60     		str	r2, [r3, #12]
 3172 06b6 0027     		movs	r7, #0
 3173              	.L429:
 3174 06b8 94F83430 		ldrb	r3, [r4, #52]	@ zero_extendqisi2
 3175 06bc 012B     		cmp	r3, #1
 3176 06be 00F09080 		beq	.L561
 3177 06c2 2A68     		ldr	r2, [r5]
 3178 06c4 1369     		ldr	r3, [r2, #16]
 3179 06c6 23F00203 		bic	r3, r3, #2
 3180 06ca 1361     		str	r3, [r2, #16]
 3181              	.L438:
 3182 06cc A268     		ldr	r2, [r4, #8]
 3183 06ce 2168     		ldr	r1, [r4]
 3184 06d0 2868     		ldr	r0, [r5]
 3185 06d2 FFF7FEFF 		bl	LL_ADC_SetChannelSamplingTime
 3186 06d6 2868     		ldr	r0, [r5]
 3187 06d8 784B     		ldr	r3, .L591
 3188 06da 9842     		cmp	r0, r3
 3189 06dc 00F0F880 		beq	.L562
 3190 06e0 774B     		ldr	r3, .L591+4
 3191 06e2 1B68     		ldr	r3, [r3]
 3192 06e4 03F07043 		and	r3, r3, #-268435456
 3193 06e8 B3F1805F 		cmp	r3, #268435456
 3194 06ec 00F04181 		beq	.L563
 3195 06f0 C368     		ldr	r3, [r0, #12]
ARM GAS  C:\Users\thewo\AppData\Local\Temp\ccCADg6a.s 			page 56


 3196 06f2 13F0100F 		tst	r3, #16
 3197 06f6 40F04381 		bne	.L442
 3198 06fa 6369     		ldr	r3, [r4, #20]
 3199 06fc C268     		ldr	r2, [r0, #12]
 3200 06fe C2F38202 		ubfx	r2, r2, #2, #3
 3201 0702 5200     		lsls	r2, r2, #1
 3202 0704 9340     		lsls	r3, r3, r2
 3203 0706 E9E0     		b	.L440
 3204              	.L559:
 3205 0708 E26A     		ldr	r2, [r4, #44]
 3206 070a BAB1     		cbz	r2, .L414
 3207 070c 2368     		ldr	r3, [r4]
 3208 070e 9B0E     		lsrs	r3, r3, #26
 3209 0710 5B02     		lsls	r3, r3, #9
 3210 0712 03F47853 		and	r3, r3, #15872
 3211 0716 02F07C02 		and	r2, r2, #124
 3212 071a 1343     		orrs	r3, r3, r2
 3213 071c 226B     		ldr	r2, [r4, #48]
 3214 071e 1343     		orrs	r3, r3, r2
 3215              	.L415:
 3216 0720 2968     		ldr	r1, [r5]
 3217 0722 CA6C     		ldr	r2, [r1, #76]
 3218 0724 22F07B42 		bic	r2, r2, #-83886080
 3219 0728 22F46F02 		bic	r2, r2, #15663104
 3220 072c 22F43F42 		bic	r2, r2, #48896
 3221 0730 22F0FF02 		bic	r2, r2, #255
 3222 0734 1A43     		orrs	r2, r2, r3
 3223 0736 CA64     		str	r2, [r1, #76]
 3224 0738 AB66     		str	r3, [r5, #104]
 3225 073a 76E7     		b	.L413
 3226              	.L414:
 3227 073c 2368     		ldr	r3, [r4]
 3228 073e 9B0E     		lsrs	r3, r3, #26
 3229 0740 5B02     		lsls	r3, r3, #9
 3230 0742 03F47853 		and	r3, r3, #15872
 3231 0746 EBE7     		b	.L415
 3232              	.L417:
 3233 0748 626A     		ldr	r2, [r4, #36]
 3234 074a 013A     		subs	r2, r2, #1
 3235 074c 00E0     		b	.L416
 3236              	.L494:
 3237 074e 0022     		movs	r2, #0
 3238              	.L416:
 3239 0750 2368     		ldr	r3, [r4]
 3240 0752 C3F38463 		ubfx	r3, r3, #26, #5
 3241 0756 6168     		ldr	r1, [r4, #4]
 3242 0758 01F01F01 		and	r1, r1, #31
 3243 075c 8B40     		lsls	r3, r3, r1
 3244 075e 1343     		orrs	r3, r3, r2
 3245 0760 E96E     		ldr	r1, [r5, #108]
 3246 0762 0139     		subs	r1, r1, #1
 3247 0764 E966     		str	r1, [r5, #108]
 3248 0766 AA6E     		ldr	r2, [r5, #104]
 3249 0768 1343     		orrs	r3, r3, r2
 3250 076a AB66     		str	r3, [r5, #104]
 3251 076c 0029     		cmp	r1, #0
 3252 076e 7FF45CAF 		bne	.L413
ARM GAS  C:\Users\thewo\AppData\Local\Temp\ccCADg6a.s 			page 57


 3253 0772 2968     		ldr	r1, [r5]
 3254 0774 CA6C     		ldr	r2, [r1, #76]
 3255 0776 22F07B42 		bic	r2, r2, #-83886080
 3256 077a 22F46F02 		bic	r2, r2, #15663104
 3257 077e 22F43F42 		bic	r2, r2, #48896
 3258 0782 22F0FF02 		bic	r2, r2, #255
 3259 0786 1343     		orrs	r3, r3, r2
 3260 0788 CB64     		str	r3, [r1, #76]
 3261 078a 4EE7     		b	.L413
 3262              	.L420:
 3263              		.syntax unified
 3264              	@ 1055 "Drivers/CMSIS/Include/cmsis_gcc.h" 1
 3265 078c 92FAA2F2 		rbit r2, r2
 3266              	@ 0 "" 2
 3267              		.thumb
 3268              		.syntax unified
 3269 0790 32B1     		cbz	r2, .L495
 3270 0792 B2FA82F2 		clz	r2, r2
 3271              	.L422:
 3272 0796 02F01F02 		and	r2, r2, #31
 3273 079a 0121     		movs	r1, #1
 3274 079c 9140     		lsls	r1, r1, r2
 3275 079e 58E7     		b	.L421
 3276              	.L495:
 3277 07a0 2022     		movs	r2, #32
 3278 07a2 F8E7     		b	.L422
 3279              	.L423:
 3280 07a4 2A68     		ldr	r2, [r5]
 3281 07a6 D368     		ldr	r3, [r2, #12]
 3282 07a8 23F44013 		bic	r3, r3, #3145728
 3283 07ac 94F82A10 		ldrb	r1, [r4, #42]	@ zero_extendqisi2
 3284 07b0 43EA4153 		orr	r3, r3, r1, lsl #21
 3285 07b4 D360     		str	r3, [r2, #12]
 3286 07b6 61E7     		b	.L418
 3287              	.L560:
 3288 07b8 DA68     		ldr	r2, [r3, #12]
 3289 07ba 42F00072 		orr	r2, r2, #33554432
 3290 07be DA60     		str	r2, [r3, #12]
 3291 07c0 0027     		movs	r7, #0
 3292 07c2 79E7     		b	.L429
 3293              	.L427:
 3294 07c4 94F82970 		ldrb	r7, [r4, #41]	@ zero_extendqisi2
 3295 07c8 012F     		cmp	r7, #1
 3296 07ca 05D0     		beq	.L564
 3297 07cc DA68     		ldr	r2, [r3, #12]
 3298 07ce 22F00072 		bic	r2, r2, #33554432
 3299 07d2 DA60     		str	r2, [r3, #12]
 3300 07d4 0027     		movs	r7, #0
 3301 07d6 6FE7     		b	.L429
 3302              	.L564:
 3303 07d8 2B6E     		ldr	r3, [r5, #96]
 3304 07da 43F02003 		orr	r3, r3, #32
 3305 07de 2B66     		str	r3, [r5, #96]
 3306 07e0 6AE7     		b	.L429
 3307              	.L561:
 3308 07e2 2A68     		ldr	r2, [r5]
 3309 07e4 354B     		ldr	r3, .L591
ARM GAS  C:\Users\thewo\AppData\Local\Temp\ccCADg6a.s 			page 58


 3310 07e6 9A42     		cmp	r2, r3
 3311 07e8 38D0     		beq	.L565
 3312 07ea A36B     		ldr	r3, [r4, #56]
 3313 07ec 013B     		subs	r3, r3, #1
 3314 07ee B3F5806F 		cmp	r3, #1024
 3315 07f2 46D2     		bcs	.L566
 3316              	.L433:
 3317 07f4 E36B     		ldr	r3, [r4, #60]
 3318 07f6 002B     		cmp	r3, #0
 3319 07f8 18BF     		it	ne
 3320 07fa 202B     		cmpne	r3, #32
 3321 07fc 17D0     		beq	.L435
 3322 07fe 402B     		cmp	r3, #64
 3323 0800 15D0     		beq	.L435
 3324 0802 602B     		cmp	r3, #96
 3325 0804 13D0     		beq	.L435
 3326 0806 802B     		cmp	r3, #128
 3327 0808 11D0     		beq	.L435
 3328 080a A02B     		cmp	r3, #160
 3329 080c 0FD0     		beq	.L435
 3330 080e C02B     		cmp	r3, #192
 3331 0810 0DD0     		beq	.L435
 3332 0812 E02B     		cmp	r3, #224
 3333 0814 0BD0     		beq	.L435
 3334 0816 B3F5807F 		cmp	r3, #256
 3335 081a 08D0     		beq	.L435
 3336 081c B3F5907F 		cmp	r3, #288
 3337 0820 05D0     		beq	.L435
 3338 0822 B3F5A07F 		cmp	r3, #320
 3339 0826 02D0     		beq	.L435
 3340 0828 B3F5B07F 		cmp	r3, #352
 3341 082c 2FD1     		bne	.L567
 3342              	.L435:
 3343 082e 2B68     		ldr	r3, [r5]
 3344 0830 1A69     		ldr	r2, [r3, #16]
 3345 0832 40F20123 		movw	r3, #513
 3346 0836 9343     		bics	r3, r3, r2
 3347 0838 2FD0     		beq	.L568
 3348              	.L436:
 3349 083a 2A68     		ldr	r2, [r5]
 3350 083c 1F4B     		ldr	r3, .L591
 3351 083e 9A42     		cmp	r2, r3
 3352 0840 31D0     		beq	.L437
 3353 0842 1169     		ldr	r1, [r2, #16]
 3354 0844 1F4B     		ldr	r3, .L591+8
 3355 0846 0B40     		ands	r3, r3, r1
 3356 0848 A16B     		ldr	r1, [r4, #56]
 3357 084a 481E     		subs	r0, r1, #1
 3358 084c E16B     		ldr	r1, [r4, #60]
 3359 084e 41EA0041 		orr	r1, r1, r0, lsl #16
 3360 0852 0B43     		orrs	r3, r3, r1
 3361 0854 43F00203 		orr	r3, r3, #2
 3362 0858 1361     		str	r3, [r2, #16]
 3363 085a 37E7     		b	.L438
 3364              	.L565:
 3365 085c A36B     		ldr	r3, [r4, #56]
 3366 085e 002B     		cmp	r3, #0
ARM GAS  C:\Users\thewo\AppData\Local\Temp\ccCADg6a.s 			page 59


 3367 0860 18BF     		it	ne
 3368 0862 042B     		cmpne	r3, #4
 3369 0864 C6D0     		beq	.L433
 3370 0866 1C2B     		cmp	r3, #28
 3371 0868 05D8     		bhi	.L434
 3372 086a 174A     		ldr	r2, .L591+12
 3373 086c 22FA03F3 		lsr	r3, r2, r3
 3374 0870 13F0010F 		tst	r3, #1
 3375 0874 BED1     		bne	.L433
 3376              	.L434:
 3377 0876 40F65B01 		movw	r1, #2139
 3378 087a 1448     		ldr	r0, .L591+16
 3379 087c FFF7FEFF 		bl	assert_failed
 3380 0880 B8E7     		b	.L433
 3381              	.L566:
 3382 0882 40F65F01 		movw	r1, #2143
 3383 0886 1148     		ldr	r0, .L591+16
 3384 0888 FFF7FEFF 		bl	assert_failed
 3385 088c B2E7     		b	.L433
 3386              	.L567:
 3387 088e 40F66401 		movw	r1, #2148
 3388 0892 0E48     		ldr	r0, .L591+16
 3389 0894 FFF7FEFF 		bl	assert_failed
 3390 0898 C9E7     		b	.L435
 3391              	.L568:
 3392 089a 40F66701 		movw	r1, #2151
 3393 089e 0B48     		ldr	r0, .L591+16
 3394 08a0 FFF7FEFF 		bl	assert_failed
 3395 08a4 C9E7     		b	.L436
 3396              	.L437:
 3397 08a6 1369     		ldr	r3, [r2, #16]
 3398 08a8 23F4FF73 		bic	r3, r3, #510
 3399 08ac A16B     		ldr	r1, [r4, #56]
 3400 08ae E06B     		ldr	r0, [r4, #60]
 3401 08b0 0143     		orrs	r1, r1, r0
 3402 08b2 0B43     		orrs	r3, r3, r1
 3403 08b4 43F00203 		orr	r3, r3, #2
 3404 08b8 1361     		str	r3, [r2, #16]
 3405 08ba 07E7     		b	.L438
 3406              	.L592:
 3407              		.align	2
 3408              	.L591:
 3409 08bc 00600258 		.word	1476550656
 3410 08c0 0010005C 		.word	1543507968
 3411 08c4 1DFE00FC 		.word	-67043811
 3412 08c8 00111111 		.word	286331136
 3413 08cc 00000000 		.word	.LC0
 3414              	.L562:
 3415 08d0 6369     		ldr	r3, [r4, #20]
 3416 08d2 C268     		ldr	r2, [r0, #12]
 3417 08d4 C2F3C102 		ubfx	r2, r2, #3, #2
 3418 08d8 5200     		lsls	r2, r2, #1
 3419 08da 9340     		lsls	r3, r3, r2
 3420              	.L440:
 3421 08dc 2169     		ldr	r1, [r4, #16]
 3422 08de 0429     		cmp	r1, #4
 3423 08e0 56D1     		bne	.L569
ARM GAS  C:\Users\thewo\AppData\Local\Temp\ccCADg6a.s 			page 60


 3424 08e2 A64B     		ldr	r3, .L593
 3425 08e4 9842     		cmp	r0, r3
 3426 08e6 00F08B80 		beq	.L570
 3427 08ea 036E     		ldr	r3, [r0, #96]
 3428 08ec 016E     		ldr	r1, [r0, #96]
 3429 08ee C1F38461 		ubfx	r1, r1, #26, #5
 3430 08f2 2268     		ldr	r2, [r4]
 3431 08f4 C2F31303 		ubfx	r3, r2, #0, #20
 3432 08f8 002B     		cmp	r3, #0
 3433 08fa 40F0E880 		bne	.L463
 3434 08fe C2F38463 		ubfx	r3, r2, #26, #5
 3435              	.L464:
 3436 0902 9942     		cmp	r1, r3
 3437 0904 00F0EB80 		beq	.L571
 3438              	.L466:
 3439 0908 2868     		ldr	r0, [r5]
 3440 090a 436E     		ldr	r3, [r0, #100]
 3441 090c 416E     		ldr	r1, [r0, #100]
 3442 090e C1F38461 		ubfx	r1, r1, #26, #5
 3443 0912 2268     		ldr	r2, [r4]
 3444 0914 C2F31303 		ubfx	r3, r2, #0, #20
 3445 0918 002B     		cmp	r3, #0
 3446 091a 40F0E580 		bne	.L467
 3447 091e C2F38463 		ubfx	r3, r2, #26, #5
 3448              	.L468:
 3449 0922 9942     		cmp	r1, r3
 3450 0924 00F0E880 		beq	.L572
 3451              	.L470:
 3452 0928 2868     		ldr	r0, [r5]
 3453 092a 836E     		ldr	r3, [r0, #104]
 3454 092c 816E     		ldr	r1, [r0, #104]
 3455 092e C1F38461 		ubfx	r1, r1, #26, #5
 3456 0932 2268     		ldr	r2, [r4]
 3457 0934 C2F31303 		ubfx	r3, r2, #0, #20
 3458 0938 002B     		cmp	r3, #0
 3459 093a 40F0E280 		bne	.L471
 3460 093e C2F38463 		ubfx	r3, r2, #26, #5
 3461              	.L472:
 3462 0942 9942     		cmp	r1, r3
 3463 0944 00F0E580 		beq	.L573
 3464              	.L474:
 3465 0948 2868     		ldr	r0, [r5]
 3466 094a C36E     		ldr	r3, [r0, #108]
 3467 094c C16E     		ldr	r1, [r0, #108]
 3468 094e C1F38461 		ubfx	r1, r1, #26, #5
 3469 0952 2268     		ldr	r2, [r4]
 3470 0954 C2F31303 		ubfx	r3, r2, #0, #20
 3471 0958 002B     		cmp	r3, #0
 3472 095a 40F0DF80 		bne	.L475
 3473 095e C2F38463 		ubfx	r3, r2, #26, #5
 3474              	.L476:
 3475 0962 9942     		cmp	r1, r3
 3476 0964 40F0E380 		bne	.L425
 3477 0968 0023     		movs	r3, #0
 3478 096a 0321     		movs	r1, #3
 3479 096c FFF7FEFF 		bl	LL_ADC_SetOffset
 3480 0970 DDE0     		b	.L425
ARM GAS  C:\Users\thewo\AppData\Local\Temp\ccCADg6a.s 			page 61


 3481              	.L563:
 3482 0972 6369     		ldr	r3, [r4, #20]
 3483 0974 C268     		ldr	r2, [r0, #12]
 3484 0976 C2F38202 		ubfx	r2, r2, #2, #3
 3485 097a 5200     		lsls	r2, r2, #1
 3486 097c 9340     		lsls	r3, r3, r2
 3487 097e ADE7     		b	.L440
 3488              	.L442:
 3489 0980 6369     		ldr	r3, [r4, #20]
 3490 0982 C268     		ldr	r2, [r0, #12]
 3491 0984 9208     		lsrs	r2, r2, #2
 3492 0986 02F00402 		and	r2, r2, #4
 3493 098a 5200     		lsls	r2, r2, #1
 3494 098c 9340     		lsls	r3, r3, r2
 3495 098e A5E7     		b	.L440
 3496              	.L569:
 3497 0990 2268     		ldr	r2, [r4]
 3498 0992 FFF7FEFF 		bl	LL_ADC_SetOffset
 3499 0996 2B68     		ldr	r3, [r5]
 3500 0998 784A     		ldr	r2, .L593
 3501 099a 9342     		cmp	r3, r2
 3502 099c 0DD0     		beq	.L574
 3503 099e 2169     		ldr	r1, [r4, #16]
 3504 09a0 94F82120 		ldrb	r2, [r4, #33]	@ zero_extendqisi2
 3505 09a4 012A     		cmp	r2, #1
 3506 09a6 28D0     		beq	.L575
 3507              	.L446:
 3508 09a8 6033     		adds	r3, r3, #96
 3509 09aa 53F82120 		ldr	r2, [r3, r1, lsl #2]
 3510 09ae 22F00042 		bic	r2, r2, #-2147483648
 3511 09b2 3243     		orrs	r2, r2, r6
 3512 09b4 43F82120 		str	r2, [r3, r1, lsl #2]
 3513 09b8 B9E0     		b	.L425
 3514              	.L574:
 3515 09ba 2069     		ldr	r0, [r4, #16]
 3516 09bc E269     		ldr	r2, [r4, #28]
 3517 09be 6033     		adds	r3, r3, #96
 3518 09c0 53F82010 		ldr	r1, [r3, r0, lsl #2]
 3519 09c4 21F08071 		bic	r1, r1, #16777216
 3520 09c8 0A43     		orrs	r2, r2, r1
 3521 09ca 43F82020 		str	r2, [r3, r0, lsl #2]
 3522 09ce 2B68     		ldr	r3, [r5]
 3523 09d0 2169     		ldr	r1, [r4, #16]
 3524 09d2 94F82020 		ldrb	r2, [r4, #32]	@ zero_extendqisi2
 3525 09d6 012A     		cmp	r2, #1
 3526 09d8 0CD0     		beq	.L576
 3527              	.L445:
 3528 09da 684A     		ldr	r2, .L593
 3529 09dc 9342     		cmp	r3, r2
 3530 09de 40F0A680 		bne	.L425
 3531 09e2 6033     		adds	r3, r3, #96
 3532 09e4 53F82120 		ldr	r2, [r3, r1, lsl #2]
 3533 09e8 22F00072 		bic	r2, r2, #33554432
 3534 09ec 3243     		orrs	r2, r2, r6
 3535 09ee 43F82120 		str	r2, [r3, r1, lsl #2]
 3536 09f2 9CE0     		b	.L425
 3537              	.L576:
ARM GAS  C:\Users\thewo\AppData\Local\Temp\ccCADg6a.s 			page 62


 3538 09f4 4FF00076 		mov	r6, #33554432
 3539 09f8 EFE7     		b	.L445
 3540              	.L575:
 3541 09fa 4FF00046 		mov	r6, #-2147483648
 3542 09fe D3E7     		b	.L446
 3543              	.L570:
 3544 0a00 036E     		ldr	r3, [r0, #96]
 3545 0a02 026E     		ldr	r2, [r0, #96]
 3546 0a04 C2F38462 		ubfx	r2, r2, #26, #5
 3547 0a08 2368     		ldr	r3, [r4]
 3548 0a0a C3F31301 		ubfx	r1, r3, #0, #20
 3549 0a0e 79BB     		cbnz	r1, .L448
 3550 0a10 C3F38463 		ubfx	r3, r3, #26, #5
 3551              	.L449:
 3552 0a14 9A42     		cmp	r2, r3
 3553 0a16 33D0     		beq	.L577
 3554              	.L451:
 3555 0a18 2868     		ldr	r0, [r5]
 3556 0a1a 436E     		ldr	r3, [r0, #100]
 3557 0a1c 426E     		ldr	r2, [r0, #100]
 3558 0a1e C2F38462 		ubfx	r2, r2, #26, #5
 3559 0a22 2368     		ldr	r3, [r4]
 3560 0a24 C3F31301 		ubfx	r1, r3, #0, #20
 3561 0a28 79BB     		cbnz	r1, .L452
 3562 0a2a C3F38463 		ubfx	r3, r3, #26, #5
 3563              	.L453:
 3564 0a2e 9A42     		cmp	r2, r3
 3565 0a30 33D0     		beq	.L578
 3566              	.L455:
 3567 0a32 2868     		ldr	r0, [r5]
 3568 0a34 836E     		ldr	r3, [r0, #104]
 3569 0a36 826E     		ldr	r2, [r0, #104]
 3570 0a38 C2F38462 		ubfx	r2, r2, #26, #5
 3571 0a3c 2368     		ldr	r3, [r4]
 3572 0a3e C3F31301 		ubfx	r1, r3, #0, #20
 3573 0a42 79BB     		cbnz	r1, .L456
 3574 0a44 C3F38463 		ubfx	r3, r3, #26, #5
 3575              	.L457:
 3576 0a48 9A42     		cmp	r2, r3
 3577 0a4a 33D0     		beq	.L579
 3578              	.L459:
 3579 0a4c 2868     		ldr	r0, [r5]
 3580 0a4e C36E     		ldr	r3, [r0, #108]
 3581 0a50 C26E     		ldr	r2, [r0, #108]
 3582 0a52 C2F38462 		ubfx	r2, r2, #26, #5
 3583 0a56 2368     		ldr	r3, [r4]
 3584 0a58 C3F31301 		ubfx	r1, r3, #0, #20
 3585 0a5c 79BB     		cbnz	r1, .L460
 3586 0a5e C3F38463 		ubfx	r3, r3, #26, #5
 3587              	.L461:
 3588 0a62 9A42     		cmp	r2, r3
 3589 0a64 63D1     		bne	.L425
 3590 0a66 0022     		movs	r2, #0
 3591 0a68 0321     		movs	r1, #3
 3592 0a6a FFF7FEFF 		bl	LL_ADC_SetOffsetState
 3593 0a6e 5EE0     		b	.L425
 3594              	.L448:
ARM GAS  C:\Users\thewo\AppData\Local\Temp\ccCADg6a.s 			page 63


 3595              		.syntax unified
 3596              	@ 1055 "Drivers/CMSIS/Include/cmsis_gcc.h" 1
 3597 0a70 93FAA3F3 		rbit r3, r3
 3598              	@ 0 "" 2
 3599              		.thumb
 3600              		.syntax unified
 3601 0a74 13B1     		cbz	r3, .L498
 3602 0a76 B3FA83F3 		clz	r3, r3
 3603 0a7a CBE7     		b	.L449
 3604              	.L498:
 3605 0a7c 2023     		movs	r3, #32
 3606 0a7e C9E7     		b	.L449
 3607              	.L577:
 3608 0a80 0022     		movs	r2, #0
 3609 0a82 1146     		mov	r1, r2
 3610 0a84 FFF7FEFF 		bl	LL_ADC_SetOffsetState
 3611 0a88 C6E7     		b	.L451
 3612              	.L452:
 3613              		.syntax unified
 3614              	@ 1055 "Drivers/CMSIS/Include/cmsis_gcc.h" 1
 3615 0a8a 93FAA3F3 		rbit r3, r3
 3616              	@ 0 "" 2
 3617              		.thumb
 3618              		.syntax unified
 3619 0a8e 13B1     		cbz	r3, .L499
 3620 0a90 B3FA83F3 		clz	r3, r3
 3621 0a94 CBE7     		b	.L453
 3622              	.L499:
 3623 0a96 2023     		movs	r3, #32
 3624 0a98 C9E7     		b	.L453
 3625              	.L578:
 3626 0a9a 0022     		movs	r2, #0
 3627 0a9c 0121     		movs	r1, #1
 3628 0a9e FFF7FEFF 		bl	LL_ADC_SetOffsetState
 3629 0aa2 C6E7     		b	.L455
 3630              	.L456:
 3631              		.syntax unified
 3632              	@ 1055 "Drivers/CMSIS/Include/cmsis_gcc.h" 1
 3633 0aa4 93FAA3F3 		rbit r3, r3
 3634              	@ 0 "" 2
 3635              		.thumb
 3636              		.syntax unified
 3637 0aa8 13B1     		cbz	r3, .L500
 3638 0aaa B3FA83F3 		clz	r3, r3
 3639 0aae CBE7     		b	.L457
 3640              	.L500:
 3641 0ab0 2023     		movs	r3, #32
 3642 0ab2 C9E7     		b	.L457
 3643              	.L579:
 3644 0ab4 0022     		movs	r2, #0
 3645 0ab6 0221     		movs	r1, #2
 3646 0ab8 FFF7FEFF 		bl	LL_ADC_SetOffsetState
 3647 0abc C6E7     		b	.L459
 3648              	.L460:
 3649              		.syntax unified
 3650              	@ 1055 "Drivers/CMSIS/Include/cmsis_gcc.h" 1
 3651 0abe 93FAA3F3 		rbit r3, r3
ARM GAS  C:\Users\thewo\AppData\Local\Temp\ccCADg6a.s 			page 64


 3652              	@ 0 "" 2
 3653              		.thumb
 3654              		.syntax unified
 3655 0ac2 13B1     		cbz	r3, .L501
 3656 0ac4 B3FA83F3 		clz	r3, r3
 3657 0ac8 CBE7     		b	.L461
 3658              	.L501:
 3659 0aca 2023     		movs	r3, #32
 3660 0acc C9E7     		b	.L461
 3661              	.L463:
 3662              		.syntax unified
 3663              	@ 1055 "Drivers/CMSIS/Include/cmsis_gcc.h" 1
 3664 0ace 92FAA2F3 		rbit r3, r2
 3665              	@ 0 "" 2
 3666              		.thumb
 3667              		.syntax unified
 3668 0ad2 13B1     		cbz	r3, .L502
 3669 0ad4 B3FA83F3 		clz	r3, r3
 3670 0ad8 13E7     		b	.L464
 3671              	.L502:
 3672 0ada 2023     		movs	r3, #32
 3673 0adc 11E7     		b	.L464
 3674              	.L571:
 3675 0ade 0023     		movs	r3, #0
 3676 0ae0 1946     		mov	r1, r3
 3677 0ae2 FFF7FEFF 		bl	LL_ADC_SetOffset
 3678 0ae6 0FE7     		b	.L466
 3679              	.L467:
 3680              		.syntax unified
 3681              	@ 1055 "Drivers/CMSIS/Include/cmsis_gcc.h" 1
 3682 0ae8 92FAA2F3 		rbit r3, r2
 3683              	@ 0 "" 2
 3684              		.thumb
 3685              		.syntax unified
 3686 0aec 13B1     		cbz	r3, .L503
 3687 0aee B3FA83F3 		clz	r3, r3
 3688 0af2 16E7     		b	.L468
 3689              	.L503:
 3690 0af4 2023     		movs	r3, #32
 3691 0af6 14E7     		b	.L468
 3692              	.L572:
 3693 0af8 0023     		movs	r3, #0
 3694 0afa 0121     		movs	r1, #1
 3695 0afc FFF7FEFF 		bl	LL_ADC_SetOffset
 3696 0b00 12E7     		b	.L470
 3697              	.L471:
 3698              		.syntax unified
 3699              	@ 1055 "Drivers/CMSIS/Include/cmsis_gcc.h" 1
 3700 0b02 92FAA2F3 		rbit r3, r2
 3701              	@ 0 "" 2
 3702              		.thumb
 3703              		.syntax unified
 3704 0b06 13B1     		cbz	r3, .L504
 3705 0b08 B3FA83F3 		clz	r3, r3
 3706 0b0c 19E7     		b	.L472
 3707              	.L504:
 3708 0b0e 2023     		movs	r3, #32
ARM GAS  C:\Users\thewo\AppData\Local\Temp\ccCADg6a.s 			page 65


 3709 0b10 17E7     		b	.L472
 3710              	.L573:
 3711 0b12 0023     		movs	r3, #0
 3712 0b14 0321     		movs	r1, #3
 3713 0b16 FFF7FEFF 		bl	LL_ADC_SetOffset
 3714 0b1a 15E7     		b	.L474
 3715              	.L475:
 3716              		.syntax unified
 3717              	@ 1055 "Drivers/CMSIS/Include/cmsis_gcc.h" 1
 3718 0b1c 92FAA2F3 		rbit r3, r2
 3719              	@ 0 "" 2
 3720              		.thumb
 3721              		.syntax unified
 3722 0b20 13B1     		cbz	r3, .L505
 3723 0b22 B3FA83F3 		clz	r3, r3
 3724 0b26 1CE7     		b	.L476
 3725              	.L505:
 3726 0b28 2023     		movs	r3, #32
 3727 0b2a 1AE7     		b	.L476
 3728              	.L496:
 3729 0b2c 0027     		movs	r7, #0
 3730              	.L425:
 3731 0b2e 2868     		ldr	r0, [r5]
 3732 0b30 8668     		ldr	r6, [r0, #8]
 3733 0b32 16F00106 		ands	r6, r6, #1
 3734 0b36 0BD1     		bne	.L478
 3735 0b38 E268     		ldr	r2, [r4, #12]
 3736 0b3a 2168     		ldr	r1, [r4]
 3737 0b3c FFF7FEFF 		bl	LL_ADC_SetChannelSingleDiff
 3738 0b40 E268     		ldr	r2, [r4, #12]
 3739 0b42 0F4B     		ldr	r3, .L593+4
 3740 0b44 9A42     		cmp	r2, r3
 3741 0b46 0BD0     		beq	.L580
 3742              	.L479:
 3743 0b48 2368     		ldr	r3, [r4]
 3744 0b4a 002B     		cmp	r3, #0
 3745 0b4c C0F2C280 		blt	.L581
 3746              	.L478:
 3747 0b50 0023     		movs	r3, #0
 3748 0b52 85F85C30 		strb	r3, [r5, #92]
 3749              	.L410:
 3750 0b56 3846     		mov	r0, r7
 3751 0b58 03B0     		add	sp, sp, #12
 3752              		@ sp needed
 3753 0b5a F0BD     		pop	{r4, r5, r6, r7, pc}
 3754              	.L497:
 3755 0b5c 0027     		movs	r7, #0
 3756 0b5e E6E7     		b	.L425
 3757              	.L580:
 3758 0b60 2868     		ldr	r0, [r5]
 3759 0b62 084B     		ldr	r3, .L593+8
 3760 0b64 9842     		cmp	r0, r3
 3761 0b66 11D0     		beq	.L582
 3762 0b68 074B     		ldr	r3, .L593+12
 3763 0b6a 9842     		cmp	r0, r3
 3764 0b6c 37D0     		beq	.L583
 3765 0b6e 034B     		ldr	r3, .L593
ARM GAS  C:\Users\thewo\AppData\Local\Temp\ccCADg6a.s 			page 66


 3766 0b70 9842     		cmp	r0, r3
 3767 0b72 5AD0     		beq	.L584
 3768              	.L481:
 3769 0b74 3146     		mov	r1, r6
 3770 0b76 FFF7FEFF 		bl	LL_ADC_SetChannelPreselection
 3771 0b7a E5E7     		b	.L479
 3772              	.L594:
 3773              		.align	2
 3774              	.L593:
 3775 0b7c 00600258 		.word	1476550656
 3776 0b80 0000FF47 		.word	1207894016
 3777 0b84 00200240 		.word	1073881088
 3778 0b88 00210240 		.word	1073881344
 3779              	.L582:
 3780 0b8c 2368     		ldr	r3, [r4]
 3781 0b8e 8C4A     		ldr	r2, .L595
 3782 0b90 9342     		cmp	r3, r2
 3783 0b92 6DD0     		beq	.L506
 3784 0b94 8B4A     		ldr	r2, .L595+4
 3785 0b96 9342     		cmp	r3, r2
 3786 0b98 6CD0     		beq	.L507
 3787 0b9a 8B4A     		ldr	r2, .L595+8
 3788 0b9c 9342     		cmp	r3, r2
 3789 0b9e 6BD0     		beq	.L508
 3790 0ba0 8A4A     		ldr	r2, .L595+12
 3791 0ba2 9342     		cmp	r3, r2
 3792 0ba4 6AD0     		beq	.L509
 3793 0ba6 02F18662 		add	r2, r2, #70254592
 3794 0baa 1032     		adds	r2, r2, #16
 3795 0bac 9342     		cmp	r3, r2
 3796 0bae 67D0     		beq	.L510
 3797 0bb0 874A     		ldr	r2, .L595+16
 3798 0bb2 9342     		cmp	r3, r2
 3799 0bb4 66D0     		beq	.L511
 3800 0bb6 02F10422 		add	r2, r2, #67109888
 3801 0bba 02F54012 		add	r2, r2, #3145728
 3802 0bbe 9342     		cmp	r3, r2
 3803 0bc0 62D0     		beq	.L512
 3804 0bc2 02F18662 		add	r2, r2, #70254592
 3805 0bc6 02F50062 		add	r2, r2, #2048
 3806 0bca 9342     		cmp	r3, r2
 3807 0bcc 5ED0     		beq	.L513
 3808 0bce 814A     		ldr	r2, .L595+20
 3809 0bd0 9342     		cmp	r3, r2
 3810 0bd2 5DD0     		beq	.L514
 3811 0bd4 804A     		ldr	r2, .L595+24
 3812 0bd6 9342     		cmp	r3, r2
 3813 0bd8 CCD1     		bne	.L481
 3814 0bda 804E     		ldr	r6, .L595+28
 3815 0bdc CAE7     		b	.L481
 3816              	.L583:
 3817 0bde 2368     		ldr	r3, [r4]
 3818 0be0 774A     		ldr	r2, .L595
 3819 0be2 9342     		cmp	r3, r2
 3820 0be4 56D0     		beq	.L515
 3821 0be6 774A     		ldr	r2, .L595+4
 3822 0be8 9342     		cmp	r3, r2
ARM GAS  C:\Users\thewo\AppData\Local\Temp\ccCADg6a.s 			page 67


 3823 0bea 55D0     		beq	.L516
 3824 0bec 764A     		ldr	r2, .L595+8
 3825 0bee 9342     		cmp	r3, r2
 3826 0bf0 54D0     		beq	.L517
 3827 0bf2 764A     		ldr	r2, .L595+12
 3828 0bf4 9342     		cmp	r3, r2
 3829 0bf6 53D0     		beq	.L518
 3830 0bf8 02F18662 		add	r2, r2, #70254592
 3831 0bfc 1032     		adds	r2, r2, #16
 3832 0bfe 9342     		cmp	r3, r2
 3833 0c00 50D0     		beq	.L519
 3834 0c02 734A     		ldr	r2, .L595+16
 3835 0c04 9342     		cmp	r3, r2
 3836 0c06 4FD0     		beq	.L520
 3837 0c08 02F10422 		add	r2, r2, #67109888
 3838 0c0c 02F54012 		add	r2, r2, #3145728
 3839 0c10 9342     		cmp	r3, r2
 3840 0c12 4BD0     		beq	.L521
 3841 0c14 02F18662 		add	r2, r2, #70254592
 3842 0c18 02F50062 		add	r2, r2, #2048
 3843 0c1c 9342     		cmp	r3, r2
 3844 0c1e 47D0     		beq	.L522
 3845 0c20 6D4A     		ldr	r2, .L595+24
 3846 0c22 9342     		cmp	r3, r2
 3847 0c24 A6D1     		bne	.L481
 3848 0c26 6D4E     		ldr	r6, .L595+28
 3849 0c28 A4E7     		b	.L481
 3850              	.L584:
 3851 0c2a 2368     		ldr	r3, [r4]
 3852 0c2c 644A     		ldr	r2, .L595
 3853 0c2e 9342     		cmp	r3, r2
 3854 0c30 40D0     		beq	.L523
 3855 0c32 644A     		ldr	r2, .L595+4
 3856 0c34 9342     		cmp	r3, r2
 3857 0c36 3FD0     		beq	.L524
 3858 0c38 634A     		ldr	r2, .L595+8
 3859 0c3a 9342     		cmp	r3, r2
 3860 0c3c 3ED0     		beq	.L525
 3861 0c3e 634A     		ldr	r2, .L595+12
 3862 0c40 9342     		cmp	r3, r2
 3863 0c42 3DD0     		beq	.L526
 3864 0c44 02F18662 		add	r2, r2, #70254592
 3865 0c48 1032     		adds	r2, r2, #16
 3866 0c4a 9342     		cmp	r3, r2
 3867 0c4c 3AD0     		beq	.L527
 3868 0c4e 604A     		ldr	r2, .L595+16
 3869 0c50 9342     		cmp	r3, r2
 3870 0c52 39D0     		beq	.L528
 3871 0c54 02F10422 		add	r2, r2, #67109888
 3872 0c58 02F54012 		add	r2, r2, #3145728
 3873 0c5c 9342     		cmp	r3, r2
 3874 0c5e 35D0     		beq	.L529
 3875 0c60 5F4A     		ldr	r2, .L595+32
 3876 0c62 9342     		cmp	r3, r2
 3877 0c64 34D0     		beq	.L530
 3878 0c66 5F4A     		ldr	r2, .L595+36
 3879 0c68 9342     		cmp	r3, r2
ARM GAS  C:\Users\thewo\AppData\Local\Temp\ccCADg6a.s 			page 68


 3880 0c6a 83D1     		bne	.L481
 3881 0c6c 5E4E     		ldr	r6, .L595+40
 3882 0c6e 81E7     		b	.L481
 3883              	.L506:
 3884 0c70 0126     		movs	r6, #1
 3885 0c72 7FE7     		b	.L481
 3886              	.L507:
 3887 0c74 5D4E     		ldr	r6, .L595+44
 3888 0c76 7DE7     		b	.L481
 3889              	.L508:
 3890 0c78 5D4E     		ldr	r6, .L595+48
 3891 0c7a 7BE7     		b	.L481
 3892              	.L509:
 3893 0c7c 5D4E     		ldr	r6, .L595+52
 3894 0c7e 79E7     		b	.L481
 3895              	.L510:
 3896 0c80 5D4E     		ldr	r6, .L595+56
 3897 0c82 77E7     		b	.L481
 3898              	.L511:
 3899 0c84 5D4E     		ldr	r6, .L595+60
 3900 0c86 75E7     		b	.L481
 3901              	.L512:
 3902 0c88 5D4E     		ldr	r6, .L595+64
 3903 0c8a 73E7     		b	.L481
 3904              	.L513:
 3905 0c8c 544E     		ldr	r6, .L595+32
 3906 0c8e 71E7     		b	.L481
 3907              	.L514:
 3908 0c90 5C4E     		ldr	r6, .L595+68
 3909 0c92 6FE7     		b	.L481
 3910              	.L515:
 3911 0c94 0126     		movs	r6, #1
 3912 0c96 6DE7     		b	.L481
 3913              	.L516:
 3914 0c98 544E     		ldr	r6, .L595+44
 3915 0c9a 6BE7     		b	.L481
 3916              	.L517:
 3917 0c9c 544E     		ldr	r6, .L595+48
 3918 0c9e 69E7     		b	.L481
 3919              	.L518:
 3920 0ca0 544E     		ldr	r6, .L595+52
 3921 0ca2 67E7     		b	.L481
 3922              	.L519:
 3923 0ca4 544E     		ldr	r6, .L595+56
 3924 0ca6 65E7     		b	.L481
 3925              	.L520:
 3926 0ca8 544E     		ldr	r6, .L595+60
 3927 0caa 63E7     		b	.L481
 3928              	.L521:
 3929 0cac 544E     		ldr	r6, .L595+64
 3930 0cae 61E7     		b	.L481
 3931              	.L522:
 3932 0cb0 4B4E     		ldr	r6, .L595+32
 3933 0cb2 5FE7     		b	.L481
 3934              	.L523:
 3935 0cb4 0126     		movs	r6, #1
 3936 0cb6 5DE7     		b	.L481
ARM GAS  C:\Users\thewo\AppData\Local\Temp\ccCADg6a.s 			page 69


 3937              	.L524:
 3938 0cb8 4C4E     		ldr	r6, .L595+44
 3939 0cba 5BE7     		b	.L481
 3940              	.L525:
 3941 0cbc 4C4E     		ldr	r6, .L595+48
 3942 0cbe 59E7     		b	.L481
 3943              	.L526:
 3944 0cc0 4C4E     		ldr	r6, .L595+52
 3945 0cc2 57E7     		b	.L481
 3946              	.L527:
 3947 0cc4 4C4E     		ldr	r6, .L595+56
 3948 0cc6 55E7     		b	.L481
 3949              	.L528:
 3950 0cc8 4C4E     		ldr	r6, .L595+60
 3951 0cca 53E7     		b	.L481
 3952              	.L529:
 3953 0ccc 4C4E     		ldr	r6, .L595+64
 3954 0cce 51E7     		b	.L481
 3955              	.L530:
 3956 0cd0 444E     		ldr	r6, .L595+36
 3957 0cd2 4FE7     		b	.L481
 3958              	.L581:
 3959 0cd4 2A68     		ldr	r2, [r5]
 3960 0cd6 4C49     		ldr	r1, .L595+72
 3961 0cd8 4C48     		ldr	r0, .L595+76
 3962 0cda 8242     		cmp	r2, r0
 3963 0cdc 18BF     		it	ne
 3964 0cde 8A42     		cmpne	r2, r1
 3965 0ce0 0CBF     		ite	eq
 3966 0ce2 0121     		moveq	r1, #1
 3967 0ce4 0021     		movne	r1, #0
 3968 0ce6 14D1     		bne	.L483
 3969 0ce8 A0F58070 		sub	r0, r0, #256
 3970 0cec 8468     		ldr	r4, [r0, #8]
 3971 0cee 14F00104 		ands	r4, r4, #1
 3972 0cf2 00D0     		beq	.L484
 3973 0cf4 0124     		movs	r4, #1
 3974              	.L484:
 3975 0cf6 4548     		ldr	r0, .L595+76
 3976 0cf8 8068     		ldr	r0, [r0, #8]
 3977 0cfa 10F00100 		ands	r0, r0, #1
 3978 0cfe 00D0     		beq	.L485
 3979 0d00 0120     		movs	r0, #1
 3980              	.L485:
 3981 0d02 2043     		orrs	r0, r0, r4
 3982 0d04 0AD0     		beq	.L486
 3983              	.L487:
 3984 0d06 2B6E     		ldr	r3, [r5, #96]
 3985 0d08 43F02003 		orr	r3, r3, #32
 3986 0d0c 2B66     		str	r3, [r5, #96]
 3987 0d0e 0127     		movs	r7, #1
 3988 0d10 1EE7     		b	.L478
 3989              	.L483:
 3990 0d12 3F48     		ldr	r0, .L595+80
 3991 0d14 8068     		ldr	r0, [r0, #8]
 3992 0d16 10F0010F 		tst	r0, #1
 3993 0d1a F4D1     		bne	.L487
ARM GAS  C:\Users\thewo\AppData\Local\Temp\ccCADg6a.s 			page 70


 3994              	.L486:
 3995 0d1c E9B1     		cbz	r1, .L531
 3996 0d1e 3D48     		ldr	r0, .L595+84
 3997              	.L488:
 3998 0d20 8168     		ldr	r1, [r0, #8]
 3999 0d22 01F0E076 		and	r6, r1, #29360128
 4000 0d26 3C4C     		ldr	r4, .L595+88
 4001 0d28 A342     		cmp	r3, r4
 4002 0d2a 18D0     		beq	.L585
 4003              	.L489:
 4004 0d2c 3B4C     		ldr	r4, .L595+92
 4005 0d2e A342     		cmp	r3, r4
 4006 0d30 35D0     		beq	.L586
 4007              	.L492:
 4008 0d32 3B4C     		ldr	r4, .L595+96
 4009 0d34 A342     		cmp	r3, r4
 4010 0d36 7FF40BAF 		bne	.L478
 4011 0d3a 11F4800F 		tst	r1, #4194304
 4012 0d3e 7FF407AF 		bne	.L478
 4013 0d42 334B     		ldr	r3, .L595+80
 4014 0d44 9A42     		cmp	r2, r3
 4015 0d46 7FF403AF 		bne	.L478
 4016 0d4a 46F48003 		orr	r3, r6, #4194304
 4017 0d4e 8268     		ldr	r2, [r0, #8]
 4018 0d50 22F0E072 		bic	r2, r2, #29360128
 4019 0d54 1343     		orrs	r3, r3, r2
 4020 0d56 8360     		str	r3, [r0, #8]
 4021 0d58 FAE6     		b	.L478
 4022              	.L531:
 4023 0d5a 3248     		ldr	r0, .L595+100
 4024 0d5c E0E7     		b	.L488
 4025              	.L585:
 4026 0d5e 11F4000F 		tst	r1, #8388608
 4027 0d62 E3D1     		bne	.L489
 4028 0d64 2A4B     		ldr	r3, .L595+80
 4029 0d66 9A42     		cmp	r2, r3
 4030 0d68 7FF4F2AE 		bne	.L478
 4031 0d6c 46F40003 		orr	r3, r6, #8388608
 4032 0d70 8268     		ldr	r2, [r0, #8]
 4033 0d72 22F0E072 		bic	r2, r2, #29360128
 4034 0d76 1343     		orrs	r3, r3, r2
 4035 0d78 8360     		str	r3, [r0, #8]
 4036 0d7a 2B4B     		ldr	r3, .L595+104
 4037 0d7c 1B68     		ldr	r3, [r3]
 4038 0d7e 9B09     		lsrs	r3, r3, #6
 4039 0d80 2A4A     		ldr	r2, .L595+108
 4040 0d82 A2FB0323 		umull	r2, r3, r2, r3
 4041 0d86 9B09     		lsrs	r3, r3, #6
 4042 0d88 0133     		adds	r3, r3, #1
 4043 0d8a 5B00     		lsls	r3, r3, #1
 4044 0d8c 0193     		str	r3, [sp, #4]
 4045 0d8e 02E0     		b	.L490
 4046              	.L491:
 4047 0d90 019B     		ldr	r3, [sp, #4]
 4048 0d92 013B     		subs	r3, r3, #1
 4049 0d94 0193     		str	r3, [sp, #4]
 4050              	.L490:
ARM GAS  C:\Users\thewo\AppData\Local\Temp\ccCADg6a.s 			page 71


 4051 0d96 019B     		ldr	r3, [sp, #4]
 4052 0d98 002B     		cmp	r3, #0
 4053 0d9a F9D1     		bne	.L491
 4054 0d9c D8E6     		b	.L478
 4055              	.L586:
 4056 0d9e 11F0807F 		tst	r1, #16777216
 4057 0da2 C6D1     		bne	.L492
 4058 0da4 1A4B     		ldr	r3, .L595+80
 4059 0da6 9A42     		cmp	r2, r3
 4060 0da8 7FF4D2AE 		bne	.L478
 4061 0dac 46F08073 		orr	r3, r6, #16777216
 4062 0db0 8268     		ldr	r2, [r0, #8]
 4063 0db2 22F0E072 		bic	r2, r2, #29360128
 4064 0db6 1343     		orrs	r3, r3, r2
 4065 0db8 8360     		str	r3, [r0, #8]
 4066 0dba C9E6     		b	.L478
 4067              	.L493:
 4068 0dbc 0227     		movs	r7, #2
 4069 0dbe CAE6     		b	.L410
 4070              	.L596:
 4071              		.align	2
 4072              	.L595:
 4073 0dc0 02003004 		.word	70254594
 4074 0dc4 04006008 		.word	140509188
 4075 0dc8 0800900C 		.word	210763784
 4076 0dcc 1000C010 		.word	281018384
 4077 0dd0 0004002A 		.word	704644096
 4078 0dd4 00002143 		.word	1126236160
 4079 0dd8 0000844B 		.word	1266941952
 4080 0ddc 0000B84F 		.word	1337458688
 4081 0de0 00209036 		.word	915415040
 4082 0de4 0040C03A 		.word	985677824
 4083 0de8 0080F03E 		.word	1055948800
 4084 0dec 40002019 		.word	421527616
 4085 0df0 8000501D 		.word	491782272
 4086 0df4 00018021 		.word	562036992
 4087 0df8 0002B025 		.word	632291840
 4088 0dfc 0008302E 		.word	774899712
 4089 0e00 00106032 		.word	845156352
 4090 0e04 00005247 		.word	1196556288
 4091 0e08 00200240 		.word	1073881088
 4092 0e0c 00210240 		.word	1073881344
 4093 0e10 00600258 		.word	1476550656
 4094 0e14 00230240 		.word	1073881856
 4095 0e18 000052C7 		.word	-950927360
 4096 0e1c 000021C3 		.word	-1021247488
 4097 0e20 000084CB 		.word	-880541696
 4098 0e24 00630258 		.word	1476551424
 4099 0e28 00000000 		.word	SystemCoreClock
 4100 0e2c 632D3E05 		.word	87960931
 4102              		.section	.text.HAL_ADCEx_MultiModeConfigChannel,"ax",%progbits
 4103              		.align	1
 4104              		.global	HAL_ADCEx_MultiModeConfigChannel
 4105              		.syntax unified
 4106              		.thumb
 4107              		.thumb_func
 4109              	HAL_ADCEx_MultiModeConfigChannel:
ARM GAS  C:\Users\thewo\AppData\Local\Temp\ccCADg6a.s 			page 72


 4110              		@ args = 0, pretend = 0, frame = 112
 4111              		@ frame_needed = 0, uses_anonymous_args = 0
 4112 0000 30B5     		push	{r4, r5, lr}
 4113 0002 9DB0     		sub	sp, sp, #116
 4114 0004 0446     		mov	r4, r0
 4115 0006 0D46     		mov	r5, r1
 4116 0008 0268     		ldr	r2, [r0]
 4117 000a 704B     		ldr	r3, .L630
 4118 000c 9A42     		cmp	r2, r3
 4119 000e 04D0     		beq	.L598
 4120 0010 40F66211 		movw	r1, #2402
 4121 0014 6E48     		ldr	r0, .L630+4
 4122 0016 FFF7FEFF 		bl	assert_failed
 4123              	.L598:
 4124 001a 2B68     		ldr	r3, [r5]
 4125 001c 052B     		cmp	r3, #5
 4126 001e 18BF     		it	ne
 4127 0020 032B     		cmpne	r3, #3
 4128 0022 03D9     		bls	.L599
 4129 0024 072B     		cmp	r3, #7
 4130 0026 6AD8     		bhi	.L600
 4131 0028 062B     		cmp	r3, #6
 4132 002a 6AD3     		bcc	.L601
 4133              	.L599:
 4134 002c 2B68     		ldr	r3, [r5]
 4135 002e 03B3     		cbz	r3, .L602
 4136 0030 6B68     		ldr	r3, [r5, #4]
 4137 0032 002B     		cmp	r3, #0
 4138 0034 18BF     		it	ne
 4139 0036 B3F5004F 		cmpne	r3, #32768
 4140 003a 02D0     		beq	.L603
 4141 003c B3F5404F 		cmp	r3, #49152
 4142 0040 65D1     		bne	.L626
 4143              	.L603:
 4144 0042 AB68     		ldr	r3, [r5, #8]
 4145 0044 002B     		cmp	r3, #0
 4146 0046 18BF     		it	ne
 4147 0048 B3F5807F 		cmpne	r3, #256
 4148 004c 11D0     		beq	.L602
 4149 004e B3F5007F 		cmp	r3, #512
 4150 0052 0ED0     		beq	.L602
 4151 0054 B3F5407F 		cmp	r3, #768
 4152 0058 0BD0     		beq	.L602
 4153 005a B3F5806F 		cmp	r3, #1024
 4154 005e 08D0     		beq	.L602
 4155 0060 B3F5A06F 		cmp	r3, #1280
 4156 0064 05D0     		beq	.L602
 4157 0066 B3F5E06F 		cmp	r3, #1792
 4158 006a 02D0     		beq	.L602
 4159 006c B3F5006F 		cmp	r3, #2048
 4160 0070 53D1     		bne	.L627
 4161              	.L602:
 4162 0072 94F85C30 		ldrb	r3, [r4, #92]	@ zero_extendqisi2
 4163 0076 012B     		cmp	r3, #1
 4164 0078 00F0A680 		beq	.L621
 4165 007c 0123     		movs	r3, #1
 4166 007e 84F85C30 		strb	r3, [r4, #92]
ARM GAS  C:\Users\thewo\AppData\Local\Temp\ccCADg6a.s 			page 73


 4167 0082 0023     		movs	r3, #0
 4168 0084 1893     		str	r3, [sp, #96]
 4169 0086 1993     		str	r3, [sp, #100]
 4170 0088 2268     		ldr	r2, [r4]
 4171 008a 504B     		ldr	r3, .L630
 4172 008c 9A42     		cmp	r2, r3
 4173 008e 4AD0     		beq	.L628
 4174 0090 0023     		movs	r3, #0
 4175 0092 0093     		str	r3, [sp]
 4176              	.L606:
 4177 0094 009B     		ldr	r3, [sp]
 4178 0096 002B     		cmp	r3, #0
 4179 0098 49D0     		beq	.L629
 4180 009a 9B68     		ldr	r3, [r3, #8]
 4181 009c 13F00403 		ands	r3, r3, #4
 4182 00a0 00D0     		beq	.L608
 4183 00a2 0123     		movs	r3, #1
 4184              	.L608:
 4185 00a4 9168     		ldr	r1, [r2, #8]
 4186 00a6 11F0040F 		tst	r1, #4
 4187 00aa 7FD1     		bne	.L609
 4188 00ac 002B     		cmp	r3, #0
 4189 00ae 7DD1     		bne	.L609
 4190 00b0 4649     		ldr	r1, .L630
 4191 00b2 484B     		ldr	r3, .L630+8
 4192 00b4 9A42     		cmp	r2, r3
 4193 00b6 18BF     		it	ne
 4194 00b8 8A42     		cmpne	r2, r1
 4195 00ba 41D1     		bne	.L622
 4196 00bc 03F50073 		add	r3, r3, #512
 4197              	.L610:
 4198 00c0 2A68     		ldr	r2, [r5]
 4199 00c2 002A     		cmp	r2, #0
 4200 00c4 4DD0     		beq	.L611
 4201 00c6 9A68     		ldr	r2, [r3, #8]
 4202 00c8 22F44042 		bic	r2, r2, #49152
 4203 00cc 6968     		ldr	r1, [r5, #4]
 4204 00ce 0A43     		orrs	r2, r2, r1
 4205 00d0 9A60     		str	r2, [r3, #8]
 4206 00d2 2268     		ldr	r2, [r4]
 4207 00d4 3D48     		ldr	r0, .L630
 4208 00d6 3F49     		ldr	r1, .L630+8
 4209 00d8 8A42     		cmp	r2, r1
 4210 00da 18BF     		it	ne
 4211 00dc 8242     		cmpne	r2, r0
 4212 00de 31D1     		bne	.L612
 4213 00e0 8168     		ldr	r1, [r0, #8]
 4214 00e2 11F00101 		ands	r1, r1, #1
 4215 00e6 00D0     		beq	.L613
 4216 00e8 0121     		movs	r1, #1
 4217              	.L613:
 4218 00ea 3A4A     		ldr	r2, .L630+8
 4219 00ec 9268     		ldr	r2, [r2, #8]
 4220 00ee 12F00102 		ands	r2, r2, #1
 4221 00f2 00D0     		beq	.L614
 4222 00f4 0122     		movs	r2, #1
 4223              	.L614:
ARM GAS  C:\Users\thewo\AppData\Local\Temp\ccCADg6a.s 			page 74


 4224 00f6 0A43     		orrs	r2, r2, r1
 4225 00f8 29D0     		beq	.L615
 4226 00fa 0020     		movs	r0, #0
 4227 00fc 5BE0     		b	.L616
 4228              	.L600:
 4229 00fe 092B     		cmp	r3, #9
 4230 0100 94D0     		beq	.L599
 4231              	.L601:
 4232 0102 40F66311 		movw	r1, #2403
 4233 0106 3248     		ldr	r0, .L630+4
 4234 0108 FFF7FEFF 		bl	assert_failed
 4235 010c 8EE7     		b	.L599
 4236              	.L626:
 4237 010e 40F66611 		movw	r1, #2406
 4238 0112 2F48     		ldr	r0, .L630+4
 4239 0114 FFF7FEFF 		bl	assert_failed
 4240 0118 93E7     		b	.L603
 4241              	.L627:
 4242 011a 40F66711 		movw	r1, #2407
 4243 011e 2C48     		ldr	r0, .L630+4
 4244 0120 FFF7FEFF 		bl	assert_failed
 4245 0124 A5E7     		b	.L602
 4246              	.L628:
 4247 0126 03F58073 		add	r3, r3, #256
 4248 012a 0093     		str	r3, [sp]
 4249 012c B2E7     		b	.L606
 4250              	.L629:
 4251 012e 236E     		ldr	r3, [r4, #96]
 4252 0130 43F02003 		orr	r3, r3, #32
 4253 0134 2366     		str	r3, [r4, #96]
 4254 0136 0023     		movs	r3, #0
 4255 0138 84F85C30 		strb	r3, [r4, #92]
 4256 013c 0120     		movs	r0, #1
 4257 013e 3DE0     		b	.L604
 4258              	.L622:
 4259 0140 254B     		ldr	r3, .L630+12
 4260 0142 BDE7     		b	.L610
 4261              	.L612:
 4262 0144 254A     		ldr	r2, .L630+16
 4263 0146 9268     		ldr	r2, [r2, #8]
 4264 0148 12F0010F 		tst	r2, #1
 4265 014c 38D1     		bne	.L623
 4266              	.L615:
 4267 014e 9968     		ldr	r1, [r3, #8]
 4268 0150 234A     		ldr	r2, .L630+20
 4269 0152 0A40     		ands	r2, r2, r1
 4270 0154 2968     		ldr	r1, [r5]
 4271 0156 A868     		ldr	r0, [r5, #8]
 4272 0158 0143     		orrs	r1, r1, r0
 4273 015a 0A43     		orrs	r2, r2, r1
 4274 015c 9A60     		str	r2, [r3, #8]
 4275 015e 0020     		movs	r0, #0
 4276 0160 29E0     		b	.L616
 4277              	.L611:
 4278 0162 9A68     		ldr	r2, [r3, #8]
 4279 0164 22F44042 		bic	r2, r2, #49152
 4280 0168 9A60     		str	r2, [r3, #8]
ARM GAS  C:\Users\thewo\AppData\Local\Temp\ccCADg6a.s 			page 75


 4281 016a 2268     		ldr	r2, [r4]
 4282 016c 1748     		ldr	r0, .L630
 4283 016e 1949     		ldr	r1, .L630+8
 4284 0170 8A42     		cmp	r2, r1
 4285 0172 18BF     		it	ne
 4286 0174 8242     		cmpne	r2, r0
 4287 0176 0ED1     		bne	.L617
 4288 0178 8168     		ldr	r1, [r0, #8]
 4289 017a 11F00101 		ands	r1, r1, #1
 4290 017e 00D0     		beq	.L618
 4291 0180 0121     		movs	r1, #1
 4292              	.L618:
 4293 0182 144A     		ldr	r2, .L630+8
 4294 0184 9268     		ldr	r2, [r2, #8]
 4295 0186 12F00102 		ands	r2, r2, #1
 4296 018a 00D0     		beq	.L619
 4297 018c 0122     		movs	r2, #1
 4298              	.L619:
 4299 018e 0A43     		orrs	r2, r2, r1
 4300 0190 06D0     		beq	.L620
 4301 0192 0020     		movs	r0, #0
 4302 0194 0FE0     		b	.L616
 4303              	.L617:
 4304 0196 114A     		ldr	r2, .L630+16
 4305 0198 9268     		ldr	r2, [r2, #8]
 4306 019a 12F0010F 		tst	r2, #1
 4307 019e 11D1     		bne	.L624
 4308              	.L620:
 4309 01a0 9968     		ldr	r1, [r3, #8]
 4310 01a2 0F4A     		ldr	r2, .L630+20
 4311 01a4 0A40     		ands	r2, r2, r1
 4312 01a6 9A60     		str	r2, [r3, #8]
 4313 01a8 0020     		movs	r0, #0
 4314 01aa 04E0     		b	.L616
 4315              	.L609:
 4316 01ac 236E     		ldr	r3, [r4, #96]
 4317 01ae 43F02003 		orr	r3, r3, #32
 4318 01b2 2366     		str	r3, [r4, #96]
 4319 01b4 0120     		movs	r0, #1
 4320              	.L616:
 4321 01b6 0023     		movs	r3, #0
 4322 01b8 84F85C30 		strb	r3, [r4, #92]
 4323              	.L604:
 4324 01bc 1DB0     		add	sp, sp, #116
 4325              		@ sp needed
 4326 01be 30BD     		pop	{r4, r5, pc}
 4327              	.L623:
 4328 01c0 0020     		movs	r0, #0
 4329 01c2 F8E7     		b	.L616
 4330              	.L624:
 4331 01c4 0020     		movs	r0, #0
 4332 01c6 F6E7     		b	.L616
 4333              	.L621:
 4334 01c8 0220     		movs	r0, #2
 4335 01ca F7E7     		b	.L604
 4336              	.L631:
 4337              		.align	2
ARM GAS  C:\Users\thewo\AppData\Local\Temp\ccCADg6a.s 			page 76


 4338              	.L630:
 4339 01cc 00200240 		.word	1073881088
 4340 01d0 00000000 		.word	.LC0
 4341 01d4 00210240 		.word	1073881344
 4342 01d8 00630258 		.word	1476551424
 4343 01dc 00600258 		.word	1476550656
 4344 01e0 E0F0FFFF 		.word	-3872
 4346              		.section	.text.HAL_ADCEx_EnableInjectedQueue,"ax",%progbits
 4347              		.align	1
 4348              		.global	HAL_ADCEx_EnableInjectedQueue
 4349              		.syntax unified
 4350              		.thumb
 4351              		.thumb_func
 4353              	HAL_ADCEx_EnableInjectedQueue:
 4354              		@ args = 0, pretend = 0, frame = 0
 4355              		@ frame_needed = 0, uses_anonymous_args = 0
 4356 0000 10B5     		push	{r4, lr}
 4357 0002 0446     		mov	r4, r0
 4358 0004 0368     		ldr	r3, [r0]
 4359 0006 1349     		ldr	r1, .L639
 4360 0008 134A     		ldr	r2, .L639+4
 4361 000a 8B42     		cmp	r3, r1
 4362 000c 18BF     		it	ne
 4363 000e 9342     		cmpne	r3, r2
 4364 0010 07D0     		beq	.L633
 4365 0012 124A     		ldr	r2, .L639+8
 4366 0014 9342     		cmp	r3, r2
 4367 0016 04D0     		beq	.L633
 4368 0018 40F6D211 		movw	r1, #2514
 4369 001c 1048     		ldr	r0, .L639+12
 4370 001e FFF7FEFF 		bl	assert_failed
 4371              	.L633:
 4372 0022 2268     		ldr	r2, [r4]
 4373 0024 9368     		ldr	r3, [r2, #8]
 4374 0026 13F00403 		ands	r3, r3, #4
 4375 002a 00D0     		beq	.L634
 4376 002c 0123     		movs	r3, #1
 4377              	.L634:
 4378 002e 9168     		ldr	r1, [r2, #8]
 4379 0030 11F0080F 		tst	r1, #8
 4380 0034 0AD1     		bne	.L636
 4381 0036 5BB9     		cbnz	r3, .L637
 4382 0038 D368     		ldr	r3, [r2, #12]
 4383 003a 23F00043 		bic	r3, r3, #-2147483648
 4384 003e D360     		str	r3, [r2, #12]
 4385 0040 236E     		ldr	r3, [r4, #96]
 4386 0042 23F48043 		bic	r3, r3, #16384
 4387 0046 2366     		str	r3, [r4, #96]
 4388 0048 0020     		movs	r0, #0
 4389 004a 00E0     		b	.L635
 4390              	.L636:
 4391 004c 0120     		movs	r0, #1
 4392              	.L635:
 4393 004e 10BD     		pop	{r4, pc}
 4394              	.L637:
 4395 0050 0120     		movs	r0, #1
 4396 0052 FCE7     		b	.L635
ARM GAS  C:\Users\thewo\AppData\Local\Temp\ccCADg6a.s 			page 77


 4397              	.L640:
 4398              		.align	2
 4399              	.L639:
 4400 0054 00200240 		.word	1073881088
 4401 0058 00210240 		.word	1073881344
 4402 005c 00600258 		.word	1476550656
 4403 0060 00000000 		.word	.LC0
 4405              		.section	.text.HAL_ADCEx_DisableInjectedQueue,"ax",%progbits
 4406              		.align	1
 4407              		.global	HAL_ADCEx_DisableInjectedQueue
 4408              		.syntax unified
 4409              		.thumb
 4410              		.thumb_func
 4412              	HAL_ADCEx_DisableInjectedQueue:
 4413              		@ args = 0, pretend = 0, frame = 0
 4414              		@ frame_needed = 0, uses_anonymous_args = 0
 4415 0000 10B5     		push	{r4, lr}
 4416 0002 0446     		mov	r4, r0
 4417 0004 0368     		ldr	r3, [r0]
 4418 0006 1249     		ldr	r1, .L648
 4419 0008 124A     		ldr	r2, .L648+4
 4420 000a 8B42     		cmp	r3, r1
 4421 000c 18BF     		it	ne
 4422 000e 9342     		cmpne	r3, r2
 4423 0010 07D0     		beq	.L642
 4424 0012 114A     		ldr	r2, .L648+8
 4425 0014 9342     		cmp	r3, r2
 4426 0016 04D0     		beq	.L642
 4427 0018 40F6FB11 		movw	r1, #2555
 4428 001c 0F48     		ldr	r0, .L648+12
 4429 001e FFF7FEFF 		bl	assert_failed
 4430              	.L642:
 4431 0022 2268     		ldr	r2, [r4]
 4432 0024 9368     		ldr	r3, [r2, #8]
 4433 0026 13F00403 		ands	r3, r3, #4
 4434 002a 00D0     		beq	.L643
 4435 002c 0123     		movs	r3, #1
 4436              	.L643:
 4437 002e 9168     		ldr	r1, [r2, #8]
 4438 0030 11F0080F 		tst	r1, #8
 4439 0034 08D1     		bne	.L645
 4440 0036 4BB9     		cbnz	r3, .L646
 4441 0038 D168     		ldr	r1, [r2, #12]
 4442 003a 094B     		ldr	r3, .L648+16
 4443 003c 0B40     		ands	r3, r3, r1
 4444 003e 43F00043 		orr	r3, r3, #-2147483648
 4445 0042 D360     		str	r3, [r2, #12]
 4446 0044 0020     		movs	r0, #0
 4447 0046 00E0     		b	.L644
 4448              	.L645:
 4449 0048 0120     		movs	r0, #1
 4450              	.L644:
 4451 004a 10BD     		pop	{r4, pc}
 4452              	.L646:
 4453 004c 0120     		movs	r0, #1
 4454 004e FCE7     		b	.L644
 4455              	.L649:
ARM GAS  C:\Users\thewo\AppData\Local\Temp\ccCADg6a.s 			page 78


 4456              		.align	2
 4457              	.L648:
 4458 0050 00200240 		.word	1073881088
 4459 0054 00210240 		.word	1073881344
 4460 0058 00600258 		.word	1476550656
 4461 005c 00000000 		.word	.LC0
 4462 0060 FFFFDF7F 		.word	2145386495
 4464              		.section	.text.HAL_ADCEx_DisableVoltageRegulator,"ax",%progbits
 4465              		.align	1
 4466              		.global	HAL_ADCEx_DisableVoltageRegulator
 4467              		.syntax unified
 4468              		.thumb
 4469              		.thumb_func
 4471              	HAL_ADCEx_DisableVoltageRegulator:
 4472              		@ args = 0, pretend = 0, frame = 0
 4473              		@ frame_needed = 0, uses_anonymous_args = 0
 4474 0000 10B5     		push	{r4, lr}
 4475 0002 0446     		mov	r4, r0
 4476 0004 0368     		ldr	r3, [r0]
 4477 0006 0D49     		ldr	r1, .L655
 4478 0008 0D4A     		ldr	r2, .L655+4
 4479 000a 8B42     		cmp	r3, r1
 4480 000c 18BF     		it	ne
 4481 000e 9342     		cmpne	r3, r2
 4482 0010 07D0     		beq	.L651
 4483 0012 0C4A     		ldr	r2, .L655+8
 4484 0014 9342     		cmp	r3, r2
 4485 0016 04D0     		beq	.L651
 4486 0018 40F61E21 		movw	r1, #2590
 4487 001c 0A48     		ldr	r0, .L655+12
 4488 001e FFF7FEFF 		bl	assert_failed
 4489              	.L651:
 4490 0022 2368     		ldr	r3, [r4]
 4491 0024 9A68     		ldr	r2, [r3, #8]
 4492 0026 12F0010F 		tst	r2, #1
 4493 002a 05D1     		bne	.L653
 4494 002c 9968     		ldr	r1, [r3, #8]
 4495 002e 074A     		ldr	r2, .L655+16
 4496 0030 0A40     		ands	r2, r2, r1
 4497 0032 9A60     		str	r2, [r3, #8]
 4498 0034 0020     		movs	r0, #0
 4499              	.L652:
 4500 0036 10BD     		pop	{r4, pc}
 4501              	.L653:
 4502 0038 0120     		movs	r0, #1
 4503 003a FCE7     		b	.L652
 4504              	.L656:
 4505              		.align	2
 4506              	.L655:
 4507 003c 00200240 		.word	1073881088
 4508 0040 00210240 		.word	1073881344
 4509 0044 00600258 		.word	1476550656
 4510 0048 00000000 		.word	.LC0
 4511 004c C0FFFF6F 		.word	1879048128
 4513              		.section	.text.HAL_ADCEx_EnterADCDeepPowerDownMode,"ax",%progbits
 4514              		.align	1
 4515              		.global	HAL_ADCEx_EnterADCDeepPowerDownMode
ARM GAS  C:\Users\thewo\AppData\Local\Temp\ccCADg6a.s 			page 79


 4516              		.syntax unified
 4517              		.thumb
 4518              		.thumb_func
 4520              	HAL_ADCEx_EnterADCDeepPowerDownMode:
 4521              		@ args = 0, pretend = 0, frame = 0
 4522              		@ frame_needed = 0, uses_anonymous_args = 0
 4523 0000 10B5     		push	{r4, lr}
 4524 0002 0446     		mov	r4, r0
 4525 0004 0368     		ldr	r3, [r0]
 4526 0006 0E49     		ldr	r1, .L662
 4527 0008 0E4A     		ldr	r2, .L662+4
 4528 000a 8B42     		cmp	r3, r1
 4529 000c 18BF     		it	ne
 4530 000e 9342     		cmpne	r3, r2
 4531 0010 07D0     		beq	.L658
 4532 0012 0D4A     		ldr	r2, .L662+8
 4533 0014 9342     		cmp	r3, r2
 4534 0016 04D0     		beq	.L658
 4535 0018 40F64321 		movw	r1, #2627
 4536 001c 0B48     		ldr	r0, .L662+12
 4537 001e FFF7FEFF 		bl	assert_failed
 4538              	.L658:
 4539 0022 2368     		ldr	r3, [r4]
 4540 0024 9A68     		ldr	r2, [r3, #8]
 4541 0026 12F0010F 		tst	r2, #1
 4542 002a 07D1     		bne	.L660
 4543 002c 9968     		ldr	r1, [r3, #8]
 4544 002e 084A     		ldr	r2, .L662+16
 4545 0030 0A40     		ands	r2, r2, r1
 4546 0032 42F00052 		orr	r2, r2, #536870912
 4547 0036 9A60     		str	r2, [r3, #8]
 4548 0038 0020     		movs	r0, #0
 4549              	.L659:
 4550 003a 10BD     		pop	{r4, pc}
 4551              	.L660:
 4552 003c 0120     		movs	r0, #1
 4553 003e FCE7     		b	.L659
 4554              	.L663:
 4555              		.align	2
 4556              	.L662:
 4557 0040 00200240 		.word	1073881088
 4558 0044 00210240 		.word	1073881344
 4559 0048 00600258 		.word	1476550656
 4560 004c 00000000 		.word	.LC0
 4561 0050 C0FFFF5F 		.word	1610612672
 4563              		.ident	"GCC: (xPack GNU Arm Embedded GCC x86_64) 14.2.1 20241119"
ARM GAS  C:\Users\thewo\AppData\Local\Temp\ccCADg6a.s 			page 80

