ARM GAS  C:\Users\thewo\AppData\Local\Temp\ccQvy228.s 			page 1


   1              		.cpu cortex-m7
   2              		.arch armv7e-m
   3              		.fpu fpv5-d16
   4              		.eabi_attribute 28, 1
   5              		.eabi_attribute 20, 1
   6              		.eabi_attribute 21, 1
   7              		.eabi_attribute 23, 3
   8              		.eabi_attribute 24, 1
   9              		.eabi_attribute 25, 1
  10              		.eabi_attribute 26, 1
  11              		.eabi_attribute 30, 1
  12              		.eabi_attribute 34, 1
  13              		.eabi_attribute 18, 4
  14              		.file	"stm32h7xx_hal_pwr_ex.c"
  15              		.text
  16              		.section	.rodata.HAL_PWREx_ConfigSupply.str1.4,"aMS",%progbits,1
  17              		.align	2
  18              	.LC0:
  19 0000 44726976 		.ascii	"Drivers/STM32H7xx_HAL_Driver/Src/stm32h7xx_hal_pwr_"
  19      6572732F 
  19      53544D33 
  19      32483778 
  19      785F4841 
  20 0033 65782E63 		.ascii	"ex.c\000"
  20      00
  21              		.section	.text.HAL_PWREx_ConfigSupply,"ax",%progbits
  22              		.align	1
  23              		.global	HAL_PWREx_ConfigSupply
  24              		.syntax unified
  25              		.thumb
  26              		.thumb_func
  28              	HAL_PWREx_ConfigSupply:
  29              		@ args = 0, pretend = 0, frame = 0
  30              		@ frame_needed = 0, uses_anonymous_args = 0
  31 0000 38B5     		push	{r3, r4, r5, lr}
  32 0002 0446     		mov	r4, r0
  33 0004 0228     		cmp	r0, #2
  34 0006 18BF     		it	ne
  35 0008 0428     		cmpne	r0, #4
  36 000a 16D0     		beq	.L2
  37 000c B0F12603 		subs	r3, r0, #38
  38 0010 18BF     		it	ne
  39 0012 0123     		movne	r3, #1
  40 0014 1628     		cmp	r0, #22
  41 0016 10D0     		beq	.L2
  42 0018 7BB1     		cbz	r3, .L2
  43 001a B0F12E03 		subs	r3, r0, #46
  44 001e 18BF     		it	ne
  45 0020 0123     		movne	r3, #1
  46 0022 1E28     		cmp	r0, #30
  47 0024 09D0     		beq	.L2
  48 0026 43B1     		cbz	r3, .L2
  49 0028 B0F12D03 		subs	r3, r0, #45
  50 002c 18BF     		it	ne
  51 002e 0123     		movne	r3, #1
  52 0030 1D28     		cmp	r0, #29
  53 0032 02D0     		beq	.L2
ARM GAS  C:\Users\thewo\AppData\Local\Temp\ccQvy228.s 			page 2


  54 0034 0BB1     		cbz	r3, .L2
  55 0036 0128     		cmp	r0, #1
  56 0038 0DD1     		bne	.L16
  57              	.L2:
  58 003a 264B     		ldr	r3, .L19
  59 003c DB68     		ldr	r3, [r3, #12]
  60 003e 03F00703 		and	r3, r3, #7
  61 0042 062B     		cmp	r3, #6
  62 0044 0DD0     		beq	.L3
  63 0046 234B     		ldr	r3, .L19
  64 0048 DB68     		ldr	r3, [r3, #12]
  65 004a 03F03F03 		and	r3, r3, #63
  66 004e A342     		cmp	r3, r4
  67 0050 3DD0     		beq	.L11
  68 0052 0120     		movs	r0, #1
  69              	.L4:
  70 0054 38BD     		pop	{r3, r4, r5, pc}
  71              	.L16:
  72 0056 4FF4A171 		mov	r1, #322
  73 005a 1F48     		ldr	r0, .L19+4
  74 005c FFF7FEFF 		bl	assert_failed
  75 0060 EBE7     		b	.L2
  76              	.L3:
  77 0062 1C4A     		ldr	r2, .L19
  78 0064 D368     		ldr	r3, [r2, #12]
  79 0066 23F03F03 		bic	r3, r3, #63
  80 006a 2343     		orrs	r3, r3, r4
  81 006c D360     		str	r3, [r2, #12]
  82 006e FFF7FEFF 		bl	HAL_GetTick
  83 0072 0546     		mov	r5, r0
  84              	.L5:
  85 0074 174B     		ldr	r3, .L19
  86 0076 5B68     		ldr	r3, [r3, #4]
  87 0078 13F4005F 		tst	r3, #8192
  88 007c 07D1     		bne	.L17
  89 007e FFF7FEFF 		bl	HAL_GetTick
  90 0082 401B     		subs	r0, r0, r5
  91 0084 B0F57A7F 		cmp	r0, #1000
  92 0088 F4D9     		bls	.L5
  93 008a 0120     		movs	r0, #1
  94 008c E2E7     		b	.L4
  95              	.L17:
  96 008e 2E2C     		cmp	r4, #46
  97 0090 18BF     		it	ne
  98 0092 1E2C     		cmpne	r4, #30
  99 0094 08D0     		beq	.L7
 100 0096 2D2C     		cmp	r4, #45
 101 0098 14BF     		ite	ne
 102 009a 0023     		movne	r3, #0
 103 009c 0123     		moveq	r3, #1
 104 009e 1D2C     		cmp	r4, #29
 105 00a0 02D0     		beq	.L7
 106 00a2 0BB9     		cbnz	r3, .L7
 107 00a4 0020     		movs	r0, #0
 108 00a6 D5E7     		b	.L4
 109              	.L7:
 110 00a8 FFF7FEFF 		bl	HAL_GetTick
ARM GAS  C:\Users\thewo\AppData\Local\Temp\ccQvy228.s 			page 3


 111 00ac 0446     		mov	r4, r0
 112              	.L9:
 113 00ae 094B     		ldr	r3, .L19
 114 00b0 DB68     		ldr	r3, [r3, #12]
 115 00b2 03F01103 		and	r3, r3, #17
 116 00b6 112B     		cmp	r3, #17
 117 00b8 07D0     		beq	.L18
 118 00ba FFF7FEFF 		bl	HAL_GetTick
 119 00be 001B     		subs	r0, r0, r4
 120 00c0 B0F57A7F 		cmp	r0, #1000
 121 00c4 F3D9     		bls	.L9
 122 00c6 0120     		movs	r0, #1
 123 00c8 C4E7     		b	.L4
 124              	.L18:
 125 00ca 0020     		movs	r0, #0
 126 00cc C2E7     		b	.L4
 127              	.L11:
 128 00ce 0020     		movs	r0, #0
 129 00d0 C0E7     		b	.L4
 130              	.L20:
 131 00d2 00BF     		.align	2
 132              	.L19:
 133 00d4 00480258 		.word	1476544512
 134 00d8 00000000 		.word	.LC0
 136              		.section	.text.HAL_PWREx_GetSupplyConfig,"ax",%progbits
 137              		.align	1
 138              		.global	HAL_PWREx_GetSupplyConfig
 139              		.syntax unified
 140              		.thumb
 141              		.thumb_func
 143              	HAL_PWREx_GetSupplyConfig:
 144              		@ args = 0, pretend = 0, frame = 0
 145              		@ frame_needed = 0, uses_anonymous_args = 0
 146              		@ link register save eliminated.
 147 0000 024B     		ldr	r3, .L22
 148 0002 D868     		ldr	r0, [r3, #12]
 149 0004 00F03F00 		and	r0, r0, #63
 150 0008 7047     		bx	lr
 151              	.L23:
 152 000a 00BF     		.align	2
 153              	.L22:
 154 000c 00480258 		.word	1476544512
 156              		.section	.text.HAL_PWREx_ControlVoltageScaling,"ax",%progbits
 157              		.align	1
 158              		.global	HAL_PWREx_ControlVoltageScaling
 159              		.syntax unified
 160              		.thumb
 161              		.thumb_func
 163              	HAL_PWREx_ControlVoltageScaling:
 164              		@ args = 0, pretend = 0, frame = 0
 165              		@ frame_needed = 0, uses_anonymous_args = 0
 166 0000 10B5     		push	{r4, lr}
 167 0002 0446     		mov	r4, r0
 168 0004 0028     		cmp	r0, #0
 169 0006 18BF     		it	ne
 170 0008 B0F5404F 		cmpne	r0, #49152
 171 000c 07D0     		beq	.L25
ARM GAS  C:\Users\thewo\AppData\Local\Temp\ccQvy228.s 			page 4


 172 000e B0F58043 		subs	r3, r0, #16384
 173 0012 18BF     		it	ne
 174 0014 0123     		movne	r3, #1
 175 0016 B0F5004F 		cmp	r0, #32768
 176 001a 00D0     		beq	.L25
 177 001c DBB9     		cbnz	r3, .L32
 178              	.L25:
 179 001e 134B     		ldr	r3, .L34
 180 0020 5B68     		ldr	r3, [r3, #4]
 181 0022 03F44043 		and	r3, r3, #49152
 182 0026 A342     		cmp	r3, r4
 183 0028 1DD0     		beq	.L29
 184 002a 104A     		ldr	r2, .L34
 185 002c 9369     		ldr	r3, [r2, #24]
 186 002e 23F44043 		bic	r3, r3, #49152
 187 0032 2343     		orrs	r3, r3, r4
 188 0034 9361     		str	r3, [r2, #24]
 189 0036 FFF7FEFF 		bl	HAL_GetTick
 190 003a 0446     		mov	r4, r0
 191              	.L27:
 192 003c 0B4B     		ldr	r3, .L34
 193 003e 5B68     		ldr	r3, [r3, #4]
 194 0040 13F4005F 		tst	r3, #8192
 195 0044 0DD1     		bne	.L33
 196 0046 FFF7FEFF 		bl	HAL_GetTick
 197 004a 001B     		subs	r0, r0, r4
 198 004c B0F57A7F 		cmp	r0, #1000
 199 0050 F4D9     		bls	.L27
 200 0052 0120     		movs	r0, #1
 201 0054 08E0     		b	.L26
 202              	.L32:
 203 0056 4FF4D371 		mov	r1, #422
 204 005a 0548     		ldr	r0, .L34+4
 205 005c FFF7FEFF 		bl	assert_failed
 206 0060 DDE7     		b	.L25
 207              	.L33:
 208 0062 0020     		movs	r0, #0
 209 0064 00E0     		b	.L26
 210              	.L29:
 211 0066 0020     		movs	r0, #0
 212              	.L26:
 213 0068 10BD     		pop	{r4, pc}
 214              	.L35:
 215 006a 00BF     		.align	2
 216              	.L34:
 217 006c 00480258 		.word	1476544512
 218 0070 00000000 		.word	.LC0
 220              		.section	.text.HAL_PWREx_GetVoltageRange,"ax",%progbits
 221              		.align	1
 222              		.global	HAL_PWREx_GetVoltageRange
 223              		.syntax unified
 224              		.thumb
 225              		.thumb_func
 227              	HAL_PWREx_GetVoltageRange:
 228              		@ args = 0, pretend = 0, frame = 0
 229              		@ frame_needed = 0, uses_anonymous_args = 0
 230              		@ link register save eliminated.
ARM GAS  C:\Users\thewo\AppData\Local\Temp\ccQvy228.s 			page 5


 231 0000 024B     		ldr	r3, .L37
 232 0002 5868     		ldr	r0, [r3, #4]
 233 0004 00F44040 		and	r0, r0, #49152
 234 0008 7047     		bx	lr
 235              	.L38:
 236 000a 00BF     		.align	2
 237              	.L37:
 238 000c 00480258 		.word	1476544512
 240              		.section	.text.HAL_PWREx_ControlStopModeVoltageScaling,"ax",%progbits
 241              		.align	1
 242              		.global	HAL_PWREx_ControlStopModeVoltageScaling
 243              		.syntax unified
 244              		.thumb
 245              		.thumb_func
 247              	HAL_PWREx_ControlStopModeVoltageScaling:
 248              		@ args = 0, pretend = 0, frame = 0
 249              		@ frame_needed = 0, uses_anonymous_args = 0
 250 0000 10B5     		push	{r4, lr}
 251 0002 0446     		mov	r4, r0
 252 0004 B0F5404F 		cmp	r0, #49152
 253 0008 18BF     		it	ne
 254 000a B0F5004F 		cmpne	r0, #32768
 255 000e 02D0     		beq	.L40
 256 0010 B0F5804F 		cmp	r0, #16384
 257 0014 07D1     		bne	.L42
 258              	.L40:
 259 0016 074A     		ldr	r2, .L43
 260 0018 1368     		ldr	r3, [r2]
 261 001a 23F44043 		bic	r3, r3, #49152
 262 001e 2343     		orrs	r3, r3, r4
 263 0020 1360     		str	r3, [r2]
 264 0022 0020     		movs	r0, #0
 265 0024 10BD     		pop	{r4, pc}
 266              	.L42:
 267 0026 40F22121 		movw	r1, #545
 268 002a 0348     		ldr	r0, .L43+4
 269 002c FFF7FEFF 		bl	assert_failed
 270 0030 F1E7     		b	.L40
 271              	.L44:
 272 0032 00BF     		.align	2
 273              	.L43:
 274 0034 00480258 		.word	1476544512
 275 0038 00000000 		.word	.LC0
 277              		.section	.text.HAL_PWREx_GetStopModeVoltageRange,"ax",%progbits
 278              		.align	1
 279              		.global	HAL_PWREx_GetStopModeVoltageRange
 280              		.syntax unified
 281              		.thumb
 282              		.thumb_func
 284              	HAL_PWREx_GetStopModeVoltageRange:
 285              		@ args = 0, pretend = 0, frame = 0
 286              		@ frame_needed = 0, uses_anonymous_args = 0
 287              		@ link register save eliminated.
 288 0000 024B     		ldr	r3, .L46
 289 0002 1868     		ldr	r0, [r3]
 290 0004 00F44040 		and	r0, r0, #49152
 291 0008 7047     		bx	lr
ARM GAS  C:\Users\thewo\AppData\Local\Temp\ccQvy228.s 			page 6


 292              	.L47:
 293 000a 00BF     		.align	2
 294              	.L46:
 295 000c 00480258 		.word	1476544512
 297              		.section	.text.HAL_PWREx_EnterSTOPMode,"ax",%progbits
 298              		.align	1
 299              		.global	HAL_PWREx_EnterSTOPMode
 300              		.syntax unified
 301              		.thumb
 302              		.thumb_func
 304              	HAL_PWREx_EnterSTOPMode:
 305              		@ args = 0, pretend = 0, frame = 0
 306              		@ frame_needed = 0, uses_anonymous_args = 0
 307 0000 70B5     		push	{r4, r5, r6, lr}
 308 0002 0546     		mov	r5, r0
 309 0004 0E46     		mov	r6, r1
 310 0006 1446     		mov	r4, r2
 311 0008 0128     		cmp	r0, #1
 312 000a 22D8     		bhi	.L58
 313              	.L49:
 314 000c 731E     		subs	r3, r6, #1
 315 000e DBB2     		uxtb	r3, r3
 316 0010 012B     		cmp	r3, #1
 317 0012 24D8     		bhi	.L59
 318              	.L50:
 319 0014 022C     		cmp	r4, #2
 320 0016 28D8     		bhi	.L60
 321              	.L51:
 322 0018 1F4A     		ldr	r2, .L63
 323 001a 1368     		ldr	r3, [r2]
 324 001c 23F00103 		bic	r3, r3, #1
 325 0020 2B43     		orrs	r3, r3, r5
 326 0022 1360     		str	r3, [r2]
 327 0024 4CBB     		cbnz	r4, .L52
 328 0026 1369     		ldr	r3, [r2, #16]
 329 0028 23F00103 		bic	r3, r3, #1
 330 002c 1361     		str	r3, [r2, #16]
 331 002e 1B4A     		ldr	r2, .L63+4
 332 0030 1369     		ldr	r3, [r2, #16]
 333 0032 43F00403 		orr	r3, r3, #4
 334 0036 1361     		str	r3, [r2, #16]
 335              		.syntax unified
 336              	@ 946 "Drivers/CMSIS/Include/cmsis_gcc.h" 1
 337 0038 BFF34F8F 		dsb 0xF
 338              	@ 0 "" 2
 339              	@ 935 "Drivers/CMSIS/Include/cmsis_gcc.h" 1
 340 003c BFF36F8F 		isb 0xF
 341              	@ 0 "" 2
 342              		.thumb
 343              		.syntax unified
 344 0040 012E     		cmp	r6, #1
 345 0042 18D0     		beq	.L61
 346              		.syntax unified
 347              	@ 864 "Drivers/STM32H7xx_HAL_Driver/Src/stm32h7xx_hal_pwr_ex.c" 1
 348 0044 20BF     		wfe
 349              	@ 0 "" 2
 350              		.thumb
ARM GAS  C:\Users\thewo\AppData\Local\Temp\ccQvy228.s 			page 7


 351              		.syntax unified
 352              	.L54:
 353 0046 154A     		ldr	r2, .L63+4
 354 0048 1369     		ldr	r3, [r2, #16]
 355 004a 23F00403 		bic	r3, r3, #4
 356 004e 1361     		str	r3, [r2, #16]
 357              	.L48:
 358 0050 70BD     		pop	{r4, r5, r6, pc}
 359              	.L58:
 360 0052 40F23731 		movw	r1, #823
 361 0056 1248     		ldr	r0, .L63+8
 362 0058 FFF7FEFF 		bl	assert_failed
 363 005c D6E7     		b	.L49
 364              	.L59:
 365 005e 4FF44E71 		mov	r1, #824
 366 0062 0F48     		ldr	r0, .L63+8
 367 0064 FFF7FEFF 		bl	assert_failed
 368 0068 D4E7     		b	.L50
 369              	.L60:
 370 006a 40F23931 		movw	r1, #825
 371 006e 0C48     		ldr	r0, .L63+8
 372 0070 FFF7FEFF 		bl	assert_failed
 373 0074 D0E7     		b	.L51
 374              	.L61:
 375              		.syntax unified
 376              	@ 859 "Drivers/STM32H7xx_HAL_Driver/Src/stm32h7xx_hal_pwr_ex.c" 1
 377 0076 30BF     		wfi
 378              	@ 0 "" 2
 379              		.thumb
 380              		.syntax unified
 381 0078 E5E7     		b	.L54
 382              	.L52:
 383 007a 012C     		cmp	r4, #1
 384 007c 05D0     		beq	.L62
 385 007e 064A     		ldr	r2, .L63
 386 0080 1369     		ldr	r3, [r2, #16]
 387 0082 23F00403 		bic	r3, r3, #4
 388 0086 1361     		str	r3, [r2, #16]
 389 0088 E2E7     		b	.L48
 390              	.L62:
 391 008a 034A     		ldr	r2, .L63
 392 008c 1369     		ldr	r3, [r2, #16]
 393 008e 23F00203 		bic	r3, r3, #2
 394 0092 1361     		str	r3, [r2, #16]
 395 0094 DCE7     		b	.L48
 396              	.L64:
 397 0096 00BF     		.align	2
 398              	.L63:
 399 0098 00480258 		.word	1476544512
 400 009c 00ED00E0 		.word	-536810240
 401 00a0 00000000 		.word	.LC0
 403              		.section	.text.HAL_PWREx_ClearPendingEvent,"ax",%progbits
 404              		.align	1
 405              		.global	HAL_PWREx_ClearPendingEvent
 406              		.syntax unified
 407              		.thumb
 408              		.thumb_func
ARM GAS  C:\Users\thewo\AppData\Local\Temp\ccQvy228.s 			page 8


 410              	HAL_PWREx_ClearPendingEvent:
 411              		@ args = 0, pretend = 0, frame = 0
 412              		@ frame_needed = 0, uses_anonymous_args = 0
 413              		@ link register save eliminated.
 414              		.syntax unified
 415              	@ 957 "Drivers/STM32H7xx_HAL_Driver/Src/stm32h7xx_hal_pwr_ex.c" 1
 416 0000 20BF     		wfe
 417              	@ 0 "" 2
 418              		.thumb
 419              		.syntax unified
 420 0002 7047     		bx	lr
 422              		.section	.text.HAL_PWREx_EnterSTANDBYMode,"ax",%progbits
 423              		.align	1
 424              		.global	HAL_PWREx_EnterSTANDBYMode
 425              		.syntax unified
 426              		.thumb
 427              		.thumb_func
 429              	HAL_PWREx_EnterSTANDBYMode:
 430              		@ args = 0, pretend = 0, frame = 0
 431              		@ frame_needed = 0, uses_anonymous_args = 0
 432 0000 10B5     		push	{r4, lr}
 433 0002 0446     		mov	r4, r0
 434 0004 0228     		cmp	r0, #2
 435 0006 0CD8     		bhi	.L72
 436              	.L67:
 437 0008 8CB9     		cbnz	r4, .L68
 438 000a 104A     		ldr	r2, .L74
 439 000c 1369     		ldr	r3, [r2, #16]
 440 000e 43F00103 		orr	r3, r3, #1
 441 0012 1361     		str	r3, [r2, #16]
 442 0014 0E4A     		ldr	r2, .L74+4
 443 0016 1369     		ldr	r3, [r2, #16]
 444 0018 43F00403 		orr	r3, r3, #4
 445 001c 1361     		str	r3, [r2, #16]
 446              		.syntax unified
 447              	@ 1027 "Drivers/STM32H7xx_HAL_Driver/Src/stm32h7xx_hal_pwr_ex.c" 1
 448 001e 30BF     		wfi
 449              	@ 0 "" 2
 450              		.thumb
 451              		.syntax unified
 452              	.L66:
 453 0020 10BD     		pop	{r4, pc}
 454              	.L72:
 455 0022 40F2E131 		movw	r1, #993
 456 0026 0B48     		ldr	r0, .L74+8
 457 0028 FFF7FEFF 		bl	assert_failed
 458 002c ECE7     		b	.L67
 459              	.L68:
 460 002e 012C     		cmp	r4, #1
 461 0030 05D0     		beq	.L73
 462 0032 064A     		ldr	r2, .L74
 463 0034 1369     		ldr	r3, [r2, #16]
 464 0036 43F00403 		orr	r3, r3, #4
 465 003a 1361     		str	r3, [r2, #16]
 466 003c F0E7     		b	.L66
 467              	.L73:
 468 003e 034A     		ldr	r2, .L74
ARM GAS  C:\Users\thewo\AppData\Local\Temp\ccQvy228.s 			page 9


 469 0040 1369     		ldr	r3, [r2, #16]
 470 0042 43F00203 		orr	r3, r3, #2
 471 0046 1361     		str	r3, [r2, #16]
 472 0048 EAE7     		b	.L66
 473              	.L75:
 474 004a 00BF     		.align	2
 475              	.L74:
 476 004c 00480258 		.word	1476544512
 477 0050 00ED00E0 		.word	-536810240
 478 0054 00000000 		.word	.LC0
 480              		.section	.text.HAL_PWREx_ConfigD3Domain,"ax",%progbits
 481              		.align	1
 482              		.global	HAL_PWREx_ConfigD3Domain
 483              		.syntax unified
 484              		.thumb
 485              		.thumb_func
 487              	HAL_PWREx_ConfigD3Domain:
 488              		@ args = 0, pretend = 0, frame = 0
 489              		@ frame_needed = 0, uses_anonymous_args = 0
 490 0000 10B5     		push	{r4, lr}
 491 0002 0446     		mov	r4, r0
 492 0004 0028     		cmp	r0, #0
 493 0006 18BF     		it	ne
 494 0008 B0F5006F 		cmpne	r0, #2048
 495 000c 06D1     		bne	.L79
 496              	.L77:
 497 000e 064A     		ldr	r2, .L80
 498 0010 1369     		ldr	r3, [r2, #16]
 499 0012 23F40063 		bic	r3, r3, #2048
 500 0016 2343     		orrs	r3, r3, r4
 501 0018 1361     		str	r3, [r2, #16]
 502 001a 10BD     		pop	{r4, pc}
 503              	.L79:
 504 001c 4FF48861 		mov	r1, #1088
 505 0020 0248     		ldr	r0, .L80+4
 506 0022 FFF7FEFF 		bl	assert_failed
 507 0026 F2E7     		b	.L77
 508              	.L81:
 509              		.align	2
 510              	.L80:
 511 0028 00480258 		.word	1476544512
 512 002c 00000000 		.word	.LC0
 514              		.section	.text.HAL_PWREx_EnableFlashPowerDown,"ax",%progbits
 515              		.align	1
 516              		.global	HAL_PWREx_EnableFlashPowerDown
 517              		.syntax unified
 518              		.thumb
 519              		.thumb_func
 521              	HAL_PWREx_EnableFlashPowerDown:
 522              		@ args = 0, pretend = 0, frame = 0
 523              		@ frame_needed = 0, uses_anonymous_args = 0
 524              		@ link register save eliminated.
 525 0000 024A     		ldr	r2, .L83
 526 0002 1368     		ldr	r3, [r2]
 527 0004 43F40073 		orr	r3, r3, #512
 528 0008 1360     		str	r3, [r2]
 529 000a 7047     		bx	lr
ARM GAS  C:\Users\thewo\AppData\Local\Temp\ccQvy228.s 			page 10


 530              	.L84:
 531              		.align	2
 532              	.L83:
 533 000c 00480258 		.word	1476544512
 535              		.section	.text.HAL_PWREx_DisableFlashPowerDown,"ax",%progbits
 536              		.align	1
 537              		.global	HAL_PWREx_DisableFlashPowerDown
 538              		.syntax unified
 539              		.thumb
 540              		.thumb_func
 542              	HAL_PWREx_DisableFlashPowerDown:
 543              		@ args = 0, pretend = 0, frame = 0
 544              		@ frame_needed = 0, uses_anonymous_args = 0
 545              		@ link register save eliminated.
 546 0000 024A     		ldr	r2, .L86
 547 0002 1368     		ldr	r3, [r2]
 548 0004 23F40073 		bic	r3, r3, #512
 549 0008 1360     		str	r3, [r2]
 550 000a 7047     		bx	lr
 551              	.L87:
 552              		.align	2
 553              	.L86:
 554 000c 00480258 		.word	1476544512
 556              		.section	.text.HAL_PWREx_EnableWakeUpPin,"ax",%progbits
 557              		.align	1
 558              		.global	HAL_PWREx_EnableWakeUpPin
 559              		.syntax unified
 560              		.thumb
 561              		.thumb_func
 563              	HAL_PWREx_EnableWakeUpPin:
 564              		@ args = 0, pretend = 0, frame = 0
 565              		@ frame_needed = 0, uses_anonymous_args = 0
 566 0000 10B5     		push	{r4, lr}
 567 0002 0446     		mov	r4, r0
 568 0004 0368     		ldr	r3, [r0]
 569 0006 5A1E     		subs	r2, r3, #1
 570 0008 082B     		cmp	r3, #8
 571 000a 18BF     		it	ne
 572 000c 012A     		cmpne	r2, #1
 573 000e 21D9     		bls	.L89
 574 0010 40F20112 		movw	r2, #257
 575 0014 9342     		cmp	r3, r2
 576 0016 1DD0     		beq	.L89
 577 0018 B3F5817F 		cmp	r3, #258
 578 001c 09D2     		bcs	.L90
 579 001e 082B     		cmp	r3, #8
 580 0020 18D0     		beq	.L89
 581 0022 02D9     		bls	.L104
 582 0024 202B     		cmp	r3, #32
 583 0026 15D0     		beq	.L89
 584 0028 0FE0     		b	.L92
 585              	.L104:
 586 002a 013B     		subs	r3, r3, #1
 587 002c 012B     		cmp	r3, #1
 588 002e 11D9     		bls	.L89
 589 0030 0BE0     		b	.L92
 590              	.L90:
ARM GAS  C:\Users\thewo\AppData\Local\Temp\ccQvy228.s 			page 11


 591 0032 40F60802 		movw	r2, #2056
 592 0036 9342     		cmp	r3, r2
 593 0038 0CD0     		beq	.L89
 594 003a 42F22002 		movw	r2, #8224
 595 003e 9342     		cmp	r3, r2
 596 0040 08D0     		beq	.L89
 597 0042 40F20222 		movw	r2, #514
 598 0046 9342     		cmp	r3, r2
 599 0048 04D0     		beq	.L89
 600              	.L92:
 601 004a 40F22151 		movw	r1, #1313
 602 004e 3248     		ldr	r0, .L107
 603 0050 FFF7FEFF 		bl	assert_failed
 604              	.L89:
 605 0054 6368     		ldr	r3, [r4, #4]
 606 0056 012B     		cmp	r3, #1
 607 0058 49D8     		bhi	.L105
 608              	.L93:
 609 005a A368     		ldr	r3, [r4, #8]
 610 005c 022B     		cmp	r3, #2
 611 005e 4CD8     		bhi	.L106
 612              	.L94:
 613 0060 2368     		ldr	r3, [r4]
 614 0062 6168     		ldr	r1, [r4, #4]
 615              		.syntax unified
 616              	@ 1055 "Drivers/CMSIS/Include/cmsis_gcc.h" 1
 617 0064 93FAA3F2 		rbit r2, r3
 618              	@ 0 "" 2
 619              		.thumb
 620              		.syntax unified
 621 0068 002A     		cmp	r2, #0
 622 006a 4CD0     		beq	.L99
 623 006c B2FA82F2 		clz	r2, r2
 624              	.L95:
 625 0070 0832     		adds	r2, r2, #8
 626 0072 02F01F02 		and	r2, r2, #31
 627 0076 01FA02F2 		lsl	r2, r1, r2
 628 007a 43EA0201 		orr	r1, r3, r2
 629 007e A068     		ldr	r0, [r4, #8]
 630              		.syntax unified
 631              	@ 1055 "Drivers/CMSIS/Include/cmsis_gcc.h" 1
 632 0080 93FAA3F2 		rbit r2, r3
 633              	@ 0 "" 2
 634              		.thumb
 635              		.syntax unified
 636 0084 002A     		cmp	r2, #0
 637 0086 40D0     		beq	.L100
 638 0088 B2FA82F2 		clz	r2, r2
 639              	.L96:
 640 008c 0832     		adds	r2, r2, #8
 641 008e 5200     		lsls	r2, r2, #1
 642 0090 02F01E02 		and	r2, r2, #30
 643 0094 00FA02F2 		lsl	r2, r0, r2
 644 0098 0A43     		orrs	r2, r2, r1
 645              		.syntax unified
 646              	@ 1055 "Drivers/CMSIS/Include/cmsis_gcc.h" 1
 647 009a 93FAA3F1 		rbit r1, r3
ARM GAS  C:\Users\thewo\AppData\Local\Temp\ccQvy228.s 			page 12


 648              	@ 0 "" 2
 649              		.thumb
 650              		.syntax unified
 651 009e B1B3     		cbz	r1, .L101
 652 00a0 B1FA81F1 		clz	r1, r1
 653              	.L97:
 654 00a4 01F01F00 		and	r0, r1, #31
 655 00a8 4FF48071 		mov	r1, #256
 656 00ac 8140     		lsls	r1, r1, r0
 657 00ae 1943     		orrs	r1, r1, r3
 658              		.syntax unified
 659              	@ 1055 "Drivers/CMSIS/Include/cmsis_gcc.h" 1
 660 00b0 93FAA3F3 		rbit r3, r3
 661              	@ 0 "" 2
 662              		.thumb
 663              		.syntax unified
 664 00b4 6BB3     		cbz	r3, .L102
 665 00b6 B3FA83F3 		clz	r3, r3
 666              	.L98:
 667 00ba 5B00     		lsls	r3, r3, #1
 668 00bc 03F01E03 		and	r3, r3, #30
 669 00c0 4FF44030 		mov	r0, #196608
 670 00c4 00FA03F3 		lsl	r3, r0, r3
 671 00c8 0B43     		orrs	r3, r3, r1
 672 00ca 1448     		ldr	r0, .L107+4
 673 00cc 816A     		ldr	r1, [r0, #40]
 674 00ce 21EA0303 		bic	r3, r1, r3
 675 00d2 1343     		orrs	r3, r3, r2
 676 00d4 8362     		str	r3, [r0, #40]
 677 00d6 4FF0B042 		mov	r2, #1476395008
 678 00da D2F89030 		ldr	r3, [r2, #144]
 679 00de 23F0AC53 		bic	r3, r3, #360710144
 680 00e2 2168     		ldr	r1, [r4]
 681 00e4 43EAC153 		orr	r3, r3, r1, lsl #23
 682 00e8 C2F89030 		str	r3, [r2, #144]
 683 00ec 10BD     		pop	{r4, pc}
 684              	.L105:
 685 00ee 40F22251 		movw	r1, #1314
 686 00f2 0948     		ldr	r0, .L107
 687 00f4 FFF7FEFF 		bl	assert_failed
 688 00f8 AFE7     		b	.L93
 689              	.L106:
 690 00fa 40F22351 		movw	r1, #1315
 691 00fe 0648     		ldr	r0, .L107
 692 0100 FFF7FEFF 		bl	assert_failed
 693 0104 ACE7     		b	.L94
 694              	.L99:
 695 0106 2022     		movs	r2, #32
 696 0108 B2E7     		b	.L95
 697              	.L100:
 698 010a 2022     		movs	r2, #32
 699 010c BEE7     		b	.L96
 700              	.L101:
 701 010e 2021     		movs	r1, #32
 702 0110 C8E7     		b	.L97
 703              	.L102:
 704 0112 2023     		movs	r3, #32
ARM GAS  C:\Users\thewo\AppData\Local\Temp\ccQvy228.s 			page 13


 705 0114 D1E7     		b	.L98
 706              	.L108:
 707 0116 00BF     		.align	2
 708              	.L107:
 709 0118 00000000 		.word	.LC0
 710 011c 00480258 		.word	1476544512
 712              		.section	.text.HAL_PWREx_DisableWakeUpPin,"ax",%progbits
 713              		.align	1
 714              		.global	HAL_PWREx_DisableWakeUpPin
 715              		.syntax unified
 716              		.thumb
 717              		.thumb_func
 719              	HAL_PWREx_DisableWakeUpPin:
 720              		@ args = 0, pretend = 0, frame = 0
 721              		@ frame_needed = 0, uses_anonymous_args = 0
 722 0000 10B5     		push	{r4, lr}
 723 0002 0446     		mov	r4, r0
 724 0004 411E     		subs	r1, r0, #1
 725 0006 B0F10803 		subs	r3, r0, #8
 726 000a 18BF     		it	ne
 727 000c 0123     		movne	r3, #1
 728 000e 0129     		cmp	r1, #1
 729 0010 94BF     		ite	ls
 730 0012 0022     		movls	r2, #0
 731 0014 03F00102 		andhi	r2, r3, #1
 732 0018 12B3     		cbz	r2, .L110
 733 001a B0F12002 		subs	r2, r0, #32
 734 001e 18BF     		it	ne
 735 0020 0122     		movne	r2, #1
 736 0022 411E     		subs	r1, r0, #1
 737 0024 18BF     		it	ne
 738 0026 0121     		movne	r1, #1
 739 0028 D2B1     		cbz	r2, .L110
 740 002a C9B1     		cbz	r1, .L110
 741 002c 811E     		subs	r1, r0, #2
 742 002e 18BF     		it	ne
 743 0030 0121     		movne	r1, #1
 744 0032 ABB1     		cbz	r3, .L110
 745 0034 A1B1     		cbz	r1, .L110
 746 0036 40F20113 		movw	r3, #257
 747 003a C31A     		subs	r3, r0, r3
 748 003c 18BF     		it	ne
 749 003e 0123     		movne	r3, #1
 750 0040 72B1     		cbz	r2, .L110
 751 0042 6BB1     		cbz	r3, .L110
 752 0044 40F60803 		movw	r3, #2056
 753 0048 C31A     		subs	r3, r0, r3
 754 004a 18BF     		it	ne
 755 004c 0123     		movne	r3, #1
 756 004e 40F20222 		movw	r2, #514
 757 0052 9042     		cmp	r0, r2
 758 0054 04D0     		beq	.L110
 759 0056 1BB1     		cbz	r3, .L110
 760 0058 42F22003 		movw	r3, #8224
 761 005c 9842     		cmp	r0, r3
 762 005e 05D1     		bne	.L112
 763              	.L110:
ARM GAS  C:\Users\thewo\AppData\Local\Temp\ccQvy228.s 			page 14


 764 0060 054A     		ldr	r2, .L113
 765 0062 936A     		ldr	r3, [r2, #40]
 766 0064 23EA0403 		bic	r3, r3, r4
 767 0068 9362     		str	r3, [r2, #40]
 768 006a 10BD     		pop	{r4, pc}
 769              	.L112:
 770 006c 40F24751 		movw	r1, #1351
 771 0070 0248     		ldr	r0, .L113+4
 772 0072 FFF7FEFF 		bl	assert_failed
 773 0076 F3E7     		b	.L110
 774              	.L114:
 775              		.align	2
 776              	.L113:
 777 0078 00480258 		.word	1476544512
 778 007c 00000000 		.word	.LC0
 780              		.section	.text.HAL_PWREx_GetWakeupFlag,"ax",%progbits
 781              		.align	1
 782              		.global	HAL_PWREx_GetWakeupFlag
 783              		.syntax unified
 784              		.thumb
 785              		.thumb_func
 787              	HAL_PWREx_GetWakeupFlag:
 788              		@ args = 0, pretend = 0, frame = 0
 789              		@ frame_needed = 0, uses_anonymous_args = 0
 790 0000 10B5     		push	{r4, lr}
 791 0002 0446     		mov	r4, r0
 792 0004 431E     		subs	r3, r0, #1
 793 0006 0828     		cmp	r0, #8
 794 0008 18BF     		it	ne
 795 000a 012B     		cmpne	r3, #1
 796 000c 06D9     		bls	.L116
 797 000e B0F12B03 		subs	r3, r0, #43
 798 0012 18BF     		it	ne
 799 0014 0123     		movne	r3, #1
 800 0016 2028     		cmp	r0, #32
 801 0018 00D0     		beq	.L116
 802 001a 1BB9     		cbnz	r3, .L118
 803              	.L116:
 804 001c 044B     		ldr	r3, .L119
 805 001e 586A     		ldr	r0, [r3, #36]
 806 0020 2040     		ands	r0, r0, r4
 807 0022 10BD     		pop	{r4, pc}
 808              	.L118:
 809 0024 4FF4AC61 		mov	r1, #1376
 810 0028 0248     		ldr	r0, .L119+4
 811 002a FFF7FEFF 		bl	assert_failed
 812 002e F5E7     		b	.L116
 813              	.L120:
 814              		.align	2
 815              	.L119:
 816 0030 00480258 		.word	1476544512
 817 0034 00000000 		.word	.LC0
 819              		.section	.text.HAL_PWREx_ClearWakeupFlag,"ax",%progbits
 820              		.align	1
 821              		.global	HAL_PWREx_ClearWakeupFlag
 822              		.syntax unified
 823              		.thumb
ARM GAS  C:\Users\thewo\AppData\Local\Temp\ccQvy228.s 			page 15


 824              		.thumb_func
 826              	HAL_PWREx_ClearWakeupFlag:
 827              		@ args = 0, pretend = 0, frame = 0
 828              		@ frame_needed = 0, uses_anonymous_args = 0
 829 0000 10B5     		push	{r4, lr}
 830 0002 0446     		mov	r4, r0
 831 0004 431E     		subs	r3, r0, #1
 832 0006 0828     		cmp	r0, #8
 833 0008 18BF     		it	ne
 834 000a 012B     		cmpne	r3, #1
 835 000c 06D9     		bls	.L122
 836 000e B0F12B03 		subs	r3, r0, #43
 837 0012 18BF     		it	ne
 838 0014 0123     		movne	r3, #1
 839 0016 2028     		cmp	r0, #32
 840 0018 00D0     		beq	.L122
 841 001a 43B9     		cbnz	r3, .L126
 842              	.L122:
 843 001c 084B     		ldr	r3, .L127
 844 001e 1A6A     		ldr	r2, [r3, #32]
 845 0020 2243     		orrs	r2, r2, r4
 846 0022 1A62     		str	r2, [r3, #32]
 847 0024 5B6A     		ldr	r3, [r3, #36]
 848 0026 2342     		tst	r3, r4
 849 0028 07D1     		bne	.L124
 850 002a 0020     		movs	r0, #0
 851              	.L123:
 852 002c 10BD     		pop	{r4, pc}
 853              	.L126:
 854 002e 40F27951 		movw	r1, #1401
 855 0032 0448     		ldr	r0, .L127+4
 856 0034 FFF7FEFF 		bl	assert_failed
 857 0038 F0E7     		b	.L122
 858              	.L124:
 859 003a 0120     		movs	r0, #1
 860 003c F6E7     		b	.L123
 861              	.L128:
 862 003e 00BF     		.align	2
 863              	.L127:
 864 0040 00480258 		.word	1476544512
 865 0044 00000000 		.word	.LC0
 867              		.section	.text.HAL_PWREx_WKUP1_Callback,"ax",%progbits
 868              		.align	1
 869              		.weak	HAL_PWREx_WKUP1_Callback
 870              		.syntax unified
 871              		.thumb
 872              		.thumb_func
 874              	HAL_PWREx_WKUP1_Callback:
 875              		@ args = 0, pretend = 0, frame = 0
 876              		@ frame_needed = 0, uses_anonymous_args = 0
 877              		@ link register save eliminated.
 878 0000 7047     		bx	lr
 880              		.section	.text.HAL_PWREx_WKUP2_Callback,"ax",%progbits
 881              		.align	1
 882              		.weak	HAL_PWREx_WKUP2_Callback
 883              		.syntax unified
 884              		.thumb
ARM GAS  C:\Users\thewo\AppData\Local\Temp\ccQvy228.s 			page 16


 885              		.thumb_func
 887              	HAL_PWREx_WKUP2_Callback:
 888              		@ args = 0, pretend = 0, frame = 0
 889              		@ frame_needed = 0, uses_anonymous_args = 0
 890              		@ link register save eliminated.
 891 0000 7047     		bx	lr
 893              		.section	.text.HAL_PWREx_WKUP4_Callback,"ax",%progbits
 894              		.align	1
 895              		.weak	HAL_PWREx_WKUP4_Callback
 896              		.syntax unified
 897              		.thumb
 898              		.thumb_func
 900              	HAL_PWREx_WKUP4_Callback:
 901              		@ args = 0, pretend = 0, frame = 0
 902              		@ frame_needed = 0, uses_anonymous_args = 0
 903              		@ link register save eliminated.
 904 0000 7047     		bx	lr
 906              		.section	.text.HAL_PWREx_WKUP6_Callback,"ax",%progbits
 907              		.align	1
 908              		.weak	HAL_PWREx_WKUP6_Callback
 909              		.syntax unified
 910              		.thumb
 911              		.thumb_func
 913              	HAL_PWREx_WKUP6_Callback:
 914              		@ args = 0, pretend = 0, frame = 0
 915              		@ frame_needed = 0, uses_anonymous_args = 0
 916              		@ link register save eliminated.
 917 0000 7047     		bx	lr
 919              		.section	.text.HAL_PWREx_WAKEUP_PIN_IRQHandler,"ax",%progbits
 920              		.align	1
 921              		.global	HAL_PWREx_WAKEUP_PIN_IRQHandler
 922              		.syntax unified
 923              		.thumb
 924              		.thumb_func
 926              	HAL_PWREx_WAKEUP_PIN_IRQHandler:
 927              		@ args = 0, pretend = 0, frame = 0
 928              		@ frame_needed = 0, uses_anonymous_args = 0
 929 0000 08B5     		push	{r3, lr}
 930 0002 174B     		ldr	r3, .L141
 931 0004 5B6A     		ldr	r3, [r3, #36]
 932 0006 13F0010F 		tst	r3, #1
 933 000a 11D1     		bne	.L139
 934 000c 144B     		ldr	r3, .L141
 935 000e 5B6A     		ldr	r3, [r3, #36]
 936 0010 13F0020F 		tst	r3, #2
 937 0014 14D1     		bne	.L140
 938 0016 124B     		ldr	r3, .L141
 939 0018 5B6A     		ldr	r3, [r3, #36]
 940 001a 13F0080F 		tst	r3, #8
 941 001e 17D0     		beq	.L137
 942 0020 0F4A     		ldr	r2, .L141
 943 0022 136A     		ldr	r3, [r2, #32]
 944 0024 43F00803 		orr	r3, r3, #8
 945 0028 1362     		str	r3, [r2, #32]
 946 002a FFF7FEFF 		bl	HAL_PWREx_WKUP4_Callback
 947 002e 06E0     		b	.L133
 948              	.L139:
ARM GAS  C:\Users\thewo\AppData\Local\Temp\ccQvy228.s 			page 17


 949 0030 0B4A     		ldr	r2, .L141
 950 0032 136A     		ldr	r3, [r2, #32]
 951 0034 43F00103 		orr	r3, r3, #1
 952 0038 1362     		str	r3, [r2, #32]
 953 003a FFF7FEFF 		bl	HAL_PWREx_WKUP1_Callback
 954              	.L133:
 955 003e 08BD     		pop	{r3, pc}
 956              	.L140:
 957 0040 074A     		ldr	r2, .L141
 958 0042 136A     		ldr	r3, [r2, #32]
 959 0044 43F00203 		orr	r3, r3, #2
 960 0048 1362     		str	r3, [r2, #32]
 961 004a FFF7FEFF 		bl	HAL_PWREx_WKUP2_Callback
 962 004e F6E7     		b	.L133
 963              	.L137:
 964 0050 034A     		ldr	r2, .L141
 965 0052 136A     		ldr	r3, [r2, #32]
 966 0054 43F02003 		orr	r3, r3, #32
 967 0058 1362     		str	r3, [r2, #32]
 968 005a FFF7FEFF 		bl	HAL_PWREx_WKUP6_Callback
 969 005e EEE7     		b	.L133
 970              	.L142:
 971              		.align	2
 972              	.L141:
 973 0060 00480258 		.word	1476544512
 975              		.section	.text.HAL_PWREx_EnableBkUpReg,"ax",%progbits
 976              		.align	1
 977              		.global	HAL_PWREx_EnableBkUpReg
 978              		.syntax unified
 979              		.thumb
 980              		.thumb_func
 982              	HAL_PWREx_EnableBkUpReg:
 983              		@ args = 0, pretend = 0, frame = 0
 984              		@ frame_needed = 0, uses_anonymous_args = 0
 985 0000 10B5     		push	{r4, lr}
 986 0002 0B4A     		ldr	r2, .L150
 987 0004 9368     		ldr	r3, [r2, #8]
 988 0006 43F00103 		orr	r3, r3, #1
 989 000a 9360     		str	r3, [r2, #8]
 990 000c FFF7FEFF 		bl	HAL_GetTick
 991 0010 0446     		mov	r4, r0
 992              	.L144:
 993 0012 074B     		ldr	r3, .L150
 994 0014 9B68     		ldr	r3, [r3, #8]
 995 0016 13F4803F 		tst	r3, #65536
 996 001a 07D1     		bne	.L149
 997 001c FFF7FEFF 		bl	HAL_GetTick
 998 0020 001B     		subs	r0, r0, r4
 999 0022 B0F57A7F 		cmp	r0, #1000
 1000 0026 F4D9     		bls	.L144
 1001 0028 0120     		movs	r0, #1
 1002 002a 00E0     		b	.L145
 1003              	.L149:
 1004 002c 0020     		movs	r0, #0
 1005              	.L145:
 1006 002e 10BD     		pop	{r4, pc}
 1007              	.L151:
ARM GAS  C:\Users\thewo\AppData\Local\Temp\ccQvy228.s 			page 18


 1008              		.align	2
 1009              	.L150:
 1010 0030 00480258 		.word	1476544512
 1012              		.section	.text.HAL_PWREx_DisableBkUpReg,"ax",%progbits
 1013              		.align	1
 1014              		.global	HAL_PWREx_DisableBkUpReg
 1015              		.syntax unified
 1016              		.thumb
 1017              		.thumb_func
 1019              	HAL_PWREx_DisableBkUpReg:
 1020              		@ args = 0, pretend = 0, frame = 0
 1021              		@ frame_needed = 0, uses_anonymous_args = 0
 1022 0000 10B5     		push	{r4, lr}
 1023 0002 0B4A     		ldr	r2, .L159
 1024 0004 9368     		ldr	r3, [r2, #8]
 1025 0006 23F00103 		bic	r3, r3, #1
 1026 000a 9360     		str	r3, [r2, #8]
 1027 000c FFF7FEFF 		bl	HAL_GetTick
 1028 0010 0446     		mov	r4, r0
 1029              	.L153:
 1030 0012 074B     		ldr	r3, .L159
 1031 0014 9B68     		ldr	r3, [r3, #8]
 1032 0016 13F4803F 		tst	r3, #65536
 1033 001a 07D0     		beq	.L158
 1034 001c FFF7FEFF 		bl	HAL_GetTick
 1035 0020 001B     		subs	r0, r0, r4
 1036 0022 B0F57A7F 		cmp	r0, #1000
 1037 0026 F4D9     		bls	.L153
 1038 0028 0120     		movs	r0, #1
 1039 002a 00E0     		b	.L154
 1040              	.L158:
 1041 002c 0020     		movs	r0, #0
 1042              	.L154:
 1043 002e 10BD     		pop	{r4, pc}
 1044              	.L160:
 1045              		.align	2
 1046              	.L159:
 1047 0030 00480258 		.word	1476544512
 1049              		.section	.text.HAL_PWREx_EnableUSBReg,"ax",%progbits
 1050              		.align	1
 1051              		.global	HAL_PWREx_EnableUSBReg
 1052              		.syntax unified
 1053              		.thumb
 1054              		.thumb_func
 1056              	HAL_PWREx_EnableUSBReg:
 1057              		@ args = 0, pretend = 0, frame = 0
 1058              		@ frame_needed = 0, uses_anonymous_args = 0
 1059 0000 10B5     		push	{r4, lr}
 1060 0002 0B4A     		ldr	r2, .L168
 1061 0004 D368     		ldr	r3, [r2, #12]
 1062 0006 43F00073 		orr	r3, r3, #33554432
 1063 000a D360     		str	r3, [r2, #12]
 1064 000c FFF7FEFF 		bl	HAL_GetTick
 1065 0010 0446     		mov	r4, r0
 1066              	.L162:
 1067 0012 074B     		ldr	r3, .L168
 1068 0014 DB68     		ldr	r3, [r3, #12]
ARM GAS  C:\Users\thewo\AppData\Local\Temp\ccQvy228.s 			page 19


 1069 0016 13F0806F 		tst	r3, #67108864
 1070 001a 07D1     		bne	.L167
 1071 001c FFF7FEFF 		bl	HAL_GetTick
 1072 0020 001B     		subs	r0, r0, r4
 1073 0022 B0F57A7F 		cmp	r0, #1000
 1074 0026 F4D9     		bls	.L162
 1075 0028 0120     		movs	r0, #1
 1076 002a 00E0     		b	.L163
 1077              	.L167:
 1078 002c 0020     		movs	r0, #0
 1079              	.L163:
 1080 002e 10BD     		pop	{r4, pc}
 1081              	.L169:
 1082              		.align	2
 1083              	.L168:
 1084 0030 00480258 		.word	1476544512
 1086              		.section	.text.HAL_PWREx_DisableUSBReg,"ax",%progbits
 1087              		.align	1
 1088              		.global	HAL_PWREx_DisableUSBReg
 1089              		.syntax unified
 1090              		.thumb
 1091              		.thumb_func
 1093              	HAL_PWREx_DisableUSBReg:
 1094              		@ args = 0, pretend = 0, frame = 0
 1095              		@ frame_needed = 0, uses_anonymous_args = 0
 1096 0000 10B5     		push	{r4, lr}
 1097 0002 0B4A     		ldr	r2, .L177
 1098 0004 D368     		ldr	r3, [r2, #12]
 1099 0006 23F00073 		bic	r3, r3, #33554432
 1100 000a D360     		str	r3, [r2, #12]
 1101 000c FFF7FEFF 		bl	HAL_GetTick
 1102 0010 0446     		mov	r4, r0
 1103              	.L171:
 1104 0012 074B     		ldr	r3, .L177
 1105 0014 DB68     		ldr	r3, [r3, #12]
 1106 0016 13F0806F 		tst	r3, #67108864
 1107 001a 07D0     		beq	.L176
 1108 001c FFF7FEFF 		bl	HAL_GetTick
 1109 0020 001B     		subs	r0, r0, r4
 1110 0022 B0F57A7F 		cmp	r0, #1000
 1111 0026 F4D9     		bls	.L171
 1112 0028 0120     		movs	r0, #1
 1113 002a 00E0     		b	.L172
 1114              	.L176:
 1115 002c 0020     		movs	r0, #0
 1116              	.L172:
 1117 002e 10BD     		pop	{r4, pc}
 1118              	.L178:
 1119              		.align	2
 1120              	.L177:
 1121 0030 00480258 		.word	1476544512
 1123              		.section	.text.HAL_PWREx_EnableUSBVoltageDetector,"ax",%progbits
 1124              		.align	1
 1125              		.global	HAL_PWREx_EnableUSBVoltageDetector
 1126              		.syntax unified
 1127              		.thumb
 1128              		.thumb_func
ARM GAS  C:\Users\thewo\AppData\Local\Temp\ccQvy228.s 			page 20


 1130              	HAL_PWREx_EnableUSBVoltageDetector:
 1131              		@ args = 0, pretend = 0, frame = 0
 1132              		@ frame_needed = 0, uses_anonymous_args = 0
 1133              		@ link register save eliminated.
 1134 0000 024A     		ldr	r2, .L180
 1135 0002 D368     		ldr	r3, [r2, #12]
 1136 0004 43F08073 		orr	r3, r3, #16777216
 1137 0008 D360     		str	r3, [r2, #12]
 1138 000a 7047     		bx	lr
 1139              	.L181:
 1140              		.align	2
 1141              	.L180:
 1142 000c 00480258 		.word	1476544512
 1144              		.section	.text.HAL_PWREx_DisableUSBVoltageDetector,"ax",%progbits
 1145              		.align	1
 1146              		.global	HAL_PWREx_DisableUSBVoltageDetector
 1147              		.syntax unified
 1148              		.thumb
 1149              		.thumb_func
 1151              	HAL_PWREx_DisableUSBVoltageDetector:
 1152              		@ args = 0, pretend = 0, frame = 0
 1153              		@ frame_needed = 0, uses_anonymous_args = 0
 1154              		@ link register save eliminated.
 1155 0000 024A     		ldr	r2, .L183
 1156 0002 D368     		ldr	r3, [r2, #12]
 1157 0004 23F08073 		bic	r3, r3, #16777216
 1158 0008 D360     		str	r3, [r2, #12]
 1159 000a 7047     		bx	lr
 1160              	.L184:
 1161              		.align	2
 1162              	.L183:
 1163 000c 00480258 		.word	1476544512
 1165              		.section	.text.HAL_PWREx_EnableBatteryCharging,"ax",%progbits
 1166              		.align	1
 1167              		.global	HAL_PWREx_EnableBatteryCharging
 1168              		.syntax unified
 1169              		.thumb
 1170              		.thumb_func
 1172              	HAL_PWREx_EnableBatteryCharging:
 1173              		@ args = 0, pretend = 0, frame = 0
 1174              		@ frame_needed = 0, uses_anonymous_args = 0
 1175 0000 10B5     		push	{r4, lr}
 1176 0002 0446     		mov	r4, r0
 1177 0004 0028     		cmp	r0, #0
 1178 0006 18BF     		it	ne
 1179 0008 B0F5007F 		cmpne	r0, #512
 1180 000c 0AD1     		bne	.L188
 1181              	.L186:
 1182 000e 084A     		ldr	r2, .L189
 1183 0010 D368     		ldr	r3, [r2, #12]
 1184 0012 23F40073 		bic	r3, r3, #512
 1185 0016 2343     		orrs	r3, r3, r4
 1186 0018 D360     		str	r3, [r2, #12]
 1187 001a D368     		ldr	r3, [r2, #12]
 1188 001c 43F48073 		orr	r3, r3, #256
 1189 0020 D360     		str	r3, [r2, #12]
 1190 0022 10BD     		pop	{r4, pc}
ARM GAS  C:\Users\thewo\AppData\Local\Temp\ccQvy228.s 			page 21


 1191              	.L188:
 1192 0024 40F2E261 		movw	r1, #1762
 1193 0028 0248     		ldr	r0, .L189+4
 1194 002a FFF7FEFF 		bl	assert_failed
 1195 002e EEE7     		b	.L186
 1196              	.L190:
 1197              		.align	2
 1198              	.L189:
 1199 0030 00480258 		.word	1476544512
 1200 0034 00000000 		.word	.LC0
 1202              		.section	.text.HAL_PWREx_DisableBatteryCharging,"ax",%progbits
 1203              		.align	1
 1204              		.global	HAL_PWREx_DisableBatteryCharging
 1205              		.syntax unified
 1206              		.thumb
 1207              		.thumb_func
 1209              	HAL_PWREx_DisableBatteryCharging:
 1210              		@ args = 0, pretend = 0, frame = 0
 1211              		@ frame_needed = 0, uses_anonymous_args = 0
 1212              		@ link register save eliminated.
 1213 0000 024A     		ldr	r2, .L192
 1214 0002 D368     		ldr	r3, [r2, #12]
 1215 0004 23F48073 		bic	r3, r3, #256
 1216 0008 D360     		str	r3, [r2, #12]
 1217 000a 7047     		bx	lr
 1218              	.L193:
 1219              		.align	2
 1220              	.L192:
 1221 000c 00480258 		.word	1476544512
 1223              		.section	.text.HAL_PWREx_EnableMonitoring,"ax",%progbits
 1224              		.align	1
 1225              		.global	HAL_PWREx_EnableMonitoring
 1226              		.syntax unified
 1227              		.thumb
 1228              		.thumb_func
 1230              	HAL_PWREx_EnableMonitoring:
 1231              		@ args = 0, pretend = 0, frame = 0
 1232              		@ frame_needed = 0, uses_anonymous_args = 0
 1233              		@ link register save eliminated.
 1234 0000 024A     		ldr	r2, .L195
 1235 0002 9368     		ldr	r3, [r2, #8]
 1236 0004 43F01003 		orr	r3, r3, #16
 1237 0008 9360     		str	r3, [r2, #8]
 1238 000a 7047     		bx	lr
 1239              	.L196:
 1240              		.align	2
 1241              	.L195:
 1242 000c 00480258 		.word	1476544512
 1244              		.section	.text.HAL_PWREx_DisableMonitoring,"ax",%progbits
 1245              		.align	1
 1246              		.global	HAL_PWREx_DisableMonitoring
 1247              		.syntax unified
 1248              		.thumb
 1249              		.thumb_func
 1251              	HAL_PWREx_DisableMonitoring:
 1252              		@ args = 0, pretend = 0, frame = 0
 1253              		@ frame_needed = 0, uses_anonymous_args = 0
ARM GAS  C:\Users\thewo\AppData\Local\Temp\ccQvy228.s 			page 22


 1254              		@ link register save eliminated.
 1255 0000 024A     		ldr	r2, .L198
 1256 0002 9368     		ldr	r3, [r2, #8]
 1257 0004 23F01003 		bic	r3, r3, #16
 1258 0008 9360     		str	r3, [r2, #8]
 1259 000a 7047     		bx	lr
 1260              	.L199:
 1261              		.align	2
 1262              	.L198:
 1263 000c 00480258 		.word	1476544512
 1265              		.section	.text.HAL_PWREx_GetTemperatureLevel,"ax",%progbits
 1266              		.align	1
 1267              		.global	HAL_PWREx_GetTemperatureLevel
 1268              		.syntax unified
 1269              		.thumb
 1270              		.thumb_func
 1272              	HAL_PWREx_GetTemperatureLevel:
 1273              		@ args = 0, pretend = 0, frame = 0
 1274              		@ frame_needed = 0, uses_anonymous_args = 0
 1275              		@ link register save eliminated.
 1276 0000 054B     		ldr	r3, .L203
 1277 0002 9868     		ldr	r0, [r3, #8]
 1278 0004 00F44000 		and	r0, r0, #12582912
 1279 0008 B0F5800F 		cmp	r0, #4194304
 1280 000c 03D0     		beq	.L200
 1281 000e B0F5000F 		cmp	r0, #8388608
 1282 0012 00D0     		beq	.L200
 1283 0014 0020     		movs	r0, #0
 1284              	.L200:
 1285 0016 7047     		bx	lr
 1286              	.L204:
 1287              		.align	2
 1288              	.L203:
 1289 0018 00480258 		.word	1476544512
 1291              		.section	.text.HAL_PWREx_GetVBATLevel,"ax",%progbits
 1292              		.align	1
 1293              		.global	HAL_PWREx_GetVBATLevel
 1294              		.syntax unified
 1295              		.thumb
 1296              		.thumb_func
 1298              	HAL_PWREx_GetVBATLevel:
 1299              		@ args = 0, pretend = 0, frame = 0
 1300              		@ frame_needed = 0, uses_anonymous_args = 0
 1301              		@ link register save eliminated.
 1302 0000 054B     		ldr	r3, .L208
 1303 0002 9868     		ldr	r0, [r3, #8]
 1304 0004 00F44010 		and	r0, r0, #3145728
 1305 0008 B0F5801F 		cmp	r0, #1048576
 1306 000c 03D0     		beq	.L205
 1307 000e B0F5001F 		cmp	r0, #2097152
 1308 0012 00D0     		beq	.L205
 1309 0014 0020     		movs	r0, #0
 1310              	.L205:
 1311 0016 7047     		bx	lr
 1312              	.L209:
 1313              		.align	2
 1314              	.L208:
ARM GAS  C:\Users\thewo\AppData\Local\Temp\ccQvy228.s 			page 23


 1315 0018 00480258 		.word	1476544512
 1317              		.section	.text.HAL_PWREx_ConfigAVD,"ax",%progbits
 1318              		.align	1
 1319              		.global	HAL_PWREx_ConfigAVD
 1320              		.syntax unified
 1321              		.thumb
 1322              		.thumb_func
 1324              	HAL_PWREx_ConfigAVD:
 1325              		@ args = 0, pretend = 0, frame = 0
 1326              		@ frame_needed = 0, uses_anonymous_args = 0
 1327 0000 10B5     		push	{r4, lr}
 1328 0002 0446     		mov	r4, r0
 1329 0004 0368     		ldr	r3, [r0]
 1330 0006 002B     		cmp	r3, #0
 1331 0008 18BF     		it	ne
 1332 000a B3F5003F 		cmpne	r3, #131072
 1333 000e 05D0     		beq	.L211
 1334 0010 B3F5802F 		cmp	r3, #262144
 1335 0014 02D0     		beq	.L211
 1336 0016 B3F5C02F 		cmp	r3, #393216
 1337 001a 58D1     		bne	.L218
 1338              	.L211:
 1339 001c 6368     		ldr	r3, [r4, #4]
 1340 001e A3F10111 		sub	r1, r3, #65537
 1341 0022 314A     		ldr	r2, .L220
 1342 0024 9342     		cmp	r3, r2
 1343 0026 18BF     		it	ne
 1344 0028 0229     		cmpne	r1, #2
 1345 002a 06D9     		bls	.L212
 1346 002c B3F1021F 		cmp	r3, #131074
 1347 0030 03D0     		beq	.L212
 1348 0032 13B1     		cbz	r3, .L212
 1349 0034 0232     		adds	r2, r2, #2
 1350 0036 9342     		cmp	r3, r2
 1351 0038 4FD1     		bne	.L219
 1352              	.L212:
 1353 003a 2C4A     		ldr	r2, .L220+4
 1354 003c 1368     		ldr	r3, [r2]
 1355 003e 23F4C023 		bic	r3, r3, #393216
 1356 0042 2168     		ldr	r1, [r4]
 1357 0044 0B43     		orrs	r3, r3, r1
 1358 0046 1360     		str	r3, [r2]
 1359 0048 4FF0B043 		mov	r3, #1476395008
 1360 004c D3F88420 		ldr	r2, [r3, #132]
 1361 0050 22F48032 		bic	r2, r2, #65536
 1362 0054 C3F88420 		str	r2, [r3, #132]
 1363 0058 D3F88020 		ldr	r2, [r3, #128]
 1364 005c 22F48032 		bic	r2, r2, #65536
 1365 0060 C3F88020 		str	r2, [r3, #128]
 1366 0064 1A68     		ldr	r2, [r3]
 1367 0066 22F48032 		bic	r2, r2, #65536
 1368 006a 1A60     		str	r2, [r3]
 1369 006c 5A68     		ldr	r2, [r3, #4]
 1370 006e 22F48032 		bic	r2, r2, #65536
 1371 0072 5A60     		str	r2, [r3, #4]
 1372 0074 6368     		ldr	r3, [r4, #4]
 1373 0076 13F4803F 		tst	r3, #65536
ARM GAS  C:\Users\thewo\AppData\Local\Temp\ccQvy228.s 			page 24


 1374 007a 07D0     		beq	.L213
 1375 007c 4FF0B042 		mov	r2, #1476395008
 1376 0080 D2F88030 		ldr	r3, [r2, #128]
 1377 0084 43F48033 		orr	r3, r3, #65536
 1378 0088 C2F88030 		str	r3, [r2, #128]
 1379              	.L213:
 1380 008c 6368     		ldr	r3, [r4, #4]
 1381 008e 13F4003F 		tst	r3, #131072
 1382 0092 07D0     		beq	.L214
 1383 0094 4FF0B042 		mov	r2, #1476395008
 1384 0098 D2F88430 		ldr	r3, [r2, #132]
 1385 009c 43F48033 		orr	r3, r3, #65536
 1386 00a0 C2F88430 		str	r3, [r2, #132]
 1387              	.L214:
 1388 00a4 6368     		ldr	r3, [r4, #4]
 1389 00a6 13F0010F 		tst	r3, #1
 1390 00aa 05D0     		beq	.L215
 1391 00ac 4FF0B042 		mov	r2, #1476395008
 1392 00b0 1368     		ldr	r3, [r2]
 1393 00b2 43F48033 		orr	r3, r3, #65536
 1394 00b6 1360     		str	r3, [r2]
 1395              	.L215:
 1396 00b8 6368     		ldr	r3, [r4, #4]
 1397 00ba 13F0020F 		tst	r3, #2
 1398 00be 05D0     		beq	.L210
 1399 00c0 4FF0B042 		mov	r2, #1476395008
 1400 00c4 5368     		ldr	r3, [r2, #4]
 1401 00c6 43F48033 		orr	r3, r3, #65536
 1402 00ca 5360     		str	r3, [r2, #4]
 1403              	.L210:
 1404 00cc 10BD     		pop	{r4, pc}
 1405              	.L218:
 1406 00ce 40F2BF71 		movw	r1, #1983
 1407 00d2 0748     		ldr	r0, .L220+8
 1408 00d4 FFF7FEFF 		bl	assert_failed
 1409 00d8 A0E7     		b	.L211
 1410              	.L219:
 1411 00da 4FF4F861 		mov	r1, #1984
 1412 00de 0448     		ldr	r0, .L220+8
 1413 00e0 FFF7FEFF 		bl	assert_failed
 1414 00e4 A9E7     		b	.L212
 1415              	.L221:
 1416 00e6 00BF     		.align	2
 1417              	.L220:
 1418 00e8 01000200 		.word	131073
 1419 00ec 00480258 		.word	1476544512
 1420 00f0 00000000 		.word	.LC0
 1422              		.section	.text.HAL_PWREx_EnableAVD,"ax",%progbits
 1423              		.align	1
 1424              		.global	HAL_PWREx_EnableAVD
 1425              		.syntax unified
 1426              		.thumb
 1427              		.thumb_func
 1429              	HAL_PWREx_EnableAVD:
 1430              		@ args = 0, pretend = 0, frame = 0
 1431              		@ frame_needed = 0, uses_anonymous_args = 0
 1432              		@ link register save eliminated.
ARM GAS  C:\Users\thewo\AppData\Local\Temp\ccQvy228.s 			page 25


 1433 0000 024A     		ldr	r2, .L223
 1434 0002 1368     		ldr	r3, [r2]
 1435 0004 43F48033 		orr	r3, r3, #65536
 1436 0008 1360     		str	r3, [r2]
 1437 000a 7047     		bx	lr
 1438              	.L224:
 1439              		.align	2
 1440              	.L223:
 1441 000c 00480258 		.word	1476544512
 1443              		.section	.text.HAL_PWREx_DisableAVD,"ax",%progbits
 1444              		.align	1
 1445              		.global	HAL_PWREx_DisableAVD
 1446              		.syntax unified
 1447              		.thumb
 1448              		.thumb_func
 1450              	HAL_PWREx_DisableAVD:
 1451              		@ args = 0, pretend = 0, frame = 0
 1452              		@ frame_needed = 0, uses_anonymous_args = 0
 1453              		@ link register save eliminated.
 1454 0000 024A     		ldr	r2, .L226
 1455 0002 1368     		ldr	r3, [r2]
 1456 0004 23F48033 		bic	r3, r3, #65536
 1457 0008 1360     		str	r3, [r2]
 1458 000a 7047     		bx	lr
 1459              	.L227:
 1460              		.align	2
 1461              	.L226:
 1462 000c 00480258 		.word	1476544512
 1464              		.section	.text.HAL_PWREx_AVDCallback,"ax",%progbits
 1465              		.align	1
 1466              		.weak	HAL_PWREx_AVDCallback
 1467              		.syntax unified
 1468              		.thumb
 1469              		.thumb_func
 1471              	HAL_PWREx_AVDCallback:
 1472              		@ args = 0, pretend = 0, frame = 0
 1473              		@ frame_needed = 0, uses_anonymous_args = 0
 1474              		@ link register save eliminated.
 1475 0000 7047     		bx	lr
 1477              		.section	.text.HAL_PWREx_PVD_AVD_IRQHandler,"ax",%progbits
 1478              		.align	1
 1479              		.global	HAL_PWREx_PVD_AVD_IRQHandler
 1480              		.syntax unified
 1481              		.thumb
 1482              		.thumb_func
 1484              	HAL_PWREx_PVD_AVD_IRQHandler:
 1485              		@ args = 0, pretend = 0, frame = 0
 1486              		@ frame_needed = 0, uses_anonymous_args = 0
 1487 0000 08B5     		push	{r3, lr}
 1488 0002 1C4B     		ldr	r3, .L235
 1489 0004 1B68     		ldr	r3, [r3]
 1490 0006 13F0100F 		tst	r3, #16
 1491 000a 06D0     		beq	.L230
 1492 000c 4FF0B043 		mov	r3, #1476395008
 1493 0010 D3F88830 		ldr	r3, [r3, #136]
 1494 0014 13F4803F 		tst	r3, #65536
 1495 0018 0CD1     		bne	.L233
ARM GAS  C:\Users\thewo\AppData\Local\Temp\ccQvy228.s 			page 26


 1496              	.L230:
 1497 001a 164B     		ldr	r3, .L235
 1498 001c 1B68     		ldr	r3, [r3]
 1499 001e 13F4803F 		tst	r3, #65536
 1500 0022 06D0     		beq	.L229
 1501 0024 4FF0B043 		mov	r3, #1476395008
 1502 0028 D3F88830 		ldr	r3, [r3, #136]
 1503 002c 13F4803F 		tst	r3, #65536
 1504 0030 10D1     		bne	.L234
 1505              	.L229:
 1506 0032 08BD     		pop	{r3, pc}
 1507              	.L233:
 1508 0034 FFF7FEFF 		bl	HAL_PWR_PVDCallback
 1509 0038 0E4B     		ldr	r3, .L235
 1510 003a 5B68     		ldr	r3, [r3, #4]
 1511 003c 13F4803F 		tst	r3, #65536
 1512 0040 EBD1     		bne	.L230
 1513 0042 4FF0B042 		mov	r2, #1476395008
 1514 0046 D2F88830 		ldr	r3, [r2, #136]
 1515 004a 43F48033 		orr	r3, r3, #65536
 1516 004e C2F88830 		str	r3, [r2, #136]
 1517 0052 E2E7     		b	.L230
 1518              	.L234:
 1519 0054 FFF7FEFF 		bl	HAL_PWREx_AVDCallback
 1520 0058 064B     		ldr	r3, .L235
 1521 005a 5B68     		ldr	r3, [r3, #4]
 1522 005c 13F0100F 		tst	r3, #16
 1523 0060 E7D1     		bne	.L229
 1524 0062 4FF0B042 		mov	r2, #1476395008
 1525 0066 D2F88830 		ldr	r3, [r2, #136]
 1526 006a 43F48033 		orr	r3, r3, #65536
 1527 006e C2F88830 		str	r3, [r2, #136]
 1528 0072 DEE7     		b	.L229
 1529              	.L236:
 1530              		.align	2
 1531              	.L235:
 1532 0074 00480258 		.word	1476544512
 1534              		.ident	"GCC: (xPack GNU Arm Embedded GCC x86_64) 14.2.1 20241119"
ARM GAS  C:\Users\thewo\AppData\Local\Temp\ccQvy228.s 			page 27

