ARM GAS  C:\Users\thewo\AppData\Local\Temp\ccnCGpzj.s 			page 1


   1              		.cpu cortex-m7
   2              		.arch armv7e-m
   3              		.fpu fpv5-d16
   4              		.eabi_attribute 28, 1
   5              		.eabi_attribute 20, 1
   6              		.eabi_attribute 21, 1
   7              		.eabi_attribute 23, 3
   8              		.eabi_attribute 24, 1
   9              		.eabi_attribute 25, 1
  10              		.eabi_attribute 26, 1
  11              		.eabi_attribute 30, 1
  12              		.eabi_attribute 34, 1
  13              		.eabi_attribute 18, 4
  14              		.file	"stm32h7xx_hal_tim_ex.c"
  15              		.text
  16              		.section	.text.TIM_CCxNChannelCmd,"ax",%progbits
  17              		.align	1
  18              		.syntax unified
  19              		.thumb
  20              		.thumb_func
  22              	TIM_CCxNChannelCmd:
  23              		@ args = 0, pretend = 0, frame = 0
  24              		@ frame_needed = 0, uses_anonymous_args = 0
  25              		@ link register save eliminated.
  26 0000 01F00F01 		and	r1, r1, #15
  27 0004 4FF0040C 		mov	ip, #4
  28 0008 0CFA01FC 		lsl	ip, ip, r1
  29 000c 036A     		ldr	r3, [r0, #32]
  30 000e 23EA0C03 		bic	r3, r3, ip
  31 0012 0362     		str	r3, [r0, #32]
  32 0014 036A     		ldr	r3, [r0, #32]
  33 0016 8A40     		lsls	r2, r2, r1
  34 0018 1343     		orrs	r3, r3, r2
  35 001a 0362     		str	r3, [r0, #32]
  36 001c 7047     		bx	lr
  38              		.section	.text.TIM_DMAErrorCCxN,"ax",%progbits
  39              		.align	1
  40              		.syntax unified
  41              		.thumb
  42              		.thumb_func
  44              	TIM_DMAErrorCCxN:
  45              		@ args = 0, pretend = 0, frame = 0
  46              		@ frame_needed = 0, uses_anonymous_args = 0
  47 0000 10B5     		push	{r4, lr}
  48 0002 846B     		ldr	r4, [r0, #56]
  49 0004 636A     		ldr	r3, [r4, #36]
  50 0006 8342     		cmp	r3, r0
  51 0008 0BD0     		beq	.L7
  52 000a A36A     		ldr	r3, [r4, #40]
  53 000c 8342     		cmp	r3, r0
  54 000e 0DD0     		beq	.L8
  55 0010 E36A     		ldr	r3, [r4, #44]
  56 0012 8342     		cmp	r3, r0
  57 0014 10D0     		beq	.L9
  58              	.L4:
  59 0016 2046     		mov	r0, r4
  60 0018 FFF7FEFF 		bl	HAL_TIM_ErrorCallback
ARM GAS  C:\Users\thewo\AppData\Local\Temp\ccnCGpzj.s 			page 2


  61 001c 0023     		movs	r3, #0
  62 001e 2377     		strb	r3, [r4, #28]
  63 0020 10BD     		pop	{r4, pc}
  64              	.L7:
  65 0022 0123     		movs	r3, #1
  66 0024 2377     		strb	r3, [r4, #28]
  67 0026 84F84430 		strb	r3, [r4, #68]
  68 002a F4E7     		b	.L4
  69              	.L8:
  70 002c 0223     		movs	r3, #2
  71 002e 2377     		strb	r3, [r4, #28]
  72 0030 0123     		movs	r3, #1
  73 0032 84F84530 		strb	r3, [r4, #69]
  74 0036 EEE7     		b	.L4
  75              	.L9:
  76 0038 0423     		movs	r3, #4
  77 003a 2377     		strb	r3, [r4, #28]
  78 003c 0123     		movs	r3, #1
  79 003e 84F84630 		strb	r3, [r4, #70]
  80 0042 E8E7     		b	.L4
  82              		.section	.text.TIM_DMADelayPulseNCplt,"ax",%progbits
  83              		.align	1
  84              		.syntax unified
  85              		.thumb
  86              		.thumb_func
  88              	TIM_DMADelayPulseNCplt:
  89              		@ args = 0, pretend = 0, frame = 0
  90              		@ frame_needed = 0, uses_anonymous_args = 0
  91 0000 10B5     		push	{r4, lr}
  92 0002 846B     		ldr	r4, [r0, #56]
  93 0004 636A     		ldr	r3, [r4, #36]
  94 0006 8342     		cmp	r3, r0
  95 0008 0BD0     		beq	.L15
  96 000a A36A     		ldr	r3, [r4, #40]
  97 000c 8342     		cmp	r3, r0
  98 000e 11D0     		beq	.L16
  99 0010 E36A     		ldr	r3, [r4, #44]
 100 0012 8342     		cmp	r3, r0
 101 0014 17D0     		beq	.L17
 102              	.L12:
 103 0016 2046     		mov	r0, r4
 104 0018 FFF7FEFF 		bl	HAL_TIM_PWM_PulseFinishedCallback
 105 001c 0023     		movs	r3, #0
 106 001e 2377     		strb	r3, [r4, #28]
 107 0020 10BD     		pop	{r4, pc}
 108              	.L15:
 109 0022 0123     		movs	r3, #1
 110 0024 2377     		strb	r3, [r4, #28]
 111 0026 C369     		ldr	r3, [r0, #28]
 112 0028 002B     		cmp	r3, #0
 113 002a F4D1     		bne	.L12
 114 002c 0123     		movs	r3, #1
 115 002e 84F84430 		strb	r3, [r4, #68]
 116 0032 F0E7     		b	.L12
 117              	.L16:
 118 0034 0223     		movs	r3, #2
 119 0036 2377     		strb	r3, [r4, #28]
ARM GAS  C:\Users\thewo\AppData\Local\Temp\ccnCGpzj.s 			page 3


 120 0038 C369     		ldr	r3, [r0, #28]
 121 003a 002B     		cmp	r3, #0
 122 003c EBD1     		bne	.L12
 123 003e 0123     		movs	r3, #1
 124 0040 84F84530 		strb	r3, [r4, #69]
 125 0044 E7E7     		b	.L12
 126              	.L17:
 127 0046 0423     		movs	r3, #4
 128 0048 2377     		strb	r3, [r4, #28]
 129 004a C369     		ldr	r3, [r0, #28]
 130 004c 002B     		cmp	r3, #0
 131 004e E2D1     		bne	.L12
 132 0050 0123     		movs	r3, #1
 133 0052 84F84630 		strb	r3, [r4, #70]
 134 0056 DEE7     		b	.L12
 136              		.section	.text.HAL_TIMEx_HallSensor_MspInit,"ax",%progbits
 137              		.align	1
 138              		.weak	HAL_TIMEx_HallSensor_MspInit
 139              		.syntax unified
 140              		.thumb
 141              		.thumb_func
 143              	HAL_TIMEx_HallSensor_MspInit:
 144              		@ args = 0, pretend = 0, frame = 0
 145              		@ frame_needed = 0, uses_anonymous_args = 0
 146              		@ link register save eliminated.
 147 0000 7047     		bx	lr
 149              		.section	.rodata.HAL_TIMEx_HallSensor_Init.str1.4,"aMS",%progbits,1
 150              		.align	2
 151              	.LC0:
 152 0000 44726976 		.ascii	"Drivers/STM32H7xx_HAL_Driver/Src/stm32h7xx_hal_tim_"
 152      6572732F 
 152      53544D33 
 152      32483778 
 152      785F4841 
 153 0033 65782E63 		.ascii	"ex.c\000"
 153      00
 154              		.section	.text.HAL_TIMEx_HallSensor_Init,"ax",%progbits
 155              		.align	1
 156              		.global	HAL_TIMEx_HallSensor_Init
 157              		.syntax unified
 158              		.thumb
 159              		.thumb_func
 161              	HAL_TIMEx_HallSensor_Init:
 162              		@ args = 0, pretend = 0, frame = 32
 163              		@ frame_needed = 0, uses_anonymous_args = 0
 164 0000 0028     		cmp	r0, #0
 165 0002 00F0FB80 		beq	.L32
 166 0006 70B5     		push	{r4, r5, r6, lr}
 167 0008 88B0     		sub	sp, sp, #32
 168 000a 0D46     		mov	r5, r1
 169 000c 0446     		mov	r4, r0
 170 000e 0368     		ldr	r3, [r0]
 171 0010 7B4A     		ldr	r2, .L45
 172 0012 9342     		cmp	r3, r2
 173 0014 18BF     		it	ne
 174 0016 B3F1804F 		cmpne	r3, #1073741824
 175 001a 1FD0     		beq	.L21
ARM GAS  C:\Users\thewo\AppData\Local\Temp\ccnCGpzj.s 			page 4


 176 001c A2F57C42 		sub	r2, r2, #64512
 177 0020 9342     		cmp	r3, r2
 178 0022 1BD0     		beq	.L21
 179 0024 02F58062 		add	r2, r2, #1024
 180 0028 9342     		cmp	r3, r2
 181 002a 17D0     		beq	.L21
 182 002c 02F58062 		add	r2, r2, #1024
 183 0030 9342     		cmp	r3, r2
 184 0032 13D0     		beq	.L21
 185 0034 02F59A32 		add	r2, r2, #78848
 186 0038 9342     		cmp	r3, r2
 187 003a 0FD0     		beq	.L21
 188 003c A2F57052 		sub	r2, r2, #15360
 189 0040 9342     		cmp	r3, r2
 190 0042 0BD0     		beq	.L21
 191 0044 A2F51052 		sub	r2, r2, #9216
 192 0048 9342     		cmp	r3, r2
 193 004a 07D0     		beq	.L21
 194 004c 02F58062 		add	r2, r2, #1024
 195 0050 9342     		cmp	r3, r2
 196 0052 03D0     		beq	.L21
 197 0054 A321     		movs	r1, #163
 198 0056 6B48     		ldr	r0, .L45+4
 199 0058 FFF7FEFF 		bl	assert_failed
 200              	.L21:
 201 005c A368     		ldr	r3, [r4, #8]
 202 005e 002B     		cmp	r3, #0
 203 0060 18BF     		it	ne
 204 0062 102B     		cmpne	r3, #16
 205 0064 05D0     		beq	.L22
 206 0066 202B     		cmp	r3, #32
 207 0068 03D0     		beq	.L22
 208 006a 402B     		cmp	r3, #64
 209 006c 01D0     		beq	.L22
 210 006e 602B     		cmp	r3, #96
 211 0070 2CD1     		bne	.L37
 212              	.L22:
 213 0072 2369     		ldr	r3, [r4, #16]
 214 0074 002B     		cmp	r3, #0
 215 0076 18BF     		it	ne
 216 0078 B3F5807F 		cmpne	r3, #256
 217 007c 02D0     		beq	.L23
 218 007e B3F5007F 		cmp	r3, #512
 219 0082 28D1     		bne	.L38
 220              	.L23:
 221 0084 A369     		ldr	r3, [r4, #24]
 222 0086 002B     		cmp	r3, #0
 223 0088 18BF     		it	ne
 224 008a 802B     		cmpne	r3, #128
 225 008c 28D1     		bne	.L39
 226              	.L24:
 227 008e 2B68     		ldr	r3, [r5]
 228 0090 002B     		cmp	r3, #0
 229 0092 18BF     		it	ne
 230 0094 022B     		cmpne	r3, #2
 231 0096 01D0     		beq	.L25
 232 0098 0A2B     		cmp	r3, #10
ARM GAS  C:\Users\thewo\AppData\Local\Temp\ccnCGpzj.s 			page 5


 233 009a 26D1     		bne	.L40
 234              	.L25:
 235 009c 2368     		ldr	r3, [r4]
 236 009e 5A4A     		ldr	r2, .L45+8
 237 00a0 9342     		cmp	r3, r2
 238 00a2 18BF     		it	ne
 239 00a4 B3F1804F 		cmpne	r3, #1073741824
 240 00a8 24D0     		beq	.L26
 241 00aa 02F55442 		add	r2, r2, #54272
 242 00ae 9342     		cmp	r3, r2
 243 00b0 20D0     		beq	.L26
 244 00b2 02F58062 		add	r2, r2, #1024
 245 00b6 9342     		cmp	r3, r2
 246 00b8 1CD0     		beq	.L26
 247 00ba E368     		ldr	r3, [r4, #12]
 248 00bc 013B     		subs	r3, r3, #1
 249 00be 4FF6FE72 		movw	r2, #65534
 250 00c2 9342     		cmp	r3, r2
 251 00c4 8CBF     		ite	hi
 252 00c6 0023     		movhi	r3, #0
 253 00c8 0123     		movls	r3, #1
 254 00ca 17E0     		b	.L27
 255              	.L37:
 256 00cc A421     		movs	r1, #164
 257 00ce 4D48     		ldr	r0, .L45+4
 258 00d0 FFF7FEFF 		bl	assert_failed
 259 00d4 CDE7     		b	.L22
 260              	.L38:
 261 00d6 A521     		movs	r1, #165
 262 00d8 4A48     		ldr	r0, .L45+4
 263 00da FFF7FEFF 		bl	assert_failed
 264 00de D1E7     		b	.L23
 265              	.L39:
 266 00e0 A621     		movs	r1, #166
 267 00e2 4848     		ldr	r0, .L45+4
 268 00e4 FFF7FEFF 		bl	assert_failed
 269 00e8 D1E7     		b	.L24
 270              	.L40:
 271 00ea A721     		movs	r1, #167
 272 00ec 4548     		ldr	r0, .L45+4
 273 00ee FFF7FEFF 		bl	assert_failed
 274 00f2 D3E7     		b	.L25
 275              	.L26:
 276 00f4 E368     		ldr	r3, [r4, #12]
 277 00f6 003B     		subs	r3, r3, #0
 278 00f8 18BF     		it	ne
 279 00fa 0123     		movne	r3, #1
 280              	.L27:
 281 00fc 002B     		cmp	r3, #0
 282 00fe 68D0     		beq	.L41
 283              	.L28:
 284 0100 6B68     		ldr	r3, [r5, #4]
 285 0102 002B     		cmp	r3, #0
 286 0104 18BF     		it	ne
 287 0106 042B     		cmpne	r3, #4
 288 0108 03D0     		beq	.L29
 289 010a 082B     		cmp	r3, #8
ARM GAS  C:\Users\thewo\AppData\Local\Temp\ccnCGpzj.s 			page 6


 290 010c 01D0     		beq	.L29
 291 010e 0C2B     		cmp	r3, #12
 292 0110 64D1     		bne	.L42
 293              	.L29:
 294 0112 AB68     		ldr	r3, [r5, #8]
 295 0114 0F2B     		cmp	r3, #15
 296 0116 66D8     		bhi	.L43
 297              	.L30:
 298 0118 94F83D30 		ldrb	r3, [r4, #61]	@ zero_extendqisi2
 299 011c 002B     		cmp	r3, #0
 300 011e 67D0     		beq	.L44
 301              	.L31:
 302 0120 0223     		movs	r3, #2
 303 0122 84F83D30 		strb	r3, [r4, #61]
 304 0126 2146     		mov	r1, r4
 305 0128 51F8040B 		ldr	r0, [r1], #4
 306 012c FFF7FEFF 		bl	TIM_Base_SetConfig
 307 0130 AB68     		ldr	r3, [r5, #8]
 308 0132 0322     		movs	r2, #3
 309 0134 2968     		ldr	r1, [r5]
 310 0136 2068     		ldr	r0, [r4]
 311 0138 FFF7FEFF 		bl	TIM_TI1_SetConfig
 312 013c 2268     		ldr	r2, [r4]
 313 013e 9369     		ldr	r3, [r2, #24]
 314 0140 23F00C03 		bic	r3, r3, #12
 315 0144 9361     		str	r3, [r2, #24]
 316 0146 2268     		ldr	r2, [r4]
 317 0148 9369     		ldr	r3, [r2, #24]
 318 014a 6968     		ldr	r1, [r5, #4]
 319 014c 0B43     		orrs	r3, r3, r1
 320 014e 9361     		str	r3, [r2, #24]
 321 0150 2268     		ldr	r2, [r4]
 322 0152 5368     		ldr	r3, [r2, #4]
 323 0154 43F08003 		orr	r3, r3, #128
 324 0158 5360     		str	r3, [r2, #4]
 325 015a 2268     		ldr	r2, [r4]
 326 015c 9168     		ldr	r1, [r2, #8]
 327 015e 2B4B     		ldr	r3, .L45+12
 328 0160 0B40     		ands	r3, r3, r1
 329 0162 9360     		str	r3, [r2, #8]
 330 0164 2268     		ldr	r2, [r4]
 331 0166 9368     		ldr	r3, [r2, #8]
 332 0168 43F04003 		orr	r3, r3, #64
 333 016c 9360     		str	r3, [r2, #8]
 334 016e 2268     		ldr	r2, [r4]
 335 0170 9168     		ldr	r1, [r2, #8]
 336 0172 274B     		ldr	r3, .L45+16
 337 0174 0B40     		ands	r3, r3, r1
 338 0176 9360     		str	r3, [r2, #8]
 339 0178 2268     		ldr	r2, [r4]
 340 017a 9368     		ldr	r3, [r2, #8]
 341 017c 43F00403 		orr	r3, r3, #4
 342 0180 9360     		str	r3, [r2, #8]
 343 0182 0026     		movs	r6, #0
 344 0184 0596     		str	r6, [sp, #20]
 345 0186 0696     		str	r6, [sp, #24]
 346 0188 7023     		movs	r3, #112
ARM GAS  C:\Users\thewo\AppData\Local\Temp\ccnCGpzj.s 			page 7


 347 018a 0193     		str	r3, [sp, #4]
 348 018c 0796     		str	r6, [sp, #28]
 349 018e 0496     		str	r6, [sp, #16]
 350 0190 0396     		str	r6, [sp, #12]
 351 0192 EB68     		ldr	r3, [r5, #12]
 352 0194 0293     		str	r3, [sp, #8]
 353 0196 01A9     		add	r1, sp, #4
 354 0198 2068     		ldr	r0, [r4]
 355 019a FFF7FEFF 		bl	TIM_OC2_SetConfig
 356 019e 2268     		ldr	r2, [r4]
 357 01a0 5368     		ldr	r3, [r2, #4]
 358 01a2 23F07003 		bic	r3, r3, #112
 359 01a6 5360     		str	r3, [r2, #4]
 360 01a8 2268     		ldr	r2, [r4]
 361 01aa 5368     		ldr	r3, [r2, #4]
 362 01ac 43F05003 		orr	r3, r3, #80
 363 01b0 5360     		str	r3, [r2, #4]
 364 01b2 0123     		movs	r3, #1
 365 01b4 84F84830 		strb	r3, [r4, #72]
 366 01b8 84F83E30 		strb	r3, [r4, #62]
 367 01bc 84F83F30 		strb	r3, [r4, #63]
 368 01c0 84F84430 		strb	r3, [r4, #68]
 369 01c4 84F84530 		strb	r3, [r4, #69]
 370 01c8 84F83D30 		strb	r3, [r4, #61]
 371 01cc 3046     		mov	r0, r6
 372 01ce 08B0     		add	sp, sp, #32
 373              		@ sp needed
 374 01d0 70BD     		pop	{r4, r5, r6, pc}
 375              	.L41:
 376 01d2 A821     		movs	r1, #168
 377 01d4 0B48     		ldr	r0, .L45+4
 378 01d6 FFF7FEFF 		bl	assert_failed
 379 01da 91E7     		b	.L28
 380              	.L42:
 381 01dc A921     		movs	r1, #169
 382 01de 0948     		ldr	r0, .L45+4
 383 01e0 FFF7FEFF 		bl	assert_failed
 384 01e4 95E7     		b	.L29
 385              	.L43:
 386 01e6 AA21     		movs	r1, #170
 387 01e8 0648     		ldr	r0, .L45+4
 388 01ea FFF7FEFF 		bl	assert_failed
 389 01ee 93E7     		b	.L30
 390              	.L44:
 391 01f0 84F83C30 		strb	r3, [r4, #60]
 392 01f4 2046     		mov	r0, r4
 393 01f6 FFF7FEFF 		bl	HAL_TIMEx_HallSensor_MspInit
 394 01fa 91E7     		b	.L31
 395              	.L32:
 396 01fc 0120     		movs	r0, #1
 397 01fe 7047     		bx	lr
 398              	.L46:
 399              		.align	2
 400              	.L45:
 401 0200 00000140 		.word	1073807360
 402 0204 00000000 		.word	.LC0
 403 0208 000C0040 		.word	1073744896
ARM GAS  C:\Users\thewo\AppData\Local\Temp\ccnCGpzj.s 			page 8


 404 020c 8FFFCFFF 		.word	-3145841
 405 0210 F8FFFEFF 		.word	-65544
 407              		.section	.text.HAL_TIMEx_HallSensor_MspDeInit,"ax",%progbits
 408              		.align	1
 409              		.weak	HAL_TIMEx_HallSensor_MspDeInit
 410              		.syntax unified
 411              		.thumb
 412              		.thumb_func
 414              	HAL_TIMEx_HallSensor_MspDeInit:
 415              		@ args = 0, pretend = 0, frame = 0
 416              		@ frame_needed = 0, uses_anonymous_args = 0
 417              		@ link register save eliminated.
 418 0000 7047     		bx	lr
 420              		.section	.text.HAL_TIMEx_HallSensor_DeInit,"ax",%progbits
 421              		.align	1
 422              		.global	HAL_TIMEx_HallSensor_DeInit
 423              		.syntax unified
 424              		.thumb
 425              		.thumb_func
 427              	HAL_TIMEx_HallSensor_DeInit:
 428              		@ args = 0, pretend = 0, frame = 0
 429              		@ frame_needed = 0, uses_anonymous_args = 0
 430 0000 10B5     		push	{r4, lr}
 431 0002 0446     		mov	r4, r0
 432 0004 0368     		ldr	r3, [r0]
 433 0006 344A     		ldr	r2, .L52
 434 0008 9342     		cmp	r3, r2
 435 000a 18BF     		it	ne
 436 000c B3F1804F 		cmpne	r3, #1073741824
 437 0010 3CD0     		beq	.L49
 438 0012 A2F57C42 		sub	r2, r2, #64512
 439 0016 9342     		cmp	r3, r2
 440 0018 38D0     		beq	.L49
 441 001a 02F58062 		add	r2, r2, #1024
 442 001e 9342     		cmp	r3, r2
 443 0020 34D0     		beq	.L49
 444 0022 02F58062 		add	r2, r2, #1024
 445 0026 9342     		cmp	r3, r2
 446 0028 30D0     		beq	.L49
 447 002a 02F58062 		add	r2, r2, #1024
 448 002e 9342     		cmp	r3, r2
 449 0030 2CD0     		beq	.L49
 450 0032 02F58062 		add	r2, r2, #1024
 451 0036 9342     		cmp	r3, r2
 452 0038 28D0     		beq	.L49
 453 003a 02F57042 		add	r2, r2, #61440
 454 003e 9342     		cmp	r3, r2
 455 0040 24D0     		beq	.L49
 456 0042 A2F56C42 		sub	r2, r2, #60416
 457 0046 9342     		cmp	r3, r2
 458 0048 20D0     		beq	.L49
 459 004a 02F58062 		add	r2, r2, #1024
 460 004e 9342     		cmp	r3, r2
 461 0050 1CD0     		beq	.L49
 462 0052 02F58062 		add	r2, r2, #1024
 463 0056 9342     		cmp	r3, r2
 464 0058 18D0     		beq	.L49
ARM GAS  C:\Users\thewo\AppData\Local\Temp\ccnCGpzj.s 			page 9


 465 005a 02F59032 		add	r2, r2, #73728
 466 005e 9342     		cmp	r3, r2
 467 0060 14D0     		beq	.L49
 468 0062 02F58062 		add	r2, r2, #1024
 469 0066 9342     		cmp	r3, r2
 470 0068 10D0     		beq	.L49
 471 006a 02F58062 		add	r2, r2, #1024
 472 006e 9342     		cmp	r3, r2
 473 0070 0CD0     		beq	.L49
 474 0072 A2F5D042 		sub	r2, r2, #26624
 475 0076 9342     		cmp	r3, r2
 476 0078 08D0     		beq	.L49
 477 007a 02F58062 		add	r2, r2, #1024
 478 007e 9342     		cmp	r3, r2
 479 0080 04D0     		beq	.L49
 480 0082 40F20111 		movw	r1, #257
 481 0086 1548     		ldr	r0, .L52+4
 482 0088 FFF7FEFF 		bl	assert_failed
 483              	.L49:
 484 008c 0223     		movs	r3, #2
 485 008e 84F83D30 		strb	r3, [r4, #61]
 486 0092 2368     		ldr	r3, [r4]
 487 0094 196A     		ldr	r1, [r3, #32]
 488 0096 41F21112 		movw	r2, #4369
 489 009a 1142     		tst	r1, r2
 490 009c 08D1     		bne	.L50
 491 009e 196A     		ldr	r1, [r3, #32]
 492 00a0 40F24442 		movw	r2, #1092
 493 00a4 1142     		tst	r1, r2
 494 00a6 03D1     		bne	.L50
 495 00a8 1A68     		ldr	r2, [r3]
 496 00aa 22F00102 		bic	r2, r2, #1
 497 00ae 1A60     		str	r2, [r3]
 498              	.L50:
 499 00b0 2046     		mov	r0, r4
 500 00b2 FFF7FEFF 		bl	HAL_TIMEx_HallSensor_MspDeInit
 501 00b6 0020     		movs	r0, #0
 502 00b8 84F84800 		strb	r0, [r4, #72]
 503 00bc 84F83E00 		strb	r0, [r4, #62]
 504 00c0 84F83F00 		strb	r0, [r4, #63]
 505 00c4 84F84400 		strb	r0, [r4, #68]
 506 00c8 84F84500 		strb	r0, [r4, #69]
 507 00cc 84F83D00 		strb	r0, [r4, #61]
 508 00d0 84F83C00 		strb	r0, [r4, #60]
 509 00d4 10BD     		pop	{r4, pc}
 510              	.L53:
 511 00d6 00BF     		.align	2
 512              	.L52:
 513 00d8 00000140 		.word	1073807360
 514 00dc 00000000 		.word	.LC0
 516              		.section	.text.HAL_TIMEx_HallSensor_Start,"ax",%progbits
 517              		.align	1
 518              		.global	HAL_TIMEx_HallSensor_Start
 519              		.syntax unified
 520              		.thumb
 521              		.thumb_func
 523              	HAL_TIMEx_HallSensor_Start:
ARM GAS  C:\Users\thewo\AppData\Local\Temp\ccnCGpzj.s 			page 10


 524              		@ args = 0, pretend = 0, frame = 0
 525              		@ frame_needed = 0, uses_anonymous_args = 0
 526 0000 2DE9F041 		push	{r4, r5, r6, r7, r8, lr}
 527 0004 0446     		mov	r4, r0
 528 0006 90F83E80 		ldrb	r8, [r0, #62]	@ zero_extendqisi2
 529 000a 5FFA88F8 		uxtb	r8, r8
 530 000e 90F83F60 		ldrb	r6, [r0, #63]	@ zero_extendqisi2
 531 0012 F6B2     		uxtb	r6, r6
 532 0014 90F84470 		ldrb	r7, [r0, #68]	@ zero_extendqisi2
 533 0018 FFB2     		uxtb	r7, r7
 534 001a 90F84530 		ldrb	r3, [r0, #69]	@ zero_extendqisi2
 535 001e DDB2     		uxtb	r5, r3
 536 0020 0368     		ldr	r3, [r0]
 537 0022 414A     		ldr	r2, .L63
 538 0024 9342     		cmp	r3, r2
 539 0026 18BF     		it	ne
 540 0028 B3F1804F 		cmpne	r3, #1073741824
 541 002c 20D0     		beq	.L55
 542 002e A2F57C42 		sub	r2, r2, #64512
 543 0032 9342     		cmp	r3, r2
 544 0034 1CD0     		beq	.L55
 545 0036 02F58062 		add	r2, r2, #1024
 546 003a 9342     		cmp	r3, r2
 547 003c 18D0     		beq	.L55
 548 003e 02F58062 		add	r2, r2, #1024
 549 0042 9342     		cmp	r3, r2
 550 0044 14D0     		beq	.L55
 551 0046 02F59A32 		add	r2, r2, #78848
 552 004a 9342     		cmp	r3, r2
 553 004c 10D0     		beq	.L55
 554 004e A2F57052 		sub	r2, r2, #15360
 555 0052 9342     		cmp	r3, r2
 556 0054 0CD0     		beq	.L55
 557 0056 A2F51052 		sub	r2, r2, #9216
 558 005a 9342     		cmp	r3, r2
 559 005c 08D0     		beq	.L55
 560 005e 02F58062 		add	r2, r2, #1024
 561 0062 9342     		cmp	r3, r2
 562 0064 04D0     		beq	.L55
 563 0066 4FF4A971 		mov	r1, #338
 564 006a 3048     		ldr	r0, .L63+4
 565 006c FFF7FEFF 		bl	assert_failed
 566              	.L55:
 567 0070 012E     		cmp	r6, #1
 568 0072 08BF     		it	eq
 569 0074 B8F1010F 		cmpeq	r8, #1
 570 0078 4FD1     		bne	.L59
 571 007a 013D     		subs	r5, r5, #1
 572 007c 18BF     		it	ne
 573 007e 0125     		movne	r5, #1
 574 0080 012F     		cmp	r7, #1
 575 0082 4DD1     		bne	.L60
 576 0084 002D     		cmp	r5, #0
 577 0086 4BD1     		bne	.L60
 578 0088 0223     		movs	r3, #2
 579 008a 84F83E30 		strb	r3, [r4, #62]
 580 008e 84F83F30 		strb	r3, [r4, #63]
ARM GAS  C:\Users\thewo\AppData\Local\Temp\ccnCGpzj.s 			page 11


 581 0092 84F84430 		strb	r3, [r4, #68]
 582 0096 84F84530 		strb	r3, [r4, #69]
 583 009a 0122     		movs	r2, #1
 584 009c 0021     		movs	r1, #0
 585 009e 2068     		ldr	r0, [r4]
 586 00a0 FFF7FEFF 		bl	TIM_CCxChannelCmd
 587 00a4 2368     		ldr	r3, [r4]
 588 00a6 204A     		ldr	r2, .L63
 589 00a8 B3F1804F 		cmp	r3, #1073741824
 590 00ac 18BF     		it	ne
 591 00ae 9342     		cmpne	r3, r2
 592 00b0 25D0     		beq	.L57
 593 00b2 A2F57C42 		sub	r2, r2, #64512
 594 00b6 9342     		cmp	r3, r2
 595 00b8 21D0     		beq	.L57
 596 00ba 02F58062 		add	r2, r2, #1024
 597 00be 9342     		cmp	r3, r2
 598 00c0 1DD0     		beq	.L57
 599 00c2 02F58062 		add	r2, r2, #1024
 600 00c6 9342     		cmp	r3, r2
 601 00c8 19D0     		beq	.L57
 602 00ca 02F57842 		add	r2, r2, #63488
 603 00ce 9342     		cmp	r3, r2
 604 00d0 15D0     		beq	.L57
 605 00d2 A2F56C42 		sub	r2, r2, #60416
 606 00d6 9342     		cmp	r3, r2
 607 00d8 11D0     		beq	.L57
 608 00da 02F59432 		add	r2, r2, #75776
 609 00de 9342     		cmp	r3, r2
 610 00e0 0DD0     		beq	.L57
 611 00e2 A2F5C042 		sub	r2, r2, #24576
 612 00e6 9342     		cmp	r3, r2
 613 00e8 09D0     		beq	.L57
 614 00ea 02F58062 		add	r2, r2, #1024
 615 00ee 9342     		cmp	r3, r2
 616 00f0 05D0     		beq	.L57
 617 00f2 1A68     		ldr	r2, [r3]
 618 00f4 42F00102 		orr	r2, r2, #1
 619 00f8 1A60     		str	r2, [r3]
 620 00fa 0020     		movs	r0, #0
 621 00fc 0EE0     		b	.L56
 622              	.L57:
 623 00fe 9968     		ldr	r1, [r3, #8]
 624 0100 0B4A     		ldr	r2, .L63+8
 625 0102 0A40     		ands	r2, r2, r1
 626 0104 062A     		cmp	r2, #6
 627 0106 18BF     		it	ne
 628 0108 B2F5803F 		cmpne	r2, #65536
 629 010c 0AD0     		beq	.L61
 630 010e 1A68     		ldr	r2, [r3]
 631 0110 42F00102 		orr	r2, r2, #1
 632 0114 1A60     		str	r2, [r3]
 633 0116 0020     		movs	r0, #0
 634 0118 00E0     		b	.L56
 635              	.L59:
 636 011a 0120     		movs	r0, #1
 637              	.L56:
ARM GAS  C:\Users\thewo\AppData\Local\Temp\ccnCGpzj.s 			page 12


 638 011c BDE8F081 		pop	{r4, r5, r6, r7, r8, pc}
 639              	.L60:
 640 0120 0120     		movs	r0, #1
 641 0122 FBE7     		b	.L56
 642              	.L61:
 643 0124 0020     		movs	r0, #0
 644 0126 F9E7     		b	.L56
 645              	.L64:
 646              		.align	2
 647              	.L63:
 648 0128 00000140 		.word	1073807360
 649 012c 00000000 		.word	.LC0
 650 0130 07000100 		.word	65543
 652              		.section	.text.HAL_TIMEx_HallSensor_Stop,"ax",%progbits
 653              		.align	1
 654              		.global	HAL_TIMEx_HallSensor_Stop
 655              		.syntax unified
 656              		.thumb
 657              		.thumb_func
 659              	HAL_TIMEx_HallSensor_Stop:
 660              		@ args = 0, pretend = 0, frame = 0
 661              		@ frame_needed = 0, uses_anonymous_args = 0
 662 0000 10B5     		push	{r4, lr}
 663 0002 0446     		mov	r4, r0
 664 0004 0368     		ldr	r3, [r0]
 665 0006 234A     		ldr	r2, .L69
 666 0008 9342     		cmp	r3, r2
 667 000a 18BF     		it	ne
 668 000c B3F1804F 		cmpne	r3, #1073741824
 669 0010 20D0     		beq	.L66
 670 0012 A2F57C42 		sub	r2, r2, #64512
 671 0016 9342     		cmp	r3, r2
 672 0018 1CD0     		beq	.L66
 673 001a 02F58062 		add	r2, r2, #1024
 674 001e 9342     		cmp	r3, r2
 675 0020 18D0     		beq	.L66
 676 0022 02F58062 		add	r2, r2, #1024
 677 0026 9342     		cmp	r3, r2
 678 0028 14D0     		beq	.L66
 679 002a 02F59A32 		add	r2, r2, #78848
 680 002e 9342     		cmp	r3, r2
 681 0030 10D0     		beq	.L66
 682 0032 A2F57052 		sub	r2, r2, #15360
 683 0036 9342     		cmp	r3, r2
 684 0038 0CD0     		beq	.L66
 685 003a A2F51052 		sub	r2, r2, #9216
 686 003e 9342     		cmp	r3, r2
 687 0040 08D0     		beq	.L66
 688 0042 02F58062 		add	r2, r2, #1024
 689 0046 9342     		cmp	r3, r2
 690 0048 04D0     		beq	.L66
 691 004a 4FF4C171 		mov	r1, #386
 692 004e 1248     		ldr	r0, .L69+4
 693 0050 FFF7FEFF 		bl	assert_failed
 694              	.L66:
 695 0054 0022     		movs	r2, #0
 696 0056 1146     		mov	r1, r2
ARM GAS  C:\Users\thewo\AppData\Local\Temp\ccnCGpzj.s 			page 13


 697 0058 2068     		ldr	r0, [r4]
 698 005a FFF7FEFF 		bl	TIM_CCxChannelCmd
 699 005e 2368     		ldr	r3, [r4]
 700 0060 196A     		ldr	r1, [r3, #32]
 701 0062 41F21112 		movw	r2, #4369
 702 0066 1142     		tst	r1, r2
 703 0068 08D1     		bne	.L67
 704 006a 196A     		ldr	r1, [r3, #32]
 705 006c 40F24442 		movw	r2, #1092
 706 0070 1142     		tst	r1, r2
 707 0072 03D1     		bne	.L67
 708 0074 1A68     		ldr	r2, [r3]
 709 0076 22F00102 		bic	r2, r2, #1
 710 007a 1A60     		str	r2, [r3]
 711              	.L67:
 712 007c 0123     		movs	r3, #1
 713 007e 84F83E30 		strb	r3, [r4, #62]
 714 0082 84F83F30 		strb	r3, [r4, #63]
 715 0086 84F84430 		strb	r3, [r4, #68]
 716 008a 84F84530 		strb	r3, [r4, #69]
 717 008e 0020     		movs	r0, #0
 718 0090 10BD     		pop	{r4, pc}
 719              	.L70:
 720 0092 00BF     		.align	2
 721              	.L69:
 722 0094 00000140 		.word	1073807360
 723 0098 00000000 		.word	.LC0
 725              		.section	.text.HAL_TIMEx_HallSensor_Start_IT,"ax",%progbits
 726              		.align	1
 727              		.global	HAL_TIMEx_HallSensor_Start_IT
 728              		.syntax unified
 729              		.thumb
 730              		.thumb_func
 732              	HAL_TIMEx_HallSensor_Start_IT:
 733              		@ args = 0, pretend = 0, frame = 0
 734              		@ frame_needed = 0, uses_anonymous_args = 0
 735 0000 2DE9F041 		push	{r4, r5, r6, r7, r8, lr}
 736 0004 0446     		mov	r4, r0
 737 0006 90F83E80 		ldrb	r8, [r0, #62]	@ zero_extendqisi2
 738 000a 5FFA88F8 		uxtb	r8, r8
 739 000e 90F83F60 		ldrb	r6, [r0, #63]	@ zero_extendqisi2
 740 0012 F6B2     		uxtb	r6, r6
 741 0014 90F84470 		ldrb	r7, [r0, #68]	@ zero_extendqisi2
 742 0018 FFB2     		uxtb	r7, r7
 743 001a 90F84530 		ldrb	r3, [r0, #69]	@ zero_extendqisi2
 744 001e DDB2     		uxtb	r5, r3
 745 0020 0368     		ldr	r3, [r0]
 746 0022 444A     		ldr	r2, .L80
 747 0024 9342     		cmp	r3, r2
 748 0026 18BF     		it	ne
 749 0028 B3F1804F 		cmpne	r3, #1073741824
 750 002c 20D0     		beq	.L72
 751 002e A2F57C42 		sub	r2, r2, #64512
 752 0032 9342     		cmp	r3, r2
 753 0034 1CD0     		beq	.L72
 754 0036 02F58062 		add	r2, r2, #1024
 755 003a 9342     		cmp	r3, r2
ARM GAS  C:\Users\thewo\AppData\Local\Temp\ccnCGpzj.s 			page 14


 756 003c 18D0     		beq	.L72
 757 003e 02F58062 		add	r2, r2, #1024
 758 0042 9342     		cmp	r3, r2
 759 0044 14D0     		beq	.L72
 760 0046 02F59A32 		add	r2, r2, #78848
 761 004a 9342     		cmp	r3, r2
 762 004c 10D0     		beq	.L72
 763 004e A2F57052 		sub	r2, r2, #15360
 764 0052 9342     		cmp	r3, r2
 765 0054 0CD0     		beq	.L72
 766 0056 A2F51052 		sub	r2, r2, #9216
 767 005a 9342     		cmp	r3, r2
 768 005c 08D0     		beq	.L72
 769 005e 02F58062 		add	r2, r2, #1024
 770 0062 9342     		cmp	r3, r2
 771 0064 04D0     		beq	.L72
 772 0066 4FF4D271 		mov	r1, #420
 773 006a 3348     		ldr	r0, .L80+4
 774 006c FFF7FEFF 		bl	assert_failed
 775              	.L72:
 776 0070 012E     		cmp	r6, #1
 777 0072 08BF     		it	eq
 778 0074 B8F1010F 		cmpeq	r8, #1
 779 0078 54D1     		bne	.L76
 780 007a 013D     		subs	r5, r5, #1
 781 007c 18BF     		it	ne
 782 007e 0125     		movne	r5, #1
 783 0080 012F     		cmp	r7, #1
 784 0082 52D1     		bne	.L77
 785 0084 002D     		cmp	r5, #0
 786 0086 50D1     		bne	.L77
 787 0088 0223     		movs	r3, #2
 788 008a 84F83E30 		strb	r3, [r4, #62]
 789 008e 84F83F30 		strb	r3, [r4, #63]
 790 0092 84F84430 		strb	r3, [r4, #68]
 791 0096 84F84530 		strb	r3, [r4, #69]
 792 009a 2268     		ldr	r2, [r4]
 793 009c D368     		ldr	r3, [r2, #12]
 794 009e 43F00203 		orr	r3, r3, #2
 795 00a2 D360     		str	r3, [r2, #12]
 796 00a4 0122     		movs	r2, #1
 797 00a6 0021     		movs	r1, #0
 798 00a8 2068     		ldr	r0, [r4]
 799 00aa FFF7FEFF 		bl	TIM_CCxChannelCmd
 800 00ae 2368     		ldr	r3, [r4]
 801 00b0 204A     		ldr	r2, .L80
 802 00b2 B3F1804F 		cmp	r3, #1073741824
 803 00b6 18BF     		it	ne
 804 00b8 9342     		cmpne	r3, r2
 805 00ba 25D0     		beq	.L74
 806 00bc A2F57C42 		sub	r2, r2, #64512
 807 00c0 9342     		cmp	r3, r2
 808 00c2 21D0     		beq	.L74
 809 00c4 02F58062 		add	r2, r2, #1024
 810 00c8 9342     		cmp	r3, r2
 811 00ca 1DD0     		beq	.L74
 812 00cc 02F58062 		add	r2, r2, #1024
ARM GAS  C:\Users\thewo\AppData\Local\Temp\ccnCGpzj.s 			page 15


 813 00d0 9342     		cmp	r3, r2
 814 00d2 19D0     		beq	.L74
 815 00d4 02F57842 		add	r2, r2, #63488
 816 00d8 9342     		cmp	r3, r2
 817 00da 15D0     		beq	.L74
 818 00dc A2F56C42 		sub	r2, r2, #60416
 819 00e0 9342     		cmp	r3, r2
 820 00e2 11D0     		beq	.L74
 821 00e4 02F59432 		add	r2, r2, #75776
 822 00e8 9342     		cmp	r3, r2
 823 00ea 0DD0     		beq	.L74
 824 00ec A2F5C042 		sub	r2, r2, #24576
 825 00f0 9342     		cmp	r3, r2
 826 00f2 09D0     		beq	.L74
 827 00f4 02F58062 		add	r2, r2, #1024
 828 00f8 9342     		cmp	r3, r2
 829 00fa 05D0     		beq	.L74
 830 00fc 1A68     		ldr	r2, [r3]
 831 00fe 42F00102 		orr	r2, r2, #1
 832 0102 1A60     		str	r2, [r3]
 833 0104 0020     		movs	r0, #0
 834 0106 0EE0     		b	.L73
 835              	.L74:
 836 0108 9968     		ldr	r1, [r3, #8]
 837 010a 0C4A     		ldr	r2, .L80+8
 838 010c 0A40     		ands	r2, r2, r1
 839 010e 062A     		cmp	r2, #6
 840 0110 18BF     		it	ne
 841 0112 B2F5803F 		cmpne	r2, #65536
 842 0116 0AD0     		beq	.L78
 843 0118 1A68     		ldr	r2, [r3]
 844 011a 42F00102 		orr	r2, r2, #1
 845 011e 1A60     		str	r2, [r3]
 846 0120 0020     		movs	r0, #0
 847 0122 00E0     		b	.L73
 848              	.L76:
 849 0124 0120     		movs	r0, #1
 850              	.L73:
 851 0126 BDE8F081 		pop	{r4, r5, r6, r7, r8, pc}
 852              	.L77:
 853 012a 0120     		movs	r0, #1
 854 012c FBE7     		b	.L73
 855              	.L78:
 856 012e 0020     		movs	r0, #0
 857 0130 F9E7     		b	.L73
 858              	.L81:
 859 0132 00BF     		.align	2
 860              	.L80:
 861 0134 00000140 		.word	1073807360
 862 0138 00000000 		.word	.LC0
 863 013c 07000100 		.word	65543
 865              		.section	.text.HAL_TIMEx_HallSensor_Stop_IT,"ax",%progbits
 866              		.align	1
 867              		.global	HAL_TIMEx_HallSensor_Stop_IT
 868              		.syntax unified
 869              		.thumb
 870              		.thumb_func
ARM GAS  C:\Users\thewo\AppData\Local\Temp\ccnCGpzj.s 			page 16


 872              	HAL_TIMEx_HallSensor_Stop_IT:
 873              		@ args = 0, pretend = 0, frame = 0
 874              		@ frame_needed = 0, uses_anonymous_args = 0
 875 0000 10B5     		push	{r4, lr}
 876 0002 0446     		mov	r4, r0
 877 0004 0368     		ldr	r3, [r0]
 878 0006 254A     		ldr	r2, .L86
 879 0008 9342     		cmp	r3, r2
 880 000a 18BF     		it	ne
 881 000c B3F1804F 		cmpne	r3, #1073741824
 882 0010 20D0     		beq	.L83
 883 0012 A2F57C42 		sub	r2, r2, #64512
 884 0016 9342     		cmp	r3, r2
 885 0018 1CD0     		beq	.L83
 886 001a 02F58062 		add	r2, r2, #1024
 887 001e 9342     		cmp	r3, r2
 888 0020 18D0     		beq	.L83
 889 0022 02F58062 		add	r2, r2, #1024
 890 0026 9342     		cmp	r3, r2
 891 0028 14D0     		beq	.L83
 892 002a 02F59A32 		add	r2, r2, #78848
 893 002e 9342     		cmp	r3, r2
 894 0030 10D0     		beq	.L83
 895 0032 A2F57052 		sub	r2, r2, #15360
 896 0036 9342     		cmp	r3, r2
 897 0038 0CD0     		beq	.L83
 898 003a A2F51052 		sub	r2, r2, #9216
 899 003e 9342     		cmp	r3, r2
 900 0040 08D0     		beq	.L83
 901 0042 02F58062 		add	r2, r2, #1024
 902 0046 9342     		cmp	r3, r2
 903 0048 04D0     		beq	.L83
 904 004a 40F2D711 		movw	r1, #471
 905 004e 1448     		ldr	r0, .L86+4
 906 0050 FFF7FEFF 		bl	assert_failed
 907              	.L83:
 908 0054 0022     		movs	r2, #0
 909 0056 1146     		mov	r1, r2
 910 0058 2068     		ldr	r0, [r4]
 911 005a FFF7FEFF 		bl	TIM_CCxChannelCmd
 912 005e 2268     		ldr	r2, [r4]
 913 0060 D368     		ldr	r3, [r2, #12]
 914 0062 23F00203 		bic	r3, r3, #2
 915 0066 D360     		str	r3, [r2, #12]
 916 0068 2368     		ldr	r3, [r4]
 917 006a 196A     		ldr	r1, [r3, #32]
 918 006c 41F21112 		movw	r2, #4369
 919 0070 1142     		tst	r1, r2
 920 0072 08D1     		bne	.L84
 921 0074 196A     		ldr	r1, [r3, #32]
 922 0076 40F24442 		movw	r2, #1092
 923 007a 1142     		tst	r1, r2
 924 007c 03D1     		bne	.L84
 925 007e 1A68     		ldr	r2, [r3]
 926 0080 22F00102 		bic	r2, r2, #1
 927 0084 1A60     		str	r2, [r3]
 928              	.L84:
ARM GAS  C:\Users\thewo\AppData\Local\Temp\ccnCGpzj.s 			page 17


 929 0086 0123     		movs	r3, #1
 930 0088 84F83E30 		strb	r3, [r4, #62]
 931 008c 84F83F30 		strb	r3, [r4, #63]
 932 0090 84F84430 		strb	r3, [r4, #68]
 933 0094 84F84530 		strb	r3, [r4, #69]
 934 0098 0020     		movs	r0, #0
 935 009a 10BD     		pop	{r4, pc}
 936              	.L87:
 937              		.align	2
 938              	.L86:
 939 009c 00000140 		.word	1073807360
 940 00a0 00000000 		.word	.LC0
 942              		.section	.text.HAL_TIMEx_HallSensor_Start_DMA,"ax",%progbits
 943              		.align	1
 944              		.global	HAL_TIMEx_HallSensor_Start_DMA
 945              		.syntax unified
 946              		.thumb
 947              		.thumb_func
 949              	HAL_TIMEx_HallSensor_Start_DMA:
 950              		@ args = 0, pretend = 0, frame = 0
 951              		@ frame_needed = 0, uses_anonymous_args = 0
 952 0000 2DE9F843 		push	{r3, r4, r5, r6, r7, r8, r9, lr}
 953 0004 0446     		mov	r4, r0
 954 0006 8846     		mov	r8, r1
 955 0008 9146     		mov	r9, r2
 956 000a 90F83E70 		ldrb	r7, [r0, #62]	@ zero_extendqisi2
 957 000e FFB2     		uxtb	r7, r7
 958 0010 90F84450 		ldrb	r5, [r0, #68]	@ zero_extendqisi2
 959 0014 EDB2     		uxtb	r5, r5
 960 0016 0068     		ldr	r0, [r0]
 961 0018 4B4E     		ldr	r6, .L99
 962 001a B042     		cmp	r0, r6
 963 001c 18BF     		it	ne
 964 001e B0F1804F 		cmpne	r0, #1073741824
 965 0022 1FD0     		beq	.L89
 966 0024 494B     		ldr	r3, .L99+4
 967 0026 9842     		cmp	r0, r3
 968 0028 1CD0     		beq	.L89
 969 002a 03F58063 		add	r3, r3, #1024
 970 002e 9842     		cmp	r0, r3
 971 0030 18D0     		beq	.L89
 972 0032 03F58063 		add	r3, r3, #1024
 973 0036 9842     		cmp	r0, r3
 974 0038 14D0     		beq	.L89
 975 003a 03F59A33 		add	r3, r3, #78848
 976 003e 9842     		cmp	r0, r3
 977 0040 10D0     		beq	.L89
 978 0042 A3F57053 		sub	r3, r3, #15360
 979 0046 9842     		cmp	r0, r3
 980 0048 0CD0     		beq	.L89
 981 004a A3F51053 		sub	r3, r3, #9216
 982 004e 9842     		cmp	r0, r3
 983 0050 08D0     		beq	.L89
 984 0052 03F58063 		add	r3, r3, #1024
 985 0056 9842     		cmp	r0, r3
 986 0058 04D0     		beq	.L89
 987 005a 4FF4FE71 		mov	r1, #508
ARM GAS  C:\Users\thewo\AppData\Local\Temp\ccnCGpzj.s 			page 18


 988 005e 3C48     		ldr	r0, .L99+8
 989 0060 FFF7FEFF 		bl	assert_failed
 990              	.L89:
 991 0064 022D     		cmp	r5, #2
 992 0066 18BF     		it	ne
 993 0068 022F     		cmpne	r7, #2
 994 006a 65D0     		beq	.L93
 995 006c 012F     		cmp	r7, #1
 996 006e 08BF     		it	eq
 997 0070 012D     		cmpeq	r5, #1
 998 0072 63D1     		bne	.L94
 999 0074 B9F1000F 		cmp	r9, #0
 1000 0078 18BF     		it	ne
 1001 007a B8F1000F 		cmpne	r8, #0
 1002 007e 01D1     		bne	.L98
 1003 0080 0120     		movs	r0, #1
 1004 0082 5CE0     		b	.L90
 1005              	.L98:
 1006 0084 0223     		movs	r3, #2
 1007 0086 84F83E30 		strb	r3, [r4, #62]
 1008 008a 84F84430 		strb	r3, [r4, #68]
 1009 008e 0122     		movs	r2, #1
 1010 0090 0021     		movs	r1, #0
 1011 0092 2068     		ldr	r0, [r4]
 1012 0094 FFF7FEFF 		bl	TIM_CCxChannelCmd
 1013 0098 636A     		ldr	r3, [r4, #36]
 1014 009a 2E4A     		ldr	r2, .L99+12
 1015 009c DA63     		str	r2, [r3, #60]
 1016 009e 636A     		ldr	r3, [r4, #36]
 1017 00a0 2D4A     		ldr	r2, .L99+16
 1018 00a2 1A64     		str	r2, [r3, #64]
 1019 00a4 636A     		ldr	r3, [r4, #36]
 1020 00a6 2D4A     		ldr	r2, .L99+20
 1021 00a8 DA64     		str	r2, [r3, #76]
 1022 00aa 2168     		ldr	r1, [r4]
 1023 00ac 4B46     		mov	r3, r9
 1024 00ae 4246     		mov	r2, r8
 1025 00b0 3431     		adds	r1, r1, #52
 1026 00b2 606A     		ldr	r0, [r4, #36]
 1027 00b4 FFF7FEFF 		bl	HAL_DMA_Start_IT
 1028 00b8 0028     		cmp	r0, #0
 1029 00ba 42D1     		bne	.L96
 1030 00bc 2268     		ldr	r2, [r4]
 1031 00be D368     		ldr	r3, [r2, #12]
 1032 00c0 43F40073 		orr	r3, r3, #512
 1033 00c4 D360     		str	r3, [r2, #12]
 1034 00c6 2368     		ldr	r3, [r4]
 1035 00c8 1F4A     		ldr	r2, .L99
 1036 00ca B3F1804F 		cmp	r3, #1073741824
 1037 00ce 18BF     		it	ne
 1038 00d0 9342     		cmpne	r3, r2
 1039 00d2 24D0     		beq	.L91
 1040 00d4 A2F57C42 		sub	r2, r2, #64512
 1041 00d8 9342     		cmp	r3, r2
 1042 00da 20D0     		beq	.L91
 1043 00dc 02F58062 		add	r2, r2, #1024
 1044 00e0 9342     		cmp	r3, r2
ARM GAS  C:\Users\thewo\AppData\Local\Temp\ccnCGpzj.s 			page 19


 1045 00e2 1CD0     		beq	.L91
 1046 00e4 02F58062 		add	r2, r2, #1024
 1047 00e8 9342     		cmp	r3, r2
 1048 00ea 18D0     		beq	.L91
 1049 00ec 02F57842 		add	r2, r2, #63488
 1050 00f0 9342     		cmp	r3, r2
 1051 00f2 14D0     		beq	.L91
 1052 00f4 A2F56C42 		sub	r2, r2, #60416
 1053 00f8 9342     		cmp	r3, r2
 1054 00fa 10D0     		beq	.L91
 1055 00fc 02F59432 		add	r2, r2, #75776
 1056 0100 9342     		cmp	r3, r2
 1057 0102 0CD0     		beq	.L91
 1058 0104 A2F5C042 		sub	r2, r2, #24576
 1059 0108 9342     		cmp	r3, r2
 1060 010a 08D0     		beq	.L91
 1061 010c 02F58062 		add	r2, r2, #1024
 1062 0110 9342     		cmp	r3, r2
 1063 0112 04D0     		beq	.L91
 1064 0114 1A68     		ldr	r2, [r3]
 1065 0116 42F00102 		orr	r2, r2, #1
 1066 011a 1A60     		str	r2, [r3]
 1067 011c 0FE0     		b	.L90
 1068              	.L91:
 1069 011e 9968     		ldr	r1, [r3, #8]
 1070 0120 0F4A     		ldr	r2, .L99+24
 1071 0122 0A40     		ands	r2, r2, r1
 1072 0124 062A     		cmp	r2, #6
 1073 0126 18BF     		it	ne
 1074 0128 B2F5803F 		cmpne	r2, #65536
 1075 012c 07D0     		beq	.L90
 1076 012e 1A68     		ldr	r2, [r3]
 1077 0130 42F00102 		orr	r2, r2, #1
 1078 0134 1A60     		str	r2, [r3]
 1079 0136 02E0     		b	.L90
 1080              	.L93:
 1081 0138 0220     		movs	r0, #2
 1082 013a 00E0     		b	.L90
 1083              	.L94:
 1084 013c 0120     		movs	r0, #1
 1085              	.L90:
 1086 013e BDE8F883 		pop	{r3, r4, r5, r6, r7, r8, r9, pc}
 1087              	.L96:
 1088 0142 0120     		movs	r0, #1
 1089 0144 FBE7     		b	.L90
 1090              	.L100:
 1091 0146 00BF     		.align	2
 1092              	.L99:
 1093 0148 00000140 		.word	1073807360
 1094 014c 00040040 		.word	1073742848
 1095 0150 00000000 		.word	.LC0
 1096 0154 00000000 		.word	TIM_DMACaptureCplt
 1097 0158 00000000 		.word	TIM_DMACaptureHalfCplt
 1098 015c 00000000 		.word	TIM_DMAError
 1099 0160 07000100 		.word	65543
 1101              		.section	.text.HAL_TIMEx_HallSensor_Stop_DMA,"ax",%progbits
 1102              		.align	1
ARM GAS  C:\Users\thewo\AppData\Local\Temp\ccnCGpzj.s 			page 20


 1103              		.global	HAL_TIMEx_HallSensor_Stop_DMA
 1104              		.syntax unified
 1105              		.thumb
 1106              		.thumb_func
 1108              	HAL_TIMEx_HallSensor_Stop_DMA:
 1109              		@ args = 0, pretend = 0, frame = 0
 1110              		@ frame_needed = 0, uses_anonymous_args = 0
 1111 0000 10B5     		push	{r4, lr}
 1112 0002 0446     		mov	r4, r0
 1113 0004 0368     		ldr	r3, [r0]
 1114 0006 254A     		ldr	r2, .L105
 1115 0008 9342     		cmp	r3, r2
 1116 000a 18BF     		it	ne
 1117 000c B3F1804F 		cmpne	r3, #1073741824
 1118 0010 20D0     		beq	.L102
 1119 0012 A2F57C42 		sub	r2, r2, #64512
 1120 0016 9342     		cmp	r3, r2
 1121 0018 1CD0     		beq	.L102
 1122 001a 02F58062 		add	r2, r2, #1024
 1123 001e 9342     		cmp	r3, r2
 1124 0020 18D0     		beq	.L102
 1125 0022 02F58062 		add	r2, r2, #1024
 1126 0026 9342     		cmp	r3, r2
 1127 0028 14D0     		beq	.L102
 1128 002a 02F59A32 		add	r2, r2, #78848
 1129 002e 9342     		cmp	r3, r2
 1130 0030 10D0     		beq	.L102
 1131 0032 A2F57052 		sub	r2, r2, #15360
 1132 0036 9342     		cmp	r3, r2
 1133 0038 0CD0     		beq	.L102
 1134 003a A2F51052 		sub	r2, r2, #9216
 1135 003e 9342     		cmp	r3, r2
 1136 0040 08D0     		beq	.L102
 1137 0042 02F58062 		add	r2, r2, #1024
 1138 0046 9342     		cmp	r3, r2
 1139 0048 04D0     		beq	.L102
 1140 004a 4FF41171 		mov	r1, #580
 1141 004e 1448     		ldr	r0, .L105+4
 1142 0050 FFF7FEFF 		bl	assert_failed
 1143              	.L102:
 1144 0054 0022     		movs	r2, #0
 1145 0056 1146     		mov	r1, r2
 1146 0058 2068     		ldr	r0, [r4]
 1147 005a FFF7FEFF 		bl	TIM_CCxChannelCmd
 1148 005e 2268     		ldr	r2, [r4]
 1149 0060 D368     		ldr	r3, [r2, #12]
 1150 0062 23F40073 		bic	r3, r3, #512
 1151 0066 D360     		str	r3, [r2, #12]
 1152 0068 606A     		ldr	r0, [r4, #36]
 1153 006a FFF7FEFF 		bl	HAL_DMA_Abort_IT
 1154 006e 2368     		ldr	r3, [r4]
 1155 0070 196A     		ldr	r1, [r3, #32]
 1156 0072 41F21112 		movw	r2, #4369
 1157 0076 1142     		tst	r1, r2
 1158 0078 08D1     		bne	.L103
 1159 007a 196A     		ldr	r1, [r3, #32]
 1160 007c 40F24442 		movw	r2, #1092
ARM GAS  C:\Users\thewo\AppData\Local\Temp\ccnCGpzj.s 			page 21


 1161 0080 1142     		tst	r1, r2
 1162 0082 03D1     		bne	.L103
 1163 0084 1A68     		ldr	r2, [r3]
 1164 0086 22F00102 		bic	r2, r2, #1
 1165 008a 1A60     		str	r2, [r3]
 1166              	.L103:
 1167 008c 0123     		movs	r3, #1
 1168 008e 84F83E30 		strb	r3, [r4, #62]
 1169 0092 84F84430 		strb	r3, [r4, #68]
 1170 0096 0020     		movs	r0, #0
 1171 0098 10BD     		pop	{r4, pc}
 1172              	.L106:
 1173 009a 00BF     		.align	2
 1174              	.L105:
 1175 009c 00000140 		.word	1073807360
 1176 00a0 00000000 		.word	.LC0
 1178              		.section	.text.HAL_TIMEx_OCN_Start,"ax",%progbits
 1179              		.align	1
 1180              		.global	HAL_TIMEx_OCN_Start
 1181              		.syntax unified
 1182              		.thumb
 1183              		.thumb_func
 1185              	HAL_TIMEx_OCN_Start:
 1186              		@ args = 0, pretend = 0, frame = 0
 1187              		@ frame_needed = 0, uses_anonymous_args = 0
 1188 0000 38B5     		push	{r3, r4, r5, lr}
 1189 0002 0546     		mov	r5, r0
 1190 0004 0C46     		mov	r4, r1
 1191 0006 0368     		ldr	r3, [r0]
 1192 0008 4F49     		ldr	r1, .L135
 1193 000a 504A     		ldr	r2, .L135+4
 1194 000c 8B42     		cmp	r3, r1
 1195 000e 18BF     		it	ne
 1196 0010 9342     		cmpne	r3, r2
 1197 0012 05D1     		bne	.L108
 1198 0014 002C     		cmp	r4, #0
 1199 0016 18BF     		it	ne
 1200 0018 042C     		cmpne	r4, #4
 1201 001a 0FD0     		beq	.L109
 1202 001c 082C     		cmp	r4, #8
 1203 001e 5BD0     		beq	.L110
 1204              	.L108:
 1205 0020 4B4A     		ldr	r2, .L135+8
 1206 0022 9342     		cmp	r3, r2
 1207 0024 4FD0     		beq	.L128
 1208              	.L111:
 1209 0026 4B4A     		ldr	r2, .L135+12
 1210 0028 9342     		cmp	r3, r2
 1211 002a 4FD0     		beq	.L129
 1212              	.L113:
 1213 002c 4A4A     		ldr	r2, .L135+16
 1214 002e 9342     		cmp	r3, r2
 1215 0030 4FD0     		beq	.L130
 1216              	.L114:
 1217 0032 4FF42171 		mov	r1, #644
 1218 0036 4948     		ldr	r0, .L135+20
 1219 0038 FFF7FEFF 		bl	assert_failed
ARM GAS  C:\Users\thewo\AppData\Local\Temp\ccnCGpzj.s 			page 22


 1220              	.L109:
 1221 003c 002C     		cmp	r4, #0
 1222 003e 4BD1     		bne	.L110
 1223              	.L112:
 1224 0040 95F84430 		ldrb	r3, [r5, #68]	@ zero_extendqisi2
 1225 0044 013B     		subs	r3, r3, #1
 1226 0046 18BF     		it	ne
 1227 0048 0123     		movne	r3, #1
 1228              	.L115:
 1229 004a 002B     		cmp	r3, #0
 1230 004c 78D1     		bne	.L125
 1231 004e 002C     		cmp	r4, #0
 1232 0050 58D1     		bne	.L119
 1233 0052 0223     		movs	r3, #2
 1234 0054 85F84430 		strb	r3, [r5, #68]
 1235              	.L120:
 1236 0058 0422     		movs	r2, #4
 1237 005a 2146     		mov	r1, r4
 1238 005c 2868     		ldr	r0, [r5]
 1239 005e FFF7FEFF 		bl	TIM_CCxNChannelCmd
 1240 0062 2A68     		ldr	r2, [r5]
 1241 0064 536C     		ldr	r3, [r2, #68]
 1242 0066 43F40043 		orr	r3, r3, #32768
 1243 006a 5364     		str	r3, [r2, #68]
 1244 006c 2B68     		ldr	r3, [r5]
 1245 006e 364A     		ldr	r2, .L135
 1246 0070 B3F1804F 		cmp	r3, #1073741824
 1247 0074 18BF     		it	ne
 1248 0076 9342     		cmpne	r3, r2
 1249 0078 54D0     		beq	.L123
 1250 007a A2F57C42 		sub	r2, r2, #64512
 1251 007e 9342     		cmp	r3, r2
 1252 0080 50D0     		beq	.L123
 1253 0082 02F58062 		add	r2, r2, #1024
 1254 0086 9342     		cmp	r3, r2
 1255 0088 4CD0     		beq	.L123
 1256 008a 02F58062 		add	r2, r2, #1024
 1257 008e 9342     		cmp	r3, r2
 1258 0090 48D0     		beq	.L123
 1259 0092 02F57842 		add	r2, r2, #63488
 1260 0096 9342     		cmp	r3, r2
 1261 0098 44D0     		beq	.L123
 1262 009a A2F56C42 		sub	r2, r2, #60416
 1263 009e 9342     		cmp	r3, r2
 1264 00a0 40D0     		beq	.L123
 1265 00a2 02F59432 		add	r2, r2, #75776
 1266 00a6 9342     		cmp	r3, r2
 1267 00a8 3CD0     		beq	.L123
 1268 00aa A2F5C042 		sub	r2, r2, #24576
 1269 00ae 9342     		cmp	r3, r2
 1270 00b0 38D0     		beq	.L123
 1271 00b2 02F58062 		add	r2, r2, #1024
 1272 00b6 9342     		cmp	r3, r2
 1273 00b8 34D0     		beq	.L123
 1274 00ba 1A68     		ldr	r2, [r3]
 1275 00bc 42F00102 		orr	r2, r2, #1
 1276 00c0 1A60     		str	r2, [r3]
ARM GAS  C:\Users\thewo\AppData\Local\Temp\ccnCGpzj.s 			page 23


 1277 00c2 0020     		movs	r0, #0
 1278 00c4 3DE0     		b	.L118
 1279              	.L128:
 1280 00c6 002C     		cmp	r4, #0
 1281 00c8 BAD0     		beq	.L112
 1282 00ca ACE7     		b	.L111
 1283              	.L129:
 1284 00cc 002C     		cmp	r4, #0
 1285 00ce B7D0     		beq	.L112
 1286 00d0 ACE7     		b	.L113
 1287              	.L130:
 1288 00d2 002C     		cmp	r4, #0
 1289 00d4 B4D0     		beq	.L112
 1290 00d6 ACE7     		b	.L114
 1291              	.L110:
 1292 00d8 042C     		cmp	r4, #4
 1293 00da 07D0     		beq	.L131
 1294 00dc 082C     		cmp	r4, #8
 1295 00de 0BD0     		beq	.L132
 1296 00e0 95F84730 		ldrb	r3, [r5, #71]	@ zero_extendqisi2
 1297 00e4 013B     		subs	r3, r3, #1
 1298 00e6 18BF     		it	ne
 1299 00e8 0123     		movne	r3, #1
 1300 00ea AEE7     		b	.L115
 1301              	.L131:
 1302 00ec 95F84530 		ldrb	r3, [r5, #69]	@ zero_extendqisi2
 1303 00f0 013B     		subs	r3, r3, #1
 1304 00f2 18BF     		it	ne
 1305 00f4 0123     		movne	r3, #1
 1306 00f6 A8E7     		b	.L115
 1307              	.L132:
 1308 00f8 95F84630 		ldrb	r3, [r5, #70]	@ zero_extendqisi2
 1309 00fc 013B     		subs	r3, r3, #1
 1310 00fe 18BF     		it	ne
 1311 0100 0123     		movne	r3, #1
 1312 0102 A2E7     		b	.L115
 1313              	.L119:
 1314 0104 042C     		cmp	r4, #4
 1315 0106 05D0     		beq	.L133
 1316 0108 082C     		cmp	r4, #8
 1317 010a 07D0     		beq	.L134
 1318 010c 0223     		movs	r3, #2
 1319 010e 85F84730 		strb	r3, [r5, #71]
 1320 0112 A1E7     		b	.L120
 1321              	.L133:
 1322 0114 0223     		movs	r3, #2
 1323 0116 85F84530 		strb	r3, [r5, #69]
 1324 011a 9DE7     		b	.L120
 1325              	.L134:
 1326 011c 0223     		movs	r3, #2
 1327 011e 85F84630 		strb	r3, [r5, #70]
 1328 0122 99E7     		b	.L120
 1329              	.L123:
 1330 0124 9968     		ldr	r1, [r3, #8]
 1331 0126 0E4A     		ldr	r2, .L135+24
 1332 0128 0A40     		ands	r2, r2, r1
 1333 012a 062A     		cmp	r2, #6
ARM GAS  C:\Users\thewo\AppData\Local\Temp\ccnCGpzj.s 			page 24


 1334 012c 18BF     		it	ne
 1335 012e B2F5803F 		cmpne	r2, #65536
 1336 0132 07D0     		beq	.L126
 1337 0134 1A68     		ldr	r2, [r3]
 1338 0136 42F00102 		orr	r2, r2, #1
 1339 013a 1A60     		str	r2, [r3]
 1340 013c 0020     		movs	r0, #0
 1341 013e 00E0     		b	.L118
 1342              	.L125:
 1343 0140 0120     		movs	r0, #1
 1344              	.L118:
 1345 0142 38BD     		pop	{r3, r4, r5, pc}
 1346              	.L126:
 1347 0144 0020     		movs	r0, #0
 1348 0146 FCE7     		b	.L118
 1349              	.L136:
 1350              		.align	2
 1351              	.L135:
 1352 0148 00000140 		.word	1073807360
 1353 014c 00040140 		.word	1073808384
 1354 0150 00400140 		.word	1073823744
 1355 0154 00440140 		.word	1073824768
 1356 0158 00480140 		.word	1073825792
 1357 015c 00000000 		.word	.LC0
 1358 0160 07000100 		.word	65543
 1360              		.section	.text.HAL_TIMEx_OCN_Stop,"ax",%progbits
 1361              		.align	1
 1362              		.global	HAL_TIMEx_OCN_Stop
 1363              		.syntax unified
 1364              		.thumb
 1365              		.thumb_func
 1367              	HAL_TIMEx_OCN_Stop:
 1368              		@ args = 0, pretend = 0, frame = 0
 1369              		@ frame_needed = 0, uses_anonymous_args = 0
 1370 0000 38B5     		push	{r3, r4, r5, lr}
 1371 0002 0446     		mov	r4, r0
 1372 0004 0D46     		mov	r5, r1
 1373 0006 0368     		ldr	r3, [r0]
 1374 0008 2D49     		ldr	r1, .L155
 1375 000a 2E4A     		ldr	r2, .L155+4
 1376 000c 8B42     		cmp	r3, r1
 1377 000e 18BF     		it	ne
 1378 0010 9342     		cmpne	r3, r2
 1379 0012 05D1     		bne	.L138
 1380 0014 002D     		cmp	r5, #0
 1381 0016 18BF     		it	ne
 1382 0018 042D     		cmpne	r5, #4
 1383 001a 0FD0     		beq	.L139
 1384 001c 082D     		cmp	r5, #8
 1385 001e 0DD0     		beq	.L139
 1386              	.L138:
 1387 0020 294A     		ldr	r2, .L155+8
 1388 0022 9342     		cmp	r3, r2
 1389 0024 33D0     		beq	.L150
 1390              	.L140:
 1391 0026 294A     		ldr	r2, .L155+12
 1392 0028 9342     		cmp	r3, r2
ARM GAS  C:\Users\thewo\AppData\Local\Temp\ccnCGpzj.s 			page 25


 1393 002a 33D0     		beq	.L151
 1394              	.L141:
 1395 002c 284A     		ldr	r2, .L155+16
 1396 002e 9342     		cmp	r3, r2
 1397 0030 33D0     		beq	.L152
 1398              	.L142:
 1399 0032 40F2B521 		movw	r1, #693
 1400 0036 2748     		ldr	r0, .L155+20
 1401 0038 FFF7FEFF 		bl	assert_failed
 1402              	.L139:
 1403 003c 0022     		movs	r2, #0
 1404 003e 2946     		mov	r1, r5
 1405 0040 2068     		ldr	r0, [r4]
 1406 0042 FFF7FEFF 		bl	TIM_CCxNChannelCmd
 1407 0046 2368     		ldr	r3, [r4]
 1408 0048 196A     		ldr	r1, [r3, #32]
 1409 004a 41F21112 		movw	r2, #4369
 1410 004e 1142     		tst	r1, r2
 1411 0050 08D1     		bne	.L143
 1412 0052 196A     		ldr	r1, [r3, #32]
 1413 0054 40F24442 		movw	r2, #1092
 1414 0058 1142     		tst	r1, r2
 1415 005a 03D1     		bne	.L143
 1416 005c 5A6C     		ldr	r2, [r3, #68]
 1417 005e 22F40042 		bic	r2, r2, #32768
 1418 0062 5A64     		str	r2, [r3, #68]
 1419              	.L143:
 1420 0064 2368     		ldr	r3, [r4]
 1421 0066 196A     		ldr	r1, [r3, #32]
 1422 0068 41F21112 		movw	r2, #4369
 1423 006c 1142     		tst	r1, r2
 1424 006e 08D1     		bne	.L144
 1425 0070 196A     		ldr	r1, [r3, #32]
 1426 0072 40F24442 		movw	r2, #1092
 1427 0076 1142     		tst	r1, r2
 1428 0078 03D1     		bne	.L144
 1429 007a 1A68     		ldr	r2, [r3]
 1430 007c 22F00102 		bic	r2, r2, #1
 1431 0080 1A60     		str	r2, [r3]
 1432              	.L144:
 1433 0082 6DB9     		cbnz	r5, .L145
 1434 0084 0123     		movs	r3, #1
 1435 0086 84F84430 		strb	r3, [r4, #68]
 1436              	.L146:
 1437 008a 0020     		movs	r0, #0
 1438 008c 38BD     		pop	{r3, r4, r5, pc}
 1439              	.L150:
 1440 008e 002D     		cmp	r5, #0
 1441 0090 D4D0     		beq	.L139
 1442 0092 C8E7     		b	.L140
 1443              	.L151:
 1444 0094 002D     		cmp	r5, #0
 1445 0096 D1D0     		beq	.L139
 1446 0098 C8E7     		b	.L141
 1447              	.L152:
 1448 009a 002D     		cmp	r5, #0
 1449 009c CED0     		beq	.L139
ARM GAS  C:\Users\thewo\AppData\Local\Temp\ccnCGpzj.s 			page 26


 1450 009e C8E7     		b	.L142
 1451              	.L145:
 1452 00a0 042D     		cmp	r5, #4
 1453 00a2 05D0     		beq	.L153
 1454 00a4 082D     		cmp	r5, #8
 1455 00a6 07D0     		beq	.L154
 1456 00a8 0123     		movs	r3, #1
 1457 00aa 84F84730 		strb	r3, [r4, #71]
 1458 00ae ECE7     		b	.L146
 1459              	.L153:
 1460 00b0 0123     		movs	r3, #1
 1461 00b2 84F84530 		strb	r3, [r4, #69]
 1462 00b6 E8E7     		b	.L146
 1463              	.L154:
 1464 00b8 0123     		movs	r3, #1
 1465 00ba 84F84630 		strb	r3, [r4, #70]
 1466 00be E4E7     		b	.L146
 1467              	.L156:
 1468              		.align	2
 1469              	.L155:
 1470 00c0 00000140 		.word	1073807360
 1471 00c4 00040140 		.word	1073808384
 1472 00c8 00400140 		.word	1073823744
 1473 00cc 00440140 		.word	1073824768
 1474 00d0 00480140 		.word	1073825792
 1475 00d4 00000000 		.word	.LC0
 1477              		.section	.text.HAL_TIMEx_OCN_Start_IT,"ax",%progbits
 1478              		.align	1
 1479              		.global	HAL_TIMEx_OCN_Start_IT
 1480              		.syntax unified
 1481              		.thumb
 1482              		.thumb_func
 1484              	HAL_TIMEx_OCN_Start_IT:
 1485              		@ args = 0, pretend = 0, frame = 0
 1486              		@ frame_needed = 0, uses_anonymous_args = 0
 1487 0000 38B5     		push	{r3, r4, r5, lr}
 1488 0002 0446     		mov	r4, r0
 1489 0004 0D46     		mov	r5, r1
 1490 0006 0368     		ldr	r3, [r0]
 1491 0008 5D49     		ldr	r1, .L189
 1492 000a 5E4A     		ldr	r2, .L189+4
 1493 000c 8B42     		cmp	r3, r1
 1494 000e 18BF     		it	ne
 1495 0010 9342     		cmpne	r3, r2
 1496 0012 05D1     		bne	.L158
 1497 0014 002D     		cmp	r5, #0
 1498 0016 18BF     		it	ne
 1499 0018 042D     		cmpne	r5, #4
 1500 001a 0FD0     		beq	.L159
 1501 001c 082D     		cmp	r5, #8
 1502 001e 66D0     		beq	.L160
 1503              	.L158:
 1504 0020 594A     		ldr	r2, .L189+8
 1505 0022 9342     		cmp	r3, r2
 1506 0024 5AD0     		beq	.L182
 1507              	.L161:
 1508 0026 594A     		ldr	r2, .L189+12
ARM GAS  C:\Users\thewo\AppData\Local\Temp\ccnCGpzj.s 			page 27


 1509 0028 9342     		cmp	r3, r2
 1510 002a 5AD0     		beq	.L183
 1511              	.L163:
 1512 002c 584A     		ldr	r2, .L189+16
 1513 002e 9342     		cmp	r3, r2
 1514 0030 5AD0     		beq	.L184
 1515              	.L164:
 1516 0032 4FF43671 		mov	r1, #728
 1517 0036 5748     		ldr	r0, .L189+20
 1518 0038 FFF7FEFF 		bl	assert_failed
 1519              	.L159:
 1520 003c 002D     		cmp	r5, #0
 1521 003e 56D1     		bne	.L160
 1522              	.L162:
 1523 0040 94F84430 		ldrb	r3, [r4, #68]	@ zero_extendqisi2
 1524 0044 013B     		subs	r3, r3, #1
 1525 0046 18BF     		it	ne
 1526 0048 0123     		movne	r3, #1
 1527              	.L165:
 1528 004a 002B     		cmp	r3, #0
 1529 004c 40F09480 		bne	.L178
 1530 0050 002D     		cmp	r5, #0
 1531 0052 62D1     		bne	.L169
 1532 0054 0223     		movs	r3, #2
 1533 0056 84F84430 		strb	r3, [r4, #68]
 1534              	.L170:
 1535 005a 2268     		ldr	r2, [r4]
 1536 005c D368     		ldr	r3, [r2, #12]
 1537 005e 43F00203 		orr	r3, r3, #2
 1538 0062 D360     		str	r3, [r2, #12]
 1539              	.L175:
 1540 0064 2268     		ldr	r2, [r4]
 1541 0066 D368     		ldr	r3, [r2, #12]
 1542 0068 43F08003 		orr	r3, r3, #128
 1543 006c D360     		str	r3, [r2, #12]
 1544 006e 0422     		movs	r2, #4
 1545 0070 2946     		mov	r1, r5
 1546 0072 2068     		ldr	r0, [r4]
 1547 0074 FFF7FEFF 		bl	TIM_CCxNChannelCmd
 1548 0078 2268     		ldr	r2, [r4]
 1549 007a 536C     		ldr	r3, [r2, #68]
 1550 007c 43F40043 		orr	r3, r3, #32768
 1551 0080 5364     		str	r3, [r2, #68]
 1552 0082 2368     		ldr	r3, [r4]
 1553 0084 3E4A     		ldr	r2, .L189
 1554 0086 B3F1804F 		cmp	r3, #1073741824
 1555 008a 18BF     		it	ne
 1556 008c 9342     		cmpne	r3, r2
 1557 008e 65D0     		beq	.L176
 1558 0090 A2F57C42 		sub	r2, r2, #64512
 1559 0094 9342     		cmp	r3, r2
 1560 0096 61D0     		beq	.L176
 1561 0098 02F58062 		add	r2, r2, #1024
 1562 009c 9342     		cmp	r3, r2
 1563 009e 5DD0     		beq	.L176
 1564 00a0 02F58062 		add	r2, r2, #1024
 1565 00a4 9342     		cmp	r3, r2
ARM GAS  C:\Users\thewo\AppData\Local\Temp\ccnCGpzj.s 			page 28


 1566 00a6 59D0     		beq	.L176
 1567 00a8 02F57842 		add	r2, r2, #63488
 1568 00ac 9342     		cmp	r3, r2
 1569 00ae 55D0     		beq	.L176
 1570 00b0 A2F56C42 		sub	r2, r2, #60416
 1571 00b4 9342     		cmp	r3, r2
 1572 00b6 51D0     		beq	.L176
 1573 00b8 02F59432 		add	r2, r2, #75776
 1574 00bc 9342     		cmp	r3, r2
 1575 00be 4DD0     		beq	.L176
 1576 00c0 A2F5C042 		sub	r2, r2, #24576
 1577 00c4 9342     		cmp	r3, r2
 1578 00c6 49D0     		beq	.L176
 1579 00c8 02F58062 		add	r2, r2, #1024
 1580 00cc 9342     		cmp	r3, r2
 1581 00ce 45D0     		beq	.L176
 1582 00d0 1A68     		ldr	r2, [r3]
 1583 00d2 42F00102 		orr	r2, r2, #1
 1584 00d6 1A60     		str	r2, [r3]
 1585 00d8 0020     		movs	r0, #0
 1586 00da 4EE0     		b	.L168
 1587              	.L182:
 1588 00dc 002D     		cmp	r5, #0
 1589 00de AFD0     		beq	.L162
 1590 00e0 A1E7     		b	.L161
 1591              	.L183:
 1592 00e2 002D     		cmp	r5, #0
 1593 00e4 ACD0     		beq	.L162
 1594 00e6 A1E7     		b	.L163
 1595              	.L184:
 1596 00e8 002D     		cmp	r5, #0
 1597 00ea A9D0     		beq	.L162
 1598 00ec A1E7     		b	.L164
 1599              	.L160:
 1600 00ee 042D     		cmp	r5, #4
 1601 00f0 07D0     		beq	.L185
 1602 00f2 082D     		cmp	r5, #8
 1603 00f4 0BD0     		beq	.L186
 1604 00f6 94F84730 		ldrb	r3, [r4, #71]	@ zero_extendqisi2
 1605 00fa 013B     		subs	r3, r3, #1
 1606 00fc 18BF     		it	ne
 1607 00fe 0123     		movne	r3, #1
 1608 0100 A3E7     		b	.L165
 1609              	.L185:
 1610 0102 94F84530 		ldrb	r3, [r4, #69]	@ zero_extendqisi2
 1611 0106 013B     		subs	r3, r3, #1
 1612 0108 18BF     		it	ne
 1613 010a 0123     		movne	r3, #1
 1614 010c 9DE7     		b	.L165
 1615              	.L186:
 1616 010e 94F84630 		ldrb	r3, [r4, #70]	@ zero_extendqisi2
 1617 0112 013B     		subs	r3, r3, #1
 1618 0114 18BF     		it	ne
 1619 0116 0123     		movne	r3, #1
 1620 0118 97E7     		b	.L165
 1621              	.L169:
 1622 011a 042D     		cmp	r5, #4
ARM GAS  C:\Users\thewo\AppData\Local\Temp\ccnCGpzj.s 			page 29


 1623 011c 0CD0     		beq	.L187
 1624 011e 082D     		cmp	r5, #8
 1625 0120 13D0     		beq	.L188
 1626 0122 0223     		movs	r3, #2
 1627 0124 84F84730 		strb	r3, [r4, #71]
 1628 0128 042D     		cmp	r5, #4
 1629 012a 08D0     		beq	.L172
 1630 012c 082D     		cmp	r5, #8
 1631 012e 0FD0     		beq	.L174
 1632 0130 002D     		cmp	r5, #0
 1633 0132 92D0     		beq	.L170
 1634 0134 0120     		movs	r0, #1
 1635 0136 20E0     		b	.L168
 1636              	.L187:
 1637 0138 0223     		movs	r3, #2
 1638 013a 84F84530 		strb	r3, [r4, #69]
 1639              	.L172:
 1640 013e 2268     		ldr	r2, [r4]
 1641 0140 D368     		ldr	r3, [r2, #12]
 1642 0142 43F00403 		orr	r3, r3, #4
 1643 0146 D360     		str	r3, [r2, #12]
 1644 0148 8CE7     		b	.L175
 1645              	.L188:
 1646 014a 0223     		movs	r3, #2
 1647 014c 84F84630 		strb	r3, [r4, #70]
 1648              	.L174:
 1649 0150 2268     		ldr	r2, [r4]
 1650 0152 D368     		ldr	r3, [r2, #12]
 1651 0154 43F00803 		orr	r3, r3, #8
 1652 0158 D360     		str	r3, [r2, #12]
 1653 015a 83E7     		b	.L175
 1654              	.L176:
 1655 015c 9968     		ldr	r1, [r3, #8]
 1656 015e 0E4A     		ldr	r2, .L189+24
 1657 0160 0A40     		ands	r2, r2, r1
 1658 0162 062A     		cmp	r2, #6
 1659 0164 18BF     		it	ne
 1660 0166 B2F5803F 		cmpne	r2, #65536
 1661 016a 07D0     		beq	.L180
 1662 016c 1A68     		ldr	r2, [r3]
 1663 016e 42F00102 		orr	r2, r2, #1
 1664 0172 1A60     		str	r2, [r3]
 1665 0174 0020     		movs	r0, #0
 1666 0176 00E0     		b	.L168
 1667              	.L178:
 1668 0178 0120     		movs	r0, #1
 1669              	.L168:
 1670 017a 38BD     		pop	{r3, r4, r5, pc}
 1671              	.L180:
 1672 017c 0020     		movs	r0, #0
 1673 017e FCE7     		b	.L168
 1674              	.L190:
 1675              		.align	2
 1676              	.L189:
 1677 0180 00000140 		.word	1073807360
 1678 0184 00040140 		.word	1073808384
 1679 0188 00400140 		.word	1073823744
ARM GAS  C:\Users\thewo\AppData\Local\Temp\ccnCGpzj.s 			page 30


 1680 018c 00440140 		.word	1073824768
 1681 0190 00480140 		.word	1073825792
 1682 0194 00000000 		.word	.LC0
 1683 0198 07000100 		.word	65543
 1685              		.section	.text.HAL_TIMEx_OCN_Stop_IT,"ax",%progbits
 1686              		.align	1
 1687              		.global	HAL_TIMEx_OCN_Stop_IT
 1688              		.syntax unified
 1689              		.thumb
 1690              		.thumb_func
 1692              	HAL_TIMEx_OCN_Stop_IT:
 1693              		@ args = 0, pretend = 0, frame = 0
 1694              		@ frame_needed = 0, uses_anonymous_args = 0
 1695 0000 38B5     		push	{r3, r4, r5, lr}
 1696 0002 0446     		mov	r4, r0
 1697 0004 0D46     		mov	r5, r1
 1698 0006 0368     		ldr	r3, [r0]
 1699 0008 4049     		ldr	r1, .L215
 1700 000a 414A     		ldr	r2, .L215+4
 1701 000c 8B42     		cmp	r3, r1
 1702 000e 18BF     		it	ne
 1703 0010 9342     		cmpne	r3, r2
 1704 0012 05D1     		bne	.L192
 1705 0014 002D     		cmp	r5, #0
 1706 0016 18BF     		it	ne
 1707 0018 042D     		cmpne	r5, #4
 1708 001a 0FD0     		beq	.L193
 1709 001c 082D     		cmp	r5, #8
 1710 001e 5AD0     		beq	.L194
 1711              	.L192:
 1712 0020 3C4A     		ldr	r2, .L215+8
 1713 0022 9342     		cmp	r3, r2
 1714 0024 48D0     		beq	.L210
 1715              	.L195:
 1716 0026 3C4A     		ldr	r2, .L215+12
 1717 0028 9342     		cmp	r3, r2
 1718 002a 48D0     		beq	.L211
 1719              	.L197:
 1720 002c 3B4A     		ldr	r2, .L215+16
 1721 002e 9342     		cmp	r3, r2
 1722 0030 48D0     		beq	.L212
 1723              	.L198:
 1724 0032 40F22F31 		movw	r1, #815
 1725 0036 3A48     		ldr	r0, .L215+20
 1726 0038 FFF7FEFF 		bl	assert_failed
 1727              	.L193:
 1728 003c 042D     		cmp	r5, #4
 1729 003e 44D0     		beq	.L199
 1730 0040 082D     		cmp	r5, #8
 1731 0042 48D0     		beq	.L194
 1732 0044 002D     		cmp	r5, #0
 1733 0046 5FD1     		bne	.L208
 1734              	.L196:
 1735 0048 2268     		ldr	r2, [r4]
 1736 004a D368     		ldr	r3, [r2, #12]
 1737 004c 23F00203 		bic	r3, r3, #2
 1738 0050 D360     		str	r3, [r2, #12]
ARM GAS  C:\Users\thewo\AppData\Local\Temp\ccnCGpzj.s 			page 31


 1739              	.L201:
 1740 0052 0022     		movs	r2, #0
 1741 0054 2946     		mov	r1, r5
 1742 0056 2068     		ldr	r0, [r4]
 1743 0058 FFF7FEFF 		bl	TIM_CCxNChannelCmd
 1744 005c 2368     		ldr	r3, [r4]
 1745 005e 196A     		ldr	r1, [r3, #32]
 1746 0060 40F24442 		movw	r2, #1092
 1747 0064 1142     		tst	r1, r2
 1748 0066 03D1     		bne	.L202
 1749 0068 DA68     		ldr	r2, [r3, #12]
 1750 006a 22F08002 		bic	r2, r2, #128
 1751 006e DA60     		str	r2, [r3, #12]
 1752              	.L202:
 1753 0070 2368     		ldr	r3, [r4]
 1754 0072 196A     		ldr	r1, [r3, #32]
 1755 0074 41F21112 		movw	r2, #4369
 1756 0078 1142     		tst	r1, r2
 1757 007a 08D1     		bne	.L203
 1758 007c 196A     		ldr	r1, [r3, #32]
 1759 007e 40F24442 		movw	r2, #1092
 1760 0082 1142     		tst	r1, r2
 1761 0084 03D1     		bne	.L203
 1762 0086 5A6C     		ldr	r2, [r3, #68]
 1763 0088 22F40042 		bic	r2, r2, #32768
 1764 008c 5A64     		str	r2, [r3, #68]
 1765              	.L203:
 1766 008e 2368     		ldr	r3, [r4]
 1767 0090 196A     		ldr	r1, [r3, #32]
 1768 0092 41F21112 		movw	r2, #4369
 1769 0096 1142     		tst	r1, r2
 1770 0098 08D1     		bne	.L204
 1771 009a 196A     		ldr	r1, [r3, #32]
 1772 009c 40F24442 		movw	r2, #1092
 1773 00a0 1142     		tst	r1, r2
 1774 00a2 03D1     		bne	.L204
 1775 00a4 1A68     		ldr	r2, [r3]
 1776 00a6 22F00102 		bic	r2, r2, #1
 1777 00aa 1A60     		str	r2, [r3]
 1778              	.L204:
 1779 00ac CDB9     		cbnz	r5, .L205
 1780 00ae 0123     		movs	r3, #1
 1781 00b0 84F84430 		strb	r3, [r4, #68]
 1782 00b4 0020     		movs	r0, #0
 1783              	.L200:
 1784 00b6 38BD     		pop	{r3, r4, r5, pc}
 1785              	.L210:
 1786 00b8 002D     		cmp	r5, #0
 1787 00ba C5D0     		beq	.L196
 1788 00bc B3E7     		b	.L195
 1789              	.L211:
 1790 00be 002D     		cmp	r5, #0
 1791 00c0 C2D0     		beq	.L196
 1792 00c2 B3E7     		b	.L197
 1793              	.L212:
 1794 00c4 002D     		cmp	r5, #0
 1795 00c6 BFD0     		beq	.L196
ARM GAS  C:\Users\thewo\AppData\Local\Temp\ccnCGpzj.s 			page 32


 1796 00c8 B3E7     		b	.L198
 1797              	.L199:
 1798 00ca 2268     		ldr	r2, [r4]
 1799 00cc D368     		ldr	r3, [r2, #12]
 1800 00ce 23F00403 		bic	r3, r3, #4
 1801 00d2 D360     		str	r3, [r2, #12]
 1802 00d4 BDE7     		b	.L201
 1803              	.L194:
 1804 00d6 2268     		ldr	r2, [r4]
 1805 00d8 D368     		ldr	r3, [r2, #12]
 1806 00da 23F00803 		bic	r3, r3, #8
 1807 00de D360     		str	r3, [r2, #12]
 1808 00e0 B7E7     		b	.L201
 1809              	.L205:
 1810 00e2 042D     		cmp	r5, #4
 1811 00e4 06D0     		beq	.L213
 1812 00e6 082D     		cmp	r5, #8
 1813 00e8 09D0     		beq	.L214
 1814 00ea 0123     		movs	r3, #1
 1815 00ec 84F84730 		strb	r3, [r4, #71]
 1816 00f0 0020     		movs	r0, #0
 1817 00f2 E0E7     		b	.L200
 1818              	.L213:
 1819 00f4 0123     		movs	r3, #1
 1820 00f6 84F84530 		strb	r3, [r4, #69]
 1821 00fa 0020     		movs	r0, #0
 1822 00fc DBE7     		b	.L200
 1823              	.L214:
 1824 00fe 0123     		movs	r3, #1
 1825 0100 84F84630 		strb	r3, [r4, #70]
 1826 0104 0020     		movs	r0, #0
 1827 0106 D6E7     		b	.L200
 1828              	.L208:
 1829 0108 0120     		movs	r0, #1
 1830 010a D4E7     		b	.L200
 1831              	.L216:
 1832              		.align	2
 1833              	.L215:
 1834 010c 00000140 		.word	1073807360
 1835 0110 00040140 		.word	1073808384
 1836 0114 00400140 		.word	1073823744
 1837 0118 00440140 		.word	1073824768
 1838 011c 00480140 		.word	1073825792
 1839 0120 00000000 		.word	.LC0
 1841              		.section	.text.HAL_TIMEx_OCN_Start_DMA,"ax",%progbits
 1842              		.align	1
 1843              		.global	HAL_TIMEx_OCN_Start_DMA
 1844              		.syntax unified
 1845              		.thumb
 1846              		.thumb_func
 1848              	HAL_TIMEx_OCN_Start_DMA:
 1849              		@ args = 0, pretend = 0, frame = 0
 1850              		@ frame_needed = 0, uses_anonymous_args = 0
 1851 0000 F8B5     		push	{r3, r4, r5, r6, r7, lr}
 1852 0002 0446     		mov	r4, r0
 1853 0004 0D46     		mov	r5, r1
 1854 0006 1646     		mov	r6, r2
ARM GAS  C:\Users\thewo\AppData\Local\Temp\ccnCGpzj.s 			page 33


 1855 0008 1F46     		mov	r7, r3
 1856 000a 0068     		ldr	r0, [r0]
 1857 000c 9A4A     		ldr	r2, .L260
 1858 000e 9B4B     		ldr	r3, .L260+4
 1859 0010 9042     		cmp	r0, r2
 1860 0012 18BF     		it	ne
 1861 0014 9842     		cmpne	r0, r3
 1862 0016 06D1     		bne	.L218
 1863 0018 0029     		cmp	r1, #0
 1864 001a 18BF     		it	ne
 1865 001c 0429     		cmpne	r1, #4
 1866 001e 13D0     		beq	.L219
 1867 0020 0829     		cmp	r1, #8
 1868 0022 00F09680 		beq	.L220
 1869              	.L218:
 1870 0026 964B     		ldr	r3, .L260+8
 1871 0028 9842     		cmp	r0, r3
 1872 002a 00F08880 		beq	.L251
 1873              	.L221:
 1874 002e 954B     		ldr	r3, .L260+12
 1875 0030 9842     		cmp	r0, r3
 1876 0032 00F08780 		beq	.L252
 1877              	.L223:
 1878 0036 944B     		ldr	r3, .L260+16
 1879 0038 9842     		cmp	r0, r3
 1880 003a 00F08680 		beq	.L253
 1881              	.L224:
 1882 003e 40F27B31 		movw	r1, #891
 1883 0042 9248     		ldr	r0, .L260+20
 1884 0044 FFF7FEFF 		bl	assert_failed
 1885              	.L219:
 1886 0048 002D     		cmp	r5, #0
 1887 004a 40F08280 		bne	.L220
 1888              	.L222:
 1889 004e 94F84400 		ldrb	r0, [r4, #68]	@ zero_extendqisi2
 1890 0052 0228     		cmp	r0, #2
 1891 0054 14BF     		ite	ne
 1892 0056 0020     		movne	r0, #0
 1893 0058 0120     		moveq	r0, #1
 1894              	.L225:
 1895 005a 0028     		cmp	r0, #0
 1896 005c 40F0FE80 		bne	.L242
 1897 0060 002D     		cmp	r5, #0
 1898 0062 40F08F80 		bne	.L229
 1899 0066 94F84430 		ldrb	r3, [r4, #68]	@ zero_extendqisi2
 1900 006a 012B     		cmp	r3, #1
 1901 006c 14BF     		ite	ne
 1902 006e 0023     		movne	r3, #0
 1903 0070 0123     		moveq	r3, #1
 1904              	.L230:
 1905 0072 002B     		cmp	r3, #0
 1906 0074 00F0F480 		beq	.L243
 1907 0078 002F     		cmp	r7, #0
 1908 007a 18BF     		it	ne
 1909 007c 002E     		cmpne	r6, #0
 1910 007e 00F0F180 		beq	.L244
 1911 0082 002D     		cmp	r5, #0
ARM GAS  C:\Users\thewo\AppData\Local\Temp\ccnCGpzj.s 			page 34


 1912 0084 40F09780 		bne	.L233
 1913 0088 0223     		movs	r3, #2
 1914 008a 84F84430 		strb	r3, [r4, #68]
 1915              	.L234:
 1916 008e 636A     		ldr	r3, [r4, #36]
 1917 0090 7F4A     		ldr	r2, .L260+24
 1918 0092 DA63     		str	r2, [r3, #60]
 1919 0094 636A     		ldr	r3, [r4, #36]
 1920 0096 7F4A     		ldr	r2, .L260+28
 1921 0098 1A64     		str	r2, [r3, #64]
 1922 009a 636A     		ldr	r3, [r4, #36]
 1923 009c 7E4A     		ldr	r2, .L260+32
 1924 009e DA64     		str	r2, [r3, #76]
 1925 00a0 2268     		ldr	r2, [r4]
 1926 00a2 3B46     		mov	r3, r7
 1927 00a4 3432     		adds	r2, r2, #52
 1928 00a6 3146     		mov	r1, r6
 1929 00a8 606A     		ldr	r0, [r4, #36]
 1930 00aa FFF7FEFF 		bl	HAL_DMA_Start_IT
 1931 00ae 0028     		cmp	r0, #0
 1932 00b0 40F0DA80 		bne	.L246
 1933 00b4 2268     		ldr	r2, [r4]
 1934 00b6 D368     		ldr	r3, [r2, #12]
 1935 00b8 43F40073 		orr	r3, r3, #512
 1936 00bc D360     		str	r3, [r2, #12]
 1937              	.L239:
 1938 00be 0422     		movs	r2, #4
 1939 00c0 2946     		mov	r1, r5
 1940 00c2 2068     		ldr	r0, [r4]
 1941 00c4 FFF7FEFF 		bl	TIM_CCxNChannelCmd
 1942 00c8 2268     		ldr	r2, [r4]
 1943 00ca 536C     		ldr	r3, [r2, #68]
 1944 00cc 43F40043 		orr	r3, r3, #32768
 1945 00d0 5364     		str	r3, [r2, #68]
 1946 00d2 2368     		ldr	r3, [r4]
 1947 00d4 684A     		ldr	r2, .L260
 1948 00d6 B3F1804F 		cmp	r3, #1073741824
 1949 00da 18BF     		it	ne
 1950 00dc 9342     		cmpne	r3, r2
 1951 00de 00F0AF80 		beq	.L240
 1952 00e2 A2F57C42 		sub	r2, r2, #64512
 1953 00e6 9342     		cmp	r3, r2
 1954 00e8 00F0AA80 		beq	.L240
 1955 00ec 02F58062 		add	r2, r2, #1024
 1956 00f0 9342     		cmp	r3, r2
 1957 00f2 00F0A580 		beq	.L240
 1958 00f6 02F58062 		add	r2, r2, #1024
 1959 00fa 9342     		cmp	r3, r2
 1960 00fc 00F0A080 		beq	.L240
 1961 0100 02F57842 		add	r2, r2, #63488
 1962 0104 9342     		cmp	r3, r2
 1963 0106 00F09B80 		beq	.L240
 1964 010a A2F56C42 		sub	r2, r2, #60416
 1965 010e 9342     		cmp	r3, r2
 1966 0110 00F09680 		beq	.L240
 1967 0114 02F59432 		add	r2, r2, #75776
 1968 0118 9342     		cmp	r3, r2
ARM GAS  C:\Users\thewo\AppData\Local\Temp\ccnCGpzj.s 			page 35


 1969 011a 00F09180 		beq	.L240
 1970 011e A2F5C042 		sub	r2, r2, #24576
 1971 0122 9342     		cmp	r3, r2
 1972 0124 00F08C80 		beq	.L240
 1973 0128 02F58062 		add	r2, r2, #1024
 1974 012c 9342     		cmp	r3, r2
 1975 012e 00F08780 		beq	.L240
 1976 0132 1A68     		ldr	r2, [r3]
 1977 0134 42F00102 		orr	r2, r2, #1
 1978 0138 1A60     		str	r2, [r3]
 1979 013a 0020     		movs	r0, #0
 1980 013c 91E0     		b	.L228
 1981              	.L251:
 1982 013e 002D     		cmp	r5, #0
 1983 0140 85D0     		beq	.L222
 1984 0142 74E7     		b	.L221
 1985              	.L252:
 1986 0144 002D     		cmp	r5, #0
 1987 0146 82D0     		beq	.L222
 1988 0148 75E7     		b	.L223
 1989              	.L253:
 1990 014a 002D     		cmp	r5, #0
 1991 014c 3FF47FAF 		beq	.L222
 1992 0150 75E7     		b	.L224
 1993              	.L220:
 1994 0152 042D     		cmp	r5, #4
 1995 0154 08D0     		beq	.L254
 1996 0156 082D     		cmp	r5, #8
 1997 0158 0DD0     		beq	.L255
 1998 015a 94F84700 		ldrb	r0, [r4, #71]	@ zero_extendqisi2
 1999 015e 0228     		cmp	r0, #2
 2000 0160 14BF     		ite	ne
 2001 0162 0020     		movne	r0, #0
 2002 0164 0120     		moveq	r0, #1
 2003 0166 78E7     		b	.L225
 2004              	.L254:
 2005 0168 94F84500 		ldrb	r0, [r4, #69]	@ zero_extendqisi2
 2006 016c 0228     		cmp	r0, #2
 2007 016e 14BF     		ite	ne
 2008 0170 0020     		movne	r0, #0
 2009 0172 0120     		moveq	r0, #1
 2010 0174 71E7     		b	.L225
 2011              	.L255:
 2012 0176 94F84600 		ldrb	r0, [r4, #70]	@ zero_extendqisi2
 2013 017a 0228     		cmp	r0, #2
 2014 017c 14BF     		ite	ne
 2015 017e 0020     		movne	r0, #0
 2016 0180 0120     		moveq	r0, #1
 2017 0182 6AE7     		b	.L225
 2018              	.L229:
 2019 0184 042D     		cmp	r5, #4
 2020 0186 08D0     		beq	.L256
 2021 0188 082D     		cmp	r5, #8
 2022 018a 0DD0     		beq	.L257
 2023 018c 94F84730 		ldrb	r3, [r4, #71]	@ zero_extendqisi2
 2024 0190 012B     		cmp	r3, #1
 2025 0192 14BF     		ite	ne
ARM GAS  C:\Users\thewo\AppData\Local\Temp\ccnCGpzj.s 			page 36


 2026 0194 0023     		movne	r3, #0
 2027 0196 0123     		moveq	r3, #1
 2028 0198 6BE7     		b	.L230
 2029              	.L256:
 2030 019a 94F84530 		ldrb	r3, [r4, #69]	@ zero_extendqisi2
 2031 019e 012B     		cmp	r3, #1
 2032 01a0 14BF     		ite	ne
 2033 01a2 0023     		movne	r3, #0
 2034 01a4 0123     		moveq	r3, #1
 2035 01a6 64E7     		b	.L230
 2036              	.L257:
 2037 01a8 94F84630 		ldrb	r3, [r4, #70]	@ zero_extendqisi2
 2038 01ac 012B     		cmp	r3, #1
 2039 01ae 14BF     		ite	ne
 2040 01b0 0023     		movne	r3, #0
 2041 01b2 0123     		moveq	r3, #1
 2042 01b4 5DE7     		b	.L230
 2043              	.L233:
 2044 01b6 042D     		cmp	r5, #4
 2045 01b8 0DD0     		beq	.L258
 2046 01ba 082D     		cmp	r5, #8
 2047 01bc 26D0     		beq	.L259
 2048 01be 0223     		movs	r3, #2
 2049 01c0 84F84730 		strb	r3, [r4, #71]
 2050 01c4 042D     		cmp	r5, #4
 2051 01c6 09D0     		beq	.L236
 2052 01c8 082D     		cmp	r5, #8
 2053 01ca 22D0     		beq	.L238
 2054 01cc 002D     		cmp	r5, #0
 2055 01ce 3FF45EAF 		beq	.L234
 2056 01d2 0120     		movs	r0, #1
 2057 01d4 45E0     		b	.L228
 2058              	.L258:
 2059 01d6 0223     		movs	r3, #2
 2060 01d8 84F84530 		strb	r3, [r4, #69]
 2061              	.L236:
 2062 01dc A36A     		ldr	r3, [r4, #40]
 2063 01de 2C4A     		ldr	r2, .L260+24
 2064 01e0 DA63     		str	r2, [r3, #60]
 2065 01e2 A36A     		ldr	r3, [r4, #40]
 2066 01e4 2B4A     		ldr	r2, .L260+28
 2067 01e6 1A64     		str	r2, [r3, #64]
 2068 01e8 A36A     		ldr	r3, [r4, #40]
 2069 01ea 2B4A     		ldr	r2, .L260+32
 2070 01ec DA64     		str	r2, [r3, #76]
 2071 01ee 2268     		ldr	r2, [r4]
 2072 01f0 3B46     		mov	r3, r7
 2073 01f2 3832     		adds	r2, r2, #56
 2074 01f4 3146     		mov	r1, r6
 2075 01f6 A06A     		ldr	r0, [r4, #40]
 2076 01f8 FFF7FEFF 		bl	HAL_DMA_Start_IT
 2077 01fc 0028     		cmp	r0, #0
 2078 01fe 35D1     		bne	.L247
 2079 0200 2268     		ldr	r2, [r4]
 2080 0202 D368     		ldr	r3, [r2, #12]
 2081 0204 43F48063 		orr	r3, r3, #1024
 2082 0208 D360     		str	r3, [r2, #12]
ARM GAS  C:\Users\thewo\AppData\Local\Temp\ccnCGpzj.s 			page 37


 2083 020a 58E7     		b	.L239
 2084              	.L259:
 2085 020c 0223     		movs	r3, #2
 2086 020e 84F84630 		strb	r3, [r4, #70]
 2087              	.L238:
 2088 0212 E36A     		ldr	r3, [r4, #44]
 2089 0214 1E4A     		ldr	r2, .L260+24
 2090 0216 DA63     		str	r2, [r3, #60]
 2091 0218 E36A     		ldr	r3, [r4, #44]
 2092 021a 1E4A     		ldr	r2, .L260+28
 2093 021c 1A64     		str	r2, [r3, #64]
 2094 021e E36A     		ldr	r3, [r4, #44]
 2095 0220 1D4A     		ldr	r2, .L260+32
 2096 0222 DA64     		str	r2, [r3, #76]
 2097 0224 2268     		ldr	r2, [r4]
 2098 0226 3B46     		mov	r3, r7
 2099 0228 3C32     		adds	r2, r2, #60
 2100 022a 3146     		mov	r1, r6
 2101 022c E06A     		ldr	r0, [r4, #44]
 2102 022e FFF7FEFF 		bl	HAL_DMA_Start_IT
 2103 0232 E8B9     		cbnz	r0, .L248
 2104 0234 2268     		ldr	r2, [r4]
 2105 0236 D368     		ldr	r3, [r2, #12]
 2106 0238 43F40063 		orr	r3, r3, #2048
 2107 023c D360     		str	r3, [r2, #12]
 2108 023e 3EE7     		b	.L239
 2109              	.L240:
 2110 0240 9968     		ldr	r1, [r3, #8]
 2111 0242 164A     		ldr	r2, .L260+36
 2112 0244 0A40     		ands	r2, r2, r1
 2113 0246 062A     		cmp	r2, #6
 2114 0248 18BF     		it	ne
 2115 024a B2F5803F 		cmpne	r2, #65536
 2116 024e 11D0     		beq	.L249
 2117 0250 1A68     		ldr	r2, [r3]
 2118 0252 42F00102 		orr	r2, r2, #1
 2119 0256 1A60     		str	r2, [r3]
 2120 0258 0020     		movs	r0, #0
 2121 025a 02E0     		b	.L228
 2122              	.L242:
 2123 025c 0220     		movs	r0, #2
 2124 025e 00E0     		b	.L228
 2125              	.L243:
 2126 0260 0120     		movs	r0, #1
 2127              	.L228:
 2128 0262 F8BD     		pop	{r3, r4, r5, r6, r7, pc}
 2129              	.L244:
 2130 0264 0120     		movs	r0, #1
 2131 0266 FCE7     		b	.L228
 2132              	.L246:
 2133 0268 0120     		movs	r0, #1
 2134 026a FAE7     		b	.L228
 2135              	.L247:
 2136 026c 0120     		movs	r0, #1
 2137 026e F8E7     		b	.L228
 2138              	.L248:
 2139 0270 0120     		movs	r0, #1
ARM GAS  C:\Users\thewo\AppData\Local\Temp\ccnCGpzj.s 			page 38


 2140 0272 F6E7     		b	.L228
 2141              	.L249:
 2142 0274 0020     		movs	r0, #0
 2143 0276 F4E7     		b	.L228
 2144              	.L261:
 2145              		.align	2
 2146              	.L260:
 2147 0278 00000140 		.word	1073807360
 2148 027c 00040140 		.word	1073808384
 2149 0280 00400140 		.word	1073823744
 2150 0284 00440140 		.word	1073824768
 2151 0288 00480140 		.word	1073825792
 2152 028c 00000000 		.word	.LC0
 2153 0290 00000000 		.word	TIM_DMADelayPulseNCplt
 2154 0294 00000000 		.word	TIM_DMADelayPulseHalfCplt
 2155 0298 00000000 		.word	TIM_DMAErrorCCxN
 2156 029c 07000100 		.word	65543
 2158              		.section	.text.HAL_TIMEx_OCN_Stop_DMA,"ax",%progbits
 2159              		.align	1
 2160              		.global	HAL_TIMEx_OCN_Stop_DMA
 2161              		.syntax unified
 2162              		.thumb
 2163              		.thumb_func
 2165              	HAL_TIMEx_OCN_Stop_DMA:
 2166              		@ args = 0, pretend = 0, frame = 0
 2167              		@ frame_needed = 0, uses_anonymous_args = 0
 2168 0000 38B5     		push	{r3, r4, r5, lr}
 2169 0002 0446     		mov	r4, r0
 2170 0004 0D46     		mov	r5, r1
 2171 0006 0368     		ldr	r3, [r0]
 2172 0008 4049     		ldr	r1, .L285
 2173 000a 414A     		ldr	r2, .L285+4
 2174 000c 8B42     		cmp	r3, r1
 2175 000e 18BF     		it	ne
 2176 0010 9342     		cmpne	r3, r2
 2177 0012 05D1     		bne	.L263
 2178 0014 002D     		cmp	r5, #0
 2179 0016 18BF     		it	ne
 2180 0018 042D     		cmpne	r5, #4
 2181 001a 0FD0     		beq	.L264
 2182 001c 082D     		cmp	r5, #8
 2183 001e 56D0     		beq	.L265
 2184              	.L263:
 2185 0020 3C4A     		ldr	r2, .L285+8
 2186 0022 9342     		cmp	r3, r2
 2187 0024 41D0     		beq	.L280
 2188              	.L266:
 2189 0026 3C4A     		ldr	r2, .L285+12
 2190 0028 9342     		cmp	r3, r2
 2191 002a 41D0     		beq	.L281
 2192              	.L268:
 2193 002c 3B4A     		ldr	r2, .L285+16
 2194 002e 9342     		cmp	r3, r2
 2195 0030 41D0     		beq	.L282
 2196              	.L269:
 2197 0032 40F20341 		movw	r1, #1027
 2198 0036 3A48     		ldr	r0, .L285+20
ARM GAS  C:\Users\thewo\AppData\Local\Temp\ccnCGpzj.s 			page 39


 2199 0038 FFF7FEFF 		bl	assert_failed
 2200              	.L264:
 2201 003c 042D     		cmp	r5, #4
 2202 003e 3DD0     		beq	.L270
 2203 0040 082D     		cmp	r5, #8
 2204 0042 44D0     		beq	.L265
 2205 0044 002D     		cmp	r5, #0
 2206 0046 5ED1     		bne	.L278
 2207              	.L267:
 2208 0048 2268     		ldr	r2, [r4]
 2209 004a D368     		ldr	r3, [r2, #12]
 2210 004c 23F40073 		bic	r3, r3, #512
 2211 0050 D360     		str	r3, [r2, #12]
 2212 0052 606A     		ldr	r0, [r4, #36]
 2213 0054 FFF7FEFF 		bl	HAL_DMA_Abort_IT
 2214              	.L272:
 2215 0058 0022     		movs	r2, #0
 2216 005a 2946     		mov	r1, r5
 2217 005c 2068     		ldr	r0, [r4]
 2218 005e FFF7FEFF 		bl	TIM_CCxNChannelCmd
 2219 0062 2368     		ldr	r3, [r4]
 2220 0064 196A     		ldr	r1, [r3, #32]
 2221 0066 41F21112 		movw	r2, #4369
 2222 006a 1142     		tst	r1, r2
 2223 006c 08D1     		bne	.L273
 2224 006e 196A     		ldr	r1, [r3, #32]
 2225 0070 40F24442 		movw	r2, #1092
 2226 0074 1142     		tst	r1, r2
 2227 0076 03D1     		bne	.L273
 2228 0078 5A6C     		ldr	r2, [r3, #68]
 2229 007a 22F40042 		bic	r2, r2, #32768
 2230 007e 5A64     		str	r2, [r3, #68]
 2231              	.L273:
 2232 0080 2368     		ldr	r3, [r4]
 2233 0082 196A     		ldr	r1, [r3, #32]
 2234 0084 41F21112 		movw	r2, #4369
 2235 0088 1142     		tst	r1, r2
 2236 008a 08D1     		bne	.L274
 2237 008c 196A     		ldr	r1, [r3, #32]
 2238 008e 40F24442 		movw	r2, #1092
 2239 0092 1142     		tst	r1, r2
 2240 0094 03D1     		bne	.L274
 2241 0096 1A68     		ldr	r2, [r3]
 2242 0098 22F00102 		bic	r2, r2, #1
 2243 009c 1A60     		str	r2, [r3]
 2244              	.L274:
 2245 009e FDB9     		cbnz	r5, .L275
 2246 00a0 0123     		movs	r3, #1
 2247 00a2 84F84430 		strb	r3, [r4, #68]
 2248 00a6 0020     		movs	r0, #0
 2249              	.L271:
 2250 00a8 38BD     		pop	{r3, r4, r5, pc}
 2251              	.L280:
 2252 00aa 002D     		cmp	r5, #0
 2253 00ac CCD0     		beq	.L267
 2254 00ae BAE7     		b	.L266
 2255              	.L281:
ARM GAS  C:\Users\thewo\AppData\Local\Temp\ccnCGpzj.s 			page 40


 2256 00b0 002D     		cmp	r5, #0
 2257 00b2 C9D0     		beq	.L267
 2258 00b4 BAE7     		b	.L268
 2259              	.L282:
 2260 00b6 002D     		cmp	r5, #0
 2261 00b8 C6D0     		beq	.L267
 2262 00ba BAE7     		b	.L269
 2263              	.L270:
 2264 00bc 2268     		ldr	r2, [r4]
 2265 00be D368     		ldr	r3, [r2, #12]
 2266 00c0 23F48063 		bic	r3, r3, #1024
 2267 00c4 D360     		str	r3, [r2, #12]
 2268 00c6 A06A     		ldr	r0, [r4, #40]
 2269 00c8 FFF7FEFF 		bl	HAL_DMA_Abort_IT
 2270 00cc C4E7     		b	.L272
 2271              	.L265:
 2272 00ce 2268     		ldr	r2, [r4]
 2273 00d0 D368     		ldr	r3, [r2, #12]
 2274 00d2 23F40063 		bic	r3, r3, #2048
 2275 00d6 D360     		str	r3, [r2, #12]
 2276 00d8 E06A     		ldr	r0, [r4, #44]
 2277 00da FFF7FEFF 		bl	HAL_DMA_Abort_IT
 2278 00de BBE7     		b	.L272
 2279              	.L275:
 2280 00e0 042D     		cmp	r5, #4
 2281 00e2 06D0     		beq	.L283
 2282 00e4 082D     		cmp	r5, #8
 2283 00e6 09D0     		beq	.L284
 2284 00e8 0123     		movs	r3, #1
 2285 00ea 84F84730 		strb	r3, [r4, #71]
 2286 00ee 0020     		movs	r0, #0
 2287 00f0 DAE7     		b	.L271
 2288              	.L283:
 2289 00f2 0123     		movs	r3, #1
 2290 00f4 84F84530 		strb	r3, [r4, #69]
 2291 00f8 0020     		movs	r0, #0
 2292 00fa D5E7     		b	.L271
 2293              	.L284:
 2294 00fc 0123     		movs	r3, #1
 2295 00fe 84F84630 		strb	r3, [r4, #70]
 2296 0102 0020     		movs	r0, #0
 2297 0104 D0E7     		b	.L271
 2298              	.L278:
 2299 0106 0120     		movs	r0, #1
 2300 0108 CEE7     		b	.L271
 2301              	.L286:
 2302 010a 00BF     		.align	2
 2303              	.L285:
 2304 010c 00000140 		.word	1073807360
 2305 0110 00040140 		.word	1073808384
 2306 0114 00400140 		.word	1073823744
 2307 0118 00440140 		.word	1073824768
 2308 011c 00480140 		.word	1073825792
 2309 0120 00000000 		.word	.LC0
 2311              		.section	.text.HAL_TIMEx_PWMN_Start,"ax",%progbits
 2312              		.align	1
 2313              		.global	HAL_TIMEx_PWMN_Start
ARM GAS  C:\Users\thewo\AppData\Local\Temp\ccnCGpzj.s 			page 41


 2314              		.syntax unified
 2315              		.thumb
 2316              		.thumb_func
 2318              	HAL_TIMEx_PWMN_Start:
 2319              		@ args = 0, pretend = 0, frame = 0
 2320              		@ frame_needed = 0, uses_anonymous_args = 0
 2321 0000 38B5     		push	{r3, r4, r5, lr}
 2322 0002 0546     		mov	r5, r0
 2323 0004 0C46     		mov	r4, r1
 2324 0006 0368     		ldr	r3, [r0]
 2325 0008 4F49     		ldr	r1, .L315
 2326 000a 504A     		ldr	r2, .L315+4
 2327 000c 8B42     		cmp	r3, r1
 2328 000e 18BF     		it	ne
 2329 0010 9342     		cmpne	r3, r2
 2330 0012 05D1     		bne	.L288
 2331 0014 002C     		cmp	r4, #0
 2332 0016 18BF     		it	ne
 2333 0018 042C     		cmpne	r4, #4
 2334 001a 0FD0     		beq	.L289
 2335 001c 082C     		cmp	r4, #8
 2336 001e 5BD0     		beq	.L290
 2337              	.L288:
 2338 0020 4B4A     		ldr	r2, .L315+8
 2339 0022 9342     		cmp	r3, r2
 2340 0024 4FD0     		beq	.L308
 2341              	.L291:
 2342 0026 4B4A     		ldr	r2, .L315+12
 2343 0028 9342     		cmp	r3, r2
 2344 002a 4FD0     		beq	.L309
 2345              	.L293:
 2346 002c 4A4A     		ldr	r2, .L315+16
 2347 002e 9342     		cmp	r3, r2
 2348 0030 4FD0     		beq	.L310
 2349              	.L294:
 2350 0032 40F25D41 		movw	r1, #1117
 2351 0036 4948     		ldr	r0, .L315+20
 2352 0038 FFF7FEFF 		bl	assert_failed
 2353              	.L289:
 2354 003c 002C     		cmp	r4, #0
 2355 003e 4BD1     		bne	.L290
 2356              	.L292:
 2357 0040 95F84430 		ldrb	r3, [r5, #68]	@ zero_extendqisi2
 2358 0044 013B     		subs	r3, r3, #1
 2359 0046 18BF     		it	ne
 2360 0048 0123     		movne	r3, #1
 2361              	.L295:
 2362 004a 002B     		cmp	r3, #0
 2363 004c 78D1     		bne	.L305
 2364 004e 002C     		cmp	r4, #0
 2365 0050 58D1     		bne	.L299
 2366 0052 0223     		movs	r3, #2
 2367 0054 85F84430 		strb	r3, [r5, #68]
 2368              	.L300:
 2369 0058 0422     		movs	r2, #4
 2370 005a 2146     		mov	r1, r4
 2371 005c 2868     		ldr	r0, [r5]
ARM GAS  C:\Users\thewo\AppData\Local\Temp\ccnCGpzj.s 			page 42


 2372 005e FFF7FEFF 		bl	TIM_CCxNChannelCmd
 2373 0062 2A68     		ldr	r2, [r5]
 2374 0064 536C     		ldr	r3, [r2, #68]
 2375 0066 43F40043 		orr	r3, r3, #32768
 2376 006a 5364     		str	r3, [r2, #68]
 2377 006c 2B68     		ldr	r3, [r5]
 2378 006e 364A     		ldr	r2, .L315
 2379 0070 B3F1804F 		cmp	r3, #1073741824
 2380 0074 18BF     		it	ne
 2381 0076 9342     		cmpne	r3, r2
 2382 0078 54D0     		beq	.L303
 2383 007a A2F57C42 		sub	r2, r2, #64512
 2384 007e 9342     		cmp	r3, r2
 2385 0080 50D0     		beq	.L303
 2386 0082 02F58062 		add	r2, r2, #1024
 2387 0086 9342     		cmp	r3, r2
 2388 0088 4CD0     		beq	.L303
 2389 008a 02F58062 		add	r2, r2, #1024
 2390 008e 9342     		cmp	r3, r2
 2391 0090 48D0     		beq	.L303
 2392 0092 02F57842 		add	r2, r2, #63488
 2393 0096 9342     		cmp	r3, r2
 2394 0098 44D0     		beq	.L303
 2395 009a A2F56C42 		sub	r2, r2, #60416
 2396 009e 9342     		cmp	r3, r2
 2397 00a0 40D0     		beq	.L303
 2398 00a2 02F59432 		add	r2, r2, #75776
 2399 00a6 9342     		cmp	r3, r2
 2400 00a8 3CD0     		beq	.L303
 2401 00aa A2F5C042 		sub	r2, r2, #24576
 2402 00ae 9342     		cmp	r3, r2
 2403 00b0 38D0     		beq	.L303
 2404 00b2 02F58062 		add	r2, r2, #1024
 2405 00b6 9342     		cmp	r3, r2
 2406 00b8 34D0     		beq	.L303
 2407 00ba 1A68     		ldr	r2, [r3]
 2408 00bc 42F00102 		orr	r2, r2, #1
 2409 00c0 1A60     		str	r2, [r3]
 2410 00c2 0020     		movs	r0, #0
 2411 00c4 3DE0     		b	.L298
 2412              	.L308:
 2413 00c6 002C     		cmp	r4, #0
 2414 00c8 BAD0     		beq	.L292
 2415 00ca ACE7     		b	.L291
 2416              	.L309:
 2417 00cc 002C     		cmp	r4, #0
 2418 00ce B7D0     		beq	.L292
 2419 00d0 ACE7     		b	.L293
 2420              	.L310:
 2421 00d2 002C     		cmp	r4, #0
 2422 00d4 B4D0     		beq	.L292
 2423 00d6 ACE7     		b	.L294
 2424              	.L290:
 2425 00d8 042C     		cmp	r4, #4
 2426 00da 07D0     		beq	.L311
 2427 00dc 082C     		cmp	r4, #8
 2428 00de 0BD0     		beq	.L312
ARM GAS  C:\Users\thewo\AppData\Local\Temp\ccnCGpzj.s 			page 43


 2429 00e0 95F84730 		ldrb	r3, [r5, #71]	@ zero_extendqisi2
 2430 00e4 013B     		subs	r3, r3, #1
 2431 00e6 18BF     		it	ne
 2432 00e8 0123     		movne	r3, #1
 2433 00ea AEE7     		b	.L295
 2434              	.L311:
 2435 00ec 95F84530 		ldrb	r3, [r5, #69]	@ zero_extendqisi2
 2436 00f0 013B     		subs	r3, r3, #1
 2437 00f2 18BF     		it	ne
 2438 00f4 0123     		movne	r3, #1
 2439 00f6 A8E7     		b	.L295
 2440              	.L312:
 2441 00f8 95F84630 		ldrb	r3, [r5, #70]	@ zero_extendqisi2
 2442 00fc 013B     		subs	r3, r3, #1
 2443 00fe 18BF     		it	ne
 2444 0100 0123     		movne	r3, #1
 2445 0102 A2E7     		b	.L295
 2446              	.L299:
 2447 0104 042C     		cmp	r4, #4
 2448 0106 05D0     		beq	.L313
 2449 0108 082C     		cmp	r4, #8
 2450 010a 07D0     		beq	.L314
 2451 010c 0223     		movs	r3, #2
 2452 010e 85F84730 		strb	r3, [r5, #71]
 2453 0112 A1E7     		b	.L300
 2454              	.L313:
 2455 0114 0223     		movs	r3, #2
 2456 0116 85F84530 		strb	r3, [r5, #69]
 2457 011a 9DE7     		b	.L300
 2458              	.L314:
 2459 011c 0223     		movs	r3, #2
 2460 011e 85F84630 		strb	r3, [r5, #70]
 2461 0122 99E7     		b	.L300
 2462              	.L303:
 2463 0124 9968     		ldr	r1, [r3, #8]
 2464 0126 0E4A     		ldr	r2, .L315+24
 2465 0128 0A40     		ands	r2, r2, r1
 2466 012a 062A     		cmp	r2, #6
 2467 012c 18BF     		it	ne
 2468 012e B2F5803F 		cmpne	r2, #65536
 2469 0132 07D0     		beq	.L306
 2470 0134 1A68     		ldr	r2, [r3]
 2471 0136 42F00102 		orr	r2, r2, #1
 2472 013a 1A60     		str	r2, [r3]
 2473 013c 0020     		movs	r0, #0
 2474 013e 00E0     		b	.L298
 2475              	.L305:
 2476 0140 0120     		movs	r0, #1
 2477              	.L298:
 2478 0142 38BD     		pop	{r3, r4, r5, pc}
 2479              	.L306:
 2480 0144 0020     		movs	r0, #0
 2481 0146 FCE7     		b	.L298
 2482              	.L316:
 2483              		.align	2
 2484              	.L315:
 2485 0148 00000140 		.word	1073807360
ARM GAS  C:\Users\thewo\AppData\Local\Temp\ccnCGpzj.s 			page 44


 2486 014c 00040140 		.word	1073808384
 2487 0150 00400140 		.word	1073823744
 2488 0154 00440140 		.word	1073824768
 2489 0158 00480140 		.word	1073825792
 2490 015c 00000000 		.word	.LC0
 2491 0160 07000100 		.word	65543
 2493              		.section	.text.HAL_TIMEx_PWMN_Stop,"ax",%progbits
 2494              		.align	1
 2495              		.global	HAL_TIMEx_PWMN_Stop
 2496              		.syntax unified
 2497              		.thumb
 2498              		.thumb_func
 2500              	HAL_TIMEx_PWMN_Stop:
 2501              		@ args = 0, pretend = 0, frame = 0
 2502              		@ frame_needed = 0, uses_anonymous_args = 0
 2503 0000 38B5     		push	{r3, r4, r5, lr}
 2504 0002 0446     		mov	r4, r0
 2505 0004 0D46     		mov	r5, r1
 2506 0006 0368     		ldr	r3, [r0]
 2507 0008 2D49     		ldr	r1, .L335
 2508 000a 2E4A     		ldr	r2, .L335+4
 2509 000c 8B42     		cmp	r3, r1
 2510 000e 18BF     		it	ne
 2511 0010 9342     		cmpne	r3, r2
 2512 0012 05D1     		bne	.L318
 2513 0014 002D     		cmp	r5, #0
 2514 0016 18BF     		it	ne
 2515 0018 042D     		cmpne	r5, #4
 2516 001a 0FD0     		beq	.L319
 2517 001c 082D     		cmp	r5, #8
 2518 001e 0DD0     		beq	.L319
 2519              	.L318:
 2520 0020 294A     		ldr	r2, .L335+8
 2521 0022 9342     		cmp	r3, r2
 2522 0024 33D0     		beq	.L330
 2523              	.L320:
 2524 0026 294A     		ldr	r2, .L335+12
 2525 0028 9342     		cmp	r3, r2
 2526 002a 33D0     		beq	.L331
 2527              	.L321:
 2528 002c 284A     		ldr	r2, .L335+16
 2529 002e 9342     		cmp	r3, r2
 2530 0030 33D0     		beq	.L332
 2531              	.L322:
 2532 0032 40F28D41 		movw	r1, #1165
 2533 0036 2748     		ldr	r0, .L335+20
 2534 0038 FFF7FEFF 		bl	assert_failed
 2535              	.L319:
 2536 003c 0022     		movs	r2, #0
 2537 003e 2946     		mov	r1, r5
 2538 0040 2068     		ldr	r0, [r4]
 2539 0042 FFF7FEFF 		bl	TIM_CCxNChannelCmd
 2540 0046 2368     		ldr	r3, [r4]
 2541 0048 196A     		ldr	r1, [r3, #32]
 2542 004a 41F21112 		movw	r2, #4369
 2543 004e 1142     		tst	r1, r2
 2544 0050 08D1     		bne	.L323
ARM GAS  C:\Users\thewo\AppData\Local\Temp\ccnCGpzj.s 			page 45


 2545 0052 196A     		ldr	r1, [r3, #32]
 2546 0054 40F24442 		movw	r2, #1092
 2547 0058 1142     		tst	r1, r2
 2548 005a 03D1     		bne	.L323
 2549 005c 5A6C     		ldr	r2, [r3, #68]
 2550 005e 22F40042 		bic	r2, r2, #32768
 2551 0062 5A64     		str	r2, [r3, #68]
 2552              	.L323:
 2553 0064 2368     		ldr	r3, [r4]
 2554 0066 196A     		ldr	r1, [r3, #32]
 2555 0068 41F21112 		movw	r2, #4369
 2556 006c 1142     		tst	r1, r2
 2557 006e 08D1     		bne	.L324
 2558 0070 196A     		ldr	r1, [r3, #32]
 2559 0072 40F24442 		movw	r2, #1092
 2560 0076 1142     		tst	r1, r2
 2561 0078 03D1     		bne	.L324
 2562 007a 1A68     		ldr	r2, [r3]
 2563 007c 22F00102 		bic	r2, r2, #1
 2564 0080 1A60     		str	r2, [r3]
 2565              	.L324:
 2566 0082 6DB9     		cbnz	r5, .L325
 2567 0084 0123     		movs	r3, #1
 2568 0086 84F84430 		strb	r3, [r4, #68]
 2569              	.L326:
 2570 008a 0020     		movs	r0, #0
 2571 008c 38BD     		pop	{r3, r4, r5, pc}
 2572              	.L330:
 2573 008e 002D     		cmp	r5, #0
 2574 0090 D4D0     		beq	.L319
 2575 0092 C8E7     		b	.L320
 2576              	.L331:
 2577 0094 002D     		cmp	r5, #0
 2578 0096 D1D0     		beq	.L319
 2579 0098 C8E7     		b	.L321
 2580              	.L332:
 2581 009a 002D     		cmp	r5, #0
 2582 009c CED0     		beq	.L319
 2583 009e C8E7     		b	.L322
 2584              	.L325:
 2585 00a0 042D     		cmp	r5, #4
 2586 00a2 05D0     		beq	.L333
 2587 00a4 082D     		cmp	r5, #8
 2588 00a6 07D0     		beq	.L334
 2589 00a8 0123     		movs	r3, #1
 2590 00aa 84F84730 		strb	r3, [r4, #71]
 2591 00ae ECE7     		b	.L326
 2592              	.L333:
 2593 00b0 0123     		movs	r3, #1
 2594 00b2 84F84530 		strb	r3, [r4, #69]
 2595 00b6 E8E7     		b	.L326
 2596              	.L334:
 2597 00b8 0123     		movs	r3, #1
 2598 00ba 84F84630 		strb	r3, [r4, #70]
 2599 00be E4E7     		b	.L326
 2600              	.L336:
 2601              		.align	2
ARM GAS  C:\Users\thewo\AppData\Local\Temp\ccnCGpzj.s 			page 46


 2602              	.L335:
 2603 00c0 00000140 		.word	1073807360
 2604 00c4 00040140 		.word	1073808384
 2605 00c8 00400140 		.word	1073823744
 2606 00cc 00440140 		.word	1073824768
 2607 00d0 00480140 		.word	1073825792
 2608 00d4 00000000 		.word	.LC0
 2610              		.section	.text.HAL_TIMEx_PWMN_Start_IT,"ax",%progbits
 2611              		.align	1
 2612              		.global	HAL_TIMEx_PWMN_Start_IT
 2613              		.syntax unified
 2614              		.thumb
 2615              		.thumb_func
 2617              	HAL_TIMEx_PWMN_Start_IT:
 2618              		@ args = 0, pretend = 0, frame = 0
 2619              		@ frame_needed = 0, uses_anonymous_args = 0
 2620 0000 38B5     		push	{r3, r4, r5, lr}
 2621 0002 0446     		mov	r4, r0
 2622 0004 0D46     		mov	r5, r1
 2623 0006 0368     		ldr	r3, [r0]
 2624 0008 5D49     		ldr	r1, .L369
 2625 000a 5E4A     		ldr	r2, .L369+4
 2626 000c 8B42     		cmp	r3, r1
 2627 000e 18BF     		it	ne
 2628 0010 9342     		cmpne	r3, r2
 2629 0012 05D1     		bne	.L338
 2630 0014 002D     		cmp	r5, #0
 2631 0016 18BF     		it	ne
 2632 0018 042D     		cmpne	r5, #4
 2633 001a 0FD0     		beq	.L339
 2634 001c 082D     		cmp	r5, #8
 2635 001e 66D0     		beq	.L340
 2636              	.L338:
 2637 0020 594A     		ldr	r2, .L369+8
 2638 0022 9342     		cmp	r3, r2
 2639 0024 5AD0     		beq	.L362
 2640              	.L341:
 2641 0026 594A     		ldr	r2, .L369+12
 2642 0028 9342     		cmp	r3, r2
 2643 002a 5AD0     		beq	.L363
 2644              	.L343:
 2645 002c 584A     		ldr	r2, .L369+16
 2646 002e 9342     		cmp	r3, r2
 2647 0030 5AD0     		beq	.L364
 2648              	.L344:
 2649 0032 4FF49661 		mov	r1, #1200
 2650 0036 5748     		ldr	r0, .L369+20
 2651 0038 FFF7FEFF 		bl	assert_failed
 2652              	.L339:
 2653 003c 002D     		cmp	r5, #0
 2654 003e 56D1     		bne	.L340
 2655              	.L342:
 2656 0040 94F84430 		ldrb	r3, [r4, #68]	@ zero_extendqisi2
 2657 0044 013B     		subs	r3, r3, #1
 2658 0046 18BF     		it	ne
 2659 0048 0123     		movne	r3, #1
 2660              	.L345:
ARM GAS  C:\Users\thewo\AppData\Local\Temp\ccnCGpzj.s 			page 47


 2661 004a 002B     		cmp	r3, #0
 2662 004c 40F09480 		bne	.L358
 2663 0050 002D     		cmp	r5, #0
 2664 0052 62D1     		bne	.L349
 2665 0054 0223     		movs	r3, #2
 2666 0056 84F84430 		strb	r3, [r4, #68]
 2667              	.L350:
 2668 005a 2268     		ldr	r2, [r4]
 2669 005c D368     		ldr	r3, [r2, #12]
 2670 005e 43F00203 		orr	r3, r3, #2
 2671 0062 D360     		str	r3, [r2, #12]
 2672              	.L355:
 2673 0064 2268     		ldr	r2, [r4]
 2674 0066 D368     		ldr	r3, [r2, #12]
 2675 0068 43F08003 		orr	r3, r3, #128
 2676 006c D360     		str	r3, [r2, #12]
 2677 006e 0422     		movs	r2, #4
 2678 0070 2946     		mov	r1, r5
 2679 0072 2068     		ldr	r0, [r4]
 2680 0074 FFF7FEFF 		bl	TIM_CCxNChannelCmd
 2681 0078 2268     		ldr	r2, [r4]
 2682 007a 536C     		ldr	r3, [r2, #68]
 2683 007c 43F40043 		orr	r3, r3, #32768
 2684 0080 5364     		str	r3, [r2, #68]
 2685 0082 2368     		ldr	r3, [r4]
 2686 0084 3E4A     		ldr	r2, .L369
 2687 0086 B3F1804F 		cmp	r3, #1073741824
 2688 008a 18BF     		it	ne
 2689 008c 9342     		cmpne	r3, r2
 2690 008e 65D0     		beq	.L356
 2691 0090 A2F57C42 		sub	r2, r2, #64512
 2692 0094 9342     		cmp	r3, r2
 2693 0096 61D0     		beq	.L356
 2694 0098 02F58062 		add	r2, r2, #1024
 2695 009c 9342     		cmp	r3, r2
 2696 009e 5DD0     		beq	.L356
 2697 00a0 02F58062 		add	r2, r2, #1024
 2698 00a4 9342     		cmp	r3, r2
 2699 00a6 59D0     		beq	.L356
 2700 00a8 02F57842 		add	r2, r2, #63488
 2701 00ac 9342     		cmp	r3, r2
 2702 00ae 55D0     		beq	.L356
 2703 00b0 A2F56C42 		sub	r2, r2, #60416
 2704 00b4 9342     		cmp	r3, r2
 2705 00b6 51D0     		beq	.L356
 2706 00b8 02F59432 		add	r2, r2, #75776
 2707 00bc 9342     		cmp	r3, r2
 2708 00be 4DD0     		beq	.L356
 2709 00c0 A2F5C042 		sub	r2, r2, #24576
 2710 00c4 9342     		cmp	r3, r2
 2711 00c6 49D0     		beq	.L356
 2712 00c8 02F58062 		add	r2, r2, #1024
 2713 00cc 9342     		cmp	r3, r2
 2714 00ce 45D0     		beq	.L356
 2715 00d0 1A68     		ldr	r2, [r3]
 2716 00d2 42F00102 		orr	r2, r2, #1
 2717 00d6 1A60     		str	r2, [r3]
ARM GAS  C:\Users\thewo\AppData\Local\Temp\ccnCGpzj.s 			page 48


 2718 00d8 0020     		movs	r0, #0
 2719 00da 4EE0     		b	.L348
 2720              	.L362:
 2721 00dc 002D     		cmp	r5, #0
 2722 00de AFD0     		beq	.L342
 2723 00e0 A1E7     		b	.L341
 2724              	.L363:
 2725 00e2 002D     		cmp	r5, #0
 2726 00e4 ACD0     		beq	.L342
 2727 00e6 A1E7     		b	.L343
 2728              	.L364:
 2729 00e8 002D     		cmp	r5, #0
 2730 00ea A9D0     		beq	.L342
 2731 00ec A1E7     		b	.L344
 2732              	.L340:
 2733 00ee 042D     		cmp	r5, #4
 2734 00f0 07D0     		beq	.L365
 2735 00f2 082D     		cmp	r5, #8
 2736 00f4 0BD0     		beq	.L366
 2737 00f6 94F84730 		ldrb	r3, [r4, #71]	@ zero_extendqisi2
 2738 00fa 013B     		subs	r3, r3, #1
 2739 00fc 18BF     		it	ne
 2740 00fe 0123     		movne	r3, #1
 2741 0100 A3E7     		b	.L345
 2742              	.L365:
 2743 0102 94F84530 		ldrb	r3, [r4, #69]	@ zero_extendqisi2
 2744 0106 013B     		subs	r3, r3, #1
 2745 0108 18BF     		it	ne
 2746 010a 0123     		movne	r3, #1
 2747 010c 9DE7     		b	.L345
 2748              	.L366:
 2749 010e 94F84630 		ldrb	r3, [r4, #70]	@ zero_extendqisi2
 2750 0112 013B     		subs	r3, r3, #1
 2751 0114 18BF     		it	ne
 2752 0116 0123     		movne	r3, #1
 2753 0118 97E7     		b	.L345
 2754              	.L349:
 2755 011a 042D     		cmp	r5, #4
 2756 011c 0CD0     		beq	.L367
 2757 011e 082D     		cmp	r5, #8
 2758 0120 13D0     		beq	.L368
 2759 0122 0223     		movs	r3, #2
 2760 0124 84F84730 		strb	r3, [r4, #71]
 2761 0128 042D     		cmp	r5, #4
 2762 012a 08D0     		beq	.L352
 2763 012c 082D     		cmp	r5, #8
 2764 012e 0FD0     		beq	.L354
 2765 0130 002D     		cmp	r5, #0
 2766 0132 92D0     		beq	.L350
 2767 0134 0120     		movs	r0, #1
 2768 0136 20E0     		b	.L348
 2769              	.L367:
 2770 0138 0223     		movs	r3, #2
 2771 013a 84F84530 		strb	r3, [r4, #69]
 2772              	.L352:
 2773 013e 2268     		ldr	r2, [r4]
 2774 0140 D368     		ldr	r3, [r2, #12]
ARM GAS  C:\Users\thewo\AppData\Local\Temp\ccnCGpzj.s 			page 49


 2775 0142 43F00403 		orr	r3, r3, #4
 2776 0146 D360     		str	r3, [r2, #12]
 2777 0148 8CE7     		b	.L355
 2778              	.L368:
 2779 014a 0223     		movs	r3, #2
 2780 014c 84F84630 		strb	r3, [r4, #70]
 2781              	.L354:
 2782 0150 2268     		ldr	r2, [r4]
 2783 0152 D368     		ldr	r3, [r2, #12]
 2784 0154 43F00803 		orr	r3, r3, #8
 2785 0158 D360     		str	r3, [r2, #12]
 2786 015a 83E7     		b	.L355
 2787              	.L356:
 2788 015c 9968     		ldr	r1, [r3, #8]
 2789 015e 0E4A     		ldr	r2, .L369+24
 2790 0160 0A40     		ands	r2, r2, r1
 2791 0162 062A     		cmp	r2, #6
 2792 0164 18BF     		it	ne
 2793 0166 B2F5803F 		cmpne	r2, #65536
 2794 016a 07D0     		beq	.L360
 2795 016c 1A68     		ldr	r2, [r3]
 2796 016e 42F00102 		orr	r2, r2, #1
 2797 0172 1A60     		str	r2, [r3]
 2798 0174 0020     		movs	r0, #0
 2799 0176 00E0     		b	.L348
 2800              	.L358:
 2801 0178 0120     		movs	r0, #1
 2802              	.L348:
 2803 017a 38BD     		pop	{r3, r4, r5, pc}
 2804              	.L360:
 2805 017c 0020     		movs	r0, #0
 2806 017e FCE7     		b	.L348
 2807              	.L370:
 2808              		.align	2
 2809              	.L369:
 2810 0180 00000140 		.word	1073807360
 2811 0184 00040140 		.word	1073808384
 2812 0188 00400140 		.word	1073823744
 2813 018c 00440140 		.word	1073824768
 2814 0190 00480140 		.word	1073825792
 2815 0194 00000000 		.word	.LC0
 2816 0198 07000100 		.word	65543
 2818              		.section	.text.HAL_TIMEx_PWMN_Stop_IT,"ax",%progbits
 2819              		.align	1
 2820              		.global	HAL_TIMEx_PWMN_Stop_IT
 2821              		.syntax unified
 2822              		.thumb
 2823              		.thumb_func
 2825              	HAL_TIMEx_PWMN_Stop_IT:
 2826              		@ args = 0, pretend = 0, frame = 0
 2827              		@ frame_needed = 0, uses_anonymous_args = 0
 2828 0000 38B5     		push	{r3, r4, r5, lr}
 2829 0002 0446     		mov	r4, r0
 2830 0004 0D46     		mov	r5, r1
 2831 0006 0368     		ldr	r3, [r0]
 2832 0008 4049     		ldr	r1, .L395
 2833 000a 414A     		ldr	r2, .L395+4
ARM GAS  C:\Users\thewo\AppData\Local\Temp\ccnCGpzj.s 			page 50


 2834 000c 8B42     		cmp	r3, r1
 2835 000e 18BF     		it	ne
 2836 0010 9342     		cmpne	r3, r2
 2837 0012 05D1     		bne	.L372
 2838 0014 002D     		cmp	r5, #0
 2839 0016 18BF     		it	ne
 2840 0018 042D     		cmpne	r5, #4
 2841 001a 0FD0     		beq	.L373
 2842 001c 082D     		cmp	r5, #8
 2843 001e 5AD0     		beq	.L374
 2844              	.L372:
 2845 0020 3C4A     		ldr	r2, .L395+8
 2846 0022 9342     		cmp	r3, r2
 2847 0024 48D0     		beq	.L390
 2848              	.L375:
 2849 0026 3C4A     		ldr	r2, .L395+12
 2850 0028 9342     		cmp	r3, r2
 2851 002a 48D0     		beq	.L391
 2852              	.L377:
 2853 002c 3B4A     		ldr	r2, .L395+16
 2854 002e 9342     		cmp	r3, r2
 2855 0030 48D0     		beq	.L392
 2856              	.L378:
 2857 0032 40F20651 		movw	r1, #1286
 2858 0036 3A48     		ldr	r0, .L395+20
 2859 0038 FFF7FEFF 		bl	assert_failed
 2860              	.L373:
 2861 003c 042D     		cmp	r5, #4
 2862 003e 44D0     		beq	.L379
 2863 0040 082D     		cmp	r5, #8
 2864 0042 48D0     		beq	.L374
 2865 0044 002D     		cmp	r5, #0
 2866 0046 5FD1     		bne	.L388
 2867              	.L376:
 2868 0048 2268     		ldr	r2, [r4]
 2869 004a D368     		ldr	r3, [r2, #12]
 2870 004c 23F00203 		bic	r3, r3, #2
 2871 0050 D360     		str	r3, [r2, #12]
 2872              	.L381:
 2873 0052 0022     		movs	r2, #0
 2874 0054 2946     		mov	r1, r5
 2875 0056 2068     		ldr	r0, [r4]
 2876 0058 FFF7FEFF 		bl	TIM_CCxNChannelCmd
 2877 005c 2368     		ldr	r3, [r4]
 2878 005e 196A     		ldr	r1, [r3, #32]
 2879 0060 40F24442 		movw	r2, #1092
 2880 0064 1142     		tst	r1, r2
 2881 0066 03D1     		bne	.L382
 2882 0068 DA68     		ldr	r2, [r3, #12]
 2883 006a 22F08002 		bic	r2, r2, #128
 2884 006e DA60     		str	r2, [r3, #12]
 2885              	.L382:
 2886 0070 2368     		ldr	r3, [r4]
 2887 0072 196A     		ldr	r1, [r3, #32]
 2888 0074 41F21112 		movw	r2, #4369
 2889 0078 1142     		tst	r1, r2
 2890 007a 08D1     		bne	.L383
ARM GAS  C:\Users\thewo\AppData\Local\Temp\ccnCGpzj.s 			page 51


 2891 007c 196A     		ldr	r1, [r3, #32]
 2892 007e 40F24442 		movw	r2, #1092
 2893 0082 1142     		tst	r1, r2
 2894 0084 03D1     		bne	.L383
 2895 0086 5A6C     		ldr	r2, [r3, #68]
 2896 0088 22F40042 		bic	r2, r2, #32768
 2897 008c 5A64     		str	r2, [r3, #68]
 2898              	.L383:
 2899 008e 2368     		ldr	r3, [r4]
 2900 0090 196A     		ldr	r1, [r3, #32]
 2901 0092 41F21112 		movw	r2, #4369
 2902 0096 1142     		tst	r1, r2
 2903 0098 08D1     		bne	.L384
 2904 009a 196A     		ldr	r1, [r3, #32]
 2905 009c 40F24442 		movw	r2, #1092
 2906 00a0 1142     		tst	r1, r2
 2907 00a2 03D1     		bne	.L384
 2908 00a4 1A68     		ldr	r2, [r3]
 2909 00a6 22F00102 		bic	r2, r2, #1
 2910 00aa 1A60     		str	r2, [r3]
 2911              	.L384:
 2912 00ac CDB9     		cbnz	r5, .L385
 2913 00ae 0123     		movs	r3, #1
 2914 00b0 84F84430 		strb	r3, [r4, #68]
 2915 00b4 0020     		movs	r0, #0
 2916              	.L380:
 2917 00b6 38BD     		pop	{r3, r4, r5, pc}
 2918              	.L390:
 2919 00b8 002D     		cmp	r5, #0
 2920 00ba C5D0     		beq	.L376
 2921 00bc B3E7     		b	.L375
 2922              	.L391:
 2923 00be 002D     		cmp	r5, #0
 2924 00c0 C2D0     		beq	.L376
 2925 00c2 B3E7     		b	.L377
 2926              	.L392:
 2927 00c4 002D     		cmp	r5, #0
 2928 00c6 BFD0     		beq	.L376
 2929 00c8 B3E7     		b	.L378
 2930              	.L379:
 2931 00ca 2268     		ldr	r2, [r4]
 2932 00cc D368     		ldr	r3, [r2, #12]
 2933 00ce 23F00403 		bic	r3, r3, #4
 2934 00d2 D360     		str	r3, [r2, #12]
 2935 00d4 BDE7     		b	.L381
 2936              	.L374:
 2937 00d6 2268     		ldr	r2, [r4]
 2938 00d8 D368     		ldr	r3, [r2, #12]
 2939 00da 23F00803 		bic	r3, r3, #8
 2940 00de D360     		str	r3, [r2, #12]
 2941 00e0 B7E7     		b	.L381
 2942              	.L385:
 2943 00e2 042D     		cmp	r5, #4
 2944 00e4 06D0     		beq	.L393
 2945 00e6 082D     		cmp	r5, #8
 2946 00e8 09D0     		beq	.L394
 2947 00ea 0123     		movs	r3, #1
ARM GAS  C:\Users\thewo\AppData\Local\Temp\ccnCGpzj.s 			page 52


 2948 00ec 84F84730 		strb	r3, [r4, #71]
 2949 00f0 0020     		movs	r0, #0
 2950 00f2 E0E7     		b	.L380
 2951              	.L393:
 2952 00f4 0123     		movs	r3, #1
 2953 00f6 84F84530 		strb	r3, [r4, #69]
 2954 00fa 0020     		movs	r0, #0
 2955 00fc DBE7     		b	.L380
 2956              	.L394:
 2957 00fe 0123     		movs	r3, #1
 2958 0100 84F84630 		strb	r3, [r4, #70]
 2959 0104 0020     		movs	r0, #0
 2960 0106 D6E7     		b	.L380
 2961              	.L388:
 2962 0108 0120     		movs	r0, #1
 2963 010a D4E7     		b	.L380
 2964              	.L396:
 2965              		.align	2
 2966              	.L395:
 2967 010c 00000140 		.word	1073807360
 2968 0110 00040140 		.word	1073808384
 2969 0114 00400140 		.word	1073823744
 2970 0118 00440140 		.word	1073824768
 2971 011c 00480140 		.word	1073825792
 2972 0120 00000000 		.word	.LC0
 2974              		.section	.text.HAL_TIMEx_PWMN_Start_DMA,"ax",%progbits
 2975              		.align	1
 2976              		.global	HAL_TIMEx_PWMN_Start_DMA
 2977              		.syntax unified
 2978              		.thumb
 2979              		.thumb_func
 2981              	HAL_TIMEx_PWMN_Start_DMA:
 2982              		@ args = 0, pretend = 0, frame = 0
 2983              		@ frame_needed = 0, uses_anonymous_args = 0
 2984 0000 F8B5     		push	{r3, r4, r5, r6, r7, lr}
 2985 0002 0446     		mov	r4, r0
 2986 0004 0D46     		mov	r5, r1
 2987 0006 1646     		mov	r6, r2
 2988 0008 1F46     		mov	r7, r3
 2989 000a 0068     		ldr	r0, [r0]
 2990 000c 9A4A     		ldr	r2, .L440
 2991 000e 9B4B     		ldr	r3, .L440+4
 2992 0010 9042     		cmp	r0, r2
 2993 0012 18BF     		it	ne
 2994 0014 9842     		cmpne	r0, r3
 2995 0016 06D1     		bne	.L398
 2996 0018 0029     		cmp	r1, #0
 2997 001a 18BF     		it	ne
 2998 001c 0429     		cmpne	r1, #4
 2999 001e 13D0     		beq	.L399
 3000 0020 0829     		cmp	r1, #8
 3001 0022 00F09680 		beq	.L400
 3002              	.L398:
 3003 0026 964B     		ldr	r3, .L440+8
 3004 0028 9842     		cmp	r0, r3
 3005 002a 00F08880 		beq	.L431
 3006              	.L401:
ARM GAS  C:\Users\thewo\AppData\Local\Temp\ccnCGpzj.s 			page 53


 3007 002e 954B     		ldr	r3, .L440+12
 3008 0030 9842     		cmp	r0, r3
 3009 0032 00F08780 		beq	.L432
 3010              	.L403:
 3011 0036 944B     		ldr	r3, .L440+16
 3012 0038 9842     		cmp	r0, r3
 3013 003a 00F08680 		beq	.L433
 3014              	.L404:
 3015 003e 40F25251 		movw	r1, #1362
 3016 0042 9248     		ldr	r0, .L440+20
 3017 0044 FFF7FEFF 		bl	assert_failed
 3018              	.L399:
 3019 0048 002D     		cmp	r5, #0
 3020 004a 40F08280 		bne	.L400
 3021              	.L402:
 3022 004e 94F84400 		ldrb	r0, [r4, #68]	@ zero_extendqisi2
 3023 0052 0228     		cmp	r0, #2
 3024 0054 14BF     		ite	ne
 3025 0056 0020     		movne	r0, #0
 3026 0058 0120     		moveq	r0, #1
 3027              	.L405:
 3028 005a 0028     		cmp	r0, #0
 3029 005c 40F0FE80 		bne	.L422
 3030 0060 002D     		cmp	r5, #0
 3031 0062 40F08F80 		bne	.L409
 3032 0066 94F84430 		ldrb	r3, [r4, #68]	@ zero_extendqisi2
 3033 006a 012B     		cmp	r3, #1
 3034 006c 14BF     		ite	ne
 3035 006e 0023     		movne	r3, #0
 3036 0070 0123     		moveq	r3, #1
 3037              	.L410:
 3038 0072 002B     		cmp	r3, #0
 3039 0074 00F0F480 		beq	.L423
 3040 0078 002F     		cmp	r7, #0
 3041 007a 18BF     		it	ne
 3042 007c 002E     		cmpne	r6, #0
 3043 007e 00F0F180 		beq	.L424
 3044 0082 002D     		cmp	r5, #0
 3045 0084 40F09780 		bne	.L413
 3046 0088 0223     		movs	r3, #2
 3047 008a 84F84430 		strb	r3, [r4, #68]
 3048              	.L414:
 3049 008e 636A     		ldr	r3, [r4, #36]
 3050 0090 7F4A     		ldr	r2, .L440+24
 3051 0092 DA63     		str	r2, [r3, #60]
 3052 0094 636A     		ldr	r3, [r4, #36]
 3053 0096 7F4A     		ldr	r2, .L440+28
 3054 0098 1A64     		str	r2, [r3, #64]
 3055 009a 636A     		ldr	r3, [r4, #36]
 3056 009c 7E4A     		ldr	r2, .L440+32
 3057 009e DA64     		str	r2, [r3, #76]
 3058 00a0 2268     		ldr	r2, [r4]
 3059 00a2 3B46     		mov	r3, r7
 3060 00a4 3432     		adds	r2, r2, #52
 3061 00a6 3146     		mov	r1, r6
 3062 00a8 606A     		ldr	r0, [r4, #36]
 3063 00aa FFF7FEFF 		bl	HAL_DMA_Start_IT
ARM GAS  C:\Users\thewo\AppData\Local\Temp\ccnCGpzj.s 			page 54


 3064 00ae 0028     		cmp	r0, #0
 3065 00b0 40F0DA80 		bne	.L426
 3066 00b4 2268     		ldr	r2, [r4]
 3067 00b6 D368     		ldr	r3, [r2, #12]
 3068 00b8 43F40073 		orr	r3, r3, #512
 3069 00bc D360     		str	r3, [r2, #12]
 3070              	.L419:
 3071 00be 0422     		movs	r2, #4
 3072 00c0 2946     		mov	r1, r5
 3073 00c2 2068     		ldr	r0, [r4]
 3074 00c4 FFF7FEFF 		bl	TIM_CCxNChannelCmd
 3075 00c8 2268     		ldr	r2, [r4]
 3076 00ca 536C     		ldr	r3, [r2, #68]
 3077 00cc 43F40043 		orr	r3, r3, #32768
 3078 00d0 5364     		str	r3, [r2, #68]
 3079 00d2 2368     		ldr	r3, [r4]
 3080 00d4 684A     		ldr	r2, .L440
 3081 00d6 B3F1804F 		cmp	r3, #1073741824
 3082 00da 18BF     		it	ne
 3083 00dc 9342     		cmpne	r3, r2
 3084 00de 00F0AF80 		beq	.L420
 3085 00e2 A2F57C42 		sub	r2, r2, #64512
 3086 00e6 9342     		cmp	r3, r2
 3087 00e8 00F0AA80 		beq	.L420
 3088 00ec 02F58062 		add	r2, r2, #1024
 3089 00f0 9342     		cmp	r3, r2
 3090 00f2 00F0A580 		beq	.L420
 3091 00f6 02F58062 		add	r2, r2, #1024
 3092 00fa 9342     		cmp	r3, r2
 3093 00fc 00F0A080 		beq	.L420
 3094 0100 02F57842 		add	r2, r2, #63488
 3095 0104 9342     		cmp	r3, r2
 3096 0106 00F09B80 		beq	.L420
 3097 010a A2F56C42 		sub	r2, r2, #60416
 3098 010e 9342     		cmp	r3, r2
 3099 0110 00F09680 		beq	.L420
 3100 0114 02F59432 		add	r2, r2, #75776
 3101 0118 9342     		cmp	r3, r2
 3102 011a 00F09180 		beq	.L420
 3103 011e A2F5C042 		sub	r2, r2, #24576
 3104 0122 9342     		cmp	r3, r2
 3105 0124 00F08C80 		beq	.L420
 3106 0128 02F58062 		add	r2, r2, #1024
 3107 012c 9342     		cmp	r3, r2
 3108 012e 00F08780 		beq	.L420
 3109 0132 1A68     		ldr	r2, [r3]
 3110 0134 42F00102 		orr	r2, r2, #1
 3111 0138 1A60     		str	r2, [r3]
 3112 013a 0020     		movs	r0, #0
 3113 013c 91E0     		b	.L408
 3114              	.L431:
 3115 013e 002D     		cmp	r5, #0
 3116 0140 85D0     		beq	.L402
 3117 0142 74E7     		b	.L401
 3118              	.L432:
 3119 0144 002D     		cmp	r5, #0
 3120 0146 82D0     		beq	.L402
ARM GAS  C:\Users\thewo\AppData\Local\Temp\ccnCGpzj.s 			page 55


 3121 0148 75E7     		b	.L403
 3122              	.L433:
 3123 014a 002D     		cmp	r5, #0
 3124 014c 3FF47FAF 		beq	.L402
 3125 0150 75E7     		b	.L404
 3126              	.L400:
 3127 0152 042D     		cmp	r5, #4
 3128 0154 08D0     		beq	.L434
 3129 0156 082D     		cmp	r5, #8
 3130 0158 0DD0     		beq	.L435
 3131 015a 94F84700 		ldrb	r0, [r4, #71]	@ zero_extendqisi2
 3132 015e 0228     		cmp	r0, #2
 3133 0160 14BF     		ite	ne
 3134 0162 0020     		movne	r0, #0
 3135 0164 0120     		moveq	r0, #1
 3136 0166 78E7     		b	.L405
 3137              	.L434:
 3138 0168 94F84500 		ldrb	r0, [r4, #69]	@ zero_extendqisi2
 3139 016c 0228     		cmp	r0, #2
 3140 016e 14BF     		ite	ne
 3141 0170 0020     		movne	r0, #0
 3142 0172 0120     		moveq	r0, #1
 3143 0174 71E7     		b	.L405
 3144              	.L435:
 3145 0176 94F84600 		ldrb	r0, [r4, #70]	@ zero_extendqisi2
 3146 017a 0228     		cmp	r0, #2
 3147 017c 14BF     		ite	ne
 3148 017e 0020     		movne	r0, #0
 3149 0180 0120     		moveq	r0, #1
 3150 0182 6AE7     		b	.L405
 3151              	.L409:
 3152 0184 042D     		cmp	r5, #4
 3153 0186 08D0     		beq	.L436
 3154 0188 082D     		cmp	r5, #8
 3155 018a 0DD0     		beq	.L437
 3156 018c 94F84730 		ldrb	r3, [r4, #71]	@ zero_extendqisi2
 3157 0190 012B     		cmp	r3, #1
 3158 0192 14BF     		ite	ne
 3159 0194 0023     		movne	r3, #0
 3160 0196 0123     		moveq	r3, #1
 3161 0198 6BE7     		b	.L410
 3162              	.L436:
 3163 019a 94F84530 		ldrb	r3, [r4, #69]	@ zero_extendqisi2
 3164 019e 012B     		cmp	r3, #1
 3165 01a0 14BF     		ite	ne
 3166 01a2 0023     		movne	r3, #0
 3167 01a4 0123     		moveq	r3, #1
 3168 01a6 64E7     		b	.L410
 3169              	.L437:
 3170 01a8 94F84630 		ldrb	r3, [r4, #70]	@ zero_extendqisi2
 3171 01ac 012B     		cmp	r3, #1
 3172 01ae 14BF     		ite	ne
 3173 01b0 0023     		movne	r3, #0
 3174 01b2 0123     		moveq	r3, #1
 3175 01b4 5DE7     		b	.L410
 3176              	.L413:
 3177 01b6 042D     		cmp	r5, #4
ARM GAS  C:\Users\thewo\AppData\Local\Temp\ccnCGpzj.s 			page 56


 3178 01b8 0DD0     		beq	.L438
 3179 01ba 082D     		cmp	r5, #8
 3180 01bc 26D0     		beq	.L439
 3181 01be 0223     		movs	r3, #2
 3182 01c0 84F84730 		strb	r3, [r4, #71]
 3183 01c4 042D     		cmp	r5, #4
 3184 01c6 09D0     		beq	.L416
 3185 01c8 082D     		cmp	r5, #8
 3186 01ca 22D0     		beq	.L418
 3187 01cc 002D     		cmp	r5, #0
 3188 01ce 3FF45EAF 		beq	.L414
 3189 01d2 0120     		movs	r0, #1
 3190 01d4 45E0     		b	.L408
 3191              	.L438:
 3192 01d6 0223     		movs	r3, #2
 3193 01d8 84F84530 		strb	r3, [r4, #69]
 3194              	.L416:
 3195 01dc A36A     		ldr	r3, [r4, #40]
 3196 01de 2C4A     		ldr	r2, .L440+24
 3197 01e0 DA63     		str	r2, [r3, #60]
 3198 01e2 A36A     		ldr	r3, [r4, #40]
 3199 01e4 2B4A     		ldr	r2, .L440+28
 3200 01e6 1A64     		str	r2, [r3, #64]
 3201 01e8 A36A     		ldr	r3, [r4, #40]
 3202 01ea 2B4A     		ldr	r2, .L440+32
 3203 01ec DA64     		str	r2, [r3, #76]
 3204 01ee 2268     		ldr	r2, [r4]
 3205 01f0 3B46     		mov	r3, r7
 3206 01f2 3832     		adds	r2, r2, #56
 3207 01f4 3146     		mov	r1, r6
 3208 01f6 A06A     		ldr	r0, [r4, #40]
 3209 01f8 FFF7FEFF 		bl	HAL_DMA_Start_IT
 3210 01fc 0028     		cmp	r0, #0
 3211 01fe 35D1     		bne	.L427
 3212 0200 2268     		ldr	r2, [r4]
 3213 0202 D368     		ldr	r3, [r2, #12]
 3214 0204 43F48063 		orr	r3, r3, #1024
 3215 0208 D360     		str	r3, [r2, #12]
 3216 020a 58E7     		b	.L419
 3217              	.L439:
 3218 020c 0223     		movs	r3, #2
 3219 020e 84F84630 		strb	r3, [r4, #70]
 3220              	.L418:
 3221 0212 E36A     		ldr	r3, [r4, #44]
 3222 0214 1E4A     		ldr	r2, .L440+24
 3223 0216 DA63     		str	r2, [r3, #60]
 3224 0218 E36A     		ldr	r3, [r4, #44]
 3225 021a 1E4A     		ldr	r2, .L440+28
 3226 021c 1A64     		str	r2, [r3, #64]
 3227 021e E36A     		ldr	r3, [r4, #44]
 3228 0220 1D4A     		ldr	r2, .L440+32
 3229 0222 DA64     		str	r2, [r3, #76]
 3230 0224 2268     		ldr	r2, [r4]
 3231 0226 3B46     		mov	r3, r7
 3232 0228 3C32     		adds	r2, r2, #60
 3233 022a 3146     		mov	r1, r6
 3234 022c E06A     		ldr	r0, [r4, #44]
ARM GAS  C:\Users\thewo\AppData\Local\Temp\ccnCGpzj.s 			page 57


 3235 022e FFF7FEFF 		bl	HAL_DMA_Start_IT
 3236 0232 E8B9     		cbnz	r0, .L428
 3237 0234 2268     		ldr	r2, [r4]
 3238 0236 D368     		ldr	r3, [r2, #12]
 3239 0238 43F40063 		orr	r3, r3, #2048
 3240 023c D360     		str	r3, [r2, #12]
 3241 023e 3EE7     		b	.L419
 3242              	.L420:
 3243 0240 9968     		ldr	r1, [r3, #8]
 3244 0242 164A     		ldr	r2, .L440+36
 3245 0244 0A40     		ands	r2, r2, r1
 3246 0246 062A     		cmp	r2, #6
 3247 0248 18BF     		it	ne
 3248 024a B2F5803F 		cmpne	r2, #65536
 3249 024e 11D0     		beq	.L429
 3250 0250 1A68     		ldr	r2, [r3]
 3251 0252 42F00102 		orr	r2, r2, #1
 3252 0256 1A60     		str	r2, [r3]
 3253 0258 0020     		movs	r0, #0
 3254 025a 02E0     		b	.L408
 3255              	.L422:
 3256 025c 0220     		movs	r0, #2
 3257 025e 00E0     		b	.L408
 3258              	.L423:
 3259 0260 0120     		movs	r0, #1
 3260              	.L408:
 3261 0262 F8BD     		pop	{r3, r4, r5, r6, r7, pc}
 3262              	.L424:
 3263 0264 0120     		movs	r0, #1
 3264 0266 FCE7     		b	.L408
 3265              	.L426:
 3266 0268 0120     		movs	r0, #1
 3267 026a FAE7     		b	.L408
 3268              	.L427:
 3269 026c 0120     		movs	r0, #1
 3270 026e F8E7     		b	.L408
 3271              	.L428:
 3272 0270 0120     		movs	r0, #1
 3273 0272 F6E7     		b	.L408
 3274              	.L429:
 3275 0274 0020     		movs	r0, #0
 3276 0276 F4E7     		b	.L408
 3277              	.L441:
 3278              		.align	2
 3279              	.L440:
 3280 0278 00000140 		.word	1073807360
 3281 027c 00040140 		.word	1073808384
 3282 0280 00400140 		.word	1073823744
 3283 0284 00440140 		.word	1073824768
 3284 0288 00480140 		.word	1073825792
 3285 028c 00000000 		.word	.LC0
 3286 0290 00000000 		.word	TIM_DMADelayPulseNCplt
 3287 0294 00000000 		.word	TIM_DMADelayPulseHalfCplt
 3288 0298 00000000 		.word	TIM_DMAErrorCCxN
 3289 029c 07000100 		.word	65543
 3291              		.section	.text.HAL_TIMEx_PWMN_Stop_DMA,"ax",%progbits
 3292              		.align	1
ARM GAS  C:\Users\thewo\AppData\Local\Temp\ccnCGpzj.s 			page 58


 3293              		.global	HAL_TIMEx_PWMN_Stop_DMA
 3294              		.syntax unified
 3295              		.thumb
 3296              		.thumb_func
 3298              	HAL_TIMEx_PWMN_Stop_DMA:
 3299              		@ args = 0, pretend = 0, frame = 0
 3300              		@ frame_needed = 0, uses_anonymous_args = 0
 3301 0000 38B5     		push	{r3, r4, r5, lr}
 3302 0002 0446     		mov	r4, r0
 3303 0004 0D46     		mov	r5, r1
 3304 0006 0368     		ldr	r3, [r0]
 3305 0008 4049     		ldr	r1, .L465
 3306 000a 414A     		ldr	r2, .L465+4
 3307 000c 8B42     		cmp	r3, r1
 3308 000e 18BF     		it	ne
 3309 0010 9342     		cmpne	r3, r2
 3310 0012 05D1     		bne	.L443
 3311 0014 002D     		cmp	r5, #0
 3312 0016 18BF     		it	ne
 3313 0018 042D     		cmpne	r5, #4
 3314 001a 0FD0     		beq	.L444
 3315 001c 082D     		cmp	r5, #8
 3316 001e 56D0     		beq	.L445
 3317              	.L443:
 3318 0020 3C4A     		ldr	r2, .L465+8
 3319 0022 9342     		cmp	r3, r2
 3320 0024 41D0     		beq	.L460
 3321              	.L446:
 3322 0026 3C4A     		ldr	r2, .L465+12
 3323 0028 9342     		cmp	r3, r2
 3324 002a 41D0     		beq	.L461
 3325              	.L448:
 3326 002c 3B4A     		ldr	r2, .L465+16
 3327 002e 9342     		cmp	r3, r2
 3328 0030 41D0     		beq	.L462
 3329              	.L449:
 3330 0032 40F2DA51 		movw	r1, #1498
 3331 0036 3A48     		ldr	r0, .L465+20
 3332 0038 FFF7FEFF 		bl	assert_failed
 3333              	.L444:
 3334 003c 042D     		cmp	r5, #4
 3335 003e 3DD0     		beq	.L450
 3336 0040 082D     		cmp	r5, #8
 3337 0042 44D0     		beq	.L445
 3338 0044 002D     		cmp	r5, #0
 3339 0046 5ED1     		bne	.L458
 3340              	.L447:
 3341 0048 2268     		ldr	r2, [r4]
 3342 004a D368     		ldr	r3, [r2, #12]
 3343 004c 23F40073 		bic	r3, r3, #512
 3344 0050 D360     		str	r3, [r2, #12]
 3345 0052 606A     		ldr	r0, [r4, #36]
 3346 0054 FFF7FEFF 		bl	HAL_DMA_Abort_IT
 3347              	.L452:
 3348 0058 0022     		movs	r2, #0
 3349 005a 2946     		mov	r1, r5
 3350 005c 2068     		ldr	r0, [r4]
ARM GAS  C:\Users\thewo\AppData\Local\Temp\ccnCGpzj.s 			page 59


 3351 005e FFF7FEFF 		bl	TIM_CCxNChannelCmd
 3352 0062 2368     		ldr	r3, [r4]
 3353 0064 196A     		ldr	r1, [r3, #32]
 3354 0066 41F21112 		movw	r2, #4369
 3355 006a 1142     		tst	r1, r2
 3356 006c 08D1     		bne	.L453
 3357 006e 196A     		ldr	r1, [r3, #32]
 3358 0070 40F24442 		movw	r2, #1092
 3359 0074 1142     		tst	r1, r2
 3360 0076 03D1     		bne	.L453
 3361 0078 5A6C     		ldr	r2, [r3, #68]
 3362 007a 22F40042 		bic	r2, r2, #32768
 3363 007e 5A64     		str	r2, [r3, #68]
 3364              	.L453:
 3365 0080 2368     		ldr	r3, [r4]
 3366 0082 196A     		ldr	r1, [r3, #32]
 3367 0084 41F21112 		movw	r2, #4369
 3368 0088 1142     		tst	r1, r2
 3369 008a 08D1     		bne	.L454
 3370 008c 196A     		ldr	r1, [r3, #32]
 3371 008e 40F24442 		movw	r2, #1092
 3372 0092 1142     		tst	r1, r2
 3373 0094 03D1     		bne	.L454
 3374 0096 1A68     		ldr	r2, [r3]
 3375 0098 22F00102 		bic	r2, r2, #1
 3376 009c 1A60     		str	r2, [r3]
 3377              	.L454:
 3378 009e FDB9     		cbnz	r5, .L455
 3379 00a0 0123     		movs	r3, #1
 3380 00a2 84F84430 		strb	r3, [r4, #68]
 3381 00a6 0020     		movs	r0, #0
 3382              	.L451:
 3383 00a8 38BD     		pop	{r3, r4, r5, pc}
 3384              	.L460:
 3385 00aa 002D     		cmp	r5, #0
 3386 00ac CCD0     		beq	.L447
 3387 00ae BAE7     		b	.L446
 3388              	.L461:
 3389 00b0 002D     		cmp	r5, #0
 3390 00b2 C9D0     		beq	.L447
 3391 00b4 BAE7     		b	.L448
 3392              	.L462:
 3393 00b6 002D     		cmp	r5, #0
 3394 00b8 C6D0     		beq	.L447
 3395 00ba BAE7     		b	.L449
 3396              	.L450:
 3397 00bc 2268     		ldr	r2, [r4]
 3398 00be D368     		ldr	r3, [r2, #12]
 3399 00c0 23F48063 		bic	r3, r3, #1024
 3400 00c4 D360     		str	r3, [r2, #12]
 3401 00c6 A06A     		ldr	r0, [r4, #40]
 3402 00c8 FFF7FEFF 		bl	HAL_DMA_Abort_IT
 3403 00cc C4E7     		b	.L452
 3404              	.L445:
 3405 00ce 2268     		ldr	r2, [r4]
 3406 00d0 D368     		ldr	r3, [r2, #12]
 3407 00d2 23F40063 		bic	r3, r3, #2048
ARM GAS  C:\Users\thewo\AppData\Local\Temp\ccnCGpzj.s 			page 60


 3408 00d6 D360     		str	r3, [r2, #12]
 3409 00d8 E06A     		ldr	r0, [r4, #44]
 3410 00da FFF7FEFF 		bl	HAL_DMA_Abort_IT
 3411 00de BBE7     		b	.L452
 3412              	.L455:
 3413 00e0 042D     		cmp	r5, #4
 3414 00e2 06D0     		beq	.L463
 3415 00e4 082D     		cmp	r5, #8
 3416 00e6 09D0     		beq	.L464
 3417 00e8 0123     		movs	r3, #1
 3418 00ea 84F84730 		strb	r3, [r4, #71]
 3419 00ee 0020     		movs	r0, #0
 3420 00f0 DAE7     		b	.L451
 3421              	.L463:
 3422 00f2 0123     		movs	r3, #1
 3423 00f4 84F84530 		strb	r3, [r4, #69]
 3424 00f8 0020     		movs	r0, #0
 3425 00fa D5E7     		b	.L451
 3426              	.L464:
 3427 00fc 0123     		movs	r3, #1
 3428 00fe 84F84630 		strb	r3, [r4, #70]
 3429 0102 0020     		movs	r0, #0
 3430 0104 D0E7     		b	.L451
 3431              	.L458:
 3432 0106 0120     		movs	r0, #1
 3433 0108 CEE7     		b	.L451
 3434              	.L466:
 3435 010a 00BF     		.align	2
 3436              	.L465:
 3437 010c 00000140 		.word	1073807360
 3438 0110 00040140 		.word	1073808384
 3439 0114 00400140 		.word	1073823744
 3440 0118 00440140 		.word	1073824768
 3441 011c 00480140 		.word	1073825792
 3442 0120 00000000 		.word	.LC0
 3444              		.section	.text.HAL_TIMEx_OnePulseN_Start,"ax",%progbits
 3445              		.align	1
 3446              		.global	HAL_TIMEx_OnePulseN_Start
 3447              		.syntax unified
 3448              		.thumb
 3449              		.thumb_func
 3451              	HAL_TIMEx_OnePulseN_Start:
 3452              		@ args = 0, pretend = 0, frame = 0
 3453              		@ frame_needed = 0, uses_anonymous_args = 0
 3454 0000 2DE9F047 		push	{r4, r5, r6, r7, r8, r9, r10, lr}
 3455 0004 0446     		mov	r4, r0
 3456 0006 8846     		mov	r8, r1
 3457 0008 0029     		cmp	r1, #0
 3458 000a 51D1     		bne	.L475
 3459 000c 4FF00409 		mov	r9, #4
 3460              	.L468:
 3461 0010 94F83EA0 		ldrb	r10, [r4, #62]	@ zero_extendqisi2
 3462 0014 5FFA8AFA 		uxtb	r10, r10
 3463 0018 94F83F60 		ldrb	r6, [r4, #63]	@ zero_extendqisi2
 3464 001c F6B2     		uxtb	r6, r6
 3465 001e 94F84470 		ldrb	r7, [r4, #68]	@ zero_extendqisi2
 3466 0022 FFB2     		uxtb	r7, r7
ARM GAS  C:\Users\thewo\AppData\Local\Temp\ccnCGpzj.s 			page 61


 3467 0024 94F84550 		ldrb	r5, [r4, #69]	@ zero_extendqisi2
 3468 0028 EDB2     		uxtb	r5, r5
 3469 002a 2368     		ldr	r3, [r4]
 3470 002c 2A49     		ldr	r1, .L482
 3471 002e 2B4A     		ldr	r2, .L482+4
 3472 0030 8B42     		cmp	r3, r1
 3473 0032 18BF     		it	ne
 3474 0034 9342     		cmpne	r3, r2
 3475 0036 08D1     		bne	.L469
 3476 0038 B8F1000F 		cmp	r8, #0
 3477 003c 18BF     		it	ne
 3478 003e B8F1040F 		cmpne	r8, #4
 3479 0042 10D0     		beq	.L470
 3480 0044 B8F1080F 		cmp	r8, #8
 3481 0048 0DD0     		beq	.L470
 3482              	.L469:
 3483 004a 254A     		ldr	r2, .L482+8
 3484 004c 9342     		cmp	r3, r2
 3485 004e 32D0     		beq	.L479
 3486              	.L471:
 3487 0050 244A     		ldr	r2, .L482+12
 3488 0052 9342     		cmp	r3, r2
 3489 0054 33D0     		beq	.L480
 3490              	.L472:
 3491 0056 244A     		ldr	r2, .L482+16
 3492 0058 9342     		cmp	r3, r2
 3493 005a 34D0     		beq	.L481
 3494              	.L473:
 3495 005c 40F23961 		movw	r1, #1593
 3496 0060 2248     		ldr	r0, .L482+20
 3497 0062 FFF7FEFF 		bl	assert_failed
 3498              	.L470:
 3499 0066 012E     		cmp	r6, #1
 3500 0068 08BF     		it	eq
 3501 006a BAF1010F 		cmpeq	r10, #1
 3502 006e 2ED1     		bne	.L476
 3503 0070 013D     		subs	r5, r5, #1
 3504 0072 18BF     		it	ne
 3505 0074 0125     		movne	r5, #1
 3506 0076 012F     		cmp	r7, #1
 3507 0078 2CD1     		bne	.L477
 3508 007a 5DBB     		cbnz	r5, .L477
 3509 007c 0223     		movs	r3, #2
 3510 007e 84F83E30 		strb	r3, [r4, #62]
 3511 0082 84F83F30 		strb	r3, [r4, #63]
 3512 0086 84F84430 		strb	r3, [r4, #68]
 3513 008a 84F84530 		strb	r3, [r4, #69]
 3514 008e 0422     		movs	r2, #4
 3515 0090 4146     		mov	r1, r8
 3516 0092 2068     		ldr	r0, [r4]
 3517 0094 FFF7FEFF 		bl	TIM_CCxNChannelCmd
 3518 0098 0122     		movs	r2, #1
 3519 009a 4946     		mov	r1, r9
 3520 009c 2068     		ldr	r0, [r4]
 3521 009e FFF7FEFF 		bl	TIM_CCxChannelCmd
 3522 00a2 2268     		ldr	r2, [r4]
 3523 00a4 536C     		ldr	r3, [r2, #68]
ARM GAS  C:\Users\thewo\AppData\Local\Temp\ccnCGpzj.s 			page 62


 3524 00a6 43F40043 		orr	r3, r3, #32768
 3525 00aa 5364     		str	r3, [r2, #68]
 3526 00ac 0020     		movs	r0, #0
 3527 00ae 0FE0     		b	.L474
 3528              	.L475:
 3529 00b0 4FF00009 		mov	r9, #0
 3530 00b4 ACE7     		b	.L468
 3531              	.L479:
 3532 00b6 B8F1000F 		cmp	r8, #0
 3533 00ba D4D0     		beq	.L470
 3534 00bc C8E7     		b	.L471
 3535              	.L480:
 3536 00be B8F1000F 		cmp	r8, #0
 3537 00c2 D0D0     		beq	.L470
 3538 00c4 C7E7     		b	.L472
 3539              	.L481:
 3540 00c6 B8F1000F 		cmp	r8, #0
 3541 00ca CCD0     		beq	.L470
 3542 00cc C6E7     		b	.L473
 3543              	.L476:
 3544 00ce 0120     		movs	r0, #1
 3545              	.L474:
 3546 00d0 BDE8F087 		pop	{r4, r5, r6, r7, r8, r9, r10, pc}
 3547              	.L477:
 3548 00d4 0120     		movs	r0, #1
 3549 00d6 FBE7     		b	.L474
 3550              	.L483:
 3551              		.align	2
 3552              	.L482:
 3553 00d8 00000140 		.word	1073807360
 3554 00dc 00040140 		.word	1073808384
 3555 00e0 00400140 		.word	1073823744
 3556 00e4 00440140 		.word	1073824768
 3557 00e8 00480140 		.word	1073825792
 3558 00ec 00000000 		.word	.LC0
 3560              		.section	.text.HAL_TIMEx_OnePulseN_Stop,"ax",%progbits
 3561              		.align	1
 3562              		.global	HAL_TIMEx_OnePulseN_Stop
 3563              		.syntax unified
 3564              		.thumb
 3565              		.thumb_func
 3567              	HAL_TIMEx_OnePulseN_Stop:
 3568              		@ args = 0, pretend = 0, frame = 0
 3569              		@ frame_needed = 0, uses_anonymous_args = 0
 3570 0000 70B5     		push	{r4, r5, r6, lr}
 3571 0002 0446     		mov	r4, r0
 3572 0004 0D46     		mov	r5, r1
 3573 0006 0029     		cmp	r1, #0
 3574 0008 4ED1     		bne	.L493
 3575 000a 0426     		movs	r6, #4
 3576              	.L485:
 3577 000c 2368     		ldr	r3, [r4]
 3578 000e 2C49     		ldr	r1, .L498
 3579 0010 2C4A     		ldr	r2, .L498+4
 3580 0012 8B42     		cmp	r3, r1
 3581 0014 18BF     		it	ne
 3582 0016 9342     		cmpne	r3, r2
ARM GAS  C:\Users\thewo\AppData\Local\Temp\ccnCGpzj.s 			page 63


 3583 0018 05D1     		bne	.L486
 3584 001a 002D     		cmp	r5, #0
 3585 001c 18BF     		it	ne
 3586 001e 042D     		cmpne	r5, #4
 3587 0020 0FD0     		beq	.L487
 3588 0022 082D     		cmp	r5, #8
 3589 0024 0DD0     		beq	.L487
 3590              	.L486:
 3591 0026 284A     		ldr	r2, .L498+8
 3592 0028 9342     		cmp	r3, r2
 3593 002a 3FD0     		beq	.L495
 3594              	.L488:
 3595 002c 274A     		ldr	r2, .L498+12
 3596 002e 9342     		cmp	r3, r2
 3597 0030 3FD0     		beq	.L496
 3598              	.L489:
 3599 0032 274A     		ldr	r2, .L498+16
 3600 0034 9342     		cmp	r3, r2
 3601 0036 3FD0     		beq	.L497
 3602              	.L490:
 3603 0038 40F26661 		movw	r1, #1638
 3604 003c 2548     		ldr	r0, .L498+20
 3605 003e FFF7FEFF 		bl	assert_failed
 3606              	.L487:
 3607 0042 0022     		movs	r2, #0
 3608 0044 2946     		mov	r1, r5
 3609 0046 2068     		ldr	r0, [r4]
 3610 0048 FFF7FEFF 		bl	TIM_CCxNChannelCmd
 3611 004c 0022     		movs	r2, #0
 3612 004e 3146     		mov	r1, r6
 3613 0050 2068     		ldr	r0, [r4]
 3614 0052 FFF7FEFF 		bl	TIM_CCxChannelCmd
 3615 0056 2368     		ldr	r3, [r4]
 3616 0058 196A     		ldr	r1, [r3, #32]
 3617 005a 41F21112 		movw	r2, #4369
 3618 005e 1142     		tst	r1, r2
 3619 0060 08D1     		bne	.L491
 3620 0062 196A     		ldr	r1, [r3, #32]
 3621 0064 40F24442 		movw	r2, #1092
 3622 0068 1142     		tst	r1, r2
 3623 006a 03D1     		bne	.L491
 3624 006c 5A6C     		ldr	r2, [r3, #68]
 3625 006e 22F40042 		bic	r2, r2, #32768
 3626 0072 5A64     		str	r2, [r3, #68]
 3627              	.L491:
 3628 0074 2368     		ldr	r3, [r4]
 3629 0076 196A     		ldr	r1, [r3, #32]
 3630 0078 41F21112 		movw	r2, #4369
 3631 007c 1142     		tst	r1, r2
 3632 007e 08D1     		bne	.L492
 3633 0080 196A     		ldr	r1, [r3, #32]
 3634 0082 40F24442 		movw	r2, #1092
 3635 0086 1142     		tst	r1, r2
 3636 0088 03D1     		bne	.L492
 3637 008a 1A68     		ldr	r2, [r3]
 3638 008c 22F00102 		bic	r2, r2, #1
 3639 0090 1A60     		str	r2, [r3]
ARM GAS  C:\Users\thewo\AppData\Local\Temp\ccnCGpzj.s 			page 64


 3640              	.L492:
 3641 0092 0123     		movs	r3, #1
 3642 0094 84F83E30 		strb	r3, [r4, #62]
 3643 0098 84F83F30 		strb	r3, [r4, #63]
 3644 009c 84F84430 		strb	r3, [r4, #68]
 3645 00a0 84F84530 		strb	r3, [r4, #69]
 3646 00a4 0020     		movs	r0, #0
 3647 00a6 70BD     		pop	{r4, r5, r6, pc}
 3648              	.L493:
 3649 00a8 0026     		movs	r6, #0
 3650 00aa AFE7     		b	.L485
 3651              	.L495:
 3652 00ac 002D     		cmp	r5, #0
 3653 00ae C8D0     		beq	.L487
 3654 00b0 BCE7     		b	.L488
 3655              	.L496:
 3656 00b2 002D     		cmp	r5, #0
 3657 00b4 C5D0     		beq	.L487
 3658 00b6 BCE7     		b	.L489
 3659              	.L497:
 3660 00b8 002D     		cmp	r5, #0
 3661 00ba C2D0     		beq	.L487
 3662 00bc BCE7     		b	.L490
 3663              	.L499:
 3664 00be 00BF     		.align	2
 3665              	.L498:
 3666 00c0 00000140 		.word	1073807360
 3667 00c4 00040140 		.word	1073808384
 3668 00c8 00400140 		.word	1073823744
 3669 00cc 00440140 		.word	1073824768
 3670 00d0 00480140 		.word	1073825792
 3671 00d4 00000000 		.word	.LC0
 3673              		.section	.text.HAL_TIMEx_OnePulseN_Start_IT,"ax",%progbits
 3674              		.align	1
 3675              		.global	HAL_TIMEx_OnePulseN_Start_IT
 3676              		.syntax unified
 3677              		.thumb
 3678              		.thumb_func
 3680              	HAL_TIMEx_OnePulseN_Start_IT:
 3681              		@ args = 0, pretend = 0, frame = 0
 3682              		@ frame_needed = 0, uses_anonymous_args = 0
 3683 0000 2DE9F047 		push	{r4, r5, r6, r7, r8, r9, r10, lr}
 3684 0004 0446     		mov	r4, r0
 3685 0006 8846     		mov	r8, r1
 3686 0008 0029     		cmp	r1, #0
 3687 000a 5CD1     		bne	.L508
 3688 000c 4FF00409 		mov	r9, #4
 3689              	.L501:
 3690 0010 94F83EA0 		ldrb	r10, [r4, #62]	@ zero_extendqisi2
 3691 0014 5FFA8AFA 		uxtb	r10, r10
 3692 0018 94F83F60 		ldrb	r6, [r4, #63]	@ zero_extendqisi2
 3693 001c F6B2     		uxtb	r6, r6
 3694 001e 94F84470 		ldrb	r7, [r4, #68]	@ zero_extendqisi2
 3695 0022 FFB2     		uxtb	r7, r7
 3696 0024 94F84550 		ldrb	r5, [r4, #69]	@ zero_extendqisi2
 3697 0028 EDB2     		uxtb	r5, r5
 3698 002a 2368     		ldr	r3, [r4]
ARM GAS  C:\Users\thewo\AppData\Local\Temp\ccnCGpzj.s 			page 65


 3699 002c 3049     		ldr	r1, .L515
 3700 002e 314A     		ldr	r2, .L515+4
 3701 0030 8B42     		cmp	r3, r1
 3702 0032 18BF     		it	ne
 3703 0034 9342     		cmpne	r3, r2
 3704 0036 08D1     		bne	.L502
 3705 0038 B8F1000F 		cmp	r8, #0
 3706 003c 18BF     		it	ne
 3707 003e B8F1040F 		cmpne	r8, #4
 3708 0042 10D0     		beq	.L503
 3709 0044 B8F1080F 		cmp	r8, #8
 3710 0048 0DD0     		beq	.L503
 3711              	.L502:
 3712 004a 2B4A     		ldr	r2, .L515+8
 3713 004c 9342     		cmp	r3, r2
 3714 004e 3DD0     		beq	.L512
 3715              	.L504:
 3716 0050 2A4A     		ldr	r2, .L515+12
 3717 0052 9342     		cmp	r3, r2
 3718 0054 3ED0     		beq	.L513
 3719              	.L505:
 3720 0056 2A4A     		ldr	r2, .L515+16
 3721 0058 9342     		cmp	r3, r2
 3722 005a 3FD0     		beq	.L514
 3723              	.L506:
 3724 005c 40F29161 		movw	r1, #1681
 3725 0060 2848     		ldr	r0, .L515+20
 3726 0062 FFF7FEFF 		bl	assert_failed
 3727              	.L503:
 3728 0066 012E     		cmp	r6, #1
 3729 0068 08BF     		it	eq
 3730 006a BAF1010F 		cmpeq	r10, #1
 3731 006e 39D1     		bne	.L509
 3732 0070 013D     		subs	r5, r5, #1
 3733 0072 18BF     		it	ne
 3734 0074 0125     		movne	r5, #1
 3735 0076 012F     		cmp	r7, #1
 3736 0078 37D1     		bne	.L510
 3737 007a 002D     		cmp	r5, #0
 3738 007c 35D1     		bne	.L510
 3739 007e 0223     		movs	r3, #2
 3740 0080 84F83E30 		strb	r3, [r4, #62]
 3741 0084 84F83F30 		strb	r3, [r4, #63]
 3742 0088 84F84430 		strb	r3, [r4, #68]
 3743 008c 84F84530 		strb	r3, [r4, #69]
 3744 0090 2268     		ldr	r2, [r4]
 3745 0092 D368     		ldr	r3, [r2, #12]
 3746 0094 43F00203 		orr	r3, r3, #2
 3747 0098 D360     		str	r3, [r2, #12]
 3748 009a 2268     		ldr	r2, [r4]
 3749 009c D368     		ldr	r3, [r2, #12]
 3750 009e 43F00403 		orr	r3, r3, #4
 3751 00a2 D360     		str	r3, [r2, #12]
 3752 00a4 0422     		movs	r2, #4
 3753 00a6 4146     		mov	r1, r8
 3754 00a8 2068     		ldr	r0, [r4]
 3755 00aa FFF7FEFF 		bl	TIM_CCxNChannelCmd
ARM GAS  C:\Users\thewo\AppData\Local\Temp\ccnCGpzj.s 			page 66


 3756 00ae 0122     		movs	r2, #1
 3757 00b0 4946     		mov	r1, r9
 3758 00b2 2068     		ldr	r0, [r4]
 3759 00b4 FFF7FEFF 		bl	TIM_CCxChannelCmd
 3760 00b8 2268     		ldr	r2, [r4]
 3761 00ba 536C     		ldr	r3, [r2, #68]
 3762 00bc 43F40043 		orr	r3, r3, #32768
 3763 00c0 5364     		str	r3, [r2, #68]
 3764 00c2 0020     		movs	r0, #0
 3765 00c4 0FE0     		b	.L507
 3766              	.L508:
 3767 00c6 4FF00009 		mov	r9, #0
 3768 00ca A1E7     		b	.L501
 3769              	.L512:
 3770 00cc B8F1000F 		cmp	r8, #0
 3771 00d0 C9D0     		beq	.L503
 3772 00d2 BDE7     		b	.L504
 3773              	.L513:
 3774 00d4 B8F1000F 		cmp	r8, #0
 3775 00d8 C5D0     		beq	.L503
 3776 00da BCE7     		b	.L505
 3777              	.L514:
 3778 00dc B8F1000F 		cmp	r8, #0
 3779 00e0 C1D0     		beq	.L503
 3780 00e2 BBE7     		b	.L506
 3781              	.L509:
 3782 00e4 0120     		movs	r0, #1
 3783              	.L507:
 3784 00e6 BDE8F087 		pop	{r4, r5, r6, r7, r8, r9, r10, pc}
 3785              	.L510:
 3786 00ea 0120     		movs	r0, #1
 3787 00ec FBE7     		b	.L507
 3788              	.L516:
 3789 00ee 00BF     		.align	2
 3790              	.L515:
 3791 00f0 00000140 		.word	1073807360
 3792 00f4 00040140 		.word	1073808384
 3793 00f8 00400140 		.word	1073823744
 3794 00fc 00440140 		.word	1073824768
 3795 0100 00480140 		.word	1073825792
 3796 0104 00000000 		.word	.LC0
 3798              		.section	.text.HAL_TIMEx_OnePulseN_Stop_IT,"ax",%progbits
 3799              		.align	1
 3800              		.global	HAL_TIMEx_OnePulseN_Stop_IT
 3801              		.syntax unified
 3802              		.thumb
 3803              		.thumb_func
 3805              	HAL_TIMEx_OnePulseN_Stop_IT:
 3806              		@ args = 0, pretend = 0, frame = 0
 3807              		@ frame_needed = 0, uses_anonymous_args = 0
 3808 0000 70B5     		push	{r4, r5, r6, lr}
 3809 0002 0446     		mov	r4, r0
 3810 0004 0D46     		mov	r5, r1
 3811 0006 0029     		cmp	r1, #0
 3812 0008 58D1     		bne	.L526
 3813 000a 0426     		movs	r6, #4
 3814              	.L518:
ARM GAS  C:\Users\thewo\AppData\Local\Temp\ccnCGpzj.s 			page 67


 3815 000c 2368     		ldr	r3, [r4]
 3816 000e 3149     		ldr	r1, .L531
 3817 0010 314A     		ldr	r2, .L531+4
 3818 0012 8B42     		cmp	r3, r1
 3819 0014 18BF     		it	ne
 3820 0016 9342     		cmpne	r3, r2
 3821 0018 05D1     		bne	.L519
 3822 001a 002D     		cmp	r5, #0
 3823 001c 18BF     		it	ne
 3824 001e 042D     		cmpne	r5, #4
 3825 0020 0FD0     		beq	.L520
 3826 0022 082D     		cmp	r5, #8
 3827 0024 0DD0     		beq	.L520
 3828              	.L519:
 3829 0026 2D4A     		ldr	r2, .L531+8
 3830 0028 9342     		cmp	r3, r2
 3831 002a 49D0     		beq	.L528
 3832              	.L521:
 3833 002c 2C4A     		ldr	r2, .L531+12
 3834 002e 9342     		cmp	r3, r2
 3835 0030 49D0     		beq	.L529
 3836              	.L522:
 3837 0032 2C4A     		ldr	r2, .L531+16
 3838 0034 9342     		cmp	r3, r2
 3839 0036 49D0     		beq	.L530
 3840              	.L523:
 3841 0038 40F2C461 		movw	r1, #1732
 3842 003c 2A48     		ldr	r0, .L531+20
 3843 003e FFF7FEFF 		bl	assert_failed
 3844              	.L520:
 3845 0042 2268     		ldr	r2, [r4]
 3846 0044 D368     		ldr	r3, [r2, #12]
 3847 0046 23F00203 		bic	r3, r3, #2
 3848 004a D360     		str	r3, [r2, #12]
 3849 004c 2268     		ldr	r2, [r4]
 3850 004e D368     		ldr	r3, [r2, #12]
 3851 0050 23F00403 		bic	r3, r3, #4
 3852 0054 D360     		str	r3, [r2, #12]
 3853 0056 0022     		movs	r2, #0
 3854 0058 2946     		mov	r1, r5
 3855 005a 2068     		ldr	r0, [r4]
 3856 005c FFF7FEFF 		bl	TIM_CCxNChannelCmd
 3857 0060 0022     		movs	r2, #0
 3858 0062 3146     		mov	r1, r6
 3859 0064 2068     		ldr	r0, [r4]
 3860 0066 FFF7FEFF 		bl	TIM_CCxChannelCmd
 3861 006a 2368     		ldr	r3, [r4]
 3862 006c 196A     		ldr	r1, [r3, #32]
 3863 006e 41F21112 		movw	r2, #4369
 3864 0072 1142     		tst	r1, r2
 3865 0074 08D1     		bne	.L524
 3866 0076 196A     		ldr	r1, [r3, #32]
 3867 0078 40F24442 		movw	r2, #1092
 3868 007c 1142     		tst	r1, r2
 3869 007e 03D1     		bne	.L524
 3870 0080 5A6C     		ldr	r2, [r3, #68]
 3871 0082 22F40042 		bic	r2, r2, #32768
ARM GAS  C:\Users\thewo\AppData\Local\Temp\ccnCGpzj.s 			page 68


 3872 0086 5A64     		str	r2, [r3, #68]
 3873              	.L524:
 3874 0088 2368     		ldr	r3, [r4]
 3875 008a 196A     		ldr	r1, [r3, #32]
 3876 008c 41F21112 		movw	r2, #4369
 3877 0090 1142     		tst	r1, r2
 3878 0092 08D1     		bne	.L525
 3879 0094 196A     		ldr	r1, [r3, #32]
 3880 0096 40F24442 		movw	r2, #1092
 3881 009a 1142     		tst	r1, r2
 3882 009c 03D1     		bne	.L525
 3883 009e 1A68     		ldr	r2, [r3]
 3884 00a0 22F00102 		bic	r2, r2, #1
 3885 00a4 1A60     		str	r2, [r3]
 3886              	.L525:
 3887 00a6 0123     		movs	r3, #1
 3888 00a8 84F83E30 		strb	r3, [r4, #62]
 3889 00ac 84F83F30 		strb	r3, [r4, #63]
 3890 00b0 84F84430 		strb	r3, [r4, #68]
 3891 00b4 84F84530 		strb	r3, [r4, #69]
 3892 00b8 0020     		movs	r0, #0
 3893 00ba 70BD     		pop	{r4, r5, r6, pc}
 3894              	.L526:
 3895 00bc 0026     		movs	r6, #0
 3896 00be A5E7     		b	.L518
 3897              	.L528:
 3898 00c0 002D     		cmp	r5, #0
 3899 00c2 BED0     		beq	.L520
 3900 00c4 B2E7     		b	.L521
 3901              	.L529:
 3902 00c6 002D     		cmp	r5, #0
 3903 00c8 BBD0     		beq	.L520
 3904 00ca B2E7     		b	.L522
 3905              	.L530:
 3906 00cc 002D     		cmp	r5, #0
 3907 00ce B8D0     		beq	.L520
 3908 00d0 B2E7     		b	.L523
 3909              	.L532:
 3910 00d2 00BF     		.align	2
 3911              	.L531:
 3912 00d4 00000140 		.word	1073807360
 3913 00d8 00040140 		.word	1073808384
 3914 00dc 00400140 		.word	1073823744
 3915 00e0 00440140 		.word	1073824768
 3916 00e4 00480140 		.word	1073825792
 3917 00e8 00000000 		.word	.LC0
 3919              		.section	.text.HAL_TIMEx_ConfigCommutEvent,"ax",%progbits
 3920              		.align	1
 3921              		.global	HAL_TIMEx_ConfigCommutEvent
 3922              		.syntax unified
 3923              		.thumb
 3924              		.thumb_func
 3926              	HAL_TIMEx_ConfigCommutEvent:
 3927              		@ args = 0, pretend = 0, frame = 0
 3928              		@ frame_needed = 0, uses_anonymous_args = 0
 3929 0000 70B5     		push	{r4, r5, r6, lr}
 3930 0002 0446     		mov	r4, r0
ARM GAS  C:\Users\thewo\AppData\Local\Temp\ccnCGpzj.s 			page 69


 3931 0004 0D46     		mov	r5, r1
 3932 0006 1646     		mov	r6, r2
 3933 0008 0368     		ldr	r3, [r0]
 3934 000a 4349     		ldr	r1, .L543
 3935 000c 434A     		ldr	r2, .L543+4
 3936 000e 8B42     		cmp	r3, r1
 3937 0010 18BF     		it	ne
 3938 0012 9342     		cmpne	r3, r2
 3939 0014 10D0     		beq	.L534
 3940 0016 02F57052 		add	r2, r2, #15360
 3941 001a 9342     		cmp	r3, r2
 3942 001c 0CD0     		beq	.L534
 3943 001e 02F58062 		add	r2, r2, #1024
 3944 0022 9342     		cmp	r3, r2
 3945 0024 08D0     		beq	.L534
 3946 0026 02F58062 		add	r2, r2, #1024
 3947 002a 9342     		cmp	r3, r2
 3948 002c 04D0     		beq	.L534
 3949 002e 40F21971 		movw	r1, #1817
 3950 0032 3B48     		ldr	r0, .L543+8
 3951 0034 FFF7FEFF 		bl	assert_failed
 3952              	.L534:
 3953 0038 002D     		cmp	r5, #0
 3954 003a 18BF     		it	ne
 3955 003c 102D     		cmpne	r5, #16
 3956 003e 28D0     		beq	.L535
 3957 0040 B5F13003 		subs	r3, r5, #48
 3958 0044 18BF     		it	ne
 3959 0046 0123     		movne	r3, #1
 3960 0048 202D     		cmp	r5, #32
 3961 004a 22D0     		beq	.L535
 3962 004c 0BB3     		cbz	r3, .L535
 3963 004e B5F11013 		subs	r3, r5, #1048592
 3964 0052 18BF     		it	ne
 3965 0054 0123     		movne	r3, #1
 3966 0056 B5F5801F 		cmp	r5, #1048576
 3967 005a 1AD0     		beq	.L535
 3968 005c CBB1     		cbz	r3, .L535
 3969 005e 314B     		ldr	r3, .L543+12
 3970 0060 EB1A     		subs	r3, r5, r3
 3971 0062 18BF     		it	ne
 3972 0064 0123     		movne	r3, #1
 3973 0066 304A     		ldr	r2, .L543+16
 3974 0068 9542     		cmp	r5, r2
 3975 006a 12D0     		beq	.L535
 3976 006c 8BB1     		cbz	r3, .L535
 3977 006e B5F50012 		subs	r2, r5, #2097152
 3978 0072 18BF     		it	ne
 3979 0074 0122     		movne	r2, #1
 3980 0076 2D4B     		ldr	r3, .L543+20
 3981 0078 9D42     		cmp	r5, r3
 3982 007a 0AD0     		beq	.L535
 3983 007c 4AB1     		cbz	r2, .L535
 3984 007e 4FF6FF73 		movw	r3, #65535
 3985 0082 EB1A     		subs	r3, r5, r3
 3986 0084 18BF     		it	ne
 3987 0086 0123     		movne	r3, #1
ARM GAS  C:\Users\thewo\AppData\Local\Temp\ccnCGpzj.s 			page 70


 3988 0088 294A     		ldr	r2, .L543+24
 3989 008a 9542     		cmp	r5, r2
 3990 008c 01D0     		beq	.L535
 3991 008e 002B     		cmp	r3, #0
 3992 0090 33D1     		bne	.L542
 3993              	.L535:
 3994 0092 94F83C30 		ldrb	r3, [r4, #60]	@ zero_extendqisi2
 3995 0096 012B     		cmp	r3, #1
 3996 0098 3CD0     		beq	.L540
 3997 009a 0123     		movs	r3, #1
 3998 009c 84F83C30 		strb	r3, [r4, #60]
 3999 00a0 302D     		cmp	r5, #48
 4000 00a2 05D0     		beq	.L537
 4001 00a4 2FD8     		bhi	.L538
 4002 00a6 102D     		cmp	r5, #16
 4003 00a8 02D0     		beq	.L537
 4004 00aa 202D     		cmp	r5, #32
 4005 00ac 00D0     		beq	.L537
 4006 00ae 45B9     		cbnz	r5, .L539
 4007              	.L537:
 4008 00b0 2268     		ldr	r2, [r4]
 4009 00b2 9168     		ldr	r1, [r2, #8]
 4010 00b4 1F4B     		ldr	r3, .L543+28
 4011 00b6 0B40     		ands	r3, r3, r1
 4012 00b8 9360     		str	r3, [r2, #8]
 4013 00ba 2268     		ldr	r2, [r4]
 4014 00bc 9368     		ldr	r3, [r2, #8]
 4015 00be 2B43     		orrs	r3, r3, r5
 4016 00c0 9360     		str	r3, [r2, #8]
 4017              	.L539:
 4018 00c2 2268     		ldr	r2, [r4]
 4019 00c4 5368     		ldr	r3, [r2, #4]
 4020 00c6 43F00103 		orr	r3, r3, #1
 4021 00ca 5360     		str	r3, [r2, #4]
 4022 00cc 2268     		ldr	r2, [r4]
 4023 00ce 5368     		ldr	r3, [r2, #4]
 4024 00d0 23F00403 		bic	r3, r3, #4
 4025 00d4 5360     		str	r3, [r2, #4]
 4026 00d6 2268     		ldr	r2, [r4]
 4027 00d8 5368     		ldr	r3, [r2, #4]
 4028 00da 3343     		orrs	r3, r3, r6
 4029 00dc 5360     		str	r3, [r2, #4]
 4030 00de 2268     		ldr	r2, [r4]
 4031 00e0 D368     		ldr	r3, [r2, #12]
 4032 00e2 23F02003 		bic	r3, r3, #32
 4033 00e6 D360     		str	r3, [r2, #12]
 4034 00e8 2268     		ldr	r2, [r4]
 4035 00ea D368     		ldr	r3, [r2, #12]
 4036 00ec 23F40053 		bic	r3, r3, #8192
 4037 00f0 D360     		str	r3, [r2, #12]
 4038 00f2 0020     		movs	r0, #0
 4039 00f4 84F83C00 		strb	r0, [r4, #60]
 4040              	.L536:
 4041 00f8 70BD     		pop	{r4, r5, r6, pc}
 4042              	.L542:
 4043 00fa 40F21A71 		movw	r1, #1818
 4044 00fe 0848     		ldr	r0, .L543+8
ARM GAS  C:\Users\thewo\AppData\Local\Temp\ccnCGpzj.s 			page 71


 4045 0100 FFF7FEFF 		bl	assert_failed
 4046 0104 C5E7     		b	.L535
 4047              	.L538:
 4048 0106 B5F5001F 		cmp	r5, #2097152
 4049 010a D1D0     		beq	.L537
 4050 010c 084B     		ldr	r3, .L543+24
 4051 010e 9D42     		cmp	r5, r3
 4052 0110 D7D1     		bne	.L539
 4053 0112 CDE7     		b	.L537
 4054              	.L540:
 4055 0114 0220     		movs	r0, #2
 4056 0116 EFE7     		b	.L536
 4057              	.L544:
 4058              		.align	2
 4059              	.L543:
 4060 0118 00000140 		.word	1073807360
 4061 011c 00040140 		.word	1073808384
 4062 0120 00000000 		.word	.LC0
 4063 0124 30001000 		.word	1048624
 4064 0128 20001000 		.word	1048608
 4065 012c 40001000 		.word	1048640
 4066 0130 10002000 		.word	2097168
 4067 0134 8FFFCFFF 		.word	-3145841
 4069              		.section	.text.HAL_TIMEx_ConfigCommutEvent_IT,"ax",%progbits
 4070              		.align	1
 4071              		.global	HAL_TIMEx_ConfigCommutEvent_IT
 4072              		.syntax unified
 4073              		.thumb
 4074              		.thumb_func
 4076              	HAL_TIMEx_ConfigCommutEvent_IT:
 4077              		@ args = 0, pretend = 0, frame = 0
 4078              		@ frame_needed = 0, uses_anonymous_args = 0
 4079 0000 70B5     		push	{r4, r5, r6, lr}
 4080 0002 0446     		mov	r4, r0
 4081 0004 0D46     		mov	r5, r1
 4082 0006 1646     		mov	r6, r2
 4083 0008 0368     		ldr	r3, [r0]
 4084 000a 4349     		ldr	r1, .L555
 4085 000c 434A     		ldr	r2, .L555+4
 4086 000e 8B42     		cmp	r3, r1
 4087 0010 18BF     		it	ne
 4088 0012 9342     		cmpne	r3, r2
 4089 0014 10D0     		beq	.L546
 4090 0016 02F57052 		add	r2, r2, #15360
 4091 001a 9342     		cmp	r3, r2
 4092 001c 0CD0     		beq	.L546
 4093 001e 02F58062 		add	r2, r2, #1024
 4094 0022 9342     		cmp	r3, r2
 4095 0024 08D0     		beq	.L546
 4096 0026 02F58062 		add	r2, r2, #1024
 4097 002a 9342     		cmp	r3, r2
 4098 002c 04D0     		beq	.L546
 4099 002e 40F25771 		movw	r1, #1879
 4100 0032 3B48     		ldr	r0, .L555+8
 4101 0034 FFF7FEFF 		bl	assert_failed
 4102              	.L546:
 4103 0038 002D     		cmp	r5, #0
ARM GAS  C:\Users\thewo\AppData\Local\Temp\ccnCGpzj.s 			page 72


 4104 003a 18BF     		it	ne
 4105 003c 102D     		cmpne	r5, #16
 4106 003e 28D0     		beq	.L547
 4107 0040 B5F13003 		subs	r3, r5, #48
 4108 0044 18BF     		it	ne
 4109 0046 0123     		movne	r3, #1
 4110 0048 202D     		cmp	r5, #32
 4111 004a 22D0     		beq	.L547
 4112 004c 0BB3     		cbz	r3, .L547
 4113 004e B5F11013 		subs	r3, r5, #1048592
 4114 0052 18BF     		it	ne
 4115 0054 0123     		movne	r3, #1
 4116 0056 B5F5801F 		cmp	r5, #1048576
 4117 005a 1AD0     		beq	.L547
 4118 005c CBB1     		cbz	r3, .L547
 4119 005e 314B     		ldr	r3, .L555+12
 4120 0060 EB1A     		subs	r3, r5, r3
 4121 0062 18BF     		it	ne
 4122 0064 0123     		movne	r3, #1
 4123 0066 304A     		ldr	r2, .L555+16
 4124 0068 9542     		cmp	r5, r2
 4125 006a 12D0     		beq	.L547
 4126 006c 8BB1     		cbz	r3, .L547
 4127 006e B5F50012 		subs	r2, r5, #2097152
 4128 0072 18BF     		it	ne
 4129 0074 0122     		movne	r2, #1
 4130 0076 2D4B     		ldr	r3, .L555+20
 4131 0078 9D42     		cmp	r5, r3
 4132 007a 0AD0     		beq	.L547
 4133 007c 4AB1     		cbz	r2, .L547
 4134 007e 4FF6FF73 		movw	r3, #65535
 4135 0082 EB1A     		subs	r3, r5, r3
 4136 0084 18BF     		it	ne
 4137 0086 0123     		movne	r3, #1
 4138 0088 294A     		ldr	r2, .L555+24
 4139 008a 9542     		cmp	r5, r2
 4140 008c 01D0     		beq	.L547
 4141 008e 002B     		cmp	r3, #0
 4142 0090 33D1     		bne	.L554
 4143              	.L547:
 4144 0092 94F83C30 		ldrb	r3, [r4, #60]	@ zero_extendqisi2
 4145 0096 012B     		cmp	r3, #1
 4146 0098 3CD0     		beq	.L552
 4147 009a 0123     		movs	r3, #1
 4148 009c 84F83C30 		strb	r3, [r4, #60]
 4149 00a0 302D     		cmp	r5, #48
 4150 00a2 05D0     		beq	.L549
 4151 00a4 2FD8     		bhi	.L550
 4152 00a6 102D     		cmp	r5, #16
 4153 00a8 02D0     		beq	.L549
 4154 00aa 202D     		cmp	r5, #32
 4155 00ac 00D0     		beq	.L549
 4156 00ae 45B9     		cbnz	r5, .L551
 4157              	.L549:
 4158 00b0 2268     		ldr	r2, [r4]
 4159 00b2 9168     		ldr	r1, [r2, #8]
 4160 00b4 1F4B     		ldr	r3, .L555+28
ARM GAS  C:\Users\thewo\AppData\Local\Temp\ccnCGpzj.s 			page 73


 4161 00b6 0B40     		ands	r3, r3, r1
 4162 00b8 9360     		str	r3, [r2, #8]
 4163 00ba 2268     		ldr	r2, [r4]
 4164 00bc 9368     		ldr	r3, [r2, #8]
 4165 00be 2B43     		orrs	r3, r3, r5
 4166 00c0 9360     		str	r3, [r2, #8]
 4167              	.L551:
 4168 00c2 2268     		ldr	r2, [r4]
 4169 00c4 5368     		ldr	r3, [r2, #4]
 4170 00c6 43F00103 		orr	r3, r3, #1
 4171 00ca 5360     		str	r3, [r2, #4]
 4172 00cc 2268     		ldr	r2, [r4]
 4173 00ce 5368     		ldr	r3, [r2, #4]
 4174 00d0 23F00403 		bic	r3, r3, #4
 4175 00d4 5360     		str	r3, [r2, #4]
 4176 00d6 2268     		ldr	r2, [r4]
 4177 00d8 5368     		ldr	r3, [r2, #4]
 4178 00da 3343     		orrs	r3, r3, r6
 4179 00dc 5360     		str	r3, [r2, #4]
 4180 00de 2268     		ldr	r2, [r4]
 4181 00e0 D368     		ldr	r3, [r2, #12]
 4182 00e2 23F40053 		bic	r3, r3, #8192
 4183 00e6 D360     		str	r3, [r2, #12]
 4184 00e8 2268     		ldr	r2, [r4]
 4185 00ea D368     		ldr	r3, [r2, #12]
 4186 00ec 43F02003 		orr	r3, r3, #32
 4187 00f0 D360     		str	r3, [r2, #12]
 4188 00f2 0020     		movs	r0, #0
 4189 00f4 84F83C00 		strb	r0, [r4, #60]
 4190              	.L548:
 4191 00f8 70BD     		pop	{r4, r5, r6, pc}
 4192              	.L554:
 4193 00fa 4FF4EB61 		mov	r1, #1880
 4194 00fe 0848     		ldr	r0, .L555+8
 4195 0100 FFF7FEFF 		bl	assert_failed
 4196 0104 C5E7     		b	.L547
 4197              	.L550:
 4198 0106 B5F5001F 		cmp	r5, #2097152
 4199 010a D1D0     		beq	.L549
 4200 010c 084B     		ldr	r3, .L555+24
 4201 010e 9D42     		cmp	r5, r3
 4202 0110 D7D1     		bne	.L551
 4203 0112 CDE7     		b	.L549
 4204              	.L552:
 4205 0114 0220     		movs	r0, #2
 4206 0116 EFE7     		b	.L548
 4207              	.L556:
 4208              		.align	2
 4209              	.L555:
 4210 0118 00000140 		.word	1073807360
 4211 011c 00040140 		.word	1073808384
 4212 0120 00000000 		.word	.LC0
 4213 0124 30001000 		.word	1048624
 4214 0128 20001000 		.word	1048608
 4215 012c 40001000 		.word	1048640
 4216 0130 10002000 		.word	2097168
 4217 0134 8FFFCFFF 		.word	-3145841
ARM GAS  C:\Users\thewo\AppData\Local\Temp\ccnCGpzj.s 			page 74


 4219              		.section	.text.HAL_TIMEx_ConfigCommutEvent_DMA,"ax",%progbits
 4220              		.align	1
 4221              		.global	HAL_TIMEx_ConfigCommutEvent_DMA
 4222              		.syntax unified
 4223              		.thumb
 4224              		.thumb_func
 4226              	HAL_TIMEx_ConfigCommutEvent_DMA:
 4227              		@ args = 0, pretend = 0, frame = 0
 4228              		@ frame_needed = 0, uses_anonymous_args = 0
 4229 0000 70B5     		push	{r4, r5, r6, lr}
 4230 0002 0446     		mov	r4, r0
 4231 0004 0D46     		mov	r5, r1
 4232 0006 1646     		mov	r6, r2
 4233 0008 0368     		ldr	r3, [r0]
 4234 000a 4849     		ldr	r1, .L567
 4235 000c 484A     		ldr	r2, .L567+4
 4236 000e 8B42     		cmp	r3, r1
 4237 0010 18BF     		it	ne
 4238 0012 9342     		cmpne	r3, r2
 4239 0014 10D0     		beq	.L558
 4240 0016 02F57052 		add	r2, r2, #15360
 4241 001a 9342     		cmp	r3, r2
 4242 001c 0CD0     		beq	.L558
 4243 001e 02F58062 		add	r2, r2, #1024
 4244 0022 9342     		cmp	r3, r2
 4245 0024 08D0     		beq	.L558
 4246 0026 02F58062 		add	r2, r2, #1024
 4247 002a 9342     		cmp	r3, r2
 4248 002c 04D0     		beq	.L558
 4249 002e 40F29671 		movw	r1, #1942
 4250 0032 4048     		ldr	r0, .L567+8
 4251 0034 FFF7FEFF 		bl	assert_failed
 4252              	.L558:
 4253 0038 002D     		cmp	r5, #0
 4254 003a 18BF     		it	ne
 4255 003c 102D     		cmpne	r5, #16
 4256 003e 28D0     		beq	.L559
 4257 0040 B5F13003 		subs	r3, r5, #48
 4258 0044 18BF     		it	ne
 4259 0046 0123     		movne	r3, #1
 4260 0048 202D     		cmp	r5, #32
 4261 004a 22D0     		beq	.L559
 4262 004c 0BB3     		cbz	r3, .L559
 4263 004e B5F11013 		subs	r3, r5, #1048592
 4264 0052 18BF     		it	ne
 4265 0054 0123     		movne	r3, #1
 4266 0056 B5F5801F 		cmp	r5, #1048576
 4267 005a 1AD0     		beq	.L559
 4268 005c CBB1     		cbz	r3, .L559
 4269 005e 364B     		ldr	r3, .L567+12
 4270 0060 EB1A     		subs	r3, r5, r3
 4271 0062 18BF     		it	ne
 4272 0064 0123     		movne	r3, #1
 4273 0066 354A     		ldr	r2, .L567+16
 4274 0068 9542     		cmp	r5, r2
 4275 006a 12D0     		beq	.L559
 4276 006c 8BB1     		cbz	r3, .L559
ARM GAS  C:\Users\thewo\AppData\Local\Temp\ccnCGpzj.s 			page 75


 4277 006e B5F50012 		subs	r2, r5, #2097152
 4278 0072 18BF     		it	ne
 4279 0074 0122     		movne	r2, #1
 4280 0076 324B     		ldr	r3, .L567+20
 4281 0078 9D42     		cmp	r5, r3
 4282 007a 0AD0     		beq	.L559
 4283 007c 4AB1     		cbz	r2, .L559
 4284 007e 4FF6FF73 		movw	r3, #65535
 4285 0082 EB1A     		subs	r3, r5, r3
 4286 0084 18BF     		it	ne
 4287 0086 0123     		movne	r3, #1
 4288 0088 2E4A     		ldr	r2, .L567+24
 4289 008a 9542     		cmp	r5, r2
 4290 008c 01D0     		beq	.L559
 4291 008e 002B     		cmp	r3, #0
 4292 0090 3CD1     		bne	.L566
 4293              	.L559:
 4294 0092 94F83C30 		ldrb	r3, [r4, #60]	@ zero_extendqisi2
 4295 0096 012B     		cmp	r3, #1
 4296 0098 45D0     		beq	.L564
 4297 009a 0123     		movs	r3, #1
 4298 009c 84F83C30 		strb	r3, [r4, #60]
 4299 00a0 302D     		cmp	r5, #48
 4300 00a2 05D0     		beq	.L561
 4301 00a4 38D8     		bhi	.L562
 4302 00a6 102D     		cmp	r5, #16
 4303 00a8 02D0     		beq	.L561
 4304 00aa 202D     		cmp	r5, #32
 4305 00ac 00D0     		beq	.L561
 4306 00ae 45B9     		cbnz	r5, .L563
 4307              	.L561:
 4308 00b0 2268     		ldr	r2, [r4]
 4309 00b2 9168     		ldr	r1, [r2, #8]
 4310 00b4 244B     		ldr	r3, .L567+28
 4311 00b6 0B40     		ands	r3, r3, r1
 4312 00b8 9360     		str	r3, [r2, #8]
 4313 00ba 2268     		ldr	r2, [r4]
 4314 00bc 9368     		ldr	r3, [r2, #8]
 4315 00be 2B43     		orrs	r3, r3, r5
 4316 00c0 9360     		str	r3, [r2, #8]
 4317              	.L563:
 4318 00c2 2268     		ldr	r2, [r4]
 4319 00c4 5368     		ldr	r3, [r2, #4]
 4320 00c6 43F00103 		orr	r3, r3, #1
 4321 00ca 5360     		str	r3, [r2, #4]
 4322 00cc 2268     		ldr	r2, [r4]
 4323 00ce 5368     		ldr	r3, [r2, #4]
 4324 00d0 23F00403 		bic	r3, r3, #4
 4325 00d4 5360     		str	r3, [r2, #4]
 4326 00d6 2268     		ldr	r2, [r4]
 4327 00d8 5368     		ldr	r3, [r2, #4]
 4328 00da 3343     		orrs	r3, r3, r6
 4329 00dc 5360     		str	r3, [r2, #4]
 4330 00de 636B     		ldr	r3, [r4, #52]
 4331 00e0 1A4A     		ldr	r2, .L567+32
 4332 00e2 DA63     		str	r2, [r3, #60]
 4333 00e4 636B     		ldr	r3, [r4, #52]
ARM GAS  C:\Users\thewo\AppData\Local\Temp\ccnCGpzj.s 			page 76


 4334 00e6 1A4A     		ldr	r2, .L567+36
 4335 00e8 1A64     		str	r2, [r3, #64]
 4336 00ea 636B     		ldr	r3, [r4, #52]
 4337 00ec 194A     		ldr	r2, .L567+40
 4338 00ee DA64     		str	r2, [r3, #76]
 4339 00f0 2268     		ldr	r2, [r4]
 4340 00f2 D368     		ldr	r3, [r2, #12]
 4341 00f4 23F02003 		bic	r3, r3, #32
 4342 00f8 D360     		str	r3, [r2, #12]
 4343 00fa 2268     		ldr	r2, [r4]
 4344 00fc D368     		ldr	r3, [r2, #12]
 4345 00fe 43F40053 		orr	r3, r3, #8192
 4346 0102 D360     		str	r3, [r2, #12]
 4347 0104 0020     		movs	r0, #0
 4348 0106 84F83C00 		strb	r0, [r4, #60]
 4349              	.L560:
 4350 010a 70BD     		pop	{r4, r5, r6, pc}
 4351              	.L566:
 4352 010c 40F29771 		movw	r1, #1943
 4353 0110 0848     		ldr	r0, .L567+8
 4354 0112 FFF7FEFF 		bl	assert_failed
 4355 0116 BCE7     		b	.L559
 4356              	.L562:
 4357 0118 B5F5001F 		cmp	r5, #2097152
 4358 011c C8D0     		beq	.L561
 4359 011e 094B     		ldr	r3, .L567+24
 4360 0120 9D42     		cmp	r5, r3
 4361 0122 CED1     		bne	.L563
 4362 0124 C4E7     		b	.L561
 4363              	.L564:
 4364 0126 0220     		movs	r0, #2
 4365 0128 EFE7     		b	.L560
 4366              	.L568:
 4367 012a 00BF     		.align	2
 4368              	.L567:
 4369 012c 00000140 		.word	1073807360
 4370 0130 00040140 		.word	1073808384
 4371 0134 00000000 		.word	.LC0
 4372 0138 30001000 		.word	1048624
 4373 013c 20001000 		.word	1048608
 4374 0140 40001000 		.word	1048640
 4375 0144 10002000 		.word	2097168
 4376 0148 8FFFCFFF 		.word	-3145841
 4377 014c 00000000 		.word	TIMEx_DMACommutationCplt
 4378 0150 00000000 		.word	TIMEx_DMACommutationHalfCplt
 4379 0154 00000000 		.word	TIM_DMAError
 4381              		.section	.text.HAL_TIMEx_MasterConfigSynchronization,"ax",%progbits
 4382              		.align	1
 4383              		.global	HAL_TIMEx_MasterConfigSynchronization
 4384              		.syntax unified
 4385              		.thumb
 4386              		.thumb_func
 4388              	HAL_TIMEx_MasterConfigSynchronization:
 4389              		@ args = 0, pretend = 0, frame = 0
 4390              		@ frame_needed = 0, uses_anonymous_args = 0
 4391 0000 F8B5     		push	{r3, r4, r5, r6, r7, lr}
 4392 0002 0446     		mov	r4, r0
ARM GAS  C:\Users\thewo\AppData\Local\Temp\ccnCGpzj.s 			page 77


 4393 0004 0D46     		mov	r5, r1
 4394 0006 0368     		ldr	r3, [r0]
 4395 0008 6F4A     		ldr	r2, .L584
 4396 000a 9342     		cmp	r3, r2
 4397 000c 18BF     		it	ne
 4398 000e B3F1804F 		cmpne	r3, #1073741824
 4399 0012 2CD0     		beq	.L570
 4400 0014 A2F57C42 		sub	r2, r2, #64512
 4401 0018 9342     		cmp	r3, r2
 4402 001a 28D0     		beq	.L570
 4403 001c 02F58062 		add	r2, r2, #1024
 4404 0020 9342     		cmp	r3, r2
 4405 0022 24D0     		beq	.L570
 4406 0024 02F58062 		add	r2, r2, #1024
 4407 0028 9342     		cmp	r3, r2
 4408 002a 20D0     		beq	.L570
 4409 002c 02F58062 		add	r2, r2, #1024
 4410 0030 9342     		cmp	r3, r2
 4411 0032 1CD0     		beq	.L570
 4412 0034 02F58062 		add	r2, r2, #1024
 4413 0038 9342     		cmp	r3, r2
 4414 003a 18D0     		beq	.L570
 4415 003c 02F57042 		add	r2, r2, #61440
 4416 0040 9342     		cmp	r3, r2
 4417 0042 14D0     		beq	.L570
 4418 0044 A2F56C42 		sub	r2, r2, #60416
 4419 0048 9342     		cmp	r3, r2
 4420 004a 10D0     		beq	.L570
 4421 004c 02F59432 		add	r2, r2, #75776
 4422 0050 9342     		cmp	r3, r2
 4423 0052 0CD0     		beq	.L570
 4424 0054 A2F5C042 		sub	r2, r2, #24576
 4425 0058 9342     		cmp	r3, r2
 4426 005a 08D0     		beq	.L570
 4427 005c 02F58062 		add	r2, r2, #1024
 4428 0060 9342     		cmp	r3, r2
 4429 0062 04D0     		beq	.L570
 4430 0064 40F2CB71 		movw	r1, #1995
 4431 0068 5848     		ldr	r0, .L584+4
 4432 006a FFF7FEFF 		bl	assert_failed
 4433              	.L570:
 4434 006e 2B68     		ldr	r3, [r5]
 4435 0070 002B     		cmp	r3, #0
 4436 0072 18BF     		it	ne
 4437 0074 102B     		cmpne	r3, #16
 4438 0076 12D0     		beq	.L571
 4439 0078 502B     		cmp	r3, #80
 4440 007a 10D0     		beq	.L571
 4441 007c 06D8     		bhi	.L572
 4442 007e 302B     		cmp	r3, #48
 4443 0080 0DD0     		beq	.L571
 4444 0082 402B     		cmp	r3, #64
 4445 0084 0BD0     		beq	.L571
 4446 0086 202B     		cmp	r3, #32
 4447 0088 04D1     		bne	.L573
 4448 008a 08E0     		b	.L571
 4449              	.L572:
ARM GAS  C:\Users\thewo\AppData\Local\Temp\ccnCGpzj.s 			page 78


 4450 008c 602B     		cmp	r3, #96
 4451 008e 06D0     		beq	.L571
 4452 0090 702B     		cmp	r3, #112
 4453 0092 04D0     		beq	.L571
 4454              	.L573:
 4455 0094 40F2CC71 		movw	r1, #1996
 4456 0098 4C48     		ldr	r0, .L584+4
 4457 009a FFF7FEFF 		bl	assert_failed
 4458              	.L571:
 4459 009e AB68     		ldr	r3, [r5, #8]
 4460 00a0 802B     		cmp	r3, #128
 4461 00a2 18BF     		it	ne
 4462 00a4 002B     		cmpne	r3, #0
 4463 00a6 40F08180 		bne	.L582
 4464              	.L574:
 4465 00aa 94F83C30 		ldrb	r3, [r4, #60]	@ zero_extendqisi2
 4466 00ae 012B     		cmp	r3, #1
 4467 00b0 00F08880 		beq	.L580
 4468 00b4 0123     		movs	r3, #1
 4469 00b6 84F83C30 		strb	r3, [r4, #60]
 4470 00ba 0223     		movs	r3, #2
 4471 00bc 84F83D30 		strb	r3, [r4, #61]
 4472 00c0 2368     		ldr	r3, [r4]
 4473 00c2 5E68     		ldr	r6, [r3, #4]
 4474 00c4 9F68     		ldr	r7, [r3, #8]
 4475 00c6 4049     		ldr	r1, .L584
 4476 00c8 414A     		ldr	r2, .L584+8
 4477 00ca 9342     		cmp	r3, r2
 4478 00cc 18BF     		it	ne
 4479 00ce 8B42     		cmpne	r3, r1
 4480 00d0 33D1     		bne	.L576
 4481 00d2 6B68     		ldr	r3, [r5, #4]
 4482 00d4 002B     		cmp	r3, #0
 4483 00d6 18BF     		it	ne
 4484 00d8 B3F5801F 		cmpne	r3, #1048576
 4485 00dc 29D0     		beq	.L577
 4486 00de B3F5001F 		cmp	r3, #2097152
 4487 00e2 26D0     		beq	.L577
 4488 00e4 B3F5401F 		cmp	r3, #3145728
 4489 00e8 23D0     		beq	.L577
 4490 00ea B3F5800F 		cmp	r3, #4194304
 4491 00ee 20D0     		beq	.L577
 4492 00f0 B3F5A00F 		cmp	r3, #5242880
 4493 00f4 1DD0     		beq	.L577
 4494 00f6 B3F5C00F 		cmp	r3, #6291456
 4495 00fa 1AD0     		beq	.L577
 4496 00fc B3F5E00F 		cmp	r3, #7340032
 4497 0100 17D0     		beq	.L577
 4498 0102 B3F5000F 		cmp	r3, #8388608
 4499 0106 14D0     		beq	.L577
 4500 0108 B3F5100F 		cmp	r3, #9437184
 4501 010c 11D0     		beq	.L577
 4502 010e B3F5200F 		cmp	r3, #10485760
 4503 0112 0ED0     		beq	.L577
 4504 0114 B3F5300F 		cmp	r3, #11534336
 4505 0118 0BD0     		beq	.L577
 4506 011a B3F5400F 		cmp	r3, #12582912
ARM GAS  C:\Users\thewo\AppData\Local\Temp\ccnCGpzj.s 			page 79


 4507 011e 08D0     		beq	.L577
 4508 0120 B3F5500F 		cmp	r3, #13631488
 4509 0124 05D0     		beq	.L577
 4510 0126 B3F5600F 		cmp	r3, #14680064
 4511 012a 02D0     		beq	.L577
 4512 012c B3F5700F 		cmp	r3, #15728640
 4513 0130 42D1     		bne	.L583
 4514              	.L577:
 4515 0132 26F47006 		bic	r6, r6, #15728640
 4516 0136 6B68     		ldr	r3, [r5, #4]
 4517 0138 1E43     		orrs	r6, r6, r3
 4518              	.L576:
 4519 013a 26F07006 		bic	r6, r6, #112
 4520 013e 2B68     		ldr	r3, [r5]
 4521 0140 3343     		orrs	r3, r3, r6
 4522 0142 2268     		ldr	r2, [r4]
 4523 0144 5360     		str	r3, [r2, #4]
 4524 0146 2368     		ldr	r3, [r4]
 4525 0148 1F4A     		ldr	r2, .L584
 4526 014a B3F1804F 		cmp	r3, #1073741824
 4527 014e 18BF     		it	ne
 4528 0150 9342     		cmpne	r3, r2
 4529 0152 1FD0     		beq	.L578
 4530 0154 A2F57C42 		sub	r2, r2, #64512
 4531 0158 9342     		cmp	r3, r2
 4532 015a 1BD0     		beq	.L578
 4533 015c 02F58062 		add	r2, r2, #1024
 4534 0160 9342     		cmp	r3, r2
 4535 0162 17D0     		beq	.L578
 4536 0164 02F58062 		add	r2, r2, #1024
 4537 0168 9342     		cmp	r3, r2
 4538 016a 13D0     		beq	.L578
 4539 016c 02F57842 		add	r2, r2, #63488
 4540 0170 9342     		cmp	r3, r2
 4541 0172 0FD0     		beq	.L578
 4542 0174 A2F56C42 		sub	r2, r2, #60416
 4543 0178 9342     		cmp	r3, r2
 4544 017a 0BD0     		beq	.L578
 4545 017c 02F59432 		add	r2, r2, #75776
 4546 0180 9342     		cmp	r3, r2
 4547 0182 07D0     		beq	.L578
 4548 0184 A2F5C042 		sub	r2, r2, #24576
 4549 0188 9342     		cmp	r3, r2
 4550 018a 03D0     		beq	.L578
 4551 018c 02F58062 		add	r2, r2, #1024
 4552 0190 9342     		cmp	r3, r2
 4553 0192 04D1     		bne	.L579
 4554              	.L578:
 4555 0194 27F08007 		bic	r7, r7, #128
 4556 0198 AA68     		ldr	r2, [r5, #8]
 4557 019a 3A43     		orrs	r2, r2, r7
 4558 019c 9A60     		str	r2, [r3, #8]
 4559              	.L579:
 4560 019e 0123     		movs	r3, #1
 4561 01a0 84F83D30 		strb	r3, [r4, #61]
 4562 01a4 0020     		movs	r0, #0
 4563 01a6 84F83C00 		strb	r0, [r4, #60]
ARM GAS  C:\Users\thewo\AppData\Local\Temp\ccnCGpzj.s 			page 80


 4564              	.L575:
 4565 01aa F8BD     		pop	{r3, r4, r5, r6, r7, pc}
 4566              	.L582:
 4567 01ac 40F2CD71 		movw	r1, #1997
 4568 01b0 0648     		ldr	r0, .L584+4
 4569 01b2 FFF7FEFF 		bl	assert_failed
 4570 01b6 78E7     		b	.L574
 4571              	.L583:
 4572 01b8 40F2DF71 		movw	r1, #2015
 4573 01bc 0348     		ldr	r0, .L584+4
 4574 01be FFF7FEFF 		bl	assert_failed
 4575 01c2 B6E7     		b	.L577
 4576              	.L580:
 4577 01c4 0220     		movs	r0, #2
 4578 01c6 F0E7     		b	.L575
 4579              	.L585:
 4580              		.align	2
 4581              	.L584:
 4582 01c8 00000140 		.word	1073807360
 4583 01cc 00000000 		.word	.LC0
 4584 01d0 00040140 		.word	1073808384
 4586              		.section	.text.HAL_TIMEx_ConfigBreakDeadTime,"ax",%progbits
 4587              		.align	1
 4588              		.global	HAL_TIMEx_ConfigBreakDeadTime
 4589              		.syntax unified
 4590              		.thumb
 4591              		.thumb_func
 4593              	HAL_TIMEx_ConfigBreakDeadTime:
 4594              		@ args = 0, pretend = 0, frame = 0
 4595              		@ frame_needed = 0, uses_anonymous_args = 0
 4596 0000 70B5     		push	{r4, r5, r6, lr}
 4597 0002 0646     		mov	r6, r0
 4598 0004 0D46     		mov	r5, r1
 4599 0006 0368     		ldr	r3, [r0]
 4600 0008 8149     		ldr	r1, .L618
 4601 000a 824A     		ldr	r2, .L618+4
 4602 000c 8B42     		cmp	r3, r1
 4603 000e 18BF     		it	ne
 4604 0010 9342     		cmpne	r3, r2
 4605 0012 10D0     		beq	.L587
 4606 0014 02F57052 		add	r2, r2, #15360
 4607 0018 9342     		cmp	r3, r2
 4608 001a 0CD0     		beq	.L587
 4609 001c 02F58062 		add	r2, r2, #1024
 4610 0020 9342     		cmp	r3, r2
 4611 0022 08D0     		beq	.L587
 4612 0024 02F58062 		add	r2, r2, #1024
 4613 0028 9342     		cmp	r3, r2
 4614 002a 04D0     		beq	.L587
 4615 002c 40F61401 		movw	r1, #2068
 4616 0030 7948     		ldr	r0, .L618+8
 4617 0032 FFF7FEFF 		bl	assert_failed
 4618              	.L587:
 4619 0036 2B68     		ldr	r3, [r5]
 4620 0038 B3F5006F 		cmp	r3, #2048
 4621 003c 18BF     		it	ne
 4622 003e 002B     		cmpne	r3, #0
ARM GAS  C:\Users\thewo\AppData\Local\Temp\ccnCGpzj.s 			page 81


 4623 0040 40F09580 		bne	.L605
 4624              	.L588:
 4625 0044 6B68     		ldr	r3, [r5, #4]
 4626 0046 B3F5806F 		cmp	r3, #1024
 4627 004a 18BF     		it	ne
 4628 004c 002B     		cmpne	r3, #0
 4629 004e 40F09480 		bne	.L606
 4630              	.L589:
 4631 0052 AB68     		ldr	r3, [r5, #8]
 4632 0054 002B     		cmp	r3, #0
 4633 0056 18BF     		it	ne
 4634 0058 B3F5807F 		cmpne	r3, #256
 4635 005c 06D0     		beq	.L590
 4636 005e B3F5007F 		cmp	r3, #512
 4637 0062 03D0     		beq	.L590
 4638 0064 B3F5407F 		cmp	r3, #768
 4639 0068 40F08D80 		bne	.L607
 4640              	.L590:
 4641 006c EB68     		ldr	r3, [r5, #12]
 4642 006e FF2B     		cmp	r3, #255
 4643 0070 00F28F80 		bhi	.L608
 4644              	.L591:
 4645 0074 2B69     		ldr	r3, [r5, #16]
 4646 0076 B3F5805F 		cmp	r3, #4096
 4647 007a 18BF     		it	ne
 4648 007c 002B     		cmpne	r3, #0
 4649 007e 40F08E80 		bne	.L609
 4650              	.L592:
 4651 0082 6B69     		ldr	r3, [r5, #20]
 4652 0084 002B     		cmp	r3, #0
 4653 0086 18BF     		it	ne
 4654 0088 B3F5005F 		cmpne	r3, #8192
 4655 008c 40F08D80 		bne	.L610
 4656              	.L593:
 4657 0090 AB69     		ldr	r3, [r5, #24]
 4658 0092 0F2B     		cmp	r3, #15
 4659 0094 00F28F80 		bhi	.L611
 4660              	.L594:
 4661 0098 2B6B     		ldr	r3, [r5, #48]
 4662 009a B3F5804F 		cmp	r3, #16384
 4663 009e 18BF     		it	ne
 4664 00a0 002B     		cmpne	r3, #0
 4665 00a2 40F08E80 		bne	.L612
 4666              	.L595:
 4667 00a6 EB69     		ldr	r3, [r5, #28]
 4668 00a8 002B     		cmp	r3, #0
 4669 00aa 18BF     		it	ne
 4670 00ac B3F1805F 		cmpne	r3, #268435456
 4671 00b0 40F08D80 		bne	.L613
 4672              	.L596:
 4673 00b4 96F83C30 		ldrb	r3, [r6, #60]	@ zero_extendqisi2
 4674 00b8 012B     		cmp	r3, #1
 4675 00ba 00F0A680 		beq	.L603
 4676 00be 0123     		movs	r3, #1
 4677 00c0 86F83C30 		strb	r3, [r6, #60]
 4678 00c4 EB68     		ldr	r3, [r5, #12]
 4679 00c6 23F44074 		bic	r4, r3, #768
ARM GAS  C:\Users\thewo\AppData\Local\Temp\ccnCGpzj.s 			page 82


 4680 00ca AB68     		ldr	r3, [r5, #8]
 4681 00cc 1C43     		orrs	r4, r4, r3
 4682 00ce 24F48064 		bic	r4, r4, #1024
 4683 00d2 6B68     		ldr	r3, [r5, #4]
 4684 00d4 1C43     		orrs	r4, r4, r3
 4685 00d6 24F40064 		bic	r4, r4, #2048
 4686 00da 2B68     		ldr	r3, [r5]
 4687 00dc 1C43     		orrs	r4, r4, r3
 4688 00de 24F48054 		bic	r4, r4, #4096
 4689 00e2 2B69     		ldr	r3, [r5, #16]
 4690 00e4 1C43     		orrs	r4, r4, r3
 4691 00e6 24F40054 		bic	r4, r4, #8192
 4692 00ea 6B69     		ldr	r3, [r5, #20]
 4693 00ec 1C43     		orrs	r4, r4, r3
 4694 00ee 24F48044 		bic	r4, r4, #16384
 4695 00f2 2B6B     		ldr	r3, [r5, #48]
 4696 00f4 1C43     		orrs	r4, r4, r3
 4697 00f6 24F47024 		bic	r4, r4, #983040
 4698 00fa AB69     		ldr	r3, [r5, #24]
 4699 00fc 44EA0344 		orr	r4, r4, r3, lsl #16
 4700 0100 24F08054 		bic	r4, r4, #268435456
 4701 0104 EB69     		ldr	r3, [r5, #28]
 4702 0106 1C43     		orrs	r4, r4, r3
 4703 0108 3368     		ldr	r3, [r6]
 4704 010a 4149     		ldr	r1, .L618
 4705 010c 414A     		ldr	r2, .L618+4
 4706 010e 9342     		cmp	r3, r2
 4707 0110 18BF     		it	ne
 4708 0112 8B42     		cmpne	r3, r1
 4709 0114 25D1     		bne	.L598
 4710 0116 2B6A     		ldr	r3, [r5, #32]
 4711 0118 B3F1807F 		cmp	r3, #16777216
 4712 011c 18BF     		it	ne
 4713 011e 002B     		cmpne	r3, #0
 4714 0120 5BD1     		bne	.L614
 4715              	.L599:
 4716 0122 6B6A     		ldr	r3, [r5, #36]
 4717 0124 002B     		cmp	r3, #0
 4718 0126 18BF     		it	ne
 4719 0128 B3F1007F 		cmpne	r3, #33554432
 4720 012c 5BD1     		bne	.L615
 4721              	.L600:
 4722 012e AB6A     		ldr	r3, [r5, #40]
 4723 0130 0F2B     		cmp	r3, #15
 4724 0132 5ED8     		bhi	.L616
 4725              	.L601:
 4726 0134 EB6A     		ldr	r3, [r5, #44]
 4727 0136 002B     		cmp	r3, #0
 4728 0138 18BF     		it	ne
 4729 013a B3F1005F 		cmpne	r3, #536870912
 4730 013e 5ED1     		bne	.L617
 4731              	.L602:
 4732 0140 24F47004 		bic	r4, r4, #15728640
 4733 0144 AB6A     		ldr	r3, [r5, #40]
 4734 0146 44EA0354 		orr	r4, r4, r3, lsl #20
 4735 014a 24F08074 		bic	r4, r4, #16777216
 4736 014e 2B6A     		ldr	r3, [r5, #32]
ARM GAS  C:\Users\thewo\AppData\Local\Temp\ccnCGpzj.s 			page 83


 4737 0150 1C43     		orrs	r4, r4, r3
 4738 0152 24F00074 		bic	r4, r4, #33554432
 4739 0156 6B6A     		ldr	r3, [r5, #36]
 4740 0158 1C43     		orrs	r4, r4, r3
 4741 015a 24F00054 		bic	r4, r4, #536870912
 4742 015e EB6A     		ldr	r3, [r5, #44]
 4743 0160 1C43     		orrs	r4, r4, r3
 4744              	.L598:
 4745 0162 3368     		ldr	r3, [r6]
 4746 0164 5C64     		str	r4, [r3, #68]
 4747 0166 0020     		movs	r0, #0
 4748 0168 86F83C00 		strb	r0, [r6, #60]
 4749              	.L597:
 4750 016c 70BD     		pop	{r4, r5, r6, pc}
 4751              	.L605:
 4752 016e 40F61501 		movw	r1, #2069
 4753 0172 2948     		ldr	r0, .L618+8
 4754 0174 FFF7FEFF 		bl	assert_failed
 4755 0178 64E7     		b	.L588
 4756              	.L606:
 4757 017a 40F61601 		movw	r1, #2070
 4758 017e 2648     		ldr	r0, .L618+8
 4759 0180 FFF7FEFF 		bl	assert_failed
 4760 0184 65E7     		b	.L589
 4761              	.L607:
 4762 0186 40F61701 		movw	r1, #2071
 4763 018a 2348     		ldr	r0, .L618+8
 4764 018c FFF7FEFF 		bl	assert_failed
 4765 0190 6CE7     		b	.L590
 4766              	.L608:
 4767 0192 40F61801 		movw	r1, #2072
 4768 0196 2048     		ldr	r0, .L618+8
 4769 0198 FFF7FEFF 		bl	assert_failed
 4770 019c 6AE7     		b	.L591
 4771              	.L609:
 4772 019e 40F61901 		movw	r1, #2073
 4773 01a2 1D48     		ldr	r0, .L618+8
 4774 01a4 FFF7FEFF 		bl	assert_failed
 4775 01a8 6BE7     		b	.L592
 4776              	.L610:
 4777 01aa 40F61A01 		movw	r1, #2074
 4778 01ae 1A48     		ldr	r0, .L618+8
 4779 01b0 FFF7FEFF 		bl	assert_failed
 4780 01b4 6CE7     		b	.L593
 4781              	.L611:
 4782 01b6 40F61B01 		movw	r1, #2075
 4783 01ba 1748     		ldr	r0, .L618+8
 4784 01bc FFF7FEFF 		bl	assert_failed
 4785 01c0 6AE7     		b	.L594
 4786              	.L612:
 4787 01c2 40F61C01 		movw	r1, #2076
 4788 01c6 1448     		ldr	r0, .L618+8
 4789 01c8 FFF7FEFF 		bl	assert_failed
 4790 01cc 6BE7     		b	.L595
 4791              	.L613:
 4792 01ce 40F61E01 		movw	r1, #2078
 4793 01d2 1148     		ldr	r0, .L618+8
ARM GAS  C:\Users\thewo\AppData\Local\Temp\ccnCGpzj.s 			page 84


 4794 01d4 FFF7FEFF 		bl	assert_failed
 4795 01d8 6CE7     		b	.L596
 4796              	.L614:
 4797 01da 40F63701 		movw	r1, #2103
 4798 01de 0E48     		ldr	r0, .L618+8
 4799 01e0 FFF7FEFF 		bl	assert_failed
 4800 01e4 9DE7     		b	.L599
 4801              	.L615:
 4802 01e6 40F63801 		movw	r1, #2104
 4803 01ea 0B48     		ldr	r0, .L618+8
 4804 01ec FFF7FEFF 		bl	assert_failed
 4805 01f0 9DE7     		b	.L600
 4806              	.L616:
 4807 01f2 40F63901 		movw	r1, #2105
 4808 01f6 0848     		ldr	r0, .L618+8
 4809 01f8 FFF7FEFF 		bl	assert_failed
 4810 01fc 9AE7     		b	.L601
 4811              	.L617:
 4812 01fe 40F63B01 		movw	r1, #2107
 4813 0202 0548     		ldr	r0, .L618+8
 4814 0204 FFF7FEFF 		bl	assert_failed
 4815 0208 9AE7     		b	.L602
 4816              	.L603:
 4817 020a 0220     		movs	r0, #2
 4818 020c AEE7     		b	.L597
 4819              	.L619:
 4820 020e 00BF     		.align	2
 4821              	.L618:
 4822 0210 00000140 		.word	1073807360
 4823 0214 00040140 		.word	1073808384
 4824 0218 00000000 		.word	.LC0
 4826              		.section	.text.HAL_TIMEx_ConfigBreakInput,"ax",%progbits
 4827              		.align	1
 4828              		.global	HAL_TIMEx_ConfigBreakInput
 4829              		.syntax unified
 4830              		.thumb
 4831              		.thumb_func
 4833              	HAL_TIMEx_ConfigBreakInput:
 4834              		@ args = 0, pretend = 0, frame = 0
 4835              		@ frame_needed = 0, uses_anonymous_args = 0
 4836 0000 F8B5     		push	{r3, r4, r5, r6, r7, lr}
 4837 0002 0546     		mov	r5, r0
 4838 0004 0E46     		mov	r6, r1
 4839 0006 1446     		mov	r4, r2
 4840 0008 0368     		ldr	r3, [r0]
 4841 000a 5249     		ldr	r1, .L645
 4842 000c 524A     		ldr	r2, .L645+4
 4843 000e 8B42     		cmp	r3, r1
 4844 0010 18BF     		it	ne
 4845 0012 9342     		cmpne	r3, r2
 4846 0014 10D0     		beq	.L621
 4847 0016 02F57052 		add	r2, r2, #15360
 4848 001a 9342     		cmp	r3, r2
 4849 001c 0CD0     		beq	.L621
 4850 001e 02F58062 		add	r2, r2, #1024
 4851 0022 9342     		cmp	r3, r2
 4852 0024 08D0     		beq	.L621
ARM GAS  C:\Users\thewo\AppData\Local\Temp\ccnCGpzj.s 			page 85


 4853 0026 02F58062 		add	r2, r2, #1024
 4854 002a 9342     		cmp	r3, r2
 4855 002c 04D0     		beq	.L621
 4856 002e 40F66601 		movw	r1, #2150
 4857 0032 4A48     		ldr	r0, .L645+8
 4858 0034 FFF7FEFF 		bl	assert_failed
 4859              	.L621:
 4860 0038 731E     		subs	r3, r6, #1
 4861 003a 012B     		cmp	r3, #1
 4862 003c 21D8     		bhi	.L641
 4863              	.L622:
 4864 003e 2368     		ldr	r3, [r4]
 4865 0040 5A1E     		subs	r2, r3, #1
 4866 0042 042B     		cmp	r3, #4
 4867 0044 18BF     		it	ne
 4868 0046 012A     		cmpne	r2, #1
 4869 0048 01D9     		bls	.L623
 4870 004a 082B     		cmp	r3, #8
 4871 004c 1FD1     		bne	.L642
 4872              	.L623:
 4873 004e 6368     		ldr	r3, [r4, #4]
 4874 0050 012B     		cmp	r3, #1
 4875 0052 22D8     		bhi	.L643
 4876              	.L624:
 4877 0054 2368     		ldr	r3, [r4]
 4878 0056 082B     		cmp	r3, #8
 4879 0058 02D0     		beq	.L625
 4880 005a A368     		ldr	r3, [r4, #8]
 4881 005c 012B     		cmp	r3, #1
 4882 005e 22D8     		bhi	.L644
 4883              	.L625:
 4884 0060 95F83C30 		ldrb	r3, [r5, #60]	@ zero_extendqisi2
 4885 0064 012B     		cmp	r3, #1
 4886 0066 72D0     		beq	.L638
 4887 0068 0123     		movs	r3, #1
 4888 006a 85F83C30 		strb	r3, [r5, #60]
 4889 006e 2268     		ldr	r2, [r4]
 4890 0070 531E     		subs	r3, r2, #1
 4891 0072 072B     		cmp	r3, #7
 4892 0074 31D8     		bhi	.L627
 4893 0076 DFE803F0 		tbb	[pc, r3]
 4894              	.L629:
 4895 007a 1C       		.byte	(.L632-.L629)/2
 4896 007b 3A       		.byte	(.L639-.L629)/2
 4897 007c 30       		.byte	(.L627-.L629)/2
 4898 007d 23       		.byte	(.L630-.L629)/2
 4899 007e 30       		.byte	(.L627-.L629)/2
 4900 007f 30       		.byte	(.L627-.L629)/2
 4901 0080 30       		.byte	(.L627-.L629)/2
 4902 0081 2A       		.byte	(.L628-.L629)/2
 4903              		.p2align 1
 4904              	.L641:
 4905 0082 40F66701 		movw	r1, #2151
 4906 0086 3548     		ldr	r0, .L645+8
 4907 0088 FFF7FEFF 		bl	assert_failed
 4908 008c D7E7     		b	.L622
 4909              	.L642:
ARM GAS  C:\Users\thewo\AppData\Local\Temp\ccnCGpzj.s 			page 86


 4910 008e 40F66801 		movw	r1, #2152
 4911 0092 3248     		ldr	r0, .L645+8
 4912 0094 FFF7FEFF 		bl	assert_failed
 4913 0098 D9E7     		b	.L623
 4914              	.L643:
 4915 009a 40F66901 		movw	r1, #2153
 4916 009e 2F48     		ldr	r0, .L645+8
 4917 00a0 FFF7FEFF 		bl	assert_failed
 4918 00a4 D6E7     		b	.L624
 4919              	.L644:
 4920 00a6 40F66C01 		movw	r1, #2156
 4921 00aa 2C48     		ldr	r0, .L645+8
 4922 00ac FFF7FEFF 		bl	assert_failed
 4923 00b0 D6E7     		b	.L625
 4924              	.L632:
 4925 00b2 9446     		mov	ip, r2
 4926 00b4 0921     		movs	r1, #9
 4927 00b6 4FF0000E 		mov	lr, #0
 4928 00ba 4FF40070 		mov	r0, #512
 4929 00be 10E0     		b	.L631
 4930              	.L630:
 4931 00c0 9446     		mov	ip, r2
 4932 00c2 0B21     		movs	r1, #11
 4933 00c4 4FF0020E 		mov	lr, #2
 4934 00c8 4FF40060 		mov	r0, #2048
 4935 00cc 09E0     		b	.L631
 4936              	.L628:
 4937 00ce 9646     		mov	lr, r2
 4938 00d0 0021     		movs	r1, #0
 4939 00d2 0846     		mov	r0, r1
 4940 00d4 4FF4807C 		mov	ip, #256
 4941 00d8 03E0     		b	.L631
 4942              	.L627:
 4943 00da 0021     		movs	r1, #0
 4944 00dc 8E46     		mov	lr, r1
 4945 00de 0846     		mov	r0, r1
 4946 00e0 8C46     		mov	ip, r1
 4947              	.L631:
 4948 00e2 012E     		cmp	r6, #1
 4949 00e4 0AD0     		beq	.L633
 4950 00e6 022E     		cmp	r6, #2
 4951 00e8 1ED0     		beq	.L634
 4952 00ea 0120     		movs	r0, #1
 4953 00ec 18E0     		b	.L635
 4954              	.L639:
 4955 00ee 9446     		mov	ip, r2
 4956 00f0 0A21     		movs	r1, #10
 4957 00f2 4FF0010E 		mov	lr, #1
 4958 00f6 4FF48060 		mov	r0, #1024
 4959 00fa F2E7     		b	.L631
 4960              	.L633:
 4961 00fc 2E68     		ldr	r6, [r5]
 4962 00fe 376E     		ldr	r7, [r6, #96]
 4963 0100 6368     		ldr	r3, [r4, #4]
 4964 0102 03FA0EF3 		lsl	r3, r3, lr
 4965 0106 7B40     		eors	r3, r3, r7
 4966 0108 03EA0C03 		and	r3, r3, ip
ARM GAS  C:\Users\thewo\AppData\Local\Temp\ccnCGpzj.s 			page 87


 4967 010c 7B40     		eors	r3, r3, r7
 4968 010e 082A     		cmp	r2, #8
 4969 0110 04D0     		beq	.L636
 4970 0112 A268     		ldr	r2, [r4, #8]
 4971 0114 8A40     		lsls	r2, r2, r1
 4972 0116 5A40     		eors	r2, r2, r3
 4973 0118 0240     		ands	r2, r2, r0
 4974 011a 5340     		eors	r3, r3, r2
 4975              	.L636:
 4976 011c 3366     		str	r3, [r6, #96]
 4977 011e 0020     		movs	r0, #0
 4978              	.L635:
 4979 0120 0023     		movs	r3, #0
 4980 0122 85F83C30 		strb	r3, [r5, #60]
 4981              	.L626:
 4982 0126 F8BD     		pop	{r3, r4, r5, r6, r7, pc}
 4983              	.L634:
 4984 0128 2F68     		ldr	r7, [r5]
 4985 012a 7E6E     		ldr	r6, [r7, #100]
 4986 012c 6368     		ldr	r3, [r4, #4]
 4987 012e 03FA0EF3 		lsl	r3, r3, lr
 4988 0132 7340     		eors	r3, r3, r6
 4989 0134 03EA0C03 		and	r3, r3, ip
 4990 0138 7340     		eors	r3, r3, r6
 4991 013a 082A     		cmp	r2, #8
 4992 013c 04D0     		beq	.L637
 4993 013e A268     		ldr	r2, [r4, #8]
 4994 0140 8A40     		lsls	r2, r2, r1
 4995 0142 5A40     		eors	r2, r2, r3
 4996 0144 0240     		ands	r2, r2, r0
 4997 0146 5340     		eors	r3, r3, r2
 4998              	.L637:
 4999 0148 7B66     		str	r3, [r7, #100]
 5000 014a 0020     		movs	r0, #0
 5001 014c E8E7     		b	.L635
 5002              	.L638:
 5003 014e 0220     		movs	r0, #2
 5004 0150 E9E7     		b	.L626
 5005              	.L646:
 5006 0152 00BF     		.align	2
 5007              	.L645:
 5008 0154 00000140 		.word	1073807360
 5009 0158 00040140 		.word	1073808384
 5010 015c 00000000 		.word	.LC0
 5012              		.section	.text.HAL_TIMEx_RemapConfig,"ax",%progbits
 5013              		.align	1
 5014              		.global	HAL_TIMEx_RemapConfig
 5015              		.syntax unified
 5016              		.thumb
 5017              		.thumb_func
 5019              	HAL_TIMEx_RemapConfig:
 5020              		@ args = 0, pretend = 0, frame = 0
 5021              		@ frame_needed = 0, uses_anonymous_args = 0
 5022 0000 2DE9F041 		push	{r4, r5, r6, r7, r8, lr}
 5023 0004 0546     		mov	r5, r0
 5024 0006 0C46     		mov	r4, r1
 5025 0008 0368     		ldr	r3, [r0]
ARM GAS  C:\Users\thewo\AppData\Local\Temp\ccnCGpzj.s 			page 88


 5026 000a 494A     		ldr	r2, .L654
 5027 000c 9342     		cmp	r3, r2
 5028 000e 18BF     		it	ne
 5029 0010 B3F1804F 		cmpne	r3, #1073741824
 5030 0014 20D0     		beq	.L648
 5031 0016 A2F57C42 		sub	r2, r2, #64512
 5032 001a 9342     		cmp	r3, r2
 5033 001c 1CD0     		beq	.L648
 5034 001e 02F50062 		add	r2, r2, #2048
 5035 0022 9342     		cmp	r3, r2
 5036 0024 18D0     		beq	.L648
 5037 0026 02F57842 		add	r2, r2, #63488
 5038 002a 9342     		cmp	r3, r2
 5039 002c 14D0     		beq	.L648
 5040 002e 02F58042 		add	r2, r2, #16384
 5041 0032 9342     		cmp	r3, r2
 5042 0034 10D0     		beq	.L648
 5043 0036 02F58062 		add	r2, r2, #1024
 5044 003a 9342     		cmp	r3, r2
 5045 003c 0CD0     		beq	.L648
 5046 003e A2F5D042 		sub	r2, r2, #26624
 5047 0042 9342     		cmp	r3, r2
 5048 0044 08D0     		beq	.L648
 5049 0046 02F58062 		add	r2, r2, #1024
 5050 004a 9342     		cmp	r3, r2
 5051 004c 04D0     		beq	.L648
 5052 004e 40F61411 		movw	r1, #2324
 5053 0052 3848     		ldr	r0, .L654+4
 5054 0054 FFF7FEFF 		bl	assert_failed
 5055              	.L648:
 5056 0058 231E     		subs	r3, r4, #0
 5057 005a 18BF     		it	ne
 5058 005c 0123     		movne	r3, #1
 5059 005e B4F54042 		subs	r2, r4, #49152
 5060 0062 18BF     		it	ne
 5061 0064 0122     		movne	r2, #1
 5062 0066 1342     		tst	r3, r2
 5063 0068 47D0     		beq	.L649
 5064 006a B4F58031 		subs	r1, r4, #65536
 5065 006e 18BF     		it	ne
 5066 0070 0121     		movne	r1, #1
 5067 0072 B4F5A030 		subs	r0, r4, #81920
 5068 0076 18BF     		it	ne
 5069 0078 0120     		movne	r0, #1
 5070 007a 0029     		cmp	r1, #0
 5071 007c 3DD0     		beq	.L649
 5072 007e 0028     		cmp	r0, #0
 5073 0080 3BD0     		beq	.L649
 5074 0082 B4F5C036 		subs	r6, r4, #98304
 5075 0086 18BF     		it	ne
 5076 0088 0126     		movne	r6, #1
 5077 008a B4F5E037 		subs	r7, r4, #114688
 5078 008e 18BF     		it	ne
 5079 0090 0127     		movne	r7, #1
 5080 0092 96B3     		cbz	r6, .L649
 5081 0094 8FB3     		cbz	r7, .L649
 5082 0096 B4F5003C 		subs	ip, r4, #131072
ARM GAS  C:\Users\thewo\AppData\Local\Temp\ccnCGpzj.s 			page 89


 5083 009a 18BF     		it	ne
 5084 009c 4FF0010C 		movne	ip, #1
 5085 00a0 B4F5804E 		subs	lr, r4, #16384
 5086 00a4 18BF     		it	ne
 5087 00a6 4FF0010E 		movne	lr, #1
 5088 00aa BCF1000F 		cmp	ip, #0
 5089 00ae 24D0     		beq	.L649
 5090 00b0 BEF1000F 		cmp	lr, #0
 5091 00b4 21D0     		beq	.L649
 5092 00b6 B4F50048 		subs	r8, r4, #32768
 5093 00ba 18BF     		it	ne
 5094 00bc 4FF00108 		movne	r8, #1
 5095 00c0 DBB1     		cbz	r3, .L649
 5096 00c2 B8F1000F 		cmp	r8, #0
 5097 00c6 18D0     		beq	.L649
 5098 00c8 BAB1     		cbz	r2, .L649
 5099 00ca B1B1     		cbz	r1, .L649
 5100 00cc A8B1     		cbz	r0, .L649
 5101 00ce A6B1     		cbz	r6, .L649
 5102 00d0 9FB1     		cbz	r7, .L649
 5103 00d2 BCF1000F 		cmp	ip, #0
 5104 00d6 10D0     		beq	.L649
 5105 00d8 BEF1000F 		cmp	lr, #0
 5106 00dc 0DD0     		beq	.L649
 5107 00de B8F1000F 		cmp	r8, #0
 5108 00e2 0AD0     		beq	.L649
 5109 00e4 4BB1     		cbz	r3, .L649
 5110 00e6 BEF1000F 		cmp	lr, #0
 5111 00ea 06D0     		beq	.L649
 5112 00ec 2AB1     		cbz	r2, .L649
 5113 00ee B8F1000F 		cmp	r8, #0
 5114 00f2 02D0     		beq	.L649
 5115 00f4 B4F5803F 		cmp	r4, #65536
 5116 00f8 11D1     		bne	.L653
 5117              	.L649:
 5118 00fa 95F83C30 		ldrb	r3, [r5, #60]	@ zero_extendqisi2
 5119 00fe 012B     		cmp	r3, #1
 5120 0100 13D0     		beq	.L651
 5121 0102 0123     		movs	r3, #1
 5122 0104 85F83C30 		strb	r3, [r5, #60]
 5123 0108 2A68     		ldr	r2, [r5]
 5124 010a 136E     		ldr	r3, [r2, #96]
 5125 010c 23F47033 		bic	r3, r3, #245760
 5126 0110 2343     		orrs	r3, r3, r4
 5127 0112 1366     		str	r3, [r2, #96]
 5128 0114 0020     		movs	r0, #0
 5129 0116 85F83C00 		strb	r0, [r5, #60]
 5130              	.L650:
 5131 011a BDE8F081 		pop	{r4, r5, r6, r7, r8, pc}
 5132              	.L653:
 5133 011e 40F61511 		movw	r1, #2325
 5134 0122 0448     		ldr	r0, .L654+4
 5135 0124 FFF7FEFF 		bl	assert_failed
 5136 0128 E7E7     		b	.L649
 5137              	.L651:
 5138 012a 0220     		movs	r0, #2
 5139 012c F5E7     		b	.L650
ARM GAS  C:\Users\thewo\AppData\Local\Temp\ccnCGpzj.s 			page 90


 5140              	.L655:
 5141 012e 00BF     		.align	2
 5142              	.L654:
 5143 0130 00000140 		.word	1073807360
 5144 0134 00000000 		.word	.LC0
 5146              		.section	.text.HAL_TIMEx_TISelection,"ax",%progbits
 5147              		.align	1
 5148              		.global	HAL_TIMEx_TISelection
 5149              		.syntax unified
 5150              		.thumb
 5151              		.thumb_func
 5153              	HAL_TIMEx_TISelection:
 5154              		@ args = 0, pretend = 0, frame = 0
 5155              		@ frame_needed = 0, uses_anonymous_args = 0
 5156 0000 70B5     		push	{r4, r5, r6, lr}
 5157 0002 0546     		mov	r5, r0
 5158 0004 0C46     		mov	r4, r1
 5159 0006 1646     		mov	r6, r2
 5160 0008 0368     		ldr	r3, [r0]
 5161 000a 4D4A     		ldr	r2, .L670
 5162 000c 9342     		cmp	r3, r2
 5163 000e 18BF     		it	ne
 5164 0010 B3F1804F 		cmpne	r3, #1073741824
 5165 0014 28D0     		beq	.L657
 5166 0016 A2F57C42 		sub	r2, r2, #64512
 5167 001a 9342     		cmp	r3, r2
 5168 001c 24D0     		beq	.L657
 5169 001e 02F58062 		add	r2, r2, #1024
 5170 0022 9342     		cmp	r3, r2
 5171 0024 20D0     		beq	.L657
 5172 0026 02F58062 		add	r2, r2, #1024
 5173 002a 9342     		cmp	r3, r2
 5174 002c 1CD0     		beq	.L657
 5175 002e 02F57842 		add	r2, r2, #63488
 5176 0032 9342     		cmp	r3, r2
 5177 0034 18D0     		beq	.L657
 5178 0036 02F57052 		add	r2, r2, #15360
 5179 003a 9342     		cmp	r3, r2
 5180 003c 14D0     		beq	.L657
 5181 003e 02F58062 		add	r2, r2, #1024
 5182 0042 9342     		cmp	r3, r2
 5183 0044 10D0     		beq	.L657
 5184 0046 02F58062 		add	r2, r2, #1024
 5185 004a 9342     		cmp	r3, r2
 5186 004c 0CD0     		beq	.L657
 5187 004e A2F5D042 		sub	r2, r2, #26624
 5188 0052 9342     		cmp	r3, r2
 5189 0054 08D0     		beq	.L657
 5190 0056 02F58062 		add	r2, r2, #1024
 5191 005a 9342     		cmp	r3, r2
 5192 005c 04D0     		beq	.L657
 5193 005e 40F67411 		movw	r1, #2420
 5194 0062 3848     		ldr	r0, .L670+4
 5195 0064 FFF7FEFF 		bl	assert_failed
 5196              	.L657:
 5197 0068 B4F18073 		subs	r3, r4, #16777216
 5198 006c 18BF     		it	ne
ARM GAS  C:\Users\thewo\AppData\Local\Temp\ccnCGpzj.s 			page 91


 5199 006e 0123     		movne	r3, #1
 5200 0070 012C     		cmp	r4, #1
 5201 0072 94BF     		ite	ls
 5202 0074 0022     		movls	r2, #0
 5203 0076 03F00102 		andhi	r2, r3, #1
 5204 007a 12B3     		cbz	r2, .L658
 5205 007c B4F14072 		subs	r2, r4, #50331648
 5206 0080 18BF     		it	ne
 5207 0082 0122     		movne	r2, #1
 5208 0084 B4F1007F 		cmp	r4, #33554432
 5209 0088 1BD0     		beq	.L658
 5210 008a D2B1     		cbz	r2, .L658
 5211 008c B4F58071 		subs	r1, r4, #256
 5212 0090 18BF     		it	ne
 5213 0092 0121     		movne	r1, #1
 5214 0094 062C     		cmp	r4, #6
 5215 0096 14D9     		bls	.L658
 5216 0098 99B1     		cbz	r1, .L658
 5217 009a B4F54071 		subs	r1, r4, #768
 5218 009e 18BF     		it	ne
 5219 00a0 0121     		movne	r1, #1
 5220 00a2 B4F5007F 		cmp	r4, #512
 5221 00a6 0CD0     		beq	.L658
 5222 00a8 59B1     		cbz	r1, .L658
 5223 00aa 032C     		cmp	r4, #3
 5224 00ac 94BF     		ite	ls
 5225 00ae 0021     		movls	r1, #0
 5226 00b0 0121     		movhi	r1, #1
 5227 00b2 33B1     		cbz	r3, .L658
 5228 00b4 29B1     		cbz	r1, .L658
 5229 00b6 022C     		cmp	r4, #2
 5230 00b8 94BF     		ite	ls
 5231 00ba 0023     		movls	r3, #0
 5232 00bc 0123     		movhi	r3, #1
 5233 00be 02B1     		cbz	r2, .L658
 5234 00c0 8BB9     		cbnz	r3, .L669
 5235              	.L658:
 5236 00c2 95F83C30 		ldrb	r3, [r5, #60]	@ zero_extendqisi2
 5237 00c6 012B     		cmp	r3, #1
 5238 00c8 38D0     		beq	.L666
 5239 00ca 0123     		movs	r3, #1
 5240 00cc 85F83C30 		strb	r3, [r5, #60]
 5241 00d0 0C2E     		cmp	r6, #12
 5242 00d2 2ED8     		bhi	.L667
 5243 00d4 DFE806F0 		tbb	[pc, r6]
 5244              	.L662:
 5245 00d8 0D       		.byte	(.L665-.L662)/2
 5246 00d9 2D       		.byte	(.L667-.L662)/2
 5247 00da 2D       		.byte	(.L667-.L662)/2
 5248 00db 2D       		.byte	(.L667-.L662)/2
 5249 00dc 15       		.byte	(.L664-.L662)/2
 5250 00dd 2D       		.byte	(.L667-.L662)/2
 5251 00de 2D       		.byte	(.L667-.L662)/2
 5252 00df 2D       		.byte	(.L667-.L662)/2
 5253 00e0 1D       		.byte	(.L663-.L662)/2
 5254 00e1 2D       		.byte	(.L667-.L662)/2
 5255 00e2 2D       		.byte	(.L667-.L662)/2
ARM GAS  C:\Users\thewo\AppData\Local\Temp\ccnCGpzj.s 			page 92


 5256 00e3 2D       		.byte	(.L667-.L662)/2
 5257 00e4 25       		.byte	(.L661-.L662)/2
 5258 00e5 00       		.p2align 1
 5259              	.L669:
 5260 00e6 40F67511 		movw	r1, #2421
 5261 00ea 1648     		ldr	r0, .L670+4
 5262 00ec FFF7FEFF 		bl	assert_failed
 5263 00f0 E7E7     		b	.L658
 5264              	.L665:
 5265 00f2 2A68     		ldr	r2, [r5]
 5266 00f4 936E     		ldr	r3, [r2, #104]
 5267 00f6 23F00F03 		bic	r3, r3, #15
 5268 00fa 2343     		orrs	r3, r3, r4
 5269 00fc 9366     		str	r3, [r2, #104]
 5270 00fe 0020     		movs	r0, #0
 5271 0100 18E0     		b	.L660
 5272              	.L664:
 5273 0102 2A68     		ldr	r2, [r5]
 5274 0104 936E     		ldr	r3, [r2, #104]
 5275 0106 23F47063 		bic	r3, r3, #3840
 5276 010a 2343     		orrs	r3, r3, r4
 5277 010c 9366     		str	r3, [r2, #104]
 5278 010e 0020     		movs	r0, #0
 5279 0110 10E0     		b	.L660
 5280              	.L663:
 5281 0112 2A68     		ldr	r2, [r5]
 5282 0114 936E     		ldr	r3, [r2, #104]
 5283 0116 23F47023 		bic	r3, r3, #983040
 5284 011a 2343     		orrs	r3, r3, r4
 5285 011c 9366     		str	r3, [r2, #104]
 5286 011e 0020     		movs	r0, #0
 5287 0120 08E0     		b	.L660
 5288              	.L661:
 5289 0122 2A68     		ldr	r2, [r5]
 5290 0124 936E     		ldr	r3, [r2, #104]
 5291 0126 23F07063 		bic	r3, r3, #251658240
 5292 012a 2343     		orrs	r3, r3, r4
 5293 012c 9366     		str	r3, [r2, #104]
 5294 012e 0020     		movs	r0, #0
 5295 0130 00E0     		b	.L660
 5296              	.L667:
 5297 0132 0120     		movs	r0, #1
 5298              	.L660:
 5299 0134 0023     		movs	r3, #0
 5300 0136 85F83C30 		strb	r3, [r5, #60]
 5301              	.L659:
 5302 013a 70BD     		pop	{r4, r5, r6, pc}
 5303              	.L666:
 5304 013c 0220     		movs	r0, #2
 5305 013e FCE7     		b	.L659
 5306              	.L671:
 5307              		.align	2
 5308              	.L670:
 5309 0140 00000140 		.word	1073807360
 5310 0144 00000000 		.word	.LC0
 5312              		.section	.text.HAL_TIMEx_GroupChannel5,"ax",%progbits
 5313              		.align	1
ARM GAS  C:\Users\thewo\AppData\Local\Temp\ccnCGpzj.s 			page 93


 5314              		.global	HAL_TIMEx_GroupChannel5
 5315              		.syntax unified
 5316              		.thumb
 5317              		.thumb_func
 5319              	HAL_TIMEx_GroupChannel5:
 5320              		@ args = 0, pretend = 0, frame = 0
 5321              		@ frame_needed = 0, uses_anonymous_args = 0
 5322 0000 38B5     		push	{r3, r4, r5, lr}
 5323 0002 0446     		mov	r4, r0
 5324 0004 0D46     		mov	r5, r1
 5325 0006 0368     		ldr	r3, [r0]
 5326 0008 1749     		ldr	r1, .L680
 5327 000a 184A     		ldr	r2, .L680+4
 5328 000c 8B42     		cmp	r3, r1
 5329 000e 18BF     		it	ne
 5330 0010 9342     		cmpne	r3, r2
 5331 0012 1BD1     		bne	.L678
 5332              	.L673:
 5333 0014 35F06043 		bics	r3, r5, #-536870912
 5334 0018 1ED1     		bne	.L679
 5335              	.L674:
 5336 001a 94F83C30 		ldrb	r3, [r4, #60]	@ zero_extendqisi2
 5337 001e 012B     		cmp	r3, #1
 5338 0020 20D0     		beq	.L676
 5339 0022 0122     		movs	r2, #1
 5340 0024 84F83C20 		strb	r2, [r4, #60]
 5341 0028 0223     		movs	r3, #2
 5342 002a 84F83D30 		strb	r3, [r4, #61]
 5343 002e 2168     		ldr	r1, [r4]
 5344 0030 8B6D     		ldr	r3, [r1, #88]
 5345 0032 23F06043 		bic	r3, r3, #-536870912
 5346 0036 8B65     		str	r3, [r1, #88]
 5347 0038 2168     		ldr	r1, [r4]
 5348 003a 8B6D     		ldr	r3, [r1, #88]
 5349 003c 2B43     		orrs	r3, r3, r5
 5350 003e 8B65     		str	r3, [r1, #88]
 5351 0040 84F83D20 		strb	r2, [r4, #61]
 5352 0044 0020     		movs	r0, #0
 5353 0046 84F83C00 		strb	r0, [r4, #60]
 5354              	.L675:
 5355 004a 38BD     		pop	{r3, r4, r5, pc}
 5356              	.L678:
 5357 004c 40F69F11 		movw	r1, #2463
 5358 0050 0748     		ldr	r0, .L680+8
 5359 0052 FFF7FEFF 		bl	assert_failed
 5360 0056 DDE7     		b	.L673
 5361              	.L679:
 5362 0058 4FF41A61 		mov	r1, #2464
 5363 005c 0448     		ldr	r0, .L680+8
 5364 005e FFF7FEFF 		bl	assert_failed
 5365 0062 DAE7     		b	.L674
 5366              	.L676:
 5367 0064 0220     		movs	r0, #2
 5368 0066 F0E7     		b	.L675
 5369              	.L681:
 5370              		.align	2
 5371              	.L680:
ARM GAS  C:\Users\thewo\AppData\Local\Temp\ccnCGpzj.s 			page 94


 5372 0068 00000140 		.word	1073807360
 5373 006c 00040140 		.word	1073808384
 5374 0070 00000000 		.word	.LC0
 5376              		.section	.text.HAL_TIMEx_DisarmBreakInput,"ax",%progbits
 5377              		.align	1
 5378              		.global	HAL_TIMEx_DisarmBreakInput
 5379              		.syntax unified
 5380              		.thumb
 5381              		.thumb_func
 5383              	HAL_TIMEx_DisarmBreakInput:
 5384              		@ args = 0, pretend = 0, frame = 0
 5385              		@ frame_needed = 0, uses_anonymous_args = 0
 5386 0000 38B5     		push	{r3, r4, r5, lr}
 5387 0002 0546     		mov	r5, r0
 5388 0004 0C46     		mov	r4, r1
 5389 0006 0368     		ldr	r3, [r0]
 5390 0008 2149     		ldr	r1, .L694
 5391 000a 224A     		ldr	r2, .L694+4
 5392 000c 8B42     		cmp	r3, r1
 5393 000e 18BF     		it	ne
 5394 0010 9342     		cmpne	r3, r2
 5395 0012 10D0     		beq	.L683
 5396 0014 02F57052 		add	r2, r2, #15360
 5397 0018 9342     		cmp	r3, r2
 5398 001a 0CD0     		beq	.L683
 5399 001c 02F58062 		add	r2, r2, #1024
 5400 0020 9342     		cmp	r3, r2
 5401 0022 08D0     		beq	.L683
 5402 0024 02F58062 		add	r2, r2, #1024
 5403 0028 9342     		cmp	r3, r2
 5404 002a 04D0     		beq	.L683
 5405 002c 40F6C911 		movw	r1, #2505
 5406 0030 1948     		ldr	r0, .L694+8
 5407 0032 FFF7FEFF 		bl	assert_failed
 5408              	.L683:
 5409 0036 631E     		subs	r3, r4, #1
 5410 0038 012B     		cmp	r3, #1
 5411 003a 05D8     		bhi	.L691
 5412              	.L684:
 5413 003c 012C     		cmp	r4, #1
 5414 003e 09D0     		beq	.L685
 5415 0040 022C     		cmp	r4, #2
 5416 0042 16D0     		beq	.L686
 5417 0044 0120     		movs	r0, #1
 5418              	.L687:
 5419 0046 38BD     		pop	{r3, r4, r5, pc}
 5420              	.L691:
 5421 0048 40F6CA11 		movw	r1, #2506
 5422 004c 1248     		ldr	r0, .L694+8
 5423 004e FFF7FEFF 		bl	assert_failed
 5424 0052 F3E7     		b	.L684
 5425              	.L685:
 5426 0054 2A68     		ldr	r2, [r5]
 5427 0056 516C     		ldr	r1, [r2, #68]
 5428 0058 104B     		ldr	r3, .L694+12
 5429 005a 0B40     		ands	r3, r3, r1
 5430 005c B3F1805F 		cmp	r3, #268435456
ARM GAS  C:\Users\thewo\AppData\Local\Temp\ccnCGpzj.s 			page 95


 5431 0060 01D0     		beq	.L692
 5432 0062 0020     		movs	r0, #0
 5433 0064 EFE7     		b	.L687
 5434              	.L692:
 5435 0066 536C     		ldr	r3, [r2, #68]
 5436 0068 43F08063 		orr	r3, r3, #67108864
 5437 006c 5364     		str	r3, [r2, #68]
 5438 006e 0020     		movs	r0, #0
 5439 0070 E9E7     		b	.L687
 5440              	.L686:
 5441 0072 2A68     		ldr	r2, [r5]
 5442 0074 516C     		ldr	r1, [r2, #68]
 5443 0076 0A4B     		ldr	r3, .L694+16
 5444 0078 0B40     		ands	r3, r3, r1
 5445 007a B3F1005F 		cmp	r3, #536870912
 5446 007e 01D0     		beq	.L693
 5447 0080 0020     		movs	r0, #0
 5448 0082 E0E7     		b	.L687
 5449              	.L693:
 5450 0084 536C     		ldr	r3, [r2, #68]
 5451 0086 43F00063 		orr	r3, r3, #134217728
 5452 008a 5364     		str	r3, [r2, #68]
 5453 008c 0020     		movs	r0, #0
 5454 008e DAE7     		b	.L687
 5455              	.L695:
 5456              		.align	2
 5457              	.L694:
 5458 0090 00000140 		.word	1073807360
 5459 0094 00040140 		.word	1073808384
 5460 0098 00000000 		.word	.LC0
 5461 009c 00800010 		.word	268468224
 5462 00a0 00800020 		.word	536903680
 5464              		.section	.text.HAL_TIMEx_ReArmBreakInput,"ax",%progbits
 5465              		.align	1
 5466              		.global	HAL_TIMEx_ReArmBreakInput
 5467              		.syntax unified
 5468              		.thumb
 5469              		.thumb_func
 5471              	HAL_TIMEx_ReArmBreakInput:
 5472              		@ args = 0, pretend = 0, frame = 0
 5473              		@ frame_needed = 0, uses_anonymous_args = 0
 5474 0000 38B5     		push	{r3, r4, r5, lr}
 5475 0002 0446     		mov	r4, r0
 5476 0004 0D46     		mov	r5, r1
 5477 0006 0368     		ldr	r3, [r0]
 5478 0008 2F49     		ldr	r1, .L716
 5479 000a 304A     		ldr	r2, .L716+4
 5480 000c 8B42     		cmp	r3, r1
 5481 000e 18BF     		it	ne
 5482 0010 9342     		cmpne	r3, r2
 5483 0012 10D0     		beq	.L697
 5484 0014 02F57052 		add	r2, r2, #15360
 5485 0018 9342     		cmp	r3, r2
 5486 001a 0CD0     		beq	.L697
 5487 001c 02F58062 		add	r2, r2, #1024
 5488 0020 9342     		cmp	r3, r2
 5489 0022 08D0     		beq	.L697
ARM GAS  C:\Users\thewo\AppData\Local\Temp\ccnCGpzj.s 			page 96


 5490 0024 02F58062 		add	r2, r2, #1024
 5491 0028 9342     		cmp	r3, r2
 5492 002a 04D0     		beq	.L697
 5493 002c 40F6FF11 		movw	r1, #2559
 5494 0030 2748     		ldr	r0, .L716+8
 5495 0032 FFF7FEFF 		bl	assert_failed
 5496              	.L697:
 5497 0036 6B1E     		subs	r3, r5, #1
 5498 0038 012B     		cmp	r3, #1
 5499 003a 05D8     		bhi	.L711
 5500              	.L698:
 5501 003c 012D     		cmp	r5, #1
 5502 003e 09D0     		beq	.L699
 5503 0040 022D     		cmp	r5, #2
 5504 0042 24D0     		beq	.L700
 5505 0044 0120     		movs	r0, #1
 5506              	.L701:
 5507 0046 38BD     		pop	{r3, r4, r5, pc}
 5508              	.L711:
 5509 0048 4FF42061 		mov	r1, #2560
 5510 004c 2048     		ldr	r0, .L716+8
 5511 004e FFF7FEFF 		bl	assert_failed
 5512 0052 F3E7     		b	.L698
 5513              	.L699:
 5514 0054 2368     		ldr	r3, [r4]
 5515 0056 5B6C     		ldr	r3, [r3, #68]
 5516 0058 13F0805F 		tst	r3, #268435456
 5517 005c 01D1     		bne	.L712
 5518 005e 0020     		movs	r0, #0
 5519 0060 F1E7     		b	.L701
 5520              	.L712:
 5521 0062 FFF7FEFF 		bl	HAL_GetTick
 5522 0066 0546     		mov	r5, r0
 5523              	.L702:
 5524 0068 2368     		ldr	r3, [r4]
 5525 006a 5B6C     		ldr	r3, [r3, #68]
 5526 006c 13F0806F 		tst	r3, #67108864
 5527 0070 0BD0     		beq	.L713
 5528 0072 FFF7FEFF 		bl	HAL_GetTick
 5529 0076 401B     		subs	r0, r0, r5
 5530 0078 0528     		cmp	r0, #5
 5531 007a F5D9     		bls	.L702
 5532 007c 2368     		ldr	r3, [r4]
 5533 007e 5B6C     		ldr	r3, [r3, #68]
 5534 0080 13F0806F 		tst	r3, #67108864
 5535 0084 F0D0     		beq	.L702
 5536 0086 0320     		movs	r0, #3
 5537 0088 DDE7     		b	.L701
 5538              	.L713:
 5539 008a 0020     		movs	r0, #0
 5540 008c DBE7     		b	.L701
 5541              	.L700:
 5542 008e 2368     		ldr	r3, [r4]
 5543 0090 5B6C     		ldr	r3, [r3, #68]
 5544 0092 13F0005F 		tst	r3, #536870912
 5545 0096 01D1     		bne	.L714
 5546 0098 0020     		movs	r0, #0
ARM GAS  C:\Users\thewo\AppData\Local\Temp\ccnCGpzj.s 			page 97


 5547 009a D4E7     		b	.L701
 5548              	.L714:
 5549 009c FFF7FEFF 		bl	HAL_GetTick
 5550 00a0 0546     		mov	r5, r0
 5551              	.L704:
 5552 00a2 2368     		ldr	r3, [r4]
 5553 00a4 5B6C     		ldr	r3, [r3, #68]
 5554 00a6 13F0006F 		tst	r3, #134217728
 5555 00aa 0BD0     		beq	.L715
 5556 00ac FFF7FEFF 		bl	HAL_GetTick
 5557 00b0 401B     		subs	r0, r0, r5
 5558 00b2 0528     		cmp	r0, #5
 5559 00b4 F5D9     		bls	.L704
 5560 00b6 2368     		ldr	r3, [r4]
 5561 00b8 5B6C     		ldr	r3, [r3, #68]
 5562 00ba 13F0006F 		tst	r3, #134217728
 5563 00be F0D0     		beq	.L704
 5564 00c0 0320     		movs	r0, #3
 5565 00c2 C0E7     		b	.L701
 5566              	.L715:
 5567 00c4 0020     		movs	r0, #0
 5568 00c6 BEE7     		b	.L701
 5569              	.L717:
 5570              		.align	2
 5571              	.L716:
 5572 00c8 00000140 		.word	1073807360
 5573 00cc 00040140 		.word	1073808384
 5574 00d0 00000000 		.word	.LC0
 5576              		.section	.text.HAL_TIMEx_CommutCallback,"ax",%progbits
 5577              		.align	1
 5578              		.weak	HAL_TIMEx_CommutCallback
 5579              		.syntax unified
 5580              		.thumb
 5581              		.thumb_func
 5583              	HAL_TIMEx_CommutCallback:
 5584              		@ args = 0, pretend = 0, frame = 0
 5585              		@ frame_needed = 0, uses_anonymous_args = 0
 5586              		@ link register save eliminated.
 5587 0000 7047     		bx	lr
 5589              		.section	.text.TIMEx_DMACommutationCplt,"ax",%progbits
 5590              		.align	1
 5591              		.global	TIMEx_DMACommutationCplt
 5592              		.syntax unified
 5593              		.thumb
 5594              		.thumb_func
 5596              	TIMEx_DMACommutationCplt:
 5597              		@ args = 0, pretend = 0, frame = 0
 5598              		@ frame_needed = 0, uses_anonymous_args = 0
 5599 0000 08B5     		push	{r3, lr}
 5600 0002 806B     		ldr	r0, [r0, #56]
 5601 0004 0123     		movs	r3, #1
 5602 0006 80F83D30 		strb	r3, [r0, #61]
 5603 000a FFF7FEFF 		bl	HAL_TIMEx_CommutCallback
 5604 000e 08BD     		pop	{r3, pc}
 5606              		.section	.text.HAL_TIMEx_CommutHalfCpltCallback,"ax",%progbits
 5607              		.align	1
 5608              		.weak	HAL_TIMEx_CommutHalfCpltCallback
ARM GAS  C:\Users\thewo\AppData\Local\Temp\ccnCGpzj.s 			page 98


 5609              		.syntax unified
 5610              		.thumb
 5611              		.thumb_func
 5613              	HAL_TIMEx_CommutHalfCpltCallback:
 5614              		@ args = 0, pretend = 0, frame = 0
 5615              		@ frame_needed = 0, uses_anonymous_args = 0
 5616              		@ link register save eliminated.
 5617 0000 7047     		bx	lr
 5619              		.section	.text.TIMEx_DMACommutationHalfCplt,"ax",%progbits
 5620              		.align	1
 5621              		.global	TIMEx_DMACommutationHalfCplt
 5622              		.syntax unified
 5623              		.thumb
 5624              		.thumb_func
 5626              	TIMEx_DMACommutationHalfCplt:
 5627              		@ args = 0, pretend = 0, frame = 0
 5628              		@ frame_needed = 0, uses_anonymous_args = 0
 5629 0000 08B5     		push	{r3, lr}
 5630 0002 806B     		ldr	r0, [r0, #56]
 5631 0004 0123     		movs	r3, #1
 5632 0006 80F83D30 		strb	r3, [r0, #61]
 5633 000a FFF7FEFF 		bl	HAL_TIMEx_CommutHalfCpltCallback
 5634 000e 08BD     		pop	{r3, pc}
 5636              		.section	.text.HAL_TIMEx_BreakCallback,"ax",%progbits
 5637              		.align	1
 5638              		.weak	HAL_TIMEx_BreakCallback
 5639              		.syntax unified
 5640              		.thumb
 5641              		.thumb_func
 5643              	HAL_TIMEx_BreakCallback:
 5644              		@ args = 0, pretend = 0, frame = 0
 5645              		@ frame_needed = 0, uses_anonymous_args = 0
 5646              		@ link register save eliminated.
 5647 0000 7047     		bx	lr
 5649              		.section	.text.HAL_TIMEx_Break2Callback,"ax",%progbits
 5650              		.align	1
 5651              		.weak	HAL_TIMEx_Break2Callback
 5652              		.syntax unified
 5653              		.thumb
 5654              		.thumb_func
 5656              	HAL_TIMEx_Break2Callback:
 5657              		@ args = 0, pretend = 0, frame = 0
 5658              		@ frame_needed = 0, uses_anonymous_args = 0
 5659              		@ link register save eliminated.
 5660 0000 7047     		bx	lr
 5662              		.section	.text.HAL_TIMEx_HallSensor_GetState,"ax",%progbits
 5663              		.align	1
 5664              		.global	HAL_TIMEx_HallSensor_GetState
 5665              		.syntax unified
 5666              		.thumb
 5667              		.thumb_func
 5669              	HAL_TIMEx_HallSensor_GetState:
 5670              		@ args = 0, pretend = 0, frame = 0
 5671              		@ frame_needed = 0, uses_anonymous_args = 0
 5672              		@ link register save eliminated.
 5673 0000 90F83D00 		ldrb	r0, [r0, #61]	@ zero_extendqisi2
 5674 0004 7047     		bx	lr
ARM GAS  C:\Users\thewo\AppData\Local\Temp\ccnCGpzj.s 			page 99


 5676              		.section	.text.HAL_TIMEx_GetChannelNState,"ax",%progbits
 5677              		.align	1
 5678              		.global	HAL_TIMEx_GetChannelNState
 5679              		.syntax unified
 5680              		.thumb
 5681              		.thumb_func
 5683              	HAL_TIMEx_GetChannelNState:
 5684              		@ args = 0, pretend = 0, frame = 0
 5685              		@ frame_needed = 0, uses_anonymous_args = 0
 5686 0000 38B5     		push	{r3, r4, r5, lr}
 5687 0002 0546     		mov	r5, r0
 5688 0004 0C46     		mov	r4, r1
 5689 0006 0368     		ldr	r3, [r0]
 5690 0008 1B49     		ldr	r1, .L744
 5691 000a 1C4A     		ldr	r2, .L744+4
 5692 000c 8B42     		cmp	r3, r1
 5693 000e 18BF     		it	ne
 5694 0010 9342     		cmpne	r3, r2
 5695 0012 05D1     		bne	.L728
 5696 0014 002C     		cmp	r4, #0
 5697 0016 18BF     		it	ne
 5698 0018 042C     		cmpne	r4, #4
 5699 001a 0FD0     		beq	.L729
 5700 001c 082C     		cmp	r4, #8
 5701 001e 1BD0     		beq	.L730
 5702              	.L728:
 5703 0020 174A     		ldr	r2, .L744+8
 5704 0022 9342     		cmp	r3, r2
 5705 0024 0FD0     		beq	.L739
 5706              	.L731:
 5707 0026 174A     		ldr	r2, .L744+12
 5708 0028 9342     		cmp	r3, r2
 5709 002a 0FD0     		beq	.L740
 5710              	.L733:
 5711 002c 164A     		ldr	r2, .L744+16
 5712 002e 9342     		cmp	r3, r2
 5713 0030 0FD0     		beq	.L741
 5714              	.L734:
 5715 0032 40F6B421 		movw	r1, #2740
 5716 0036 1548     		ldr	r0, .L744+20
 5717 0038 FFF7FEFF 		bl	assert_failed
 5718              	.L729:
 5719 003c 64B9     		cbnz	r4, .L730
 5720              	.L732:
 5721 003e 95F84400 		ldrb	r0, [r5, #68]	@ zero_extendqisi2
 5722 0042 C0B2     		uxtb	r0, r0
 5723              	.L735:
 5724 0044 38BD     		pop	{r3, r4, r5, pc}
 5725              	.L739:
 5726 0046 002C     		cmp	r4, #0
 5727 0048 F9D0     		beq	.L732
 5728 004a ECE7     		b	.L731
 5729              	.L740:
 5730 004c 002C     		cmp	r4, #0
 5731 004e F6D0     		beq	.L732
 5732 0050 ECE7     		b	.L733
 5733              	.L741:
ARM GAS  C:\Users\thewo\AppData\Local\Temp\ccnCGpzj.s 			page 100


 5734 0052 002C     		cmp	r4, #0
 5735 0054 F3D0     		beq	.L732
 5736 0056 ECE7     		b	.L734
 5737              	.L730:
 5738 0058 042C     		cmp	r4, #4
 5739 005a 05D0     		beq	.L742
 5740 005c 082C     		cmp	r4, #8
 5741 005e 07D0     		beq	.L743
 5742 0060 95F84700 		ldrb	r0, [r5, #71]	@ zero_extendqisi2
 5743 0064 C0B2     		uxtb	r0, r0
 5744 0066 EDE7     		b	.L735
 5745              	.L742:
 5746 0068 95F84500 		ldrb	r0, [r5, #69]	@ zero_extendqisi2
 5747 006c C0B2     		uxtb	r0, r0
 5748 006e E9E7     		b	.L735
 5749              	.L743:
 5750 0070 95F84600 		ldrb	r0, [r5, #70]	@ zero_extendqisi2
 5751 0074 C0B2     		uxtb	r0, r0
 5752 0076 E5E7     		b	.L735
 5753              	.L745:
 5754              		.align	2
 5755              	.L744:
 5756 0078 00000140 		.word	1073807360
 5757 007c 00040140 		.word	1073808384
 5758 0080 00400140 		.word	1073823744
 5759 0084 00440140 		.word	1073824768
 5760 0088 00480140 		.word	1073825792
 5761 008c 00000000 		.word	.LC0
 5763              		.ident	"GCC: (xPack GNU Arm Embedded GCC x86_64) 14.2.1 20241119"
ARM GAS  C:\Users\thewo\AppData\Local\Temp\ccnCGpzj.s 			page 101

