ARM GAS  C:\Users\thewo\AppData\Local\Temp\ccr8EtGz.s 			page 1


   1              		.cpu cortex-m7
   2              		.arch armv7e-m
   3              		.fpu fpv5-d16
   4              		.eabi_attribute 28, 1
   5              		.eabi_attribute 20, 1
   6              		.eabi_attribute 21, 1
   7              		.eabi_attribute 23, 3
   8              		.eabi_attribute 24, 1
   9              		.eabi_attribute 25, 1
  10              		.eabi_attribute 26, 1
  11              		.eabi_attribute 30, 1
  12              		.eabi_attribute 34, 1
  13              		.eabi_attribute 18, 4
  14              		.file	"system_stm32h7xx.c"
  15              		.text
  16              		.section	.text.SystemInit,"ax",%progbits
  17              		.align	1
  18              		.global	SystemInit
  19              		.syntax unified
  20              		.thumb
  21              		.thumb_func
  23              	SystemInit:
  24              		@ args = 0, pretend = 0, frame = 0
  25              		@ frame_needed = 0, uses_anonymous_args = 0
  26              		@ link register save eliminated.
  27 0000 2B4A     		ldr	r2, .L5
  28 0002 D2F88830 		ldr	r3, [r2, #136]
  29 0006 43F47003 		orr	r3, r3, #15728640
  30 000a C2F88830 		str	r3, [r2, #136]
  31 000e 294B     		ldr	r3, .L5+4
  32 0010 1B68     		ldr	r3, [r3]
  33 0012 03F00F03 		and	r3, r3, #15
  34 0016 062B     		cmp	r3, #6
  35 0018 06D8     		bhi	.L2
  36 001a 264A     		ldr	r2, .L5+4
  37 001c 1368     		ldr	r3, [r2]
  38 001e 23F00F03 		bic	r3, r3, #15
  39 0022 43F00703 		orr	r3, r3, #7
  40 0026 1360     		str	r3, [r2]
  41              	.L2:
  42 0028 234B     		ldr	r3, .L5+8
  43 002a 1A68     		ldr	r2, [r3]
  44 002c 42F00102 		orr	r2, r2, #1
  45 0030 1A60     		str	r2, [r3]
  46 0032 0022     		movs	r2, #0
  47 0034 1A61     		str	r2, [r3, #16]
  48 0036 1968     		ldr	r1, [r3]
  49 0038 204A     		ldr	r2, .L5+12
  50 003a 0A40     		ands	r2, r2, r1
  51 003c 1A60     		str	r2, [r3]
  52 003e 1D4B     		ldr	r3, .L5+4
  53 0040 1B68     		ldr	r3, [r3]
  54 0042 13F0080F 		tst	r3, #8
  55 0046 06D0     		beq	.L3
  56 0048 1A4A     		ldr	r2, .L5+4
  57 004a 1368     		ldr	r3, [r2]
  58 004c 23F00F03 		bic	r3, r3, #15
ARM GAS  C:\Users\thewo\AppData\Local\Temp\ccr8EtGz.s 			page 2


  59 0050 43F00703 		orr	r3, r3, #7
  60 0054 1360     		str	r3, [r2]
  61              	.L3:
  62 0056 184B     		ldr	r3, .L5+8
  63 0058 0022     		movs	r2, #0
  64 005a 9A61     		str	r2, [r3, #24]
  65 005c DA61     		str	r2, [r3, #28]
  66 005e 1A62     		str	r2, [r3, #32]
  67 0060 1749     		ldr	r1, .L5+16
  68 0062 9962     		str	r1, [r3, #40]
  69 0064 1749     		ldr	r1, .L5+20
  70 0066 D962     		str	r1, [r3, #44]
  71 0068 1749     		ldr	r1, .L5+24
  72 006a 1963     		str	r1, [r3, #48]
  73 006c 5A63     		str	r2, [r3, #52]
  74 006e 9963     		str	r1, [r3, #56]
  75 0070 DA63     		str	r2, [r3, #60]
  76 0072 1964     		str	r1, [r3, #64]
  77 0074 5A64     		str	r2, [r3, #68]
  78 0076 1968     		ldr	r1, [r3]
  79 0078 21F48021 		bic	r1, r1, #262144
  80 007c 1960     		str	r1, [r3]
  81 007e 1A66     		str	r2, [r3, #96]
  82 0080 D3F8D430 		ldr	r3, [r3, #212]
  83 0084 13F4805F 		tst	r3, #4096
  84 0088 10D1     		bne	.L1
  85 008a 0B4B     		ldr	r3, .L5+8
  86 008c D3F8D420 		ldr	r2, [r3, #212]
  87 0090 42F48052 		orr	r2, r2, #4096
  88 0094 C3F8D420 		str	r2, [r3, #212]
  89 0098 0C4A     		ldr	r2, .L5+28
  90 009a 43F2D201 		movw	r1, #12498
  91 009e 1160     		str	r1, [r2]
  92 00a0 D3F8D420 		ldr	r2, [r3, #212]
  93 00a4 22F48052 		bic	r2, r2, #4096
  94 00a8 C3F8D420 		str	r2, [r3, #212]
  95              	.L1:
  96 00ac 7047     		bx	lr
  97              	.L6:
  98 00ae 00BF     		.align	2
  99              	.L5:
 100 00b0 00ED00E0 		.word	-536810240
 101 00b4 00200052 		.word	1375739904
 102 00b8 00440258 		.word	1476543488
 103 00bc 7FEDF6EA 		.word	-352916097
 104 00c0 00020202 		.word	33686016
 105 00c4 0000FF01 		.word	33488896
 106 00c8 80020101 		.word	16843392
 107 00cc 00400052 		.word	1375748096
 109              		.section	.text.SystemCoreClockUpdate,"ax",%progbits
 110              		.align	1
 111              		.global	SystemCoreClockUpdate
 112              		.syntax unified
 113              		.thumb
 114              		.thumb_func
 116              	SystemCoreClockUpdate:
 117              		@ args = 0, pretend = 0, frame = 0
ARM GAS  C:\Users\thewo\AppData\Local\Temp\ccr8EtGz.s 			page 3


 118              		@ frame_needed = 0, uses_anonymous_args = 0
 119              		@ link register save eliminated.
 120 0000 10B4     		push	{r4}
 121 0002 7B4B     		ldr	r3, .L20
 122 0004 1B69     		ldr	r3, [r3, #16]
 123 0006 03F03803 		and	r3, r3, #56
 124 000a 182B     		cmp	r3, #24
 125 000c 00F2D280 		bhi	.L8
 126 0010 DFE813F0 		tbh	[pc, r3, lsl #1]
 127              	.L10:
 128 0014 1B00     		.2byte	(.L13-.L10)/2
 129 0016 D000     		.2byte	(.L8-.L10)/2
 130 0018 D000     		.2byte	(.L8-.L10)/2
 131 001a D000     		.2byte	(.L8-.L10)/2
 132 001c D000     		.2byte	(.L8-.L10)/2
 133 001e D000     		.2byte	(.L8-.L10)/2
 134 0020 D000     		.2byte	(.L8-.L10)/2
 135 0022 D000     		.2byte	(.L8-.L10)/2
 136 0024 1900     		.2byte	(.L12-.L10)/2
 137 0026 D000     		.2byte	(.L8-.L10)/2
 138 0028 D000     		.2byte	(.L8-.L10)/2
 139 002a D000     		.2byte	(.L8-.L10)/2
 140 002c D000     		.2byte	(.L8-.L10)/2
 141 002e D000     		.2byte	(.L8-.L10)/2
 142 0030 D000     		.2byte	(.L8-.L10)/2
 143 0032 D000     		.2byte	(.L8-.L10)/2
 144 0034 EC00     		.2byte	(.L18-.L10)/2
 145 0036 D000     		.2byte	(.L8-.L10)/2
 146 0038 D000     		.2byte	(.L8-.L10)/2
 147 003a D000     		.2byte	(.L8-.L10)/2
 148 003c D000     		.2byte	(.L8-.L10)/2
 149 003e D000     		.2byte	(.L8-.L10)/2
 150 0040 D000     		.2byte	(.L8-.L10)/2
 151 0042 D000     		.2byte	(.L8-.L10)/2
 152 0044 2200     		.2byte	(.L9-.L10)/2
 153              		.p2align 1
 154              	.L12:
 155 0046 6B4A     		ldr	r2, .L20+4
 156 0048 BAE0     		b	.L11
 157              	.L13:
 158 004a 694B     		ldr	r3, .L20
 159 004c 1B68     		ldr	r3, [r3]
 160 004e C3F3C103 		ubfx	r3, r3, #3, #2
 161 0052 694A     		ldr	r2, .L20+8
 162 0054 DA40     		lsrs	r2, r2, r3
 163 0056 B3E0     		b	.L11
 164              	.L9:
 165 0058 654B     		ldr	r3, .L20
 166 005a 996A     		ldr	r1, [r3, #40]
 167 005c 01F00301 		and	r1, r1, #3
 168 0060 9C6A     		ldr	r4, [r3, #40]
 169 0062 C4F30512 		ubfx	r2, r4, #4, #6
 170 0066 D86A     		ldr	r0, [r3, #44]
 171 0068 00F00100 		and	r0, r0, #1
 172 006c 5B6B     		ldr	r3, [r3, #52]
 173 006e C3F3CC03 		ubfx	r3, r3, #3, #13
 174 0072 00FB03F3 		mul	r3, r0, r3
ARM GAS  C:\Users\thewo\AppData\Local\Temp\ccr8EtGz.s 			page 4


 175 0076 07EE903A 		vmov	s15, r3	@ int
 176 007a F8EE677A 		vcvt.f32.u32	s15, s15
 177 007e 14F47C7F 		tst	r4, #1008
 178 0082 00F09D80 		beq	.L11
 179 0086 0129     		cmp	r1, #1
 180 0088 36D0     		beq	.L14
 181 008a 0229     		cmp	r1, #2
 182 008c 51D0     		beq	.L15
 183 008e 0029     		cmp	r1, #0
 184 0090 6CD1     		bne	.L16
 185 0092 5748     		ldr	r0, .L20
 186 0094 0168     		ldr	r1, [r0]
 187 0096 C1F3C101 		ubfx	r1, r1, #3, #2
 188 009a 574B     		ldr	r3, .L20+8
 189 009c CB40     		lsrs	r3, r3, r1
 190 009e 07EE103A 		vmov	s14, r3	@ int
 191 00a2 F8EE476A 		vcvt.f32.u32	s13, s14
 192 00a6 07EE102A 		vmov	s14, r2	@ int
 193 00aa B8EE476A 		vcvt.f32.u32	s12, s14
 194 00ae 86EE867A 		vdiv.f32	s14, s13, s12
 195 00b2 036B     		ldr	r3, [r0, #48]
 196 00b4 C3F30803 		ubfx	r3, r3, #0, #9
 197 00b8 06EE903A 		vmov	s13, r3	@ int
 198 00bc F8EE666A 		vcvt.f32.u32	s13, s13
 199 00c0 9FED4E6A 		vldr.32	s12, .L20+12
 200 00c4 67EE867A 		vmul.f32	s15, s15, s12
 201 00c8 76EEA77A 		vadd.f32	s15, s13, s15
 202 00cc F7EE006A 		vmov.f32	s13, #1.0e+0
 203 00d0 77EEA67A 		vadd.f32	s15, s15, s13
 204 00d4 27EE277A 		vmul.f32	s14, s14, s15
 205              	.L17:
 206 00d8 454B     		ldr	r3, .L20
 207 00da 1B6B     		ldr	r3, [r3, #48]
 208 00dc C3F34623 		ubfx	r3, r3, #9, #7
 209 00e0 0133     		adds	r3, r3, #1
 210 00e2 07EE903A 		vmov	s15, r3	@ int
 211 00e6 F8EE677A 		vcvt.f32.u32	s15, s15
 212 00ea C7EE276A 		vdiv.f32	s13, s14, s15
 213 00ee FCEEE67A 		vcvt.u32.f32	s15, s13
 214 00f2 17EE902A 		vmov	r2, s15	@ int
 215 00f6 63E0     		b	.L11
 216              	.L14:
 217 00f8 07EE102A 		vmov	s14, r2	@ int
 218 00fc F8EE476A 		vcvt.f32.u32	s13, s14
 219 0100 9FED3F6A 		vldr.32	s12, .L20+16
 220 0104 86EE267A 		vdiv.f32	s14, s12, s13
 221 0108 394B     		ldr	r3, .L20
 222 010a 1B6B     		ldr	r3, [r3, #48]
 223 010c C3F30803 		ubfx	r3, r3, #0, #9
 224 0110 06EE903A 		vmov	s13, r3	@ int
 225 0114 F8EE666A 		vcvt.f32.u32	s13, s13
 226 0118 9FED386A 		vldr.32	s12, .L20+12
 227 011c 67EE867A 		vmul.f32	s15, s15, s12
 228 0120 76EEA77A 		vadd.f32	s15, s13, s15
 229 0124 F7EE006A 		vmov.f32	s13, #1.0e+0
 230 0128 77EEA67A 		vadd.f32	s15, s15, s13
 231 012c 27EE277A 		vmul.f32	s14, s14, s15
ARM GAS  C:\Users\thewo\AppData\Local\Temp\ccr8EtGz.s 			page 5


 232 0130 D2E7     		b	.L17
 233              	.L15:
 234 0132 07EE102A 		vmov	s14, r2	@ int
 235 0136 F8EE476A 		vcvt.f32.u32	s13, s14
 236 013a 9FED326A 		vldr.32	s12, .L20+20
 237 013e 86EE267A 		vdiv.f32	s14, s12, s13
 238 0142 2B4B     		ldr	r3, .L20
 239 0144 1B6B     		ldr	r3, [r3, #48]
 240 0146 C3F30803 		ubfx	r3, r3, #0, #9
 241 014a 06EE903A 		vmov	s13, r3	@ int
 242 014e F8EE666A 		vcvt.f32.u32	s13, s13
 243 0152 9FED2A6A 		vldr.32	s12, .L20+12
 244 0156 67EE867A 		vmul.f32	s15, s15, s12
 245 015a 76EEA77A 		vadd.f32	s15, s13, s15
 246 015e F7EE006A 		vmov.f32	s13, #1.0e+0
 247 0162 77EEA67A 		vadd.f32	s15, s15, s13
 248 0166 27EE277A 		vmul.f32	s14, s14, s15
 249 016a B5E7     		b	.L17
 250              	.L16:
 251 016c 2048     		ldr	r0, .L20
 252 016e 0168     		ldr	r1, [r0]
 253 0170 C1F3C101 		ubfx	r1, r1, #3, #2
 254 0174 204B     		ldr	r3, .L20+8
 255 0176 CB40     		lsrs	r3, r3, r1
 256 0178 07EE103A 		vmov	s14, r3	@ int
 257 017c F8EE476A 		vcvt.f32.u32	s13, s14
 258 0180 07EE102A 		vmov	s14, r2	@ int
 259 0184 B8EE476A 		vcvt.f32.u32	s12, s14
 260 0188 86EE867A 		vdiv.f32	s14, s13, s12
 261 018c 036B     		ldr	r3, [r0, #48]
 262 018e C3F30803 		ubfx	r3, r3, #0, #9
 263 0192 06EE903A 		vmov	s13, r3	@ int
 264 0196 F8EE666A 		vcvt.f32.u32	s13, s13
 265 019a 9FED186A 		vldr.32	s12, .L20+12
 266 019e 67EE867A 		vmul.f32	s15, s15, s12
 267 01a2 76EEA77A 		vadd.f32	s15, s13, s15
 268 01a6 F7EE006A 		vmov.f32	s13, #1.0e+0
 269 01aa 77EEA67A 		vadd.f32	s15, s15, s13
 270 01ae 27EE277A 		vmul.f32	s14, s14, s15
 271 01b2 91E7     		b	.L17
 272              	.L8:
 273 01b4 0E4B     		ldr	r3, .L20
 274 01b6 1B68     		ldr	r3, [r3]
 275 01b8 C3F3C103 		ubfx	r3, r3, #3, #2
 276 01bc 0E4A     		ldr	r2, .L20+8
 277 01be DA40     		lsrs	r2, r2, r3
 278              	.L11:
 279 01c0 0B48     		ldr	r0, .L20
 280 01c2 8369     		ldr	r3, [r0, #24]
 281 01c4 C3F30323 		ubfx	r3, r3, #8, #4
 282 01c8 0F49     		ldr	r1, .L20+24
 283 01ca CB5C     		ldrb	r3, [r1, r3]	@ zero_extendqisi2
 284 01cc DA40     		lsrs	r2, r2, r3
 285 01ce 8369     		ldr	r3, [r0, #24]
 286 01d0 03F00F03 		and	r3, r3, #15
 287 01d4 CB5C     		ldrb	r3, [r1, r3]	@ zero_extendqisi2
 288 01d6 03F01F03 		and	r3, r3, #31
ARM GAS  C:\Users\thewo\AppData\Local\Temp\ccr8EtGz.s 			page 6


 289 01da 22FA03F3 		lsr	r3, r2, r3
 290 01de 0B49     		ldr	r1, .L20+28
 291 01e0 0B60     		str	r3, [r1]
 292 01e2 0B4B     		ldr	r3, .L20+32
 293 01e4 1A60     		str	r2, [r3]
 294 01e6 5DF8044B 		ldr	r4, [sp], #4
 295 01ea 7047     		bx	lr
 296              	.L18:
 297 01ec 094A     		ldr	r2, .L20+36
 298 01ee E7E7     		b	.L11
 299              	.L21:
 300              		.align	2
 301              	.L20:
 302 01f0 00440258 		.word	1476543488
 303 01f4 00093D00 		.word	4000000
 304 01f8 0090D003 		.word	64000000
 305 01fc 00000039 		.word	956301312
 306 0200 0024744A 		.word	1249125376
 307 0204 001BB74B 		.word	1270291200
 308 0208 00000000 		.word	D1CorePrescTable
 309 020c 00000000 		.word	SystemD2Clock
 310 0210 00000000 		.word	SystemCoreClock
 311 0214 00366E01 		.word	24000000
 313              		.section	.text.ExitRun0Mode,"ax",%progbits
 314              		.align	1
 315              		.global	ExitRun0Mode
 316              		.syntax unified
 317              		.thumb
 318              		.thumb_func
 320              	ExitRun0Mode:
 321              		@ args = 0, pretend = 0, frame = 0
 322              		@ frame_needed = 0, uses_anonymous_args = 0
 323              		@ link register save eliminated.
 324 0000 054A     		ldr	r2, .L24
 325 0002 D368     		ldr	r3, [r2, #12]
 326 0004 23F00203 		bic	r3, r3, #2
 327 0008 D360     		str	r3, [r2, #12]
 328              	.L23:
 329 000a 034B     		ldr	r3, .L24
 330 000c 5B68     		ldr	r3, [r3, #4]
 331 000e 13F4005F 		tst	r3, #8192
 332 0012 FAD0     		beq	.L23
 333 0014 7047     		bx	lr
 334              	.L25:
 335 0016 00BF     		.align	2
 336              	.L24:
 337 0018 00480258 		.word	1476544512
 339              		.global	D1CorePrescTable
 340              		.section	.rodata.D1CorePrescTable,"a"
 341              		.align	2
 344              	D1CorePrescTable:
 345 0000 00000000 		.ascii	"\000\000\000\000\001\002\003\004\001\002\003\004\006"
 345      01020304 
 345      01020304 
 345      06
 346 000d 070809   		.ascii	"\007\010\011"
 347              		.global	SystemD2Clock
ARM GAS  C:\Users\thewo\AppData\Local\Temp\ccr8EtGz.s 			page 7


 348              		.section	.data.SystemD2Clock,"aw"
 349              		.align	2
 352              	SystemD2Clock:
 353 0000 0090D003 		.word	64000000
 354              		.global	SystemCoreClock
 355              		.section	.data.SystemCoreClock,"aw"
 356              		.align	2
 359              	SystemCoreClock:
 360 0000 0090D003 		.word	64000000
 361              		.ident	"GCC: (xPack GNU Arm Embedded GCC x86_64) 14.2.1 20241119"
ARM GAS  C:\Users\thewo\AppData\Local\Temp\ccr8EtGz.s 			page 8

