ARM GAS  C:\Users\thewo\AppData\Local\Temp\ccFtTlQQ.s 			page 1


   1              		.cpu cortex-m7
   2              		.arch armv7e-m
   3              		.fpu fpv5-d16
   4              		.eabi_attribute 28, 1
   5              		.eabi_attribute 20, 1
   6              		.eabi_attribute 21, 1
   7              		.eabi_attribute 23, 3
   8              		.eabi_attribute 24, 1
   9              		.eabi_attribute 25, 1
  10              		.eabi_attribute 26, 1
  11              		.eabi_attribute 30, 1
  12              		.eabi_attribute 34, 1
  13              		.eabi_attribute 18, 4
  14              		.file	"usbd_ctlreq.c"
  15              		.text
  16              		.section	.text.USBD_GetLen,"ax",%progbits
  17              		.align	1
  18              		.syntax unified
  19              		.thumb
  20              		.thumb_func
  22              	USBD_GetLen:
  23              		@ args = 0, pretend = 0, frame = 0
  24              		@ frame_needed = 0, uses_anonymous_args = 0
  25              		@ link register save eliminated.
  26 0000 0346     		mov	r3, r0
  27 0002 0020     		movs	r0, #0
  28 0004 02E0     		b	.L2
  29              	.L3:
  30 0006 0130     		adds	r0, r0, #1
  31 0008 C0B2     		uxtb	r0, r0
  32 000a 0133     		adds	r3, r3, #1
  33              	.L2:
  34 000c 1A78     		ldrb	r2, [r3]	@ zero_extendqisi2
  35 000e 002A     		cmp	r2, #0
  36 0010 F9D1     		bne	.L3
  37 0012 7047     		bx	lr
  39              		.section	.text.USBD_ParseSetupRequest,"ax",%progbits
  40              		.align	1
  41              		.global	USBD_ParseSetupRequest
  42              		.syntax unified
  43              		.thumb
  44              		.thumb_func
  46              	USBD_ParseSetupRequest:
  47              		@ args = 0, pretend = 0, frame = 0
  48              		@ frame_needed = 0, uses_anonymous_args = 0
  49              		@ link register save eliminated.
  50 0000 0B78     		ldrb	r3, [r1]	@ zero_extendqisi2
  51 0002 0370     		strb	r3, [r0]
  52 0004 4B78     		ldrb	r3, [r1, #1]	@ zero_extendqisi2
  53 0006 4370     		strb	r3, [r0, #1]
  54 0008 8B78     		ldrb	r3, [r1, #2]	@ zero_extendqisi2
  55 000a CA78     		ldrb	r2, [r1, #3]	@ zero_extendqisi2
  56 000c 43EA0223 		orr	r3, r3, r2, lsl #8
  57 0010 4380     		strh	r3, [r0, #2]	@ movhi
  58 0012 0B79     		ldrb	r3, [r1, #4]	@ zero_extendqisi2
  59 0014 4A79     		ldrb	r2, [r1, #5]	@ zero_extendqisi2
  60 0016 43EA0223 		orr	r3, r3, r2, lsl #8
ARM GAS  C:\Users\thewo\AppData\Local\Temp\ccFtTlQQ.s 			page 2


  61 001a 8380     		strh	r3, [r0, #4]	@ movhi
  62 001c 8B79     		ldrb	r3, [r1, #6]	@ zero_extendqisi2
  63 001e CA79     		ldrb	r2, [r1, #7]	@ zero_extendqisi2
  64 0020 43EA0223 		orr	r3, r3, r2, lsl #8
  65 0024 C380     		strh	r3, [r0, #6]	@ movhi
  66 0026 7047     		bx	lr
  68              		.section	.text.USBD_CtlError,"ax",%progbits
  69              		.align	1
  70              		.global	USBD_CtlError
  71              		.syntax unified
  72              		.thumb
  73              		.thumb_func
  75              	USBD_CtlError:
  76              		@ args = 0, pretend = 0, frame = 0
  77              		@ frame_needed = 0, uses_anonymous_args = 0
  78 0000 10B5     		push	{r4, lr}
  79 0002 0446     		mov	r4, r0
  80 0004 8021     		movs	r1, #128
  81 0006 FFF7FEFF 		bl	USBD_LL_StallEP
  82 000a 0021     		movs	r1, #0
  83 000c 2046     		mov	r0, r4
  84 000e FFF7FEFF 		bl	USBD_LL_StallEP
  85 0012 10BD     		pop	{r4, pc}
  87              		.section	.text.USBD_GetDescriptor,"ax",%progbits
  88              		.align	1
  89              		.syntax unified
  90              		.thumb
  91              		.thumb_func
  93              	USBD_GetDescriptor:
  94              		@ args = 0, pretend = 0, frame = 8
  95              		@ frame_needed = 0, uses_anonymous_args = 0
  96 0000 30B5     		push	{r4, r5, lr}
  97 0002 83B0     		sub	sp, sp, #12
  98 0004 0446     		mov	r4, r0
  99 0006 0D46     		mov	r5, r1
 100 0008 0023     		movs	r3, #0
 101 000a ADF80630 		strh	r3, [sp, #6]	@ movhi
 102 000e 4A88     		ldrh	r2, [r1, #2]
 103 0010 130A     		lsrs	r3, r2, #8
 104 0012 013B     		subs	r3, r3, #1
 105 0014 062B     		cmp	r3, #6
 106 0016 00F2AA80 		bhi	.L8
 107 001a DFE803F0 		tbb	[pc, r3]
 108              	.L10:
 109 001e 04       		.byte	(.L14-.L10)/2
 110 001f 1E       		.byte	(.L13-.L10)/2
 111 0020 32       		.byte	(.L12-.L10)/2
 112 0021 A8       		.byte	(.L8-.L10)/2
 113 0022 A8       		.byte	(.L8-.L10)/2
 114 0023 8C       		.byte	(.L11-.L10)/2
 115 0024 99       		.byte	(.L9-.L10)/2
 116 0025 00       		.p2align 1
 117              	.L14:
 118 0026 D0F8B432 		ldr	r3, [r0, #692]
 119 002a 1B68     		ldr	r3, [r3]
 120 002c 0DF10601 		add	r1, sp, #6
 121 0030 007C     		ldrb	r0, [r0, #16]	@ zero_extendqisi2
ARM GAS  C:\Users\thewo\AppData\Local\Temp\ccFtTlQQ.s 			page 3


 122 0032 9847     		blx	r3
 123              	.L15:
 124 0034 EA88     		ldrh	r2, [r5, #6]
 125 0036 002A     		cmp	r2, #0
 126 0038 00F0A380 		beq	.L35
 127 003c BDF80630 		ldrh	r3, [sp, #6]
 128 0040 002B     		cmp	r3, #0
 129 0042 00F09980 		beq	.L36
 130 0046 9A42     		cmp	r2, r3
 131 0048 28BF     		it	cs
 132 004a 1A46     		movcs	r2, r3
 133 004c ADF80620 		strh	r2, [sp, #6]	@ movhi
 134 0050 0146     		mov	r1, r0
 135 0052 2046     		mov	r0, r4
 136 0054 FFF7FEFF 		bl	USBD_CtlSendData
 137 0058 8CE0     		b	.L7
 138              	.L13:
 139 005a 037C     		ldrb	r3, [r0, #16]	@ zero_extendqisi2
 140 005c 43B9     		cbnz	r3, .L16
 141 005e D0F8B832 		ldr	r3, [r0, #696]
 142 0062 9B6A     		ldr	r3, [r3, #40]
 143 0064 0DF10600 		add	r0, sp, #6
 144 0068 9847     		blx	r3
 145 006a 0223     		movs	r3, #2
 146 006c 4370     		strb	r3, [r0, #1]
 147 006e E1E7     		b	.L15
 148              	.L16:
 149 0070 D0F8B832 		ldr	r3, [r0, #696]
 150 0074 DB6A     		ldr	r3, [r3, #44]
 151 0076 0DF10600 		add	r0, sp, #6
 152 007a 9847     		blx	r3
 153 007c 0223     		movs	r3, #2
 154 007e 4370     		strb	r3, [r0, #1]
 155 0080 D8E7     		b	.L15
 156              	.L12:
 157 0082 D2B2     		uxtb	r2, r2
 158 0084 052A     		cmp	r2, #5
 159 0086 52D8     		bhi	.L17
 160 0088 DFE802F0 		tbb	[pc, r2]
 161              	.L19:
 162 008c 03       		.byte	(.L24-.L19)/2
 163 008d 10       		.byte	(.L23-.L19)/2
 164 008e 1D       		.byte	(.L22-.L19)/2
 165 008f 2A       		.byte	(.L21-.L19)/2
 166 0090 37       		.byte	(.L20-.L19)/2
 167 0091 44       		.byte	(.L18-.L19)/2
 168              		.p2align 1
 169              	.L24:
 170 0092 D0F8B432 		ldr	r3, [r0, #692]
 171 0096 5B68     		ldr	r3, [r3, #4]
 172 0098 23B1     		cbz	r3, .L25
 173 009a 0DF10601 		add	r1, sp, #6
 174 009e 007C     		ldrb	r0, [r0, #16]	@ zero_extendqisi2
 175 00a0 9847     		blx	r3
 176 00a2 C7E7     		b	.L15
 177              	.L25:
 178 00a4 2946     		mov	r1, r5
ARM GAS  C:\Users\thewo\AppData\Local\Temp\ccFtTlQQ.s 			page 4


 179 00a6 FFF7FEFF 		bl	USBD_CtlError
 180 00aa 63E0     		b	.L7
 181              	.L23:
 182 00ac D0F8B432 		ldr	r3, [r0, #692]
 183 00b0 9B68     		ldr	r3, [r3, #8]
 184 00b2 23B1     		cbz	r3, .L27
 185 00b4 0DF10601 		add	r1, sp, #6
 186 00b8 007C     		ldrb	r0, [r0, #16]	@ zero_extendqisi2
 187 00ba 9847     		blx	r3
 188 00bc BAE7     		b	.L15
 189              	.L27:
 190 00be 2946     		mov	r1, r5
 191 00c0 FFF7FEFF 		bl	USBD_CtlError
 192 00c4 56E0     		b	.L7
 193              	.L22:
 194 00c6 D0F8B432 		ldr	r3, [r0, #692]
 195 00ca DB68     		ldr	r3, [r3, #12]
 196 00cc 23B1     		cbz	r3, .L28
 197 00ce 0DF10601 		add	r1, sp, #6
 198 00d2 007C     		ldrb	r0, [r0, #16]	@ zero_extendqisi2
 199 00d4 9847     		blx	r3
 200 00d6 ADE7     		b	.L15
 201              	.L28:
 202 00d8 2946     		mov	r1, r5
 203 00da FFF7FEFF 		bl	USBD_CtlError
 204 00de 49E0     		b	.L7
 205              	.L21:
 206 00e0 D0F8B432 		ldr	r3, [r0, #692]
 207 00e4 1B69     		ldr	r3, [r3, #16]
 208 00e6 23B1     		cbz	r3, .L29
 209 00e8 0DF10601 		add	r1, sp, #6
 210 00ec 007C     		ldrb	r0, [r0, #16]	@ zero_extendqisi2
 211 00ee 9847     		blx	r3
 212 00f0 A0E7     		b	.L15
 213              	.L29:
 214 00f2 2946     		mov	r1, r5
 215 00f4 FFF7FEFF 		bl	USBD_CtlError
 216 00f8 3CE0     		b	.L7
 217              	.L20:
 218 00fa D0F8B432 		ldr	r3, [r0, #692]
 219 00fe 5B69     		ldr	r3, [r3, #20]
 220 0100 23B1     		cbz	r3, .L30
 221 0102 0DF10601 		add	r1, sp, #6
 222 0106 007C     		ldrb	r0, [r0, #16]	@ zero_extendqisi2
 223 0108 9847     		blx	r3
 224 010a 93E7     		b	.L15
 225              	.L30:
 226 010c 2946     		mov	r1, r5
 227 010e FFF7FEFF 		bl	USBD_CtlError
 228 0112 2FE0     		b	.L7
 229              	.L18:
 230 0114 D0F8B432 		ldr	r3, [r0, #692]
 231 0118 9B69     		ldr	r3, [r3, #24]
 232 011a 23B1     		cbz	r3, .L31
 233 011c 0DF10601 		add	r1, sp, #6
 234 0120 007C     		ldrb	r0, [r0, #16]	@ zero_extendqisi2
 235 0122 9847     		blx	r3
ARM GAS  C:\Users\thewo\AppData\Local\Temp\ccFtTlQQ.s 			page 5


 236 0124 86E7     		b	.L15
 237              	.L31:
 238 0126 2946     		mov	r1, r5
 239 0128 FFF7FEFF 		bl	USBD_CtlError
 240 012c 22E0     		b	.L7
 241              	.L17:
 242 012e 2946     		mov	r1, r5
 243 0130 FFF7FEFF 		bl	USBD_CtlError
 244 0134 1EE0     		b	.L7
 245              	.L11:
 246 0136 037C     		ldrb	r3, [r0, #16]	@ zero_extendqisi2
 247 0138 33B9     		cbnz	r3, .L32
 248 013a D0F8B832 		ldr	r3, [r0, #696]
 249 013e 5B6B     		ldr	r3, [r3, #52]
 250 0140 0DF10600 		add	r0, sp, #6
 251 0144 9847     		blx	r3
 252 0146 75E7     		b	.L15
 253              	.L32:
 254 0148 2946     		mov	r1, r5
 255 014a FFF7FEFF 		bl	USBD_CtlError
 256 014e 11E0     		b	.L7
 257              	.L9:
 258 0150 037C     		ldrb	r3, [r0, #16]	@ zero_extendqisi2
 259 0152 43B9     		cbnz	r3, .L33
 260 0154 D0F8B832 		ldr	r3, [r0, #696]
 261 0158 1B6B     		ldr	r3, [r3, #48]
 262 015a 0DF10600 		add	r0, sp, #6
 263 015e 9847     		blx	r3
 264 0160 0723     		movs	r3, #7
 265 0162 4370     		strb	r3, [r0, #1]
 266 0164 66E7     		b	.L15
 267              	.L33:
 268 0166 2946     		mov	r1, r5
 269 0168 FFF7FEFF 		bl	USBD_CtlError
 270 016c 02E0     		b	.L7
 271              	.L8:
 272 016e 2946     		mov	r1, r5
 273 0170 FFF7FEFF 		bl	USBD_CtlError
 274              	.L7:
 275 0174 03B0     		add	sp, sp, #12
 276              		@ sp needed
 277 0176 30BD     		pop	{r4, r5, pc}
 278              	.L36:
 279 0178 2946     		mov	r1, r5
 280 017a 2046     		mov	r0, r4
 281 017c FFF7FEFF 		bl	USBD_CtlError
 282 0180 F8E7     		b	.L7
 283              	.L35:
 284 0182 2046     		mov	r0, r4
 285 0184 FFF7FEFF 		bl	USBD_CtlSendStatus
 286 0188 F4E7     		b	.L7
 288              		.section	.text.USBD_SetAddress,"ax",%progbits
 289              		.align	1
 290              		.syntax unified
 291              		.thumb
 292              		.thumb_func
 294              	USBD_SetAddress:
ARM GAS  C:\Users\thewo\AppData\Local\Temp\ccFtTlQQ.s 			page 6


 295              		@ args = 0, pretend = 0, frame = 0
 296              		@ frame_needed = 0, uses_anonymous_args = 0
 297 0000 38B5     		push	{r3, r4, r5, lr}
 298 0002 0446     		mov	r4, r0
 299 0004 8B88     		ldrh	r3, [r1, #4]
 300 0006 F3B9     		cbnz	r3, .L40
 301 0008 CB88     		ldrh	r3, [r1, #6]
 302 000a E3B9     		cbnz	r3, .L40
 303 000c 4B88     		ldrh	r3, [r1, #2]
 304 000e 7F2B     		cmp	r3, #127
 305 0010 19D8     		bhi	.L40
 306 0012 03F07F05 		and	r5, r3, #127
 307 0016 90F89C32 		ldrb	r3, [r0, #668]	@ zero_extendqisi2
 308 001a 032B     		cmp	r3, #3
 309 001c 0CD0     		beq	.L45
 310 001e 80F89E52 		strb	r5, [r0, #670]
 311 0022 2946     		mov	r1, r5
 312 0024 FFF7FEFF 		bl	USBD_LL_SetUSBAddress
 313 0028 2046     		mov	r0, r4
 314 002a FFF7FEFF 		bl	USBD_CtlSendStatus
 315 002e 35B1     		cbz	r5, .L43
 316 0030 0223     		movs	r3, #2
 317 0032 84F89C32 		strb	r3, [r4, #668]
 318 0036 09E0     		b	.L39
 319              	.L45:
 320 0038 FFF7FEFF 		bl	USBD_CtlError
 321 003c 06E0     		b	.L39
 322              	.L43:
 323 003e 0123     		movs	r3, #1
 324 0040 84F89C32 		strb	r3, [r4, #668]
 325 0044 02E0     		b	.L39
 326              	.L40:
 327 0046 2046     		mov	r0, r4
 328 0048 FFF7FEFF 		bl	USBD_CtlError
 329              	.L39:
 330 004c 38BD     		pop	{r3, r4, r5, pc}
 332              		.section	.text.USBD_SetConfig,"ax",%progbits
 333              		.align	1
 334              		.syntax unified
 335              		.thumb
 336              		.thumb_func
 338              	USBD_SetConfig:
 339              		@ args = 0, pretend = 0, frame = 0
 340              		@ frame_needed = 0, uses_anonymous_args = 0
 341 0000 70B5     		push	{r4, r5, r6, lr}
 342 0002 0446     		mov	r4, r0
 343 0004 0E46     		mov	r6, r1
 344 0006 8D78     		ldrb	r5, [r1, #2]	@ zero_extendqisi2
 345 0008 2F4B     		ldr	r3, .L61
 346 000a 1D70     		strb	r5, [r3]
 347 000c 012D     		cmp	r5, #1
 348 000e 10D8     		bhi	.L59
 349 0010 90F89C32 		ldrb	r3, [r0, #668]	@ zero_extendqisi2
 350 0014 DAB2     		uxtb	r2, r3
 351 0016 022B     		cmp	r3, #2
 352 0018 0FD0     		beq	.L49
 353 001a 032A     		cmp	r2, #3
ARM GAS  C:\Users\thewo\AppData\Local\Temp\ccFtTlQQ.s 			page 7


 354 001c 26D0     		beq	.L50
 355 001e FFF7FEFF 		bl	USBD_CtlError
 356 0022 294B     		ldr	r3, .L61
 357 0024 1978     		ldrb	r1, [r3]	@ zero_extendqisi2
 358 0026 2046     		mov	r0, r4
 359 0028 FFF7FEFF 		bl	USBD_ClrClassConfig
 360 002c 0325     		movs	r5, #3
 361              	.L48:
 362 002e 2846     		mov	r0, r5
 363 0030 70BD     		pop	{r4, r5, r6, pc}
 364              	.L59:
 365 0032 FFF7FEFF 		bl	USBD_CtlError
 366 0036 0325     		movs	r5, #3
 367 0038 F9E7     		b	.L48
 368              	.L49:
 369 003a A5B1     		cbz	r5, .L52
 370 003c 4560     		str	r5, [r0, #4]
 371 003e 2946     		mov	r1, r5
 372 0040 FFF7FEFF 		bl	USBD_SetClassConfig
 373 0044 0546     		mov	r5, r0
 374 0046 38B1     		cbz	r0, .L53
 375 0048 3146     		mov	r1, r6
 376 004a 2046     		mov	r0, r4
 377 004c FFF7FEFF 		bl	USBD_CtlError
 378 0050 0223     		movs	r3, #2
 379 0052 84F89C32 		strb	r3, [r4, #668]
 380 0056 EAE7     		b	.L48
 381              	.L53:
 382 0058 2046     		mov	r0, r4
 383 005a FFF7FEFF 		bl	USBD_CtlSendStatus
 384 005e 0323     		movs	r3, #3
 385 0060 84F89C32 		strb	r3, [r4, #668]
 386 0064 E3E7     		b	.L48
 387              	.L52:
 388 0066 FFF7FEFF 		bl	USBD_CtlSendStatus
 389 006a E0E7     		b	.L48
 390              	.L50:
 391 006c CDB1     		cbz	r5, .L60
 392 006e 4168     		ldr	r1, [r0, #4]
 393 0070 8D42     		cmp	r5, r1
 394 0072 25D0     		beq	.L55
 395 0074 C9B2     		uxtb	r1, r1
 396 0076 FFF7FEFF 		bl	USBD_ClrClassConfig
 397 007a 134B     		ldr	r3, .L61
 398 007c 1978     		ldrb	r1, [r3]	@ zero_extendqisi2
 399 007e 6160     		str	r1, [r4, #4]
 400 0080 2046     		mov	r0, r4
 401 0082 FFF7FEFF 		bl	USBD_SetClassConfig
 402 0086 0546     		mov	r5, r0
 403 0088 B0B1     		cbz	r0, .L56
 404 008a 3146     		mov	r1, r6
 405 008c 2046     		mov	r0, r4
 406 008e FFF7FEFF 		bl	USBD_CtlError
 407 0092 2179     		ldrb	r1, [r4, #4]	@ zero_extendqisi2
 408 0094 2046     		mov	r0, r4
 409 0096 FFF7FEFF 		bl	USBD_ClrClassConfig
 410 009a 0223     		movs	r3, #2
ARM GAS  C:\Users\thewo\AppData\Local\Temp\ccFtTlQQ.s 			page 8


 411 009c 84F89C32 		strb	r3, [r4, #668]
 412 00a0 C5E7     		b	.L48
 413              	.L60:
 414 00a2 0223     		movs	r3, #2
 415 00a4 80F89C32 		strb	r3, [r0, #668]
 416 00a8 4560     		str	r5, [r0, #4]
 417 00aa 2946     		mov	r1, r5
 418 00ac FFF7FEFF 		bl	USBD_ClrClassConfig
 419 00b0 2046     		mov	r0, r4
 420 00b2 FFF7FEFF 		bl	USBD_CtlSendStatus
 421 00b6 BAE7     		b	.L48
 422              	.L56:
 423 00b8 2046     		mov	r0, r4
 424 00ba FFF7FEFF 		bl	USBD_CtlSendStatus
 425 00be B6E7     		b	.L48
 426              	.L55:
 427 00c0 FFF7FEFF 		bl	USBD_CtlSendStatus
 428 00c4 0025     		movs	r5, #0
 429 00c6 B2E7     		b	.L48
 430              	.L62:
 431              		.align	2
 432              	.L61:
 433 00c8 00000000 		.word	cfgidx.0
 435              		.section	.text.USBD_GetConfig,"ax",%progbits
 436              		.align	1
 437              		.syntax unified
 438              		.thumb
 439              		.thumb_func
 441              	USBD_GetConfig:
 442              		@ args = 0, pretend = 0, frame = 0
 443              		@ frame_needed = 0, uses_anonymous_args = 0
 444 0000 08B5     		push	{r3, lr}
 445 0002 CB88     		ldrh	r3, [r1, #6]
 446 0004 012B     		cmp	r3, #1
 447 0006 0BD1     		bne	.L71
 448 0008 90F89C32 		ldrb	r3, [r0, #668]	@ zero_extendqisi2
 449 000c DAB2     		uxtb	r2, r3
 450 000e 022B     		cmp	r3, #2
 451 0010 09D9     		bls	.L72
 452 0012 032A     		cmp	r2, #3
 453 0014 11D1     		bne	.L68
 454 0016 0122     		movs	r2, #1
 455 0018 011D     		adds	r1, r0, #4
 456 001a FFF7FEFF 		bl	USBD_CtlSendData
 457 001e 01E0     		b	.L63
 458              	.L71:
 459 0020 FFF7FEFF 		bl	USBD_CtlError
 460              	.L63:
 461 0024 08BD     		pop	{r3, pc}
 462              	.L72:
 463 0026 52B2     		sxtb	r2, r2
 464 0028 3AB1     		cbz	r2, .L68
 465 002a 0146     		mov	r1, r0
 466 002c 0023     		movs	r3, #0
 467 002e 41F8083F 		str	r3, [r1, #8]!
 468 0032 0122     		movs	r2, #1
 469 0034 FFF7FEFF 		bl	USBD_CtlSendData
ARM GAS  C:\Users\thewo\AppData\Local\Temp\ccFtTlQQ.s 			page 9


 470 0038 F4E7     		b	.L63
 471              	.L68:
 472 003a FFF7FEFF 		bl	USBD_CtlError
 473 003e F1E7     		b	.L63
 475              		.section	.text.USBD_GetStatus,"ax",%progbits
 476              		.align	1
 477              		.syntax unified
 478              		.thumb
 479              		.thumb_func
 481              	USBD_GetStatus:
 482              		@ args = 0, pretend = 0, frame = 0
 483              		@ frame_needed = 0, uses_anonymous_args = 0
 484 0000 08B5     		push	{r3, lr}
 485 0002 90F89C32 		ldrb	r3, [r0, #668]	@ zero_extendqisi2
 486 0006 013B     		subs	r3, r3, #1
 487 0008 022B     		cmp	r3, #2
 488 000a 12D8     		bhi	.L74
 489 000c CB88     		ldrh	r3, [r1, #6]
 490 000e 022B     		cmp	r3, #2
 491 0010 0CD1     		bne	.L79
 492 0012 0023     		movs	r3, #0
 493 0014 C360     		str	r3, [r0, #12]
 494 0016 D0F8A432 		ldr	r3, [r0, #676]
 495 001a 0BB1     		cbz	r3, .L77
 496 001c 0223     		movs	r3, #2
 497 001e C360     		str	r3, [r0, #12]
 498              	.L77:
 499 0020 0222     		movs	r2, #2
 500 0022 00F10C01 		add	r1, r0, #12
 501 0026 FFF7FEFF 		bl	USBD_CtlSendData
 502              	.L73:
 503 002a 08BD     		pop	{r3, pc}
 504              	.L79:
 505 002c FFF7FEFF 		bl	USBD_CtlError
 506 0030 FBE7     		b	.L73
 507              	.L74:
 508 0032 FFF7FEFF 		bl	USBD_CtlError
 509 0036 F8E7     		b	.L73
 511              		.section	.text.USBD_SetFeature,"ax",%progbits
 512              		.align	1
 513              		.syntax unified
 514              		.thumb
 515              		.thumb_func
 517              	USBD_SetFeature:
 518              		@ args = 0, pretend = 0, frame = 0
 519              		@ frame_needed = 0, uses_anonymous_args = 0
 520 0000 08B5     		push	{r3, lr}
 521 0002 4B88     		ldrh	r3, [r1, #2]
 522 0004 012B     		cmp	r3, #1
 523 0006 04D0     		beq	.L85
 524 0008 022B     		cmp	r3, #2
 525 000a 07D0     		beq	.L86
 526 000c FFF7FEFF 		bl	USBD_CtlError
 527              	.L80:
 528 0010 08BD     		pop	{r3, pc}
 529              	.L85:
 530 0012 C0F8A432 		str	r3, [r0, #676]
ARM GAS  C:\Users\thewo\AppData\Local\Temp\ccFtTlQQ.s 			page 10


 531 0016 FFF7FEFF 		bl	USBD_CtlSendStatus
 532 001a F9E7     		b	.L80
 533              	.L86:
 534 001c 8B88     		ldrh	r3, [r1, #4]
 535 001e 1B0A     		lsrs	r3, r3, #8
 536 0020 80F8A032 		strb	r3, [r0, #672]
 537 0024 FFF7FEFF 		bl	USBD_CtlSendStatus
 538 0028 F2E7     		b	.L80
 540              		.section	.text.USBD_ClrFeature,"ax",%progbits
 541              		.align	1
 542              		.syntax unified
 543              		.thumb
 544              		.thumb_func
 546              	USBD_ClrFeature:
 547              		@ args = 0, pretend = 0, frame = 0
 548              		@ frame_needed = 0, uses_anonymous_args = 0
 549 0000 08B5     		push	{r3, lr}
 550 0002 90F89C32 		ldrb	r3, [r0, #668]	@ zero_extendqisi2
 551 0006 013B     		subs	r3, r3, #1
 552 0008 022B     		cmp	r3, #2
 553 000a 09D8     		bhi	.L88
 554 000c 4B88     		ldrh	r3, [r1, #2]
 555 000e 012B     		cmp	r3, #1
 556 0010 00D0     		beq	.L91
 557              	.L87:
 558 0012 08BD     		pop	{r3, pc}
 559              	.L91:
 560 0014 0023     		movs	r3, #0
 561 0016 C0F8A432 		str	r3, [r0, #676]
 562 001a FFF7FEFF 		bl	USBD_CtlSendStatus
 563 001e F8E7     		b	.L87
 564              	.L88:
 565 0020 FFF7FEFF 		bl	USBD_CtlError
 566 0024 F5E7     		b	.L87
 568              		.section	.text.USBD_StdDevReq,"ax",%progbits
 569              		.align	1
 570              		.global	USBD_StdDevReq
 571              		.syntax unified
 572              		.thumb
 573              		.thumb_func
 575              	USBD_StdDevReq:
 576              		@ args = 0, pretend = 0, frame = 0
 577              		@ frame_needed = 0, uses_anonymous_args = 0
 578 0000 38B5     		push	{r3, r4, r5, lr}
 579 0002 0C78     		ldrb	r4, [r1]	@ zero_extendqisi2
 580 0004 04F06004 		and	r4, r4, #96
 581 0008 202C     		cmp	r4, #32
 582 000a 06D0     		beq	.L93
 583 000c 402C     		cmp	r4, #64
 584 000e 04D0     		beq	.L93
 585 0010 6CB1     		cbz	r4, .L94
 586 0012 FFF7FEFF 		bl	USBD_CtlError
 587 0016 0024     		movs	r4, #0
 588 0018 07E0     		b	.L96
 589              	.L93:
 590 001a D0F8D432 		ldr	r3, [r0, #724]
 591 001e AE33     		adds	r3, r3, #174
ARM GAS  C:\Users\thewo\AppData\Local\Temp\ccFtTlQQ.s 			page 11


 592 0020 50F82330 		ldr	r3, [r0, r3, lsl #2]
 593 0024 9B68     		ldr	r3, [r3, #8]
 594 0026 9847     		blx	r3
 595 0028 0446     		mov	r4, r0
 596              	.L96:
 597 002a 2046     		mov	r0, r4
 598 002c 38BD     		pop	{r3, r4, r5, pc}
 599              	.L94:
 600 002e 4D78     		ldrb	r5, [r1, #1]	@ zero_extendqisi2
 601 0030 092D     		cmp	r5, #9
 602 0032 1DD8     		bhi	.L97
 603 0034 DFE805F0 		tbb	[pc, r5]
 604              	.L99:
 605 0038 12       		.byte	(.L105-.L99)/2
 606 0039 19       		.byte	(.L104-.L99)/2
 607 003a 1C       		.byte	(.L97-.L99)/2
 608 003b 16       		.byte	(.L103-.L99)/2
 609 003c 1C       		.byte	(.L97-.L99)/2
 610 003d 08       		.byte	(.L102-.L99)/2
 611 003e 05       		.byte	(.L101-.L99)/2
 612 003f 1C       		.byte	(.L97-.L99)/2
 613 0040 0F       		.byte	(.L100-.L99)/2
 614 0041 0B       		.byte	(.L98-.L99)/2
 615              		.p2align 1
 616              	.L101:
 617 0042 FFF7FEFF 		bl	USBD_GetDescriptor
 618 0046 F0E7     		b	.L96
 619              	.L102:
 620 0048 FFF7FEFF 		bl	USBD_SetAddress
 621 004c EDE7     		b	.L96
 622              	.L98:
 623 004e FFF7FEFF 		bl	USBD_SetConfig
 624 0052 0446     		mov	r4, r0
 625 0054 E9E7     		b	.L96
 626              	.L100:
 627 0056 FFF7FEFF 		bl	USBD_GetConfig
 628 005a E6E7     		b	.L96
 629              	.L105:
 630 005c FFF7FEFF 		bl	USBD_GetStatus
 631 0060 2C46     		mov	r4, r5
 632 0062 E2E7     		b	.L96
 633              	.L103:
 634 0064 FFF7FEFF 		bl	USBD_SetFeature
 635 0068 DFE7     		b	.L96
 636              	.L104:
 637 006a FFF7FEFF 		bl	USBD_ClrFeature
 638 006e DCE7     		b	.L96
 639              	.L97:
 640 0070 FFF7FEFF 		bl	USBD_CtlError
 641 0074 D9E7     		b	.L96
 643              		.section	.text.USBD_StdItfReq,"ax",%progbits
 644              		.align	1
 645              		.global	USBD_StdItfReq
 646              		.syntax unified
 647              		.thumb
 648              		.thumb_func
 650              	USBD_StdItfReq:
ARM GAS  C:\Users\thewo\AppData\Local\Temp\ccFtTlQQ.s 			page 12


 651              		@ args = 0, pretend = 0, frame = 0
 652              		@ frame_needed = 0, uses_anonymous_args = 0
 653 0000 70B5     		push	{r4, r5, r6, lr}
 654 0002 0546     		mov	r5, r0
 655 0004 0C46     		mov	r4, r1
 656 0006 0B78     		ldrb	r3, [r1]	@ zero_extendqisi2
 657 0008 03F06003 		and	r3, r3, #96
 658 000c 202B     		cmp	r3, #32
 659 000e 07D0     		beq	.L109
 660 0010 402B     		cmp	r3, #64
 661 0012 05D0     		beq	.L109
 662 0014 23B1     		cbz	r3, .L109
 663 0016 FFF7FEFF 		bl	USBD_CtlError
 664 001a 0026     		movs	r6, #0
 665              	.L114:
 666 001c 3046     		mov	r0, r6
 667 001e 70BD     		pop	{r4, r5, r6, pc}
 668              	.L109:
 669 0020 95F89C32 		ldrb	r3, [r5, #668]	@ zero_extendqisi2
 670 0024 013B     		subs	r3, r3, #1
 671 0026 022B     		cmp	r3, #2
 672 0028 26D8     		bhi	.L111
 673 002a 2179     		ldrb	r1, [r4, #4]	@ zero_extendqisi2
 674 002c 0129     		cmp	r1, #1
 675 002e 05D9     		bls	.L118
 676 0030 2146     		mov	r1, r4
 677 0032 2846     		mov	r0, r5
 678 0034 FFF7FEFF 		bl	USBD_CtlError
 679 0038 0026     		movs	r6, #0
 680 003a EFE7     		b	.L114
 681              	.L118:
 682 003c 2846     		mov	r0, r5
 683 003e FFF7FEFF 		bl	USBD_CoreFindIF
 684 0042 68B9     		cbnz	r0, .L115
 685 0044 00F1AE02 		add	r2, r0, #174
 686 0048 55F82220 		ldr	r2, [r5, r2, lsl #2]
 687 004c 9168     		ldr	r1, [r2, #8]
 688 004e 89B1     		cbz	r1, .L116
 689 0050 C5F8D402 		str	r0, [r5, #724]
 690 0054 9368     		ldr	r3, [r2, #8]
 691 0056 2146     		mov	r1, r4
 692 0058 2846     		mov	r0, r5
 693 005a 9847     		blx	r3
 694 005c 0646     		mov	r6, r0
 695 005e 00E0     		b	.L113
 696              	.L115:
 697 0060 0326     		movs	r6, #3
 698              	.L113:
 699 0062 E388     		ldrh	r3, [r4, #6]
 700 0064 002B     		cmp	r3, #0
 701 0066 D9D1     		bne	.L114
 702 0068 002E     		cmp	r6, #0
 703 006a D7D1     		bne	.L114
 704 006c 2846     		mov	r0, r5
 705 006e FFF7FEFF 		bl	USBD_CtlSendStatus
 706 0072 D3E7     		b	.L114
 707              	.L116:
ARM GAS  C:\Users\thewo\AppData\Local\Temp\ccFtTlQQ.s 			page 13


 708 0074 0326     		movs	r6, #3
 709 0076 F4E7     		b	.L113
 710              	.L111:
 711 0078 2146     		mov	r1, r4
 712 007a 2846     		mov	r0, r5
 713 007c FFF7FEFF 		bl	USBD_CtlError
 714 0080 0026     		movs	r6, #0
 715 0082 CBE7     		b	.L114
 717              		.section	.text.USBD_StdEPReq,"ax",%progbits
 718              		.align	1
 719              		.global	USBD_StdEPReq
 720              		.syntax unified
 721              		.thumb
 722              		.thumb_func
 724              	USBD_StdEPReq:
 725              		@ args = 0, pretend = 0, frame = 0
 726              		@ frame_needed = 0, uses_anonymous_args = 0
 727 0000 2DE9F041 		push	{r4, r5, r6, r7, r8, lr}
 728 0004 0646     		mov	r6, r0
 729 0006 0D46     		mov	r5, r1
 730 0008 8B88     		ldrh	r3, [r1, #4]
 731 000a DFB2     		uxtb	r7, r3
 732 000c 0C78     		ldrb	r4, [r1]	@ zero_extendqisi2
 733 000e 04F06004 		and	r4, r4, #96
 734 0012 202C     		cmp	r4, #32
 735 0014 08D0     		beq	.L120
 736 0016 402C     		cmp	r4, #64
 737 0018 06D0     		beq	.L120
 738 001a DCB1     		cbz	r4, .L121
 739 001c FFF7FEFF 		bl	USBD_CtlError
 740 0020 0024     		movs	r4, #0
 741              	.L123:
 742 0022 2046     		mov	r0, r4
 743 0024 BDE8F081 		pop	{r4, r5, r6, r7, r8, pc}
 744              	.L120:
 745 0028 3946     		mov	r1, r7
 746 002a 3046     		mov	r0, r6
 747 002c FFF7FEFF 		bl	USBD_CoreFindEP
 748 0030 0446     		mov	r4, r0
 749 0032 0028     		cmp	r0, #0
 750 0034 40F0FD80 		bne	.L151
 751 0038 C6F8D402 		str	r0, [r6, #724]
 752 003c 00F1AE03 		add	r3, r0, #174
 753 0040 56F82330 		ldr	r3, [r6, r3, lsl #2]
 754 0044 9B68     		ldr	r3, [r3, #8]
 755 0046 002B     		cmp	r3, #0
 756 0048 EBD0     		beq	.L123
 757 004a 2946     		mov	r1, r5
 758 004c 3046     		mov	r0, r6
 759 004e 9847     		blx	r3
 760 0050 0446     		mov	r4, r0
 761 0052 E6E7     		b	.L123
 762              	.L121:
 763 0054 91F80180 		ldrb	r8, [r1, #1]	@ zero_extendqisi2
 764 0058 B8F1010F 		cmp	r8, #1
 765 005c 31D0     		beq	.L124
 766 005e B8F1030F 		cmp	r8, #3
ARM GAS  C:\Users\thewo\AppData\Local\Temp\ccFtTlQQ.s 			page 14


 767 0062 05D0     		beq	.L125
 768 0064 B8F1000F 		cmp	r8, #0
 769 0068 66D0     		beq	.L126
 770 006a FFF7FEFF 		bl	USBD_CtlError
 771 006e D8E7     		b	.L123
 772              	.L125:
 773 0070 90F89C32 		ldrb	r3, [r0, #668]	@ zero_extendqisi2
 774 0074 DAB2     		uxtb	r2, r3
 775 0076 022B     		cmp	r3, #2
 776 0078 04D0     		beq	.L128
 777 007a 032A     		cmp	r2, #3
 778 007c 11D0     		beq	.L129
 779 007e FFF7FEFF 		bl	USBD_CtlError
 780 0082 CEE7     		b	.L123
 781              	.L128:
 782 0084 002F     		cmp	r7, #0
 783 0086 18BF     		it	ne
 784 0088 802F     		cmpne	r7, #128
 785 008a 07D0     		beq	.L131
 786 008c 3946     		mov	r1, r7
 787 008e FFF7FEFF 		bl	USBD_LL_StallEP
 788 0092 8021     		movs	r1, #128
 789 0094 3046     		mov	r0, r6
 790 0096 FFF7FEFF 		bl	USBD_LL_StallEP
 791 009a C2E7     		b	.L123
 792              	.L131:
 793 009c FFF7FEFF 		bl	USBD_CtlError
 794 00a0 BFE7     		b	.L123
 795              	.L129:
 796 00a2 4B88     		ldrh	r3, [r1, #2]
 797 00a4 2BB9     		cbnz	r3, .L132
 798 00a6 002F     		cmp	r7, #0
 799 00a8 18BF     		it	ne
 800 00aa 802F     		cmpne	r7, #128
 801 00ac 01D0     		beq	.L132
 802 00ae CB88     		ldrh	r3, [r1, #6]
 803 00b0 1BB1     		cbz	r3, .L159
 804              	.L132:
 805 00b2 3046     		mov	r0, r6
 806 00b4 FFF7FEFF 		bl	USBD_CtlSendStatus
 807 00b8 B3E7     		b	.L123
 808              	.L159:
 809 00ba 3946     		mov	r1, r7
 810 00bc FFF7FEFF 		bl	USBD_LL_StallEP
 811 00c0 F7E7     		b	.L132
 812              	.L124:
 813 00c2 90F89C32 		ldrb	r3, [r0, #668]	@ zero_extendqisi2
 814 00c6 DAB2     		uxtb	r2, r3
 815 00c8 022B     		cmp	r3, #2
 816 00ca 04D0     		beq	.L133
 817 00cc 032A     		cmp	r2, #3
 818 00ce 11D0     		beq	.L134
 819 00d0 FFF7FEFF 		bl	USBD_CtlError
 820 00d4 A5E7     		b	.L123
 821              	.L133:
 822 00d6 002F     		cmp	r7, #0
 823 00d8 18BF     		it	ne
ARM GAS  C:\Users\thewo\AppData\Local\Temp\ccFtTlQQ.s 			page 15


 824 00da 802F     		cmpne	r7, #128
 825 00dc 07D0     		beq	.L136
 826 00de 3946     		mov	r1, r7
 827 00e0 FFF7FEFF 		bl	USBD_LL_StallEP
 828 00e4 8021     		movs	r1, #128
 829 00e6 3046     		mov	r0, r6
 830 00e8 FFF7FEFF 		bl	USBD_LL_StallEP
 831 00ec 99E7     		b	.L123
 832              	.L136:
 833 00ee FFF7FEFF 		bl	USBD_CtlError
 834 00f2 96E7     		b	.L123
 835              	.L134:
 836 00f4 4B88     		ldrh	r3, [r1, #2]
 837 00f6 002B     		cmp	r3, #0
 838 00f8 93D1     		bne	.L123
 839 00fa 17F07F0F 		tst	r7, #127
 840 00fe 17D1     		bne	.L160
 841              	.L137:
 842 0100 3046     		mov	r0, r6
 843 0102 FFF7FEFF 		bl	USBD_CtlSendStatus
 844 0106 3946     		mov	r1, r7
 845 0108 3046     		mov	r0, r6
 846 010a FFF7FEFF 		bl	USBD_CoreFindEP
 847 010e 0028     		cmp	r0, #0
 848 0110 87D1     		bne	.L123
 849 0112 C6F8D402 		str	r0, [r6, #724]
 850 0116 00F1AE02 		add	r2, r0, #174
 851 011a 56F82220 		ldr	r2, [r6, r2, lsl #2]
 852 011e 9268     		ldr	r2, [r2, #8]
 853 0120 002A     		cmp	r2, #0
 854 0122 00F08880 		beq	.L152
 855 0126 2946     		mov	r1, r5
 856 0128 3046     		mov	r0, r6
 857 012a 9047     		blx	r2
 858 012c 0446     		mov	r4, r0
 859 012e 78E7     		b	.L123
 860              	.L160:
 861 0130 3946     		mov	r1, r7
 862 0132 FFF7FEFF 		bl	USBD_LL_ClearStallEP
 863 0136 E3E7     		b	.L137
 864              	.L126:
 865 0138 90F89C22 		ldrb	r2, [r0, #668]	@ zero_extendqisi2
 866 013c D1B2     		uxtb	r1, r2
 867 013e 022A     		cmp	r2, #2
 868 0140 06D0     		beq	.L138
 869 0142 0329     		cmp	r1, #3
 870 0144 2AD0     		beq	.L139
 871 0146 2946     		mov	r1, r5
 872 0148 FFF7FEFF 		bl	USBD_CtlError
 873 014c 4446     		mov	r4, r8
 874 014e 68E7     		b	.L123
 875              	.L138:
 876 0150 002F     		cmp	r7, #0
 877 0152 18BF     		it	ne
 878 0154 802F     		cmpne	r7, #128
 879 0156 13D1     		bne	.L161
 880 0158 13F0800F 		tst	r3, #128
ARM GAS  C:\Users\thewo\AppData\Local\Temp\ccFtTlQQ.s 			page 16


 881 015c 15D1     		bne	.L162
 882 015e 07F07F07 		and	r7, r7, #127
 883 0162 07EB8707 		add	r7, r7, r7, lsl #2
 884 0166 B900     		lsls	r1, r7, #2
 885 0168 01F5A871 		add	r1, r1, #336
 886 016c 0144     		add	r1, r1, r0
 887 016e 0431     		adds	r1, r1, #4
 888              	.L143:
 889 0170 0023     		movs	r3, #0
 890 0172 0B60     		str	r3, [r1]
 891 0174 0222     		movs	r2, #2
 892 0176 3046     		mov	r0, r6
 893 0178 FFF7FEFF 		bl	USBD_CtlSendData
 894 017c 4446     		mov	r4, r8
 895 017e 50E7     		b	.L123
 896              	.L161:
 897 0180 2946     		mov	r1, r5
 898 0182 FFF7FEFF 		bl	USBD_CtlError
 899 0186 4446     		mov	r4, r8
 900 0188 4BE7     		b	.L123
 901              	.L162:
 902 018a 07F07F07 		and	r7, r7, #127
 903 018e 07EB8707 		add	r7, r7, r7, lsl #2
 904 0192 B900     		lsls	r1, r7, #2
 905 0194 1031     		adds	r1, r1, #16
 906 0196 0144     		add	r1, r1, r0
 907 0198 0431     		adds	r1, r1, #4
 908 019a E9E7     		b	.L143
 909              	.L139:
 910 019c 5BB2     		sxtb	r3, r3
 911 019e 002B     		cmp	r3, #0
 912 01a0 20DB     		blt	.L163
 913 01a2 07F00F02 		and	r2, r7, #15
 914 01a6 02EB8202 		add	r2, r2, r2, lsl #2
 915 01aa 00EB8202 		add	r2, r0, r2, lsl #2
 916 01ae B2F86421 		ldrh	r2, [r2, #356]
 917 01b2 2AB3     		cbz	r2, .L164
 918              	.L145:
 919 01b4 002B     		cmp	r3, #0
 920 01b6 28DB     		blt	.L165
 921 01b8 07F07F03 		and	r3, r7, #127
 922 01bc 03EB8303 		add	r3, r3, r3, lsl #2
 923 01c0 9C00     		lsls	r4, r3, #2
 924 01c2 04F5A874 		add	r4, r4, #336
 925 01c6 3444     		add	r4, r4, r6
 926 01c8 0434     		adds	r4, r4, #4
 927              	.L147:
 928 01ca 802F     		cmp	r7, #128
 929 01cc 18BF     		it	ne
 930 01ce 002F     		cmpne	r7, #0
 931 01d0 24D1     		bne	.L148
 932 01d2 0023     		movs	r3, #0
 933 01d4 2360     		str	r3, [r4]
 934              	.L149:
 935 01d6 0222     		movs	r2, #2
 936 01d8 2146     		mov	r1, r4
 937 01da 3046     		mov	r0, r6
ARM GAS  C:\Users\thewo\AppData\Local\Temp\ccFtTlQQ.s 			page 17


 938 01dc FFF7FEFF 		bl	USBD_CtlSendData
 939 01e0 4446     		mov	r4, r8
 940 01e2 1EE7     		b	.L123
 941              	.L163:
 942 01e4 07F00F02 		and	r2, r7, #15
 943 01e8 02EB8202 		add	r2, r2, r2, lsl #2
 944 01ec 00EB8202 		add	r2, r0, r2, lsl #2
 945 01f0 928C     		ldrh	r2, [r2, #36]
 946 01f2 002A     		cmp	r2, #0
 947 01f4 DED1     		bne	.L145
 948 01f6 2946     		mov	r1, r5
 949 01f8 FFF7FEFF 		bl	USBD_CtlError
 950 01fc 4446     		mov	r4, r8
 951 01fe 10E7     		b	.L123
 952              	.L164:
 953 0200 2946     		mov	r1, r5
 954 0202 FFF7FEFF 		bl	USBD_CtlError
 955 0206 4446     		mov	r4, r8
 956 0208 0BE7     		b	.L123
 957              	.L165:
 958 020a 07F07F03 		and	r3, r7, #127
 959 020e 03EB8303 		add	r3, r3, r3, lsl #2
 960 0212 9C00     		lsls	r4, r3, #2
 961 0214 1034     		adds	r4, r4, #16
 962 0216 3444     		add	r4, r4, r6
 963 0218 0434     		adds	r4, r4, #4
 964 021a D6E7     		b	.L147
 965              	.L148:
 966 021c 3946     		mov	r1, r7
 967 021e 3046     		mov	r0, r6
 968 0220 FFF7FEFF 		bl	USBD_LL_IsStallEP
 969 0224 10B1     		cbz	r0, .L150
 970 0226 0123     		movs	r3, #1
 971 0228 2360     		str	r3, [r4]
 972 022a D4E7     		b	.L149
 973              	.L150:
 974 022c 0023     		movs	r3, #0
 975 022e 2360     		str	r3, [r4]
 976 0230 D1E7     		b	.L149
 977              	.L151:
 978 0232 0024     		movs	r4, #0
 979 0234 F5E6     		b	.L123
 980              	.L152:
 981 0236 0446     		mov	r4, r0
 982 0238 F3E6     		b	.L123
 984              		.section	.text.USBD_GetString,"ax",%progbits
 985              		.align	1
 986              		.global	USBD_GetString
 987              		.syntax unified
 988              		.thumb
 989              		.thumb_func
 991              	USBD_GetString:
 992              		@ args = 0, pretend = 0, frame = 0
 993              		@ frame_needed = 0, uses_anonymous_args = 0
 994 0000 00B3     		cbz	r0, .L173
 995 0002 70B5     		push	{r4, r5, r6, lr}
 996 0004 0D46     		mov	r5, r1
ARM GAS  C:\Users\thewo\AppData\Local\Temp\ccFtTlQQ.s 			page 18


 997 0006 1646     		mov	r6, r2
 998 0008 0446     		mov	r4, r0
 999 000a FFF7FEFF 		bl	USBD_GetLen
 1000 000e 0130     		adds	r0, r0, #1
 1001 0010 4300     		lsls	r3, r0, #1
 1002 0012 B3F5007F 		cmp	r3, #512
 1003 0016 06D8     		bhi	.L171
 1004 0018 9BB2     		uxth	r3, r3
 1005              	.L168:
 1006 001a 3380     		strh	r3, [r6]	@ movhi
 1007 001c 2B70     		strb	r3, [r5]
 1008 001e 0323     		movs	r3, #3
 1009 0020 6B70     		strb	r3, [r5, #1]
 1010 0022 0223     		movs	r3, #2
 1011 0024 0AE0     		b	.L169
 1012              	.L171:
 1013 0026 4FF40073 		mov	r3, #512
 1014 002a F6E7     		b	.L168
 1015              	.L170:
 1016 002c EA54     		strb	r2, [r5, r3]
 1017 002e 0134     		adds	r4, r4, #1
 1018 0030 5A1C     		adds	r2, r3, #1
 1019 0032 D2B2     		uxtb	r2, r2
 1020 0034 0021     		movs	r1, #0
 1021 0036 A954     		strb	r1, [r5, r2]
 1022 0038 0233     		adds	r3, r3, #2
 1023 003a DBB2     		uxtb	r3, r3
 1024              	.L169:
 1025 003c 2278     		ldrb	r2, [r4]	@ zero_extendqisi2
 1026 003e 002A     		cmp	r2, #0
 1027 0040 F4D1     		bne	.L170
 1028 0042 70BD     		pop	{r4, r5, r6, pc}
 1029              	.L173:
 1030 0044 7047     		bx	lr
 1032              		.section	.bss.cfgidx.0,"aw",%nobits
 1035              	cfgidx.0:
 1036 0000 00       		.space	1
 1037              		.ident	"GCC: (xPack GNU Arm Embedded GCC x86_64) 14.2.1 20241119"
ARM GAS  C:\Users\thewo\AppData\Local\Temp\ccFtTlQQ.s 			page 19

