Archive member included to satisfy reference by file (symbol)

/usr/lib/gcc/arm-none-eabi/13.2.1/../../../arm-none-eabi/lib/thumb/v7e-m+dp/hard/libm.a(libm_a-pow.o)
                              build/debug/MS5607.o (pow)
/usr/lib/gcc/arm-none-eabi/13.2.1/../../../arm-none-eabi/lib/thumb/v7e-m+dp/hard/libm.a(libm_a-exp_data.o)
                              /usr/lib/gcc/arm-none-eabi/13.2.1/../../../arm-none-eabi/lib/thumb/v7e-m+dp/hard/libm.a(libm_a-pow.o) (__exp_data)
/usr/lib/gcc/arm-none-eabi/13.2.1/../../../arm-none-eabi/lib/thumb/v7e-m+dp/hard/libm.a(libm_a-pow_log_data.o)
                              /usr/lib/gcc/arm-none-eabi/13.2.1/../../../arm-none-eabi/lib/thumb/v7e-m+dp/hard/libm.a(libm_a-pow.o) (__pow_log_data)
/usr/lib/gcc/arm-none-eabi/13.2.1/../../../arm-none-eabi/lib/thumb/v7e-m+dp/hard/libm.a(libm_a-math_err.o)
                              /usr/lib/gcc/arm-none-eabi/13.2.1/../../../arm-none-eabi/lib/thumb/v7e-m+dp/hard/libm.a(libm_a-pow.o) (__math_uflow)
/usr/lib/gcc/arm-none-eabi/13.2.1/../../../arm-none-eabi/lib/thumb/v7e-m+dp/hard/libc_nano.a(libc_a-strcpy.o)
                              build/debug/abstract.o (strcpy)
/usr/lib/gcc/arm-none-eabi/13.2.1/../../../arm-none-eabi/lib/thumb/v7e-m+dp/hard/libc_nano.a(libc_a-init.o)
                              /usr/lib/gcc/arm-none-eabi/13.2.1/../../../arm-none-eabi/lib/thumb/v7e-m+dp/hard/crt0.o (__libc_init_array)
/usr/lib/gcc/arm-none-eabi/13.2.1/../../../arm-none-eabi/lib/thumb/v7e-m+dp/hard/libc_nano.a(libc_a-strlen.o)
                              build/debug/abstract.o (strlen)
/usr/lib/gcc/arm-none-eabi/13.2.1/../../../arm-none-eabi/lib/thumb/v7e-m+dp/hard/libc_nano.a(libc_a-memset.o)
                              /usr/lib/gcc/arm-none-eabi/13.2.1/../../../arm-none-eabi/lib/thumb/v7e-m+dp/hard/crt0.o (memset)
/usr/lib/gcc/arm-none-eabi/13.2.1/../../../arm-none-eabi/lib/thumb/v7e-m+dp/hard/libc_nano.a(libc_a-errno.o)
                              build/debug/syscalls.o (__errno)
/usr/lib/gcc/arm-none-eabi/13.2.1/../../../arm-none-eabi/lib/thumb/v7e-m+dp/hard/libc_nano.a(libc_a-nano-vfprintf_float.o)
                              (_printf_float)
/usr/lib/gcc/arm-none-eabi/13.2.1/../../../arm-none-eabi/lib/thumb/v7e-m+dp/hard/libc_nano.a(libc_a-dtoa.o)
                              /usr/lib/gcc/arm-none-eabi/13.2.1/../../../arm-none-eabi/lib/thumb/v7e-m+dp/hard/libc_nano.a(libc_a-nano-vfprintf_float.o) (_dtoa_r)
/usr/lib/gcc/arm-none-eabi/13.2.1/../../../arm-none-eabi/lib/thumb/v7e-m+dp/hard/libc_nano.a(libc_a-memcpy.o)
                              /usr/lib/gcc/arm-none-eabi/13.2.1/../../../arm-none-eabi/lib/thumb/v7e-m+dp/hard/libc_nano.a(libc_a-dtoa.o) (memcpy)
/usr/lib/gcc/arm-none-eabi/13.2.1/../../../arm-none-eabi/lib/thumb/v7e-m+dp/hard/libc_nano.a(libc_a-malloc.o)
                              /usr/lib/gcc/arm-none-eabi/13.2.1/../../../arm-none-eabi/lib/thumb/v7e-m+dp/hard/libc_nano.a(libc_a-dtoa.o) (malloc)
/usr/lib/gcc/arm-none-eabi/13.2.1/../../../arm-none-eabi/lib/thumb/v7e-m+dp/hard/libc_nano.a(libc_a-nano-vfprintf_i.o)
                              /usr/lib/gcc/arm-none-eabi/13.2.1/../../../arm-none-eabi/lib/thumb/v7e-m+dp/hard/libc_nano.a(libc_a-nano-vfprintf_float.o) (_printf_common)
/usr/lib/gcc/arm-none-eabi/13.2.1/../../../arm-none-eabi/lib/thumb/v7e-m+dp/hard/libc_nano.a(libc_a-exit.o)
                              /usr/lib/gcc/arm-none-eabi/13.2.1/../../../arm-none-eabi/lib/thumb/v7e-m+dp/hard/crt0.o (exit)
/usr/lib/gcc/arm-none-eabi/13.2.1/../../../arm-none-eabi/lib/thumb/v7e-m+dp/hard/libc_nano.a(libc_a-atexit.o)
                              /usr/lib/gcc/arm-none-eabi/13.2.1/../../../arm-none-eabi/lib/thumb/v7e-m+dp/hard/crt0.o (atexit)
/usr/lib/gcc/arm-none-eabi/13.2.1/../../../arm-none-eabi/lib/thumb/v7e-m+dp/hard/libc_nano.a(libc_a-fini.o)
                              /usr/lib/gcc/arm-none-eabi/13.2.1/../../../arm-none-eabi/lib/thumb/v7e-m+dp/hard/crt0.o (__libc_fini_array)
/usr/lib/gcc/arm-none-eabi/13.2.1/../../../arm-none-eabi/lib/thumb/v7e-m+dp/hard/libc_nano.a(libc_a-assert.o)
                              /usr/lib/gcc/arm-none-eabi/13.2.1/../../../arm-none-eabi/lib/thumb/v7e-m+dp/hard/libc_nano.a(libc_a-dtoa.o) (__assert_func)
/usr/lib/gcc/arm-none-eabi/13.2.1/../../../arm-none-eabi/lib/thumb/v7e-m+dp/hard/libc_nano.a(libc_a-mprec.o)
                              /usr/lib/gcc/arm-none-eabi/13.2.1/../../../arm-none-eabi/lib/thumb/v7e-m+dp/hard/libc_nano.a(libc_a-dtoa.o) (_Balloc)
/usr/lib/gcc/arm-none-eabi/13.2.1/../../../arm-none-eabi/lib/thumb/v7e-m+dp/hard/libc_nano.a(libc_a-impure.o)
                              /usr/lib/gcc/arm-none-eabi/13.2.1/../../../arm-none-eabi/lib/thumb/v7e-m+dp/hard/libc_nano.a(libc_a-errno.o) (_impure_ptr)
/usr/lib/gcc/arm-none-eabi/13.2.1/../../../arm-none-eabi/lib/thumb/v7e-m+dp/hard/libc_nano.a(libc_a-localeconv.o)
                              /usr/lib/gcc/arm-none-eabi/13.2.1/../../../arm-none-eabi/lib/thumb/v7e-m+dp/hard/libc_nano.a(libc_a-nano-vfprintf_float.o) (_localeconv_r)
/usr/lib/gcc/arm-none-eabi/13.2.1/../../../arm-none-eabi/lib/thumb/v7e-m+dp/hard/libc_nano.a(libc_a-findfp.o)
                              /usr/lib/gcc/arm-none-eabi/13.2.1/../../../arm-none-eabi/lib/thumb/v7e-m+dp/hard/libc_nano.a(libc_a-exit.o) (__stdio_exit_handler)
/usr/lib/gcc/arm-none-eabi/13.2.1/../../../arm-none-eabi/lib/thumb/v7e-m+dp/hard/libc_nano.a(libc_a-abort.o)
                              /usr/lib/gcc/arm-none-eabi/13.2.1/../../../arm-none-eabi/lib/thumb/v7e-m+dp/hard/libc_nano.a(libc_a-assert.o) (abort)
/usr/lib/gcc/arm-none-eabi/13.2.1/../../../arm-none-eabi/lib/thumb/v7e-m+dp/hard/libc_nano.a(libc_a-fflush.o)
                              /usr/lib/gcc/arm-none-eabi/13.2.1/../../../arm-none-eabi/lib/thumb/v7e-m+dp/hard/libc_nano.a(libc_a-findfp.o) (_fflush_r)
/usr/lib/gcc/arm-none-eabi/13.2.1/../../../arm-none-eabi/lib/thumb/v7e-m+dp/hard/libc_nano.a(libc_a-callocr.o)
                              /usr/lib/gcc/arm-none-eabi/13.2.1/../../../arm-none-eabi/lib/thumb/v7e-m+dp/hard/libc_nano.a(libc_a-mprec.o) (_calloc_r)
/usr/lib/gcc/arm-none-eabi/13.2.1/../../../arm-none-eabi/lib/thumb/v7e-m+dp/hard/libc_nano.a(libc_a-locale.o)
                              /usr/lib/gcc/arm-none-eabi/13.2.1/../../../arm-none-eabi/lib/thumb/v7e-m+dp/hard/libc_nano.a(libc_a-localeconv.o) (__global_locale)
/usr/lib/gcc/arm-none-eabi/13.2.1/../../../arm-none-eabi/lib/thumb/v7e-m+dp/hard/libc_nano.a(libc_a-mallocr.o)
                              /usr/lib/gcc/arm-none-eabi/13.2.1/../../../arm-none-eabi/lib/thumb/v7e-m+dp/hard/libc_nano.a(libc_a-malloc.o) (_malloc_r)
/usr/lib/gcc/arm-none-eabi/13.2.1/../../../arm-none-eabi/lib/thumb/v7e-m+dp/hard/libc_nano.a(libc_a-freer.o)
                              /usr/lib/gcc/arm-none-eabi/13.2.1/../../../arm-none-eabi/lib/thumb/v7e-m+dp/hard/libc_nano.a(libc_a-malloc.o) (_free_r)
/usr/lib/gcc/arm-none-eabi/13.2.1/../../../arm-none-eabi/lib/thumb/v7e-m+dp/hard/libc_nano.a(libc_a-fwalk.o)
                              /usr/lib/gcc/arm-none-eabi/13.2.1/../../../arm-none-eabi/lib/thumb/v7e-m+dp/hard/libc_nano.a(libc_a-findfp.o) (_fwalk_sglue)
/usr/lib/gcc/arm-none-eabi/13.2.1/../../../arm-none-eabi/lib/thumb/v7e-m+dp/hard/libc_nano.a(libc_a-wctomb_r.o)
                              /usr/lib/gcc/arm-none-eabi/13.2.1/../../../arm-none-eabi/lib/thumb/v7e-m+dp/hard/libc_nano.a(libc_a-locale.o) (__ascii_wctomb)
/usr/lib/gcc/arm-none-eabi/13.2.1/../../../arm-none-eabi/lib/thumb/v7e-m+dp/hard/libc_nano.a(libc_a-memchr.o)
                              /usr/lib/gcc/arm-none-eabi/13.2.1/../../../arm-none-eabi/lib/thumb/v7e-m+dp/hard/libc_nano.a(libc_a-nano-vfprintf_i.o) (memchr)
/usr/lib/gcc/arm-none-eabi/13.2.1/../../../arm-none-eabi/lib/thumb/v7e-m+dp/hard/libc_nano.a(libc_a-fprintf.o)
                              /usr/lib/gcc/arm-none-eabi/13.2.1/../../../arm-none-eabi/lib/thumb/v7e-m+dp/hard/libc_nano.a(libc_a-assert.o) (fiprintf)
/usr/lib/gcc/arm-none-eabi/13.2.1/../../../arm-none-eabi/lib/thumb/v7e-m+dp/hard/libc_nano.a(libc_a-__atexit.o)
                              /usr/lib/gcc/arm-none-eabi/13.2.1/../../../arm-none-eabi/lib/thumb/v7e-m+dp/hard/libc_nano.a(libc_a-atexit.o) (__register_exitproc)
/usr/lib/gcc/arm-none-eabi/13.2.1/../../../arm-none-eabi/lib/thumb/v7e-m+dp/hard/libc_nano.a(libc_a-mlock.o)
                              /usr/lib/gcc/arm-none-eabi/13.2.1/../../../arm-none-eabi/lib/thumb/v7e-m+dp/hard/libc_nano.a(libc_a-mallocr.o) (__malloc_lock)
/usr/lib/gcc/arm-none-eabi/13.2.1/../../../arm-none-eabi/lib/thumb/v7e-m+dp/hard/libc_nano.a(libc_a-strcmp.o)
                              /usr/lib/gcc/arm-none-eabi/13.2.1/../../../arm-none-eabi/lib/thumb/v7e-m+dp/hard/libc_nano.a(libc_a-locale.o) (strcmp)
/usr/lib/gcc/arm-none-eabi/13.2.1/../../../arm-none-eabi/lib/thumb/v7e-m+dp/hard/libc_nano.a(libc_a-ctype_.o)
                              /usr/lib/gcc/arm-none-eabi/13.2.1/../../../arm-none-eabi/lib/thumb/v7e-m+dp/hard/libc_nano.a(libc_a-locale.o) (_ctype_)
/usr/lib/gcc/arm-none-eabi/13.2.1/../../../arm-none-eabi/lib/thumb/v7e-m+dp/hard/libc_nano.a(libc_a-nano-vfprintf.o)
                              /usr/lib/gcc/arm-none-eabi/13.2.1/../../../arm-none-eabi/lib/thumb/v7e-m+dp/hard/libc_nano.a(libc_a-fprintf.o) (_vfprintf_r)
/usr/lib/gcc/arm-none-eabi/13.2.1/../../../arm-none-eabi/lib/thumb/v7e-m+dp/hard/libc_nano.a(libc_a-wbuf.o)
                              /usr/lib/gcc/arm-none-eabi/13.2.1/../../../arm-none-eabi/lib/thumb/v7e-m+dp/hard/libc_nano.a(libc_a-nano-vfprintf.o) (__swbuf_r)
/usr/lib/gcc/arm-none-eabi/13.2.1/../../../arm-none-eabi/lib/thumb/v7e-m+dp/hard/libc_nano.a(libc_a-sbrkr.o)
                              /usr/lib/gcc/arm-none-eabi/13.2.1/../../../arm-none-eabi/lib/thumb/v7e-m+dp/hard/libc_nano.a(libc_a-mallocr.o) (_sbrk_r)
/usr/lib/gcc/arm-none-eabi/13.2.1/../../../arm-none-eabi/lib/thumb/v7e-m+dp/hard/libc_nano.a(libc_a-stdio.o)
                              /usr/lib/gcc/arm-none-eabi/13.2.1/../../../arm-none-eabi/lib/thumb/v7e-m+dp/hard/libc_nano.a(libc_a-findfp.o) (__sread)
/usr/lib/gcc/arm-none-eabi/13.2.1/../../../arm-none-eabi/lib/thumb/v7e-m+dp/hard/libc_nano.a(libc_a-fvwrite.o)
                              /usr/lib/gcc/arm-none-eabi/13.2.1/../../../arm-none-eabi/lib/thumb/v7e-m+dp/hard/libc_nano.a(libc_a-nano-vfprintf.o) (__sfvwrite_r)
/usr/lib/gcc/arm-none-eabi/13.2.1/../../../arm-none-eabi/lib/thumb/v7e-m+dp/hard/libc_nano.a(libc_a-mbtowc_r.o)
                              /usr/lib/gcc/arm-none-eabi/13.2.1/../../../arm-none-eabi/lib/thumb/v7e-m+dp/hard/libc_nano.a(libc_a-locale.o) (__ascii_mbtowc)
/usr/lib/gcc/arm-none-eabi/13.2.1/../../../arm-none-eabi/lib/thumb/v7e-m+dp/hard/libc_nano.a(libc_a-signal.o)
                              /usr/lib/gcc/arm-none-eabi/13.2.1/../../../arm-none-eabi/lib/thumb/v7e-m+dp/hard/libc_nano.a(libc_a-abort.o) (raise)
/usr/lib/gcc/arm-none-eabi/13.2.1/../../../arm-none-eabi/lib/thumb/v7e-m+dp/hard/libc_nano.a(libc_a-closer.o)
                              /usr/lib/gcc/arm-none-eabi/13.2.1/../../../arm-none-eabi/lib/thumb/v7e-m+dp/hard/libc_nano.a(libc_a-stdio.o) (_close_r)
/usr/lib/gcc/arm-none-eabi/13.2.1/../../../arm-none-eabi/lib/thumb/v7e-m+dp/hard/libc_nano.a(libc_a-memmove.o)
                              /usr/lib/gcc/arm-none-eabi/13.2.1/../../../arm-none-eabi/lib/thumb/v7e-m+dp/hard/libc_nano.a(libc_a-fvwrite.o) (memmove)
/usr/lib/gcc/arm-none-eabi/13.2.1/../../../arm-none-eabi/lib/thumb/v7e-m+dp/hard/libc_nano.a(libc_a-__call_atexit.o)
                              /usr/lib/gcc/arm-none-eabi/13.2.1/../../../arm-none-eabi/lib/thumb/v7e-m+dp/hard/libc_nano.a(libc_a-__atexit.o) (__call_exitprocs)
/usr/lib/gcc/arm-none-eabi/13.2.1/../../../arm-none-eabi/lib/thumb/v7e-m+dp/hard/libc_nano.a(libc_a-wsetup.o)
                              /usr/lib/gcc/arm-none-eabi/13.2.1/../../../arm-none-eabi/lib/thumb/v7e-m+dp/hard/libc_nano.a(libc_a-nano-vfprintf.o) (__swsetup_r)
/usr/lib/gcc/arm-none-eabi/13.2.1/../../../arm-none-eabi/lib/thumb/v7e-m+dp/hard/libc_nano.a(libc_a-readr.o)
                              /usr/lib/gcc/arm-none-eabi/13.2.1/../../../arm-none-eabi/lib/thumb/v7e-m+dp/hard/libc_nano.a(libc_a-stdio.o) (_read_r)
/usr/lib/gcc/arm-none-eabi/13.2.1/../../../arm-none-eabi/lib/thumb/v7e-m+dp/hard/libc_nano.a(libc_a-reent.o)
                              /usr/lib/gcc/arm-none-eabi/13.2.1/../../../arm-none-eabi/lib/thumb/v7e-m+dp/hard/libc_nano.a(libc_a-sbrkr.o) (errno)
/usr/lib/gcc/arm-none-eabi/13.2.1/../../../arm-none-eabi/lib/thumb/v7e-m+dp/hard/libc_nano.a(libc_a-reallocr.o)
                              /usr/lib/gcc/arm-none-eabi/13.2.1/../../../arm-none-eabi/lib/thumb/v7e-m+dp/hard/libc_nano.a(libc_a-fvwrite.o) (_realloc_r)
/usr/lib/gcc/arm-none-eabi/13.2.1/../../../arm-none-eabi/lib/thumb/v7e-m+dp/hard/libc_nano.a(libc_a-makebuf.o)
                              /usr/lib/gcc/arm-none-eabi/13.2.1/../../../arm-none-eabi/lib/thumb/v7e-m+dp/hard/libc_nano.a(libc_a-wsetup.o) (__smakebuf_r)
/usr/lib/gcc/arm-none-eabi/13.2.1/../../../arm-none-eabi/lib/thumb/v7e-m+dp/hard/libc_nano.a(libc_a-lseekr.o)
                              /usr/lib/gcc/arm-none-eabi/13.2.1/../../../arm-none-eabi/lib/thumb/v7e-m+dp/hard/libc_nano.a(libc_a-stdio.o) (_lseek_r)
/usr/lib/gcc/arm-none-eabi/13.2.1/../../../arm-none-eabi/lib/thumb/v7e-m+dp/hard/libc_nano.a(libc_a-writer.o)
                              /usr/lib/gcc/arm-none-eabi/13.2.1/../../../arm-none-eabi/lib/thumb/v7e-m+dp/hard/libc_nano.a(libc_a-stdio.o) (_write_r)
/usr/lib/gcc/arm-none-eabi/13.2.1/../../../arm-none-eabi/lib/thumb/v7e-m+dp/hard/libc_nano.a(libc_a-isattyr.o)
                              /usr/lib/gcc/arm-none-eabi/13.2.1/../../../arm-none-eabi/lib/thumb/v7e-m+dp/hard/libc_nano.a(libc_a-makebuf.o) (_isatty_r)
/usr/lib/gcc/arm-none-eabi/13.2.1/../../../arm-none-eabi/lib/thumb/v7e-m+dp/hard/libc_nano.a(libc_a-msizer.o)
                              /usr/lib/gcc/arm-none-eabi/13.2.1/../../../arm-none-eabi/lib/thumb/v7e-m+dp/hard/libc_nano.a(libc_a-reallocr.o) (_malloc_usable_size_r)
/usr/lib/gcc/arm-none-eabi/13.2.1/../../../arm-none-eabi/lib/thumb/v7e-m+dp/hard/libc_nano.a(libc_a-signalr.o)
                              /usr/lib/gcc/arm-none-eabi/13.2.1/../../../arm-none-eabi/lib/thumb/v7e-m+dp/hard/libc_nano.a(libc_a-signal.o) (_kill_r)
/usr/lib/gcc/arm-none-eabi/13.2.1/../../../arm-none-eabi/lib/thumb/v7e-m+dp/hard/libc_nano.a(libc_a-fstatr.o)
                              /usr/lib/gcc/arm-none-eabi/13.2.1/../../../arm-none-eabi/lib/thumb/v7e-m+dp/hard/libc_nano.a(libc_a-makebuf.o) (_fstat_r)

Discarded input sections

 .text          0x00000000        0x0 /usr/lib/gcc/arm-none-eabi/13.2.1/thumb/v7e-m+dp/hard/crti.o
 .data          0x00000000        0x0 /usr/lib/gcc/arm-none-eabi/13.2.1/thumb/v7e-m+dp/hard/crti.o
 .bss           0x00000000        0x0 /usr/lib/gcc/arm-none-eabi/13.2.1/thumb/v7e-m+dp/hard/crti.o
 .data          0x00000000        0x4 /usr/lib/gcc/arm-none-eabi/13.2.1/thumb/v7e-m+dp/hard/crtbegin.o
 .rodata        0x00000000       0x24 /usr/lib/gcc/arm-none-eabi/13.2.1/thumb/v7e-m+dp/hard/crtbegin.o
 .text          0x00000000       0x70 /usr/lib/gcc/arm-none-eabi/13.2.1/../../../arm-none-eabi/lib/thumb/v7e-m+dp/hard/crt0.o
 .data          0x00000000        0x0 /usr/lib/gcc/arm-none-eabi/13.2.1/../../../arm-none-eabi/lib/thumb/v7e-m+dp/hard/crt0.o
 .bss           0x00000000        0x0 /usr/lib/gcc/arm-none-eabi/13.2.1/../../../arm-none-eabi/lib/thumb/v7e-m+dp/hard/crt0.o
 .ARM.extab     0x00000000        0x0 /usr/lib/gcc/arm-none-eabi/13.2.1/../../../arm-none-eabi/lib/thumb/v7e-m+dp/hard/crt0.o
 .ARM.exidx     0x00000000       0x10 /usr/lib/gcc/arm-none-eabi/13.2.1/../../../arm-none-eabi/lib/thumb/v7e-m+dp/hard/crt0.o
 .debug_line    0x00000000       0x75 /usr/lib/gcc/arm-none-eabi/13.2.1/../../../arm-none-eabi/lib/thumb/v7e-m+dp/hard/crt0.o
 .debug_line_str
                0x00000000       0x82 /usr/lib/gcc/arm-none-eabi/13.2.1/../../../arm-none-eabi/lib/thumb/v7e-m+dp/hard/crt0.o
 .debug_info    0x00000000       0x24 /usr/lib/gcc/arm-none-eabi/13.2.1/../../../arm-none-eabi/lib/thumb/v7e-m+dp/hard/crt0.o
 .debug_abbrev  0x00000000       0x14 /usr/lib/gcc/arm-none-eabi/13.2.1/../../../arm-none-eabi/lib/thumb/v7e-m+dp/hard/crt0.o
 .debug_aranges
                0x00000000       0x20 /usr/lib/gcc/arm-none-eabi/13.2.1/../../../arm-none-eabi/lib/thumb/v7e-m+dp/hard/crt0.o
 .debug_str     0x00000000       0x8e /usr/lib/gcc/arm-none-eabi/13.2.1/../../../arm-none-eabi/lib/thumb/v7e-m+dp/hard/crt0.o
 .ARM.attributes
                0x00000000       0x1e /usr/lib/gcc/arm-none-eabi/13.2.1/../../../arm-none-eabi/lib/thumb/v7e-m+dp/hard/crt0.o
 .text          0x00000000        0x0 build/debug/adc.o
 .data          0x00000000        0x0 build/debug/adc.o
 .bss           0x00000000        0x0 build/debug/adc.o
 .text.HAL_ADC_MspDeInit
                0x00000000       0x48 build/debug/adc.o
 .text          0x00000000        0x0 build/debug/cordic.o
 .data          0x00000000        0x0 build/debug/cordic.o
 .bss           0x00000000        0x0 build/debug/cordic.o
 .text.HAL_CORDIC_MspDeInit
                0x00000000       0x24 build/debug/cordic.o
 .text          0x00000000        0x0 build/debug/fmac.o
 .data          0x00000000        0x0 build/debug/fmac.o
 .bss           0x00000000        0x0 build/debug/fmac.o
 .text.HAL_FMAC_MspDeInit
                0x00000000       0x24 build/debug/fmac.o
 .text          0x00000000        0x0 build/debug/gpio.o
 .data          0x00000000        0x0 build/debug/gpio.o
 .bss           0x00000000        0x0 build/debug/gpio.o
 .text          0x00000000        0x0 build/debug/i2c.o
 .data          0x00000000        0x0 build/debug/i2c.o
 .bss           0x00000000        0x0 build/debug/i2c.o
 .text.HAL_I2C_MspDeInit
                0x00000000       0x40 build/debug/i2c.o
 .text          0x00000000        0x0 build/debug/main.o
 .data          0x00000000        0x0 build/debug/main.o
 .bss           0x00000000        0x0 build/debug/main.o
 .text          0x00000000        0x0 build/debug/memorymap.o
 .data          0x00000000        0x0 build/debug/memorymap.o
 .bss           0x00000000        0x0 build/debug/memorymap.o
 .debug_info    0x00000000       0x81 build/debug/memorymap.o
 .debug_abbrev  0x00000000       0x26 build/debug/memorymap.o
 .debug_aranges
                0x00000000       0x18 build/debug/memorymap.o
 .debug_line    0x00000000       0x35 build/debug/memorymap.o
 .debug_str     0x00000000      0x176 build/debug/memorymap.o
 .comment       0x00000000       0x27 build/debug/memorymap.o
 .ARM.attributes
                0x00000000       0x32 build/debug/memorymap.o
 .text          0x00000000        0x0 build/debug/spi.o
 .data          0x00000000        0x0 build/debug/spi.o
 .bss           0x00000000        0x0 build/debug/spi.o
 .text.HAL_SPI_MspDeInit
                0x00000000       0x54 build/debug/spi.o
 .text          0x00000000        0x0 build/debug/stm32h7xx_hal.o
 .data          0x00000000        0x0 build/debug/stm32h7xx_hal.o
 .bss           0x00000000        0x0 build/debug/stm32h7xx_hal.o
 .text.HAL_MspInit
                0x00000000        0x2 build/debug/stm32h7xx_hal.o
 .text.HAL_MspDeInit
                0x00000000        0x2 build/debug/stm32h7xx_hal.o
 .text.HAL_DeInit
                0x00000000       0x90 build/debug/stm32h7xx_hal.o
 .text.HAL_GetTickPrio
                0x00000000        0xc build/debug/stm32h7xx_hal.o
 .text.HAL_SetTickFreq
                0x00000000       0x48 build/debug/stm32h7xx_hal.o
 .text.HAL_GetTickFreq
                0x00000000        0xc build/debug/stm32h7xx_hal.o
 .text.HAL_SuspendTick
                0x00000000        0xe build/debug/stm32h7xx_hal.o
 .text.HAL_ResumeTick
                0x00000000        0xe build/debug/stm32h7xx_hal.o
 .text.HAL_GetHalVersion
                0x00000000        0x8 build/debug/stm32h7xx_hal.o
 .text.HAL_GetREVID
                0x00000000        0xc build/debug/stm32h7xx_hal.o
 .text.HAL_GetDEVID
                0x00000000       0x10 build/debug/stm32h7xx_hal.o
 .text.HAL_GetUIDw0
                0x00000000        0xc build/debug/stm32h7xx_hal.o
 .text.HAL_GetUIDw1
                0x00000000        0xc build/debug/stm32h7xx_hal.o
 .text.HAL_GetUIDw2
                0x00000000        0xc build/debug/stm32h7xx_hal.o
 .text.HAL_SYSCFG_VREFBUF_VoltageScalingConfig
                0x00000000       0x3c build/debug/stm32h7xx_hal.o
 .text.HAL_SYSCFG_VREFBUF_HighImpedanceConfig
                0x00000000       0x30 build/debug/stm32h7xx_hal.o
 .text.HAL_SYSCFG_VREFBUF_TrimmingConfig
                0x00000000       0x2c build/debug/stm32h7xx_hal.o
 .text.HAL_SYSCFG_EnableVREFBUF
                0x00000000       0x34 build/debug/stm32h7xx_hal.o
 .text.HAL_SYSCFG_DisableVREFBUF
                0x00000000       0x10 build/debug/stm32h7xx_hal.o
 .text.HAL_SYSCFG_ETHInterfaceSelect
                0x00000000       0x30 build/debug/stm32h7xx_hal.o
 .text.HAL_SYSCFG_EnableBOOST
                0x00000000       0x10 build/debug/stm32h7xx_hal.o
 .text.HAL_SYSCFG_DisableBOOST
                0x00000000       0x10 build/debug/stm32h7xx_hal.o
 .text.HAL_SYSCFG_CM7BootAddConfig
                0x00000000       0x5c build/debug/stm32h7xx_hal.o
 .text.HAL_EnableCompensationCell
                0x00000000       0x10 build/debug/stm32h7xx_hal.o
 .text.HAL_DisableCompensationCell
                0x00000000       0x10 build/debug/stm32h7xx_hal.o
 .text.HAL_SYSCFG_EnableIOSpeedOptimize
                0x00000000       0x10 build/debug/stm32h7xx_hal.o
 .text.HAL_SYSCFG_DisableIOSpeedOptimize
                0x00000000       0x10 build/debug/stm32h7xx_hal.o
 .text.HAL_SYSCFG_CompensationCodeSelect
                0x00000000       0x30 build/debug/stm32h7xx_hal.o
 .text.HAL_SYSCFG_CompensationCodeConfig
                0x00000000       0x40 build/debug/stm32h7xx_hal.o
 .text.HAL_SYSCFG_ADC2ALT_Rout0Config
                0x00000000       0x2c build/debug/stm32h7xx_hal.o
 .text.HAL_SYSCFG_ADC2ALT_Rout1Config
                0x00000000       0x30 build/debug/stm32h7xx_hal.o
 .text.HAL_DBGMCU_EnableDBGSleepMode
                0x00000000       0x10 build/debug/stm32h7xx_hal.o
 .text.HAL_DBGMCU_DisableDBGSleepMode
                0x00000000       0x10 build/debug/stm32h7xx_hal.o
 .text.HAL_DBGMCU_EnableDBGStopMode
                0x00000000       0x10 build/debug/stm32h7xx_hal.o
 .text.HAL_DBGMCU_DisableDBGStopMode
                0x00000000       0x10 build/debug/stm32h7xx_hal.o
 .text.HAL_DBGMCU_EnableDBGStandbyMode
                0x00000000       0x10 build/debug/stm32h7xx_hal.o
 .text.HAL_DBGMCU_DisableDBGStandbyMode
                0x00000000       0x10 build/debug/stm32h7xx_hal.o
 .text.HAL_EnableDomain3DBGStopMode
                0x00000000       0x10 build/debug/stm32h7xx_hal.o
 .text.HAL_DisableDomain3DBGStopMode
                0x00000000       0x10 build/debug/stm32h7xx_hal.o
 .text.HAL_EnableDomain3DBGStandbyMode
                0x00000000       0x10 build/debug/stm32h7xx_hal.o
 .text.HAL_DisableDomain3DBGStandbyMode
                0x00000000       0x10 build/debug/stm32h7xx_hal.o
 .text.HAL_SetFMCMemorySwappingConfig
                0x00000000       0x38 build/debug/stm32h7xx_hal.o
 .text.HAL_GetFMCMemorySwappingConfig
                0x00000000       0x10 build/debug/stm32h7xx_hal.o
 .text.HAL_EXTI_EdgeConfig
                0x00000000       0x8c build/debug/stm32h7xx_hal.o
 .text.HAL_EXTI_GenerateSWInterrupt
                0x00000000       0x48 build/debug/stm32h7xx_hal.o
 .text.HAL_EXTI_D1_ClearFlag
                0x00000000       0x50 build/debug/stm32h7xx_hal.o
 .text.HAL_EXTI_D1_EventInputConfig
                0x00000000       0xcc build/debug/stm32h7xx_hal.o
 .text.HAL_EXTI_D3_EventInputConfig
                0x00000000       0xcc build/debug/stm32h7xx_hal.o
 .text          0x00000000        0x0 build/debug/stm32h7xx_hal_adc.o
 .data          0x00000000        0x0 build/debug/stm32h7xx_hal_adc.o
 .bss           0x00000000        0x0 build/debug/stm32h7xx_hal_adc.o
 .text.LL_ADC_SetAnalogWDMonitChannels
                0x00000000       0x34 build/debug/stm32h7xx_hal_adc.o
 .text.LL_ADC_ConfigAnalogWDThresholds
                0x00000000       0x60 build/debug/stm32h7xx_hal_adc.o
 .text.HAL_ADC_MspInit
                0x00000000        0x2 build/debug/stm32h7xx_hal_adc.o
 .text.HAL_ADC_MspDeInit
                0x00000000        0x2 build/debug/stm32h7xx_hal_adc.o
 .text.HAL_ADC_PollForConversion
                0x00000000      0x16c build/debug/stm32h7xx_hal_adc.o
 .text.HAL_ADC_PollForEvent
                0x00000000      0x148 build/debug/stm32h7xx_hal_adc.o
 .text.HAL_ADC_GetValue
                0x00000000       0x38 build/debug/stm32h7xx_hal_adc.o
 .text.HAL_ADC_ConvCpltCallback
                0x00000000        0x2 build/debug/stm32h7xx_hal_adc.o
 .text.HAL_ADC_ConvHalfCpltCallback
                0x00000000        0x2 build/debug/stm32h7xx_hal_adc.o
 .text.ADC_DMAHalfConvCplt
                0x00000000        0xa build/debug/stm32h7xx_hal_adc.o
 .text.HAL_ADC_LevelOutOfWindowCallback
                0x00000000        0x2 build/debug/stm32h7xx_hal_adc.o
 .text.HAL_ADC_ErrorCallback
                0x00000000        0x2 build/debug/stm32h7xx_hal_adc.o
 .text.HAL_ADC_IRQHandler
                0x00000000      0x320 build/debug/stm32h7xx_hal_adc.o
 .text.ADC_DMAConvCplt
                0x00000000       0x88 build/debug/stm32h7xx_hal_adc.o
 .text.ADC_DMAError
                0x00000000       0x1a build/debug/stm32h7xx_hal_adc.o
 .text.HAL_ADC_AnalogWDGConfig
                0x00000000      0x85c build/debug/stm32h7xx_hal_adc.o
 .text.HAL_ADC_GetState
                0x00000000       0x38 build/debug/stm32h7xx_hal_adc.o
 .text.HAL_ADC_GetError
                0x00000000       0x38 build/debug/stm32h7xx_hal_adc.o
 .text.ADC_ConversionStop
                0x00000000      0x140 build/debug/stm32h7xx_hal_adc.o
 .text.ADC_Enable
                0x00000000       0xd4 build/debug/stm32h7xx_hal_adc.o
 .text.HAL_ADC_Start
                0x00000000      0x138 build/debug/stm32h7xx_hal_adc.o
 .text.HAL_ADC_Start_IT
                0x00000000      0x1cc build/debug/stm32h7xx_hal_adc.o
 .text.HAL_ADC_Start_DMA
                0x00000000      0x168 build/debug/stm32h7xx_hal_adc.o
 .text.ADC_Disable
                0x00000000       0x94 build/debug/stm32h7xx_hal_adc.o
 .text.HAL_ADC_DeInit
                0x00000000      0x258 build/debug/stm32h7xx_hal_adc.o
 .text.HAL_ADC_Stop
                0x00000000       0x74 build/debug/stm32h7xx_hal_adc.o
 .text.HAL_ADC_Stop_IT
                0x00000000       0x7c build/debug/stm32h7xx_hal_adc.o
 .text.HAL_ADC_Stop_DMA
                0x00000000       0xb4 build/debug/stm32h7xx_hal_adc.o
 .text          0x00000000        0x0 build/debug/stm32h7xx_hal_adc_ex.o
 .data          0x00000000        0x0 build/debug/stm32h7xx_hal_adc_ex.o
 .bss           0x00000000        0x0 build/debug/stm32h7xx_hal_adc_ex.o
 .text.LL_ADC_SetCalibrationOffsetFactor
                0x00000000       0x26 build/debug/stm32h7xx_hal_adc_ex.o
 .text.LL_ADC_SetCalibrationLinearFactor
                0x00000000       0x38 build/debug/stm32h7xx_hal_adc_ex.o
 .text.LL_ADC_GetCalibrationLinearFactor
                0x00000000       0x24 build/debug/stm32h7xx_hal_adc_ex.o
 .text.LL_ADC_SetOffset
                0x00000000       0x40 build/debug/stm32h7xx_hal_adc_ex.o
 .text.LL_ADC_SetOffsetState
                0x00000000       0x30 build/debug/stm32h7xx_hal_adc_ex.o
 .text.LL_ADC_SetChannelSamplingTime
                0x00000000       0x2c build/debug/stm32h7xx_hal_adc_ex.o
 .text.LL_ADC_SetChannelSingleDiff
                0x00000000       0x58 build/debug/stm32h7xx_hal_adc_ex.o
 .text.LL_ADC_SetChannelPreselection
                0x00000000       0x38 build/debug/stm32h7xx_hal_adc_ex.o
 .text.HAL_ADCEx_Calibration_Start
                0x00000000       0xf0 build/debug/stm32h7xx_hal_adc_ex.o
 .text.HAL_ADCEx_Calibration_GetValue
                0x00000000       0x64 build/debug/stm32h7xx_hal_adc_ex.o
 .text.HAL_ADCEx_LinearCalibration_GetValue
                0x00000000       0xb0 build/debug/stm32h7xx_hal_adc_ex.o
 .text.HAL_ADCEx_Calibration_SetValue
                0x00000000       0xd8 build/debug/stm32h7xx_hal_adc_ex.o
 .text.HAL_ADCEx_LinearCalibration_SetValue
                0x00000000      0x148 build/debug/stm32h7xx_hal_adc_ex.o
 .text.HAL_ADCEx_LinearCalibration_FactorLoad
                0x00000000       0x5c build/debug/stm32h7xx_hal_adc_ex.o
 .text.HAL_ADCEx_InjectedStart
                0x00000000      0x134 build/debug/stm32h7xx_hal_adc_ex.o
 .text.HAL_ADCEx_InjectedStop
                0x00000000       0x84 build/debug/stm32h7xx_hal_adc_ex.o
 .text.HAL_ADCEx_InjectedPollForConversion
                0x00000000      0x140 build/debug/stm32h7xx_hal_adc_ex.o
 .text.HAL_ADCEx_InjectedStart_IT
                0x00000000      0x178 build/debug/stm32h7xx_hal_adc_ex.o
 .text.HAL_ADCEx_InjectedStop_IT
                0x00000000       0x90 build/debug/stm32h7xx_hal_adc_ex.o
 .text.HAL_ADCEx_MultiModeStart_DMA
                0x00000000      0x190 build/debug/stm32h7xx_hal_adc_ex.o
 .text.HAL_ADCEx_MultiModeStop_DMA
                0x00000000      0x130 build/debug/stm32h7xx_hal_adc_ex.o
 .text.HAL_ADCEx_MultiModeGetValue
                0x00000000       0x44 build/debug/stm32h7xx_hal_adc_ex.o
 .text.HAL_ADCEx_InjectedGetValue
                0x00000000       0x98 build/debug/stm32h7xx_hal_adc_ex.o
 .text.HAL_ADCEx_InjectedConvCpltCallback
                0x00000000        0x2 build/debug/stm32h7xx_hal_adc_ex.o
 .text.HAL_ADCEx_InjectedQueueOverflowCallback
                0x00000000        0x2 build/debug/stm32h7xx_hal_adc_ex.o
 .text.HAL_ADCEx_LevelOutOfWindow2Callback
                0x00000000        0x2 build/debug/stm32h7xx_hal_adc_ex.o
 .text.HAL_ADCEx_LevelOutOfWindow3Callback
                0x00000000        0x2 build/debug/stm32h7xx_hal_adc_ex.o
 .text.HAL_ADCEx_EndOfSamplingCallback
                0x00000000        0x2 build/debug/stm32h7xx_hal_adc_ex.o
 .text.HAL_ADCEx_RegularStop
                0x00000000       0x8c build/debug/stm32h7xx_hal_adc_ex.o
 .text.HAL_ADCEx_RegularStop_IT
                0x00000000       0x94 build/debug/stm32h7xx_hal_adc_ex.o
 .text.HAL_ADCEx_RegularStop_DMA
                0x00000000       0xc4 build/debug/stm32h7xx_hal_adc_ex.o
 .text.HAL_ADCEx_RegularMultiModeStop_DMA
                0x00000000      0x138 build/debug/stm32h7xx_hal_adc_ex.o
 .text.HAL_ADCEx_InjectedConfigChannel
                0x00000000      0xe30 build/debug/stm32h7xx_hal_adc_ex.o
 .text.HAL_ADCEx_EnableInjectedQueue
                0x00000000       0x64 build/debug/stm32h7xx_hal_adc_ex.o
 .text.HAL_ADCEx_DisableInjectedQueue
                0x00000000       0x64 build/debug/stm32h7xx_hal_adc_ex.o
 .text.HAL_ADCEx_DisableVoltageRegulator
                0x00000000       0x50 build/debug/stm32h7xx_hal_adc_ex.o
 .text.HAL_ADCEx_EnterADCDeepPowerDownMode
                0x00000000       0x54 build/debug/stm32h7xx_hal_adc_ex.o
 .text          0x00000000        0x0 build/debug/stm32h7xx_hal_cordic.o
 .data          0x00000000        0x0 build/debug/stm32h7xx_hal_cordic.o
 .bss           0x00000000        0x0 build/debug/stm32h7xx_hal_cordic.o
 .text.CORDIC_WriteInDataIncrementPtr
                0x00000000       0x24 build/debug/stm32h7xx_hal_cordic.o
 .text.CORDIC_ReadOutDataIncrementPtr
                0x00000000       0x24 build/debug/stm32h7xx_hal_cordic.o
 .text.HAL_CORDIC_MspInit
                0x00000000        0x2 build/debug/stm32h7xx_hal_cordic.o
 .text.HAL_CORDIC_MspDeInit
                0x00000000        0x2 build/debug/stm32h7xx_hal_cordic.o
 .text.HAL_CORDIC_DeInit
                0x00000000       0x48 build/debug/stm32h7xx_hal_cordic.o
 .text.HAL_CORDIC_Configure
                0x00000000      0x150 build/debug/stm32h7xx_hal_cordic.o
 .text.HAL_CORDIC_Calculate
                0x00000000       0xac build/debug/stm32h7xx_hal_cordic.o
 .text.HAL_CORDIC_CalculateZO
                0x00000000       0xa2 build/debug/stm32h7xx_hal_cordic.o
 .text.HAL_CORDIC_Calculate_IT
                0x00000000       0x82 build/debug/stm32h7xx_hal_cordic.o
 .text.HAL_CORDIC_Calculate_DMA
                0x00000000      0x12c build/debug/stm32h7xx_hal_cordic.o
 .text.HAL_CORDIC_ErrorCallback
                0x00000000        0x2 build/debug/stm32h7xx_hal_cordic.o
 .text.CORDIC_DMAError
                0x00000000       0x18 build/debug/stm32h7xx_hal_cordic.o
 .text.HAL_CORDIC_CalculateCpltCallback
                0x00000000        0x2 build/debug/stm32h7xx_hal_cordic.o
 .text.CORDIC_DMAInCplt
                0x00000000       0x26 build/debug/stm32h7xx_hal_cordic.o
 .text.CORDIC_DMAOutCplt
                0x00000000       0x1e build/debug/stm32h7xx_hal_cordic.o
 .text.HAL_CORDIC_IRQHandler
                0x00000000       0x56 build/debug/stm32h7xx_hal_cordic.o
 .text.HAL_CORDIC_GetState
                0x00000000        0x6 build/debug/stm32h7xx_hal_cordic.o
 .text.HAL_CORDIC_GetError
                0x00000000        0x4 build/debug/stm32h7xx_hal_cordic.o
 .text          0x00000000        0x0 build/debug/stm32h7xx_hal_cortex.o
 .data          0x00000000        0x0 build/debug/stm32h7xx_hal_cortex.o
 .bss           0x00000000        0x0 build/debug/stm32h7xx_hal_cortex.o
 .text.__NVIC_DisableIRQ
                0x00000000       0x24 build/debug/stm32h7xx_hal_cortex.o
 .text.__NVIC_GetPriority
                0x00000000       0x20 build/debug/stm32h7xx_hal_cortex.o
 .text.NVIC_DecodePriority
                0x00000000       0x3e build/debug/stm32h7xx_hal_cortex.o
 .text.__NVIC_SystemReset
                0x00000000       0x24 build/debug/stm32h7xx_hal_cortex.o
 .text.HAL_NVIC_DisableIRQ
                0x00000000       0x1c build/debug/stm32h7xx_hal_cortex.o
 .text.HAL_NVIC_SystemReset
                0x00000000        0x6 build/debug/stm32h7xx_hal_cortex.o
 .text.HAL_MPU_Disable
                0x00000000       0x1c build/debug/stm32h7xx_hal_cortex.o
 .text.HAL_MPU_Enable
                0x00000000       0x20 build/debug/stm32h7xx_hal_cortex.o
 .text.HAL_MPU_EnableRegion
                0x00000000       0x30 build/debug/stm32h7xx_hal_cortex.o
 .text.HAL_MPU_DisableRegion
                0x00000000       0x30 build/debug/stm32h7xx_hal_cortex.o
 .text.HAL_MPU_ConfigRegion
                0x00000000      0x120 build/debug/stm32h7xx_hal_cortex.o
 .text.HAL_NVIC_GetPriorityGrouping
                0x00000000       0x10 build/debug/stm32h7xx_hal_cortex.o
 .text.HAL_NVIC_GetPriority
                0x00000000       0x34 build/debug/stm32h7xx_hal_cortex.o
 .text.HAL_NVIC_SetPendingIRQ
                0x00000000       0x30 build/debug/stm32h7xx_hal_cortex.o
 .text.HAL_NVIC_GetPendingIRQ
                0x00000000       0x34 build/debug/stm32h7xx_hal_cortex.o
 .text.HAL_NVIC_ClearPendingIRQ
                0x00000000       0x30 build/debug/stm32h7xx_hal_cortex.o
 .text.HAL_NVIC_GetActive
                0x00000000       0x34 build/debug/stm32h7xx_hal_cortex.o
 .text.HAL_SYSTICK_CLKSourceConfig
                0x00000000       0x3c build/debug/stm32h7xx_hal_cortex.o
 .text.HAL_SYSTICK_Callback
                0x00000000        0x2 build/debug/stm32h7xx_hal_cortex.o
 .text.HAL_SYSTICK_IRQHandler
                0x00000000        0x8 build/debug/stm32h7xx_hal_cortex.o
 .text.HAL_GetCurrentCPUID
                0x00000000        0x4 build/debug/stm32h7xx_hal_cortex.o
 .text          0x00000000        0x0 build/debug/stm32h7xx_hal_dma.o
 .data          0x00000000        0x0 build/debug/stm32h7xx_hal_dma.o
 .bss           0x00000000        0x0 build/debug/stm32h7xx_hal_dma.o
 .text.DMA_SetConfig
                0x00000000      0x1b4 build/debug/stm32h7xx_hal_dma.o
 .text.DMA_CalcBaseAndBitshift
                0x00000000       0xb0 build/debug/stm32h7xx_hal_dma.o
 .text.DMA_CheckFifoParam
                0x00000000       0x92 build/debug/stm32h7xx_hal_dma.o
 .text.DMA_CalcDMAMUXChannelBaseAndMask
                0x00000000       0xac build/debug/stm32h7xx_hal_dma.o
 .text.DMA_CalcDMAMUXRequestGenBaseAndMask
                0x00000000       0x7c build/debug/stm32h7xx_hal_dma.o
 .rodata.HAL_DMA_Init.str1.4
                0x00000000       0x35 build/debug/stm32h7xx_hal_dma.o
 .text.HAL_DMA_Init
                0x00000000      0x5dc build/debug/stm32h7xx_hal_dma.o
 .text.HAL_DMA_DeInit
                0x00000000      0x1d4 build/debug/stm32h7xx_hal_dma.o
 .text.HAL_DMA_Start
                0x00000000      0x16c build/debug/stm32h7xx_hal_dma.o
 .text.HAL_DMA_Start_IT
                0x00000000      0x2bc build/debug/stm32h7xx_hal_dma.o
 .text.HAL_DMA_Abort
                0x00000000      0x340 build/debug/stm32h7xx_hal_dma.o
 .text.HAL_DMA_Abort_IT
                0x00000000      0x270 build/debug/stm32h7xx_hal_dma.o
 .text.HAL_DMA_PollForTransfer
                0x00000000      0x450 build/debug/stm32h7xx_hal_dma.o
 .text.HAL_DMA_IRQHandler
                0x00000000      0x738 build/debug/stm32h7xx_hal_dma.o
 .text.HAL_DMA_RegisterCallback
                0x00000000       0x60 build/debug/stm32h7xx_hal_dma.o
 .text.HAL_DMA_UnRegisterCallback
                0x00000000       0x76 build/debug/stm32h7xx_hal_dma.o
 .text.HAL_DMA_GetState
                0x00000000        0x6 build/debug/stm32h7xx_hal_dma.o
 .text.HAL_DMA_GetError
                0x00000000        0x4 build/debug/stm32h7xx_hal_dma.o
 .rodata.flagBitshiftOffset.0
                0x00000000        0x8 build/debug/stm32h7xx_hal_dma.o
 .debug_info    0x00000000     0x108c build/debug/stm32h7xx_hal_dma.o
 .debug_abbrev  0x00000000      0x2b1 build/debug/stm32h7xx_hal_dma.o
 .debug_loclists
                0x00000000      0x917 build/debug/stm32h7xx_hal_dma.o
 .debug_aranges
                0x00000000       0xa0 build/debug/stm32h7xx_hal_dma.o
 .debug_rnglists
                0x00000000       0x8b build/debug/stm32h7xx_hal_dma.o
 .debug_line    0x00000000     0x24db build/debug/stm32h7xx_hal_dma.o
 .debug_str     0x00000000      0x928 build/debug/stm32h7xx_hal_dma.o
 .comment       0x00000000       0x27 build/debug/stm32h7xx_hal_dma.o
 .debug_frame   0x00000000      0x1dc build/debug/stm32h7xx_hal_dma.o
 .ARM.attributes
                0x00000000       0x32 build/debug/stm32h7xx_hal_dma.o
 .text          0x00000000        0x0 build/debug/stm32h7xx_hal_dma_ex.o
 .data          0x00000000        0x0 build/debug/stm32h7xx_hal_dma_ex.o
 .bss           0x00000000        0x0 build/debug/stm32h7xx_hal_dma_ex.o
 .text.DMA_MultiBufferSetConfig
                0x00000000       0xa8 build/debug/stm32h7xx_hal_dma_ex.o
 .rodata.HAL_DMAEx_MultiBufferStart.str1.4
                0x00000000       0x38 build/debug/stm32h7xx_hal_dma_ex.o
 .text.HAL_DMAEx_MultiBufferStart
                0x00000000      0x2ec build/debug/stm32h7xx_hal_dma_ex.o
 .text.HAL_DMAEx_MultiBufferStart_IT
                0x00000000      0x46c build/debug/stm32h7xx_hal_dma_ex.o
 .text.HAL_DMAEx_ChangeMemory
                0x00000000       0x88 build/debug/stm32h7xx_hal_dma_ex.o
 .text.HAL_DMAEx_ConfigMuxSync
                0x00000000      0x208 build/debug/stm32h7xx_hal_dma_ex.o
 .text.HAL_DMAEx_ConfigMuxRequestGenerator
                0x00000000      0x1c8 build/debug/stm32h7xx_hal_dma_ex.o
 .text.HAL_DMAEx_EnableMuxRequestGenerator
                0x00000000       0xd0 build/debug/stm32h7xx_hal_dma_ex.o
 .text.HAL_DMAEx_DisableMuxRequestGenerator
                0x00000000       0xd0 build/debug/stm32h7xx_hal_dma_ex.o
 .text.HAL_DMAEx_MUX_IRQHandler
                0x00000000       0x5a build/debug/stm32h7xx_hal_dma_ex.o
 .debug_info    0x00000000      0xb34 build/debug/stm32h7xx_hal_dma_ex.o
 .debug_abbrev  0x00000000      0x22a build/debug/stm32h7xx_hal_dma_ex.o
 .debug_loclists
                0x00000000      0x39f build/debug/stm32h7xx_hal_dma_ex.o
 .debug_aranges
                0x00000000       0x60 build/debug/stm32h7xx_hal_dma_ex.o
 .debug_rnglists
                0x00000000       0x4b build/debug/stm32h7xx_hal_dma_ex.o
 .debug_line    0x00000000      0xf10 build/debug/stm32h7xx_hal_dma_ex.o
 .debug_str     0x00000000      0x7d7 build/debug/stm32h7xx_hal_dma_ex.o
 .comment       0x00000000       0x27 build/debug/stm32h7xx_hal_dma_ex.o
 .debug_frame   0x00000000      0x110 build/debug/stm32h7xx_hal_dma_ex.o
 .ARM.attributes
                0x00000000       0x32 build/debug/stm32h7xx_hal_dma_ex.o
 .text          0x00000000        0x0 build/debug/stm32h7xx_hal_exti.o
 .data          0x00000000        0x0 build/debug/stm32h7xx_hal_exti.o
 .bss           0x00000000        0x0 build/debug/stm32h7xx_hal_exti.o
 .rodata.HAL_EXTI_SetConfigLine.str1.4
                0x00000000       0x36 build/debug/stm32h7xx_hal_exti.o
 .text.HAL_EXTI_SetConfigLine
                0x00000000      0x210 build/debug/stm32h7xx_hal_exti.o
 .text.HAL_EXTI_GetConfigLine
                0x00000000      0x178 build/debug/stm32h7xx_hal_exti.o
 .text.HAL_EXTI_ClearConfigLine
                0x00000000      0x154 build/debug/stm32h7xx_hal_exti.o
 .text.HAL_EXTI_RegisterCallback
                0x00000000       0x12 build/debug/stm32h7xx_hal_exti.o
 .text.HAL_EXTI_GetHandle
                0x00000000       0x64 build/debug/stm32h7xx_hal_exti.o
 .text.HAL_EXTI_IRQHandler
                0x00000000       0x28 build/debug/stm32h7xx_hal_exti.o
 .text.HAL_EXTI_GetPending
                0x00000000       0xa0 build/debug/stm32h7xx_hal_exti.o
 .text.HAL_EXTI_ClearPending
                0x00000000       0x9c build/debug/stm32h7xx_hal_exti.o
 .text.HAL_EXTI_GenerateSWI
                0x00000000       0x88 build/debug/stm32h7xx_hal_exti.o
 .debug_info    0x00000000      0xc61 build/debug/stm32h7xx_hal_exti.o
 .debug_abbrev  0x00000000      0x236 build/debug/stm32h7xx_hal_exti.o
 .debug_loclists
                0x00000000      0xb2d build/debug/stm32h7xx_hal_exti.o
 .debug_aranges
                0x00000000       0x60 build/debug/stm32h7xx_hal_exti.o
 .debug_rnglists
                0x00000000       0x49 build/debug/stm32h7xx_hal_exti.o
 .debug_line    0x00000000      0x9f7 build/debug/stm32h7xx_hal_exti.o
 .debug_str     0x00000000      0x4fd build/debug/stm32h7xx_hal_exti.o
 .comment       0x00000000       0x27 build/debug/stm32h7xx_hal_exti.o
 .debug_frame   0x00000000      0x13c build/debug/stm32h7xx_hal_exti.o
 .ARM.attributes
                0x00000000       0x32 build/debug/stm32h7xx_hal_exti.o
 .text          0x00000000        0x0 build/debug/stm32h7xx_hal_flash.o
 .data          0x00000000        0x0 build/debug/stm32h7xx_hal_flash.o
 .bss           0x00000000        0x0 build/debug/stm32h7xx_hal_flash.o
 .text.HAL_FLASH_EndOfOperationCallback
                0x00000000        0x2 build/debug/stm32h7xx_hal_flash.o
 .text.HAL_FLASH_OperationErrorCallback
                0x00000000        0x2 build/debug/stm32h7xx_hal_flash.o
 .text.HAL_FLASH_IRQHandler
                0x00000000      0x100 build/debug/stm32h7xx_hal_flash.o
 .text.HAL_FLASH_Unlock
                0x00000000       0x34 build/debug/stm32h7xx_hal_flash.o
 .text.HAL_FLASH_Lock
                0x00000000       0x20 build/debug/stm32h7xx_hal_flash.o
 .text.HAL_FLASH_OB_Unlock
                0x00000000       0x34 build/debug/stm32h7xx_hal_flash.o
 .text.HAL_FLASH_OB_Lock
                0x00000000       0x20 build/debug/stm32h7xx_hal_flash.o
 .text.HAL_FLASH_GetError
                0x00000000        0xc build/debug/stm32h7xx_hal_flash.o
 .rodata.FLASH_WaitForLastOperation.str1.4
                0x00000000       0x37 build/debug/stm32h7xx_hal_flash.o
 .text.FLASH_WaitForLastOperation
                0x00000000       0x98 build/debug/stm32h7xx_hal_flash.o
 .text.HAL_FLASH_Program
                0x00000000       0xac build/debug/stm32h7xx_hal_flash.o
 .text.HAL_FLASH_Program_IT
                0x00000000       0xac build/debug/stm32h7xx_hal_flash.o
 .text.FLASH_OB_WaitForLastOperation
                0x00000000       0x60 build/debug/stm32h7xx_hal_flash.o
 .text.FLASH_CRC_WaitForLastOperation
                0x00000000       0x84 build/debug/stm32h7xx_hal_flash.o
 .text.HAL_FLASH_OB_Launch
                0x00000000       0x2c build/debug/stm32h7xx_hal_flash.o
 .bss.pFlash    0x00000000       0x1c build/debug/stm32h7xx_hal_flash.o
 .debug_info    0x00000000      0x9b1 build/debug/stm32h7xx_hal_flash.o
 .debug_abbrev  0x00000000      0x295 build/debug/stm32h7xx_hal_flash.o
 .debug_loclists
                0x00000000      0x4d9 build/debug/stm32h7xx_hal_flash.o
 .debug_aranges
                0x00000000       0x88 build/debug/stm32h7xx_hal_flash.o
 .debug_rnglists
                0x00000000       0x66 build/debug/stm32h7xx_hal_flash.o
 .debug_line    0x00000000      0x86c build/debug/stm32h7xx_hal_flash.o
 .debug_str     0x00000000      0x64d build/debug/stm32h7xx_hal_flash.o
 .comment       0x00000000       0x27 build/debug/stm32h7xx_hal_flash.o
 .debug_frame   0x00000000      0x144 build/debug/stm32h7xx_hal_flash.o
 .ARM.attributes
                0x00000000       0x32 build/debug/stm32h7xx_hal_flash.o
 .text          0x00000000        0x0 build/debug/stm32h7xx_hal_flash_ex.o
 .data          0x00000000        0x0 build/debug/stm32h7xx_hal_flash_ex.o
 .bss           0x00000000        0x0 build/debug/stm32h7xx_hal_flash_ex.o
 .text.FLASH_OB_GetWRP
                0x00000000       0x24 build/debug/stm32h7xx_hal_flash_ex.o
 .text.FLASH_OB_GetRDP
                0x00000000       0x20 build/debug/stm32h7xx_hal_flash_ex.o
 .text.FLASH_OB_GetUser
                0x00000000       0x14 build/debug/stm32h7xx_hal_flash_ex.o
 .text.FLASH_OB_GetPCROP
                0x00000000       0x40 build/debug/stm32h7xx_hal_flash_ex.o
 .text.FLASH_OB_GetBOR
                0x00000000       0x10 build/debug/stm32h7xx_hal_flash_ex.o
 .text.FLASH_OB_GetBootAdd
                0x00000000       0x14 build/debug/stm32h7xx_hal_flash_ex.o
 .text.FLASH_OB_GetSecureArea
                0x00000000       0x40 build/debug/stm32h7xx_hal_flash_ex.o
 .text.FLASH_OB_SharedRAM_GetConfig
                0x00000000       0x10 build/debug/stm32h7xx_hal_flash_ex.o
 .text.FLASH_OB_CPUFreq_GetBoost
                0x00000000       0x10 build/debug/stm32h7xx_hal_flash_ex.o
 .rodata.FLASH_MassErase.str1.4
                0x00000000       0x3a build/debug/stm32h7xx_hal_flash_ex.o
 .text.FLASH_MassErase
                0x00000000       0x60 build/debug/stm32h7xx_hal_flash_ex.o
 .text.FLASH_OB_EnableWRP
                0x00000000       0x44 build/debug/stm32h7xx_hal_flash_ex.o
 .text.FLASH_OB_DisableWRP
                0x00000000       0x44 build/debug/stm32h7xx_hal_flash_ex.o
 .text.FLASH_OB_RDPConfig
                0x00000000       0x38 build/debug/stm32h7xx_hal_flash_ex.o
 .text.FLASH_OB_UserConfig
                0x00000000      0x10c build/debug/stm32h7xx_hal_flash_ex.o
 .text.FLASH_OB_PCROPConfig
                0x00000000       0x7c build/debug/stm32h7xx_hal_flash_ex.o
 .text.FLASH_OB_BOR_LevelConfig
                0x00000000       0x3c build/debug/stm32h7xx_hal_flash_ex.o
 .text.FLASH_OB_BootAddConfig
                0x00000000       0x70 build/debug/stm32h7xx_hal_flash_ex.o
 .text.FLASH_OB_SecureAreaConfig
                0x00000000       0x80 build/debug/stm32h7xx_hal_flash_ex.o
 .text.FLASH_OB_SharedRAM_Config
                0x00000000       0x2c build/debug/stm32h7xx_hal_flash_ex.o
 .text.FLASH_OB_CPUFreq_BoostConfig
                0x00000000       0x30 build/debug/stm32h7xx_hal_flash_ex.o
 .text.FLASH_CRC_AddSector
                0x00000000       0x3c build/debug/stm32h7xx_hal_flash_ex.o
 .text.FLASH_CRC_SelectAddress
                0x00000000       0x48 build/debug/stm32h7xx_hal_flash_ex.o
 .text.HAL_FLASHEx_OBProgram
                0x00000000      0x12c build/debug/stm32h7xx_hal_flash_ex.o
 .text.HAL_FLASHEx_OBGetConfig
                0x00000000       0x88 build/debug/stm32h7xx_hal_flash_ex.o
 .text.HAL_FLASHEx_Unlock_Bank1
                0x00000000       0x34 build/debug/stm32h7xx_hal_flash_ex.o
 .text.HAL_FLASHEx_Lock_Bank1
                0x00000000       0x14 build/debug/stm32h7xx_hal_flash_ex.o
 .text.HAL_FLASHEx_ComputeCRC
                0x00000000       0xe8 build/debug/stm32h7xx_hal_flash_ex.o
 .text.FLASH_Erase_Sector
                0x00000000       0x74 build/debug/stm32h7xx_hal_flash_ex.o
 .text.HAL_FLASHEx_Erase
                0x00000000       0xec build/debug/stm32h7xx_hal_flash_ex.o
 .text.HAL_FLASHEx_Erase_IT
                0x00000000       0xc0 build/debug/stm32h7xx_hal_flash_ex.o
 .debug_info    0x00000000     0x1368 build/debug/stm32h7xx_hal_flash_ex.o
 .debug_abbrev  0x00000000      0x27b build/debug/stm32h7xx_hal_flash_ex.o
 .debug_loclists
                0x00000000      0x8c8 build/debug/stm32h7xx_hal_flash_ex.o
 .debug_aranges
                0x00000000      0x108 build/debug/stm32h7xx_hal_flash_ex.o
 .debug_rnglists
                0x00000000       0xc8 build/debug/stm32h7xx_hal_flash_ex.o
 .debug_line    0x00000000      0xdab build/debug/stm32h7xx_hal_flash_ex.o
 .debug_str     0x00000000      0x976 build/debug/stm32h7xx_hal_flash_ex.o
 .comment       0x00000000       0x27 build/debug/stm32h7xx_hal_flash_ex.o
 .debug_frame   0x00000000      0x2e4 build/debug/stm32h7xx_hal_flash_ex.o
 .ARM.attributes
                0x00000000       0x32 build/debug/stm32h7xx_hal_flash_ex.o
 .text          0x00000000        0x0 build/debug/stm32h7xx_hal_fmac.o
 .data          0x00000000        0x0 build/debug/stm32h7xx_hal_fmac.o
 .bss           0x00000000        0x0 build/debug/stm32h7xx_hal_fmac.o
 .text.FMAC_WritePreloadDataIncrementPtr
                0x00000000       0x26 build/debug/stm32h7xx_hal_fmac.o
 .text.FMAC_ReadDataIncrementPtr
                0x00000000       0xa0 build/debug/stm32h7xx_hal_fmac.o
 .text.FMAC_WriteDataIncrementPtr
                0x00000000       0xa8 build/debug/stm32h7xx_hal_fmac.o
 .text.FMAC_WaitOnStartUntilTimeout
                0x00000000       0x2a build/debug/stm32h7xx_hal_fmac.o
 .text.FMAC_FilterConfig
                0x00000000      0x3e8 build/debug/stm32h7xx_hal_fmac.o
 .text.FMAC_FilterPreload
                0x00000000      0x190 build/debug/stm32h7xx_hal_fmac.o
 .text.FMAC_ConfigFilterOutputBufferUpdateState
                0x00000000       0xa0 build/debug/stm32h7xx_hal_fmac.o
 .text.FMAC_AppendFilterDataUpdateState
                0x00000000       0x4c build/debug/stm32h7xx_hal_fmac.o
 .text.HAL_FMAC_MspInit
                0x00000000        0x2 build/debug/stm32h7xx_hal_fmac.o
 .text.HAL_FMAC_MspDeInit
                0x00000000        0x2 build/debug/stm32h7xx_hal_fmac.o
 .text.HAL_FMAC_DeInit
                0x00000000       0x48 build/debug/stm32h7xx_hal_fmac.o
 .text.HAL_FMAC_FilterConfig
                0x00000000        0xa build/debug/stm32h7xx_hal_fmac.o
 .text.HAL_FMAC_FilterConfig_DMA
                0x00000000        0xa build/debug/stm32h7xx_hal_fmac.o
 .text.HAL_FMAC_FilterPreload
                0x00000000       0x16 build/debug/stm32h7xx_hal_fmac.o
 .text.HAL_FMAC_FilterPreload_DMA
                0x00000000       0x16 build/debug/stm32h7xx_hal_fmac.o
 .text.HAL_FMAC_FilterStart
                0x00000000       0x84 build/debug/stm32h7xx_hal_fmac.o
 .text.HAL_FMAC_AppendFilterData
                0x00000000       0x56 build/debug/stm32h7xx_hal_fmac.o
 .text.HAL_FMAC_ConfigFilterOutputBuffer
                0x00000000       0x56 build/debug/stm32h7xx_hal_fmac.o
 .text.HAL_FMAC_PollFilterData
                0x00000000       0xf6 build/debug/stm32h7xx_hal_fmac.o
 .text.HAL_FMAC_FilterStop
                0x00000000       0xa4 build/debug/stm32h7xx_hal_fmac.o
 .text.HAL_FMAC_ErrorCallback
                0x00000000        0x2 build/debug/stm32h7xx_hal_fmac.o
 .text.FMAC_DMAError
                0x00000000       0x18 build/debug/stm32h7xx_hal_fmac.o
 .text.HAL_FMAC_HalfGetDataCallback
                0x00000000        0x2 build/debug/stm32h7xx_hal_fmac.o
 .text.FMAC_DMAHalfGetData
                0x00000000        0xa build/debug/stm32h7xx_hal_fmac.o
 .text.HAL_FMAC_GetDataCallback
                0x00000000        0x2 build/debug/stm32h7xx_hal_fmac.o
 .text.FMAC_DMAGetData
                0x00000000       0x12 build/debug/stm32h7xx_hal_fmac.o
 .text.HAL_FMAC_HalfOutputDataReadyCallback
                0x00000000        0x2 build/debug/stm32h7xx_hal_fmac.o
 .text.FMAC_DMAHalfOutputDataReady
                0x00000000        0xa build/debug/stm32h7xx_hal_fmac.o
 .text.HAL_FMAC_OutputDataReadyCallback
                0x00000000        0x2 build/debug/stm32h7xx_hal_fmac.o
 .text.FMAC_DMAOutputDataReady
                0x00000000       0x12 build/debug/stm32h7xx_hal_fmac.o
 .text.HAL_FMAC_FilterConfigCallback
                0x00000000        0x2 build/debug/stm32h7xx_hal_fmac.o
 .text.FMAC_DMAFilterConfig
                0x00000000       0x84 build/debug/stm32h7xx_hal_fmac.o
 .text.HAL_FMAC_FilterPreloadCallback
                0x00000000        0x2 build/debug/stm32h7xx_hal_fmac.o
 .text.FMAC_DMAFilterPreload
                0x00000000       0x94 build/debug/stm32h7xx_hal_fmac.o
 .text.HAL_FMAC_IRQHandler
                0x00000000       0xda build/debug/stm32h7xx_hal_fmac.o
 .text.HAL_FMAC_GetState
                0x00000000        0x6 build/debug/stm32h7xx_hal_fmac.o
 .text.HAL_FMAC_GetError
                0x00000000        0x4 build/debug/stm32h7xx_hal_fmac.o
 .text          0x00000000        0x0 build/debug/stm32h7xx_hal_gpio.o
 .data          0x00000000        0x0 build/debug/stm32h7xx_hal_gpio.o
 .bss           0x00000000        0x0 build/debug/stm32h7xx_hal_gpio.o
 .text.HAL_GPIO_DeInit
                0x00000000      0x1c4 build/debug/stm32h7xx_hal_gpio.o
 .text.HAL_GPIO_ReadPin
                0x00000000       0x28 build/debug/stm32h7xx_hal_gpio.o
 .text.HAL_GPIO_TogglePin
                0x00000000       0x2c build/debug/stm32h7xx_hal_gpio.o
 .text.HAL_GPIO_LockPin
                0x00000000       0xbc build/debug/stm32h7xx_hal_gpio.o
 .text.HAL_GPIO_EXTI_Callback
                0x00000000        0x2 build/debug/stm32h7xx_hal_gpio.o
 .text.HAL_GPIO_EXTI_IRQHandler
                0x00000000       0x1e build/debug/stm32h7xx_hal_gpio.o
 .text          0x00000000        0x0 build/debug/stm32h7xx_hal_hsem.o
 .data          0x00000000        0x0 build/debug/stm32h7xx_hal_hsem.o
 .bss           0x00000000        0x0 build/debug/stm32h7xx_hal_hsem.o
 .rodata.HAL_HSEM_Take.str1.4
                0x00000000       0x36 build/debug/stm32h7xx_hal_hsem.o
 .text.HAL_HSEM_Take
                0x00000000       0x48 build/debug/stm32h7xx_hal_hsem.o
 .text.HAL_HSEM_FastTake
                0x00000000       0x34 build/debug/stm32h7xx_hal_hsem.o
 .text.HAL_HSEM_IsSemTaken
                0x00000000       0x18 build/debug/stm32h7xx_hal_hsem.o
 .text.HAL_HSEM_Release
                0x00000000       0x38 build/debug/stm32h7xx_hal_hsem.o
 .text.HAL_HSEM_ReleaseAll
                0x00000000       0x40 build/debug/stm32h7xx_hal_hsem.o
 .text.HAL_HSEM_SetClearKey
                0x00000000       0x30 build/debug/stm32h7xx_hal_hsem.o
 .text.HAL_HSEM_GetClearKey
                0x00000000       0x10 build/debug/stm32h7xx_hal_hsem.o
 .text.HAL_HSEM_ActivateNotification
                0x00000000       0x10 build/debug/stm32h7xx_hal_hsem.o
 .text.HAL_HSEM_DeactivateNotification
                0x00000000       0x10 build/debug/stm32h7xx_hal_hsem.o
 .text.HAL_HSEM_FreeCallback
                0x00000000        0x2 build/debug/stm32h7xx_hal_hsem.o
 .text.HAL_HSEM_IRQHandler
                0x00000000       0x1c build/debug/stm32h7xx_hal_hsem.o
 .debug_info    0x00000000      0x4c4 build/debug/stm32h7xx_hal_hsem.o
 .debug_abbrev  0x00000000      0x21e build/debug/stm32h7xx_hal_hsem.o
 .debug_loclists
                0x00000000      0x18d build/debug/stm32h7xx_hal_hsem.o
 .debug_aranges
                0x00000000       0x70 build/debug/stm32h7xx_hal_hsem.o
 .debug_rnglists
                0x00000000       0x4f build/debug/stm32h7xx_hal_hsem.o
 .debug_line    0x00000000      0x32d build/debug/stm32h7xx_hal_hsem.o
 .debug_str     0x00000000      0x34f build/debug/stm32h7xx_hal_hsem.o
 .comment       0x00000000       0x27 build/debug/stm32h7xx_hal_hsem.o
 .debug_frame   0x00000000       0xfc build/debug/stm32h7xx_hal_hsem.o
 .ARM.attributes
                0x00000000       0x32 build/debug/stm32h7xx_hal_hsem.o
 .text          0x00000000        0x0 build/debug/stm32h7xx_hal_i2c.o
 .data          0x00000000        0x0 build/debug/stm32h7xx_hal_i2c.o
 .bss           0x00000000        0x0 build/debug/stm32h7xx_hal_i2c.o
 .text.I2C_Enable_IRQ
                0x00000000       0x9c build/debug/stm32h7xx_hal_i2c.o
 .text.I2C_Disable_IRQ
                0x00000000       0x70 build/debug/stm32h7xx_hal_i2c.o
 .text.I2C_ConvertOtherXferOptions
                0x00000000       0x1e build/debug/stm32h7xx_hal_i2c.o
 .text.I2C_WaitOnRXNEFlagUntilTimeout
                0x00000000       0xaa build/debug/stm32h7xx_hal_i2c.o
 .text.HAL_I2C_MspInit
                0x00000000        0x2 build/debug/stm32h7xx_hal_i2c.o
 .text.HAL_I2C_MspDeInit
                0x00000000        0x2 build/debug/stm32h7xx_hal_i2c.o
 .text.HAL_I2C_DeInit
                0x00000000       0x74 build/debug/stm32h7xx_hal_i2c.o
 .text.HAL_I2C_Master_Receive
                0x00000000      0x17c build/debug/stm32h7xx_hal_i2c.o
 .text.HAL_I2C_Slave_Transmit
                0x00000000      0x1f4 build/debug/stm32h7xx_hal_i2c.o
 .text.HAL_I2C_Slave_Receive
                0x00000000      0x184 build/debug/stm32h7xx_hal_i2c.o
 .text.HAL_I2C_Master_Transmit_IT
                0x00000000       0xc8 build/debug/stm32h7xx_hal_i2c.o
 .text.HAL_I2C_Master_Receive_IT
                0x00000000       0x98 build/debug/stm32h7xx_hal_i2c.o
 .text.HAL_I2C_Slave_Transmit_IT
                0x00000000       0x8c build/debug/stm32h7xx_hal_i2c.o
 .text.HAL_I2C_Slave_Receive_IT
                0x00000000       0x64 build/debug/stm32h7xx_hal_i2c.o
 .text.HAL_I2C_Master_Transmit_DMA
                0x00000000      0x174 build/debug/stm32h7xx_hal_i2c.o
 .text.HAL_I2C_Master_Receive_DMA
                0x00000000      0x150 build/debug/stm32h7xx_hal_i2c.o
 .text.HAL_I2C_Slave_Transmit_DMA
                0x00000000      0x140 build/debug/stm32h7xx_hal_i2c.o
 .text.HAL_I2C_Slave_Receive_DMA
                0x00000000       0xf4 build/debug/stm32h7xx_hal_i2c.o
 .text.HAL_I2C_Mem_Write_IT
                0x00000000       0xe0 build/debug/stm32h7xx_hal_i2c.o
 .text.HAL_I2C_Mem_Read_IT
                0x00000000       0xdc build/debug/stm32h7xx_hal_i2c.o
 .text.HAL_I2C_Mem_Write_DMA
                0x00000000      0x15c build/debug/stm32h7xx_hal_i2c.o
 .text.HAL_I2C_Mem_Read_DMA
                0x00000000      0x158 build/debug/stm32h7xx_hal_i2c.o
 .text.HAL_I2C_IsDeviceReady
                0x00000000      0x16c build/debug/stm32h7xx_hal_i2c.o
 .text.HAL_I2C_Master_Seq_Transmit_IT
                0x00000000      0x148 build/debug/stm32h7xx_hal_i2c.o
 .text.HAL_I2C_Master_Seq_Transmit_DMA
                0x00000000      0x218 build/debug/stm32h7xx_hal_i2c.o
 .text.HAL_I2C_Master_Seq_Receive_IT
                0x00000000       0xf8 build/debug/stm32h7xx_hal_i2c.o
 .text.HAL_I2C_Master_Seq_Receive_DMA
                0x00000000      0x1ac build/debug/stm32h7xx_hal_i2c.o
 .text.HAL_I2C_Slave_Seq_Transmit_IT
                0x00000000      0x120 build/debug/stm32h7xx_hal_i2c.o
 .text.HAL_I2C_Slave_Seq_Transmit_DMA
                0x00000000      0x1e8 build/debug/stm32h7xx_hal_i2c.o
 .text.HAL_I2C_Slave_Seq_Receive_IT
                0x00000000      0x120 build/debug/stm32h7xx_hal_i2c.o
 .text.HAL_I2C_Slave_Seq_Receive_DMA
                0x00000000      0x1e8 build/debug/stm32h7xx_hal_i2c.o
 .text.HAL_I2C_EnableListen_IT
                0x00000000       0x2c build/debug/stm32h7xx_hal_i2c.o
 .text.HAL_I2C_DisableListen_IT
                0x00000000       0x3a build/debug/stm32h7xx_hal_i2c.o
 .text.HAL_I2C_Master_Abort_IT
                0x00000000       0x88 build/debug/stm32h7xx_hal_i2c.o
 .text.HAL_I2C_EV_IRQHandler
                0x00000000       0x10 build/debug/stm32h7xx_hal_i2c.o
 .text.HAL_I2C_MasterTxCpltCallback
                0x00000000        0x2 build/debug/stm32h7xx_hal_i2c.o
 .text.HAL_I2C_MasterRxCpltCallback
                0x00000000        0x2 build/debug/stm32h7xx_hal_i2c.o
 .text.I2C_ITMasterSeqCplt
                0x00000000       0x54 build/debug/stm32h7xx_hal_i2c.o
 .text.HAL_I2C_SlaveTxCpltCallback
                0x00000000        0x2 build/debug/stm32h7xx_hal_i2c.o
 .text.HAL_I2C_SlaveRxCpltCallback
                0x00000000        0x2 build/debug/stm32h7xx_hal_i2c.o
 .text.I2C_ITSlaveSeqCplt
                0x00000000       0x82 build/debug/stm32h7xx_hal_i2c.o
 .text.I2C_DMASlaveTransmitCplt
                0x00000000       0x22 build/debug/stm32h7xx_hal_i2c.o
 .text.I2C_DMASlaveReceiveCplt
                0x00000000       0xa0 build/debug/stm32h7xx_hal_i2c.o
 .text.HAL_I2C_AddrCallback
                0x00000000        0x2 build/debug/stm32h7xx_hal_i2c.o
 .text.I2C_ITAddrCplt
                0x00000000       0xa0 build/debug/stm32h7xx_hal_i2c.o
 .text.HAL_I2C_ListenCpltCallback
                0x00000000        0x2 build/debug/stm32h7xx_hal_i2c.o
 .text.I2C_ITListenCplt
                0x00000000       0x68 build/debug/stm32h7xx_hal_i2c.o
 .text.HAL_I2C_MemTxCpltCallback
                0x00000000        0x2 build/debug/stm32h7xx_hal_i2c.o
 .text.HAL_I2C_MemRxCpltCallback
                0x00000000        0x2 build/debug/stm32h7xx_hal_i2c.o
 .text.HAL_I2C_ErrorCallback
                0x00000000        0x2 build/debug/stm32h7xx_hal_i2c.o
 .text.HAL_I2C_AbortCpltCallback
                0x00000000        0x2 build/debug/stm32h7xx_hal_i2c.o
 .text.I2C_TreatErrorCallback
                0x00000000       0x2e build/debug/stm32h7xx_hal_i2c.o
 .text.I2C_ITError
                0x00000000      0x130 build/debug/stm32h7xx_hal_i2c.o
 .text.I2C_ITSlaveCplt
                0x00000000      0x2d8 build/debug/stm32h7xx_hal_i2c.o
 .text.I2C_Slave_ISR_IT
                0x00000000      0x14a build/debug/stm32h7xx_hal_i2c.o
 .text.I2C_ITMasterCplt
                0x00000000      0x12e build/debug/stm32h7xx_hal_i2c.o
 .text.I2C_Master_ISR_IT
                0x00000000      0x192 build/debug/stm32h7xx_hal_i2c.o
 .text.I2C_Mem_ISR_DMA
                0x00000000      0x1a8 build/debug/stm32h7xx_hal_i2c.o
 .text.I2C_Slave_ISR_DMA
                0x00000000      0x220 build/debug/stm32h7xx_hal_i2c.o
 .text.I2C_Master_ISR_DMA
                0x00000000      0x142 build/debug/stm32h7xx_hal_i2c.o
 .text.I2C_DMAError
                0x00000000      0x138 build/debug/stm32h7xx_hal_i2c.o
 .text.I2C_DMAMasterTransmitCplt
                0x00000000       0x5a build/debug/stm32h7xx_hal_i2c.o
 .text.I2C_DMAMasterReceiveCplt
                0x00000000       0x5a build/debug/stm32h7xx_hal_i2c.o
 .text.I2C_Mem_ISR_IT
                0x00000000      0x198 build/debug/stm32h7xx_hal_i2c.o
 .text.HAL_I2C_ER_IRQHandler
                0x00000000       0x6a build/debug/stm32h7xx_hal_i2c.o
 .text.I2C_DMAAbort
                0x00000000       0x1a build/debug/stm32h7xx_hal_i2c.o
 .text.HAL_I2C_GetState
                0x00000000        0x6 build/debug/stm32h7xx_hal_i2c.o
 .text.HAL_I2C_GetMode
                0x00000000        0x6 build/debug/stm32h7xx_hal_i2c.o
 .text.HAL_I2C_GetError
                0x00000000        0x4 build/debug/stm32h7xx_hal_i2c.o
 .text          0x00000000        0x0 build/debug/stm32h7xx_hal_i2c_ex.o
 .data          0x00000000        0x0 build/debug/stm32h7xx_hal_i2c_ex.o
 .bss           0x00000000        0x0 build/debug/stm32h7xx_hal_i2c_ex.o
 .text.HAL_I2CEx_EnableWakeUp
                0x00000000       0x94 build/debug/stm32h7xx_hal_i2c_ex.o
 .text.HAL_I2CEx_DisableWakeUp
                0x00000000       0x94 build/debug/stm32h7xx_hal_i2c_ex.o
 .text.HAL_I2CEx_EnableFastModePlus
                0x00000000       0x4c build/debug/stm32h7xx_hal_i2c_ex.o
 .text.HAL_I2CEx_DisableFastModePlus
                0x00000000       0x4c build/debug/stm32h7xx_hal_i2c_ex.o
 .text          0x00000000        0x0 build/debug/stm32h7xx_hal_mdma.o
 .data          0x00000000        0x0 build/debug/stm32h7xx_hal_mdma.o
 .bss           0x00000000        0x0 build/debug/stm32h7xx_hal_mdma.o
 .text.MDMA_SetConfig
                0x00000000       0x90 build/debug/stm32h7xx_hal_mdma.o
 .text.MDMA_Init
                0x00000000       0xb8 build/debug/stm32h7xx_hal_mdma.o
 .rodata.HAL_MDMA_Init.str1.4
                0x00000000       0x36 build/debug/stm32h7xx_hal_mdma.o
 .text.HAL_MDMA_Init
                0x00000000      0x308 build/debug/stm32h7xx_hal_mdma.o
 .text.HAL_MDMA_DeInit
                0x00000000       0x56 build/debug/stm32h7xx_hal_mdma.o
 .text.HAL_MDMA_ConfigPostRequestMask
                0x00000000       0x66 build/debug/stm32h7xx_hal_mdma.o
 .text.HAL_MDMA_RegisterCallback
                0x00000000       0x64 build/debug/stm32h7xx_hal_mdma.o
 .text.HAL_MDMA_UnRegisterCallback
                0x00000000       0x76 build/debug/stm32h7xx_hal_mdma.o
 .text.HAL_MDMA_LinkedList_CreateNode
                0x00000000      0x39c build/debug/stm32h7xx_hal_mdma.o
 .text.HAL_MDMA_LinkedList_AddNode
                0x00000000       0xe8 build/debug/stm32h7xx_hal_mdma.o
 .text.HAL_MDMA_LinkedList_RemoveNode
                0x00000000       0xd2 build/debug/stm32h7xx_hal_mdma.o
 .text.HAL_MDMA_LinkedList_EnableCircularMode
                0x00000000       0x58 build/debug/stm32h7xx_hal_mdma.o
 .text.HAL_MDMA_LinkedList_DisableCircularMode
                0x00000000       0x52 build/debug/stm32h7xx_hal_mdma.o
 .text.HAL_MDMA_Start
                0x00000000       0xbc build/debug/stm32h7xx_hal_mdma.o
 .text.HAL_MDMA_Start_IT
                0x00000000       0xf0 build/debug/stm32h7xx_hal_mdma.o
 .text.HAL_MDMA_Abort
                0x00000000       0x7c build/debug/stm32h7xx_hal_mdma.o
 .text.HAL_MDMA_Abort_IT
                0x00000000       0x2c build/debug/stm32h7xx_hal_mdma.o
 .text.HAL_MDMA_PollForTransfer
                0x00000000      0x134 build/debug/stm32h7xx_hal_mdma.o
 .text.HAL_MDMA_GenerateSWRequest
                0x00000000       0x40 build/debug/stm32h7xx_hal_mdma.o
 .text.HAL_MDMA_IRQHandler
                0x00000000      0x1b4 build/debug/stm32h7xx_hal_mdma.o
 .text.HAL_MDMA_GetState
                0x00000000        0x6 build/debug/stm32h7xx_hal_mdma.o
 .text.HAL_MDMA_GetError
                0x00000000        0x4 build/debug/stm32h7xx_hal_mdma.o
 .debug_info    0x00000000     0x1267 build/debug/stm32h7xx_hal_mdma.o
 .debug_abbrev  0x00000000      0x258 build/debug/stm32h7xx_hal_mdma.o
 .debug_loclists
                0x00000000      0xadf build/debug/stm32h7xx_hal_mdma.o
 .debug_aranges
                0x00000000       0xc0 build/debug/stm32h7xx_hal_mdma.o
 .debug_rnglists
                0x00000000       0x95 build/debug/stm32h7xx_hal_mdma.o
 .debug_line    0x00000000     0x16c9 build/debug/stm32h7xx_hal_mdma.o
 .debug_str     0x00000000      0xa04 build/debug/stm32h7xx_hal_mdma.o
 .comment       0x00000000       0x27 build/debug/stm32h7xx_hal_mdma.o
 .debug_frame   0x00000000      0x248 build/debug/stm32h7xx_hal_mdma.o
 .ARM.attributes
                0x00000000       0x32 build/debug/stm32h7xx_hal_mdma.o
 .text          0x00000000        0x0 build/debug/stm32h7xx_hal_msp.o
 .data          0x00000000        0x0 build/debug/stm32h7xx_hal_msp.o
 .bss           0x00000000        0x0 build/debug/stm32h7xx_hal_msp.o
 .text          0x00000000        0x0 build/debug/stm32h7xx_hal_pcd.o
 .data          0x00000000        0x0 build/debug/stm32h7xx_hal_pcd.o
 .bss           0x00000000        0x0 build/debug/stm32h7xx_hal_pcd.o
 .text.HAL_PCD_MspInit
                0x00000000        0x2 build/debug/stm32h7xx_hal_pcd.o
 .text.HAL_PCD_MspDeInit
                0x00000000        0x2 build/debug/stm32h7xx_hal_pcd.o
 .text.HAL_PCD_DeInit
                0x00000000       0x2e build/debug/stm32h7xx_hal_pcd.o
 .text.HAL_PCD_Stop
                0x00000000       0x4c build/debug/stm32h7xx_hal_pcd.o
 .text.HAL_PCD_DataOutStageCallback
                0x00000000        0x2 build/debug/stm32h7xx_hal_pcd.o
 .text.HAL_PCD_DataInStageCallback
                0x00000000        0x2 build/debug/stm32h7xx_hal_pcd.o
 .text.HAL_PCD_SetupStageCallback
                0x00000000        0x2 build/debug/stm32h7xx_hal_pcd.o
 .text.HAL_PCD_SOFCallback
                0x00000000        0x2 build/debug/stm32h7xx_hal_pcd.o
 .text.HAL_PCD_ResetCallback
                0x00000000        0x2 build/debug/stm32h7xx_hal_pcd.o
 .text.HAL_PCD_SuspendCallback
                0x00000000        0x2 build/debug/stm32h7xx_hal_pcd.o
 .text.HAL_PCD_ResumeCallback
                0x00000000        0x2 build/debug/stm32h7xx_hal_pcd.o
 .text.HAL_PCD_ISOOUTIncompleteCallback
                0x00000000        0x2 build/debug/stm32h7xx_hal_pcd.o
 .text.HAL_PCD_ISOINIncompleteCallback
                0x00000000        0x2 build/debug/stm32h7xx_hal_pcd.o
 .text.HAL_PCD_ConnectCallback
                0x00000000        0x2 build/debug/stm32h7xx_hal_pcd.o
 .text.HAL_PCD_DisconnectCallback
                0x00000000        0x2 build/debug/stm32h7xx_hal_pcd.o
 .text.HAL_PCD_DevConnect
                0x00000000       0x3e build/debug/stm32h7xx_hal_pcd.o
 .text.HAL_PCD_DevDisconnect
                0x00000000       0x3e build/debug/stm32h7xx_hal_pcd.o
 .text.HAL_PCD_EP_Flush
                0x00000000       0x36 build/debug/stm32h7xx_hal_pcd.o
 .text.HAL_PCD_ActivateRemoteWakeup
                0x00000000        0xa build/debug/stm32h7xx_hal_pcd.o
 .text.HAL_PCD_DeActivateRemoteWakeup
                0x00000000        0xa build/debug/stm32h7xx_hal_pcd.o
 .text.HAL_PCD_GetState
                0x00000000        0x6 build/debug/stm32h7xx_hal_pcd.o
 .text.HAL_PCD_SetTestMode
                0x00000000       0x24 build/debug/stm32h7xx_hal_pcd.o
 .text          0x00000000        0x0 build/debug/stm32h7xx_hal_pcd_ex.o
 .data          0x00000000        0x0 build/debug/stm32h7xx_hal_pcd_ex.o
 .bss           0x00000000        0x0 build/debug/stm32h7xx_hal_pcd_ex.o
 .text.HAL_PCDEx_DeActivateLPM
                0x00000000       0x20 build/debug/stm32h7xx_hal_pcd_ex.o
 .text.HAL_PCDEx_ActivateBCD
                0x00000000       0x2c build/debug/stm32h7xx_hal_pcd_ex.o
 .text.HAL_PCDEx_DeActivateBCD
                0x00000000       0x24 build/debug/stm32h7xx_hal_pcd_ex.o
 .text.HAL_PCDEx_BCD_Callback
                0x00000000        0x2 build/debug/stm32h7xx_hal_pcd_ex.o
 .text.HAL_PCDEx_BCD_VBUSDetect
                0x00000000       0xb8 build/debug/stm32h7xx_hal_pcd_ex.o
 .text          0x00000000        0x0 build/debug/stm32h7xx_hal_pwr.o
 .data          0x00000000        0x0 build/debug/stm32h7xx_hal_pwr.o
 .bss           0x00000000        0x0 build/debug/stm32h7xx_hal_pwr.o
 .text.HAL_PWR_DeInit
                0x00000000        0x2 build/debug/stm32h7xx_hal_pwr.o
 .text.HAL_PWR_EnableBkUpAccess
                0x00000000       0x10 build/debug/stm32h7xx_hal_pwr.o
 .text.HAL_PWR_DisableBkUpAccess
                0x00000000       0x10 build/debug/stm32h7xx_hal_pwr.o
 .rodata.HAL_PWR_ConfigPVD.str1.4
                0x00000000       0x35 build/debug/stm32h7xx_hal_pwr.o
 .text.HAL_PWR_ConfigPVD
                0x00000000      0x104 build/debug/stm32h7xx_hal_pwr.o
 .text.HAL_PWR_EnablePVD
                0x00000000       0x10 build/debug/stm32h7xx_hal_pwr.o
 .text.HAL_PWR_DisablePVD
                0x00000000       0x10 build/debug/stm32h7xx_hal_pwr.o
 .text.HAL_PWR_EnableWakeUpPin
                0x00000000       0x88 build/debug/stm32h7xx_hal_pwr.o
 .text.HAL_PWR_DisableWakeUpPin
                0x00000000       0x84 build/debug/stm32h7xx_hal_pwr.o
 .text.HAL_PWR_EnterSLEEPMode
                0x00000000       0x48 build/debug/stm32h7xx_hal_pwr.o
 .text.HAL_PWR_EnterSTOPMode
                0x00000000       0x7c build/debug/stm32h7xx_hal_pwr.o
 .text.HAL_PWR_EnterSTANDBYMode
                0x00000000       0x30 build/debug/stm32h7xx_hal_pwr.o
 .text.HAL_PWR_EnableSleepOnExit
                0x00000000       0x10 build/debug/stm32h7xx_hal_pwr.o
 .text.HAL_PWR_DisableSleepOnExit
                0x00000000       0x10 build/debug/stm32h7xx_hal_pwr.o
 .text.HAL_PWR_EnableSEVOnPend
                0x00000000       0x10 build/debug/stm32h7xx_hal_pwr.o
 .text.HAL_PWR_DisableSEVOnPend
                0x00000000       0x10 build/debug/stm32h7xx_hal_pwr.o
 .text.HAL_PWR_PVDCallback
                0x00000000        0x2 build/debug/stm32h7xx_hal_pwr.o
 .text.HAL_PWR_PVD_IRQHandler
                0x00000000       0x28 build/debug/stm32h7xx_hal_pwr.o
 .debug_info    0x00000000      0xa20 build/debug/stm32h7xx_hal_pwr.o
 .debug_abbrev  0x00000000      0x1be build/debug/stm32h7xx_hal_pwr.o
 .debug_loclists
                0x00000000      0x12c build/debug/stm32h7xx_hal_pwr.o
 .debug_aranges
                0x00000000       0xa0 build/debug/stm32h7xx_hal_pwr.o
 .debug_rnglists
                0x00000000       0x76 build/debug/stm32h7xx_hal_pwr.o
 .debug_line    0x00000000      0x497 build/debug/stm32h7xx_hal_pwr.o
 .debug_str     0x00000000      0x5e4 build/debug/stm32h7xx_hal_pwr.o
 .comment       0x00000000       0x27 build/debug/stm32h7xx_hal_pwr.o
 .debug_frame   0x00000000      0x15c build/debug/stm32h7xx_hal_pwr.o
 .ARM.attributes
                0x00000000       0x32 build/debug/stm32h7xx_hal_pwr.o
 .text          0x00000000        0x0 build/debug/stm32h7xx_hal_pwr_ex.o
 .data          0x00000000        0x0 build/debug/stm32h7xx_hal_pwr_ex.o
 .bss           0x00000000        0x0 build/debug/stm32h7xx_hal_pwr_ex.o
 .text.HAL_PWREx_GetSupplyConfig
                0x00000000       0x10 build/debug/stm32h7xx_hal_pwr_ex.o
 .text.HAL_PWREx_ControlVoltageScaling
                0x00000000       0x74 build/debug/stm32h7xx_hal_pwr_ex.o
 .text.HAL_PWREx_GetVoltageRange
                0x00000000       0x10 build/debug/stm32h7xx_hal_pwr_ex.o
 .text.HAL_PWREx_ControlStopModeVoltageScaling
                0x00000000       0x3c build/debug/stm32h7xx_hal_pwr_ex.o
 .text.HAL_PWREx_GetStopModeVoltageRange
                0x00000000       0x10 build/debug/stm32h7xx_hal_pwr_ex.o
 .text.HAL_PWREx_EnterSTOPMode
                0x00000000       0xa4 build/debug/stm32h7xx_hal_pwr_ex.o
 .text.HAL_PWREx_ClearPendingEvent
                0x00000000        0x4 build/debug/stm32h7xx_hal_pwr_ex.o
 .text.HAL_PWREx_EnterSTANDBYMode
                0x00000000       0x58 build/debug/stm32h7xx_hal_pwr_ex.o
 .text.HAL_PWREx_ConfigD3Domain
                0x00000000       0x30 build/debug/stm32h7xx_hal_pwr_ex.o
 .text.HAL_PWREx_EnableFlashPowerDown
                0x00000000       0x10 build/debug/stm32h7xx_hal_pwr_ex.o
 .text.HAL_PWREx_DisableFlashPowerDown
                0x00000000       0x10 build/debug/stm32h7xx_hal_pwr_ex.o
 .text.HAL_PWREx_EnableWakeUpPin
                0x00000000      0x120 build/debug/stm32h7xx_hal_pwr_ex.o
 .text.HAL_PWREx_DisableWakeUpPin
                0x00000000       0x80 build/debug/stm32h7xx_hal_pwr_ex.o
 .text.HAL_PWREx_GetWakeupFlag
                0x00000000       0x38 build/debug/stm32h7xx_hal_pwr_ex.o
 .text.HAL_PWREx_ClearWakeupFlag
                0x00000000       0x48 build/debug/stm32h7xx_hal_pwr_ex.o
 .text.HAL_PWREx_WKUP1_Callback
                0x00000000        0x2 build/debug/stm32h7xx_hal_pwr_ex.o
 .text.HAL_PWREx_WKUP2_Callback
                0x00000000        0x2 build/debug/stm32h7xx_hal_pwr_ex.o
 .text.HAL_PWREx_WKUP4_Callback
                0x00000000        0x2 build/debug/stm32h7xx_hal_pwr_ex.o
 .text.HAL_PWREx_WKUP6_Callback
                0x00000000        0x2 build/debug/stm32h7xx_hal_pwr_ex.o
 .text.HAL_PWREx_WAKEUP_PIN_IRQHandler
                0x00000000       0x64 build/debug/stm32h7xx_hal_pwr_ex.o
 .text.HAL_PWREx_EnableBkUpReg
                0x00000000       0x34 build/debug/stm32h7xx_hal_pwr_ex.o
 .text.HAL_PWREx_DisableBkUpReg
                0x00000000       0x34 build/debug/stm32h7xx_hal_pwr_ex.o
 .text.HAL_PWREx_EnableUSBReg
                0x00000000       0x34 build/debug/stm32h7xx_hal_pwr_ex.o
 .text.HAL_PWREx_DisableUSBReg
                0x00000000       0x34 build/debug/stm32h7xx_hal_pwr_ex.o
 .text.HAL_PWREx_DisableUSBVoltageDetector
                0x00000000       0x10 build/debug/stm32h7xx_hal_pwr_ex.o
 .text.HAL_PWREx_EnableBatteryCharging
                0x00000000       0x38 build/debug/stm32h7xx_hal_pwr_ex.o
 .text.HAL_PWREx_DisableBatteryCharging
                0x00000000       0x10 build/debug/stm32h7xx_hal_pwr_ex.o
 .text.HAL_PWREx_EnableMonitoring
                0x00000000       0x10 build/debug/stm32h7xx_hal_pwr_ex.o
 .text.HAL_PWREx_DisableMonitoring
                0x00000000       0x10 build/debug/stm32h7xx_hal_pwr_ex.o
 .text.HAL_PWREx_GetTemperatureLevel
                0x00000000       0x1c build/debug/stm32h7xx_hal_pwr_ex.o
 .text.HAL_PWREx_GetVBATLevel
                0x00000000       0x1c build/debug/stm32h7xx_hal_pwr_ex.o
 .text.HAL_PWREx_ConfigAVD
                0x00000000       0xf4 build/debug/stm32h7xx_hal_pwr_ex.o
 .text.HAL_PWREx_EnableAVD
                0x00000000       0x10 build/debug/stm32h7xx_hal_pwr_ex.o
 .text.HAL_PWREx_DisableAVD
                0x00000000       0x10 build/debug/stm32h7xx_hal_pwr_ex.o
 .text.HAL_PWREx_AVDCallback
                0x00000000        0x2 build/debug/stm32h7xx_hal_pwr_ex.o
 .text.HAL_PWREx_PVD_AVD_IRQHandler
                0x00000000       0x78 build/debug/stm32h7xx_hal_pwr_ex.o
 .text          0x00000000        0x0 build/debug/stm32h7xx_hal_rcc.o
 .data          0x00000000        0x0 build/debug/stm32h7xx_hal_rcc.o
 .bss           0x00000000        0x0 build/debug/stm32h7xx_hal_rcc.o
 .text.HAL_RCC_DeInit
                0x00000000      0x1cc build/debug/stm32h7xx_hal_rcc.o
 .text.HAL_RCC_MCOConfig
                0x00000000      0x19c build/debug/stm32h7xx_hal_rcc.o
 .text.HAL_RCC_EnableCSS
                0x00000000       0x10 build/debug/stm32h7xx_hal_rcc.o
 .text.HAL_RCC_DisableCSS
                0x00000000       0x10 build/debug/stm32h7xx_hal_rcc.o
 .text.HAL_RCC_GetPCLK2Freq
                0x00000000       0x24 build/debug/stm32h7xx_hal_rcc.o
 .text.HAL_RCC_GetOscConfig
                0x00000000      0x11c build/debug/stm32h7xx_hal_rcc.o
 .text.HAL_RCC_GetClockConfig
                0x00000000       0x54 build/debug/stm32h7xx_hal_rcc.o
 .text.HAL_RCC_CSSCallback
                0x00000000        0x2 build/debug/stm32h7xx_hal_rcc.o
 .text.HAL_RCC_NMI_IRQHandler
                0x00000000       0x20 build/debug/stm32h7xx_hal_rcc.o
 .text          0x00000000        0x0 build/debug/stm32h7xx_hal_rcc_ex.o
 .data          0x00000000        0x0 build/debug/stm32h7xx_hal_rcc_ex.o
 .bss           0x00000000        0x0 build/debug/stm32h7xx_hal_rcc_ex.o
 .text.HAL_RCCEx_GetPeriphCLKConfig
                0x00000000      0x1d0 build/debug/stm32h7xx_hal_rcc_ex.o
 .text.HAL_RCCEx_GetD1PCLK1Freq
                0x00000000       0x24 build/debug/stm32h7xx_hal_rcc_ex.o
 .text.HAL_RCCEx_GetD1SysClockFreq
                0x00000000       0x44 build/debug/stm32h7xx_hal_rcc_ex.o
 .text.HAL_RCCEx_EnableLSECSS
                0x00000000       0x10 build/debug/stm32h7xx_hal_rcc_ex.o
 .text.HAL_RCCEx_DisableLSECSS
                0x00000000       0x18 build/debug/stm32h7xx_hal_rcc_ex.o
 .text.HAL_RCCEx_EnableLSECSS_IT
                0x00000000       0x30 build/debug/stm32h7xx_hal_rcc_ex.o
 .text.HAL_RCCEx_WakeUpStopCLKConfig
                0x00000000       0x30 build/debug/stm32h7xx_hal_rcc_ex.o
 .text.HAL_RCCEx_KerWakeUpStopCLKConfig
                0x00000000       0x30 build/debug/stm32h7xx_hal_rcc_ex.o
 .text.HAL_RCCEx_WWDGxSysResetConfig
                0x00000000       0x2c build/debug/stm32h7xx_hal_rcc_ex.o
 .text.HAL_RCCEx_CRSConfig
                0x00000000      0x128 build/debug/stm32h7xx_hal_rcc_ex.o
 .text.HAL_RCCEx_CRSSoftwareSynchronizationGenerate
                0x00000000       0x10 build/debug/stm32h7xx_hal_rcc_ex.o
 .text.HAL_RCCEx_CRSGetSynchronizationInfo
                0x00000000       0x3c build/debug/stm32h7xx_hal_rcc_ex.o
 .text.HAL_RCCEx_CRSWaitSynchronization
                0x00000000       0xac build/debug/stm32h7xx_hal_rcc_ex.o
 .text.HAL_RCCEx_CRS_SyncOkCallback
                0x00000000        0x2 build/debug/stm32h7xx_hal_rcc_ex.o
 .text.HAL_RCCEx_CRS_SyncWarnCallback
                0x00000000        0x2 build/debug/stm32h7xx_hal_rcc_ex.o
 .text.HAL_RCCEx_CRS_ExpectedSyncCallback
                0x00000000        0x2 build/debug/stm32h7xx_hal_rcc_ex.o
 .text.HAL_RCCEx_CRS_ErrorCallback
                0x00000000        0x2 build/debug/stm32h7xx_hal_rcc_ex.o
 .text.HAL_RCCEx_CRS_IRQHandler
                0x00000000       0x88 build/debug/stm32h7xx_hal_rcc_ex.o
 .text.HAL_RCCEx_LSECSS_Callback
                0x00000000        0x2 build/debug/stm32h7xx_hal_rcc_ex.o
 .text.HAL_RCCEx_LSECSS_IRQHandler
                0x00000000       0x20 build/debug/stm32h7xx_hal_rcc_ex.o
 .text          0x00000000        0x0 build/debug/stm32h7xx_hal_spi.o
 .data          0x00000000        0x0 build/debug/stm32h7xx_hal_spi.o
 .bss           0x00000000        0x0 build/debug/stm32h7xx_hal_spi.o
 .text.SPI_RxISR_8BIT
                0x00000000       0x32 build/debug/stm32h7xx_hal_spi.o
 .text.SPI_RxISR_16BIT
                0x00000000       0x30 build/debug/stm32h7xx_hal_spi.o
 .text.SPI_RxISR_32BIT
                0x00000000       0x30 build/debug/stm32h7xx_hal_spi.o
 .text.SPI_TxISR_8BIT
                0x00000000       0x32 build/debug/stm32h7xx_hal_spi.o
 .text.SPI_TxISR_16BIT
                0x00000000       0x30 build/debug/stm32h7xx_hal_spi.o
 .text.SPI_TxISR_32BIT
                0x00000000       0x30 build/debug/stm32h7xx_hal_spi.o
 .text.SPI_AbortTransfer
                0x00000000       0x74 build/debug/stm32h7xx_hal_spi.o
 .text.SPI_CloseTransfer
                0x00000000       0xd0 build/debug/stm32h7xx_hal_spi.o
 .text.SPI_WaitOnFlagUntilTimeout
                0x00000000       0x48 build/debug/stm32h7xx_hal_spi.o
 .text.HAL_SPI_MspInit
                0x00000000        0x2 build/debug/stm32h7xx_hal_spi.o
 .text.HAL_SPI_MspDeInit
                0x00000000        0x2 build/debug/stm32h7xx_hal_spi.o
 .text.HAL_SPI_DeInit
                0x00000000       0x78 build/debug/stm32h7xx_hal_spi.o
 .text.HAL_SPI_Transmit
                0x00000000      0x2e4 build/debug/stm32h7xx_hal_spi.o
 .text.HAL_SPI_Receive
                0x00000000      0x370 build/debug/stm32h7xx_hal_spi.o
 .text.HAL_SPI_TransmitReceive
                0x00000000      0x4a8 build/debug/stm32h7xx_hal_spi.o
 .text.HAL_SPI_Transmit_IT
                0x00000000      0x104 build/debug/stm32h7xx_hal_spi.o
 .text.HAL_SPI_Receive_IT
                0x00000000      0x100 build/debug/stm32h7xx_hal_spi.o
 .text.HAL_SPI_TransmitReceive_IT
                0x00000000      0x18c build/debug/stm32h7xx_hal_spi.o
 .text.HAL_SPI_Transmit_DMA
                0x00000000      0x1e0 build/debug/stm32h7xx_hal_spi.o
 .text.HAL_SPI_Receive_DMA
                0x00000000      0x1f0 build/debug/stm32h7xx_hal_spi.o
 .text.HAL_SPI_TransmitReceive_DMA
                0x00000000      0x284 build/debug/stm32h7xx_hal_spi.o
 .text.HAL_SPI_Abort
                0x00000000      0x14c build/debug/stm32h7xx_hal_spi.o
 .text.HAL_SPI_DMAPause
                0x00000000       0x10 build/debug/stm32h7xx_hal_spi.o
 .text.HAL_SPI_DMAResume
                0x00000000       0x10 build/debug/stm32h7xx_hal_spi.o
 .text.HAL_SPI_DMAStop
                0x00000000       0x10 build/debug/stm32h7xx_hal_spi.o
 .text.HAL_SPI_TxCpltCallback
                0x00000000        0x2 build/debug/stm32h7xx_hal_spi.o
 .text.SPI_DMATransmitCplt
                0x00000000       0x2a build/debug/stm32h7xx_hal_spi.o
 .text.HAL_SPI_RxCpltCallback
                0x00000000        0x2 build/debug/stm32h7xx_hal_spi.o
 .text.SPI_DMAReceiveCplt
                0x00000000       0x2a build/debug/stm32h7xx_hal_spi.o
 .text.HAL_SPI_TxRxCpltCallback
                0x00000000        0x2 build/debug/stm32h7xx_hal_spi.o
 .text.SPI_DMATransmitReceiveCplt
                0x00000000       0x2a build/debug/stm32h7xx_hal_spi.o
 .text.HAL_SPI_TxHalfCpltCallback
                0x00000000        0x2 build/debug/stm32h7xx_hal_spi.o
 .text.SPI_DMAHalfTransmitCplt
                0x00000000        0xa build/debug/stm32h7xx_hal_spi.o
 .text.HAL_SPI_RxHalfCpltCallback
                0x00000000        0x2 build/debug/stm32h7xx_hal_spi.o
 .text.SPI_DMAHalfReceiveCplt
                0x00000000        0xa build/debug/stm32h7xx_hal_spi.o
 .text.HAL_SPI_TxRxHalfCpltCallback
                0x00000000        0x2 build/debug/stm32h7xx_hal_spi.o
 .text.SPI_DMAHalfTransmitReceiveCplt
                0x00000000        0xa build/debug/stm32h7xx_hal_spi.o
 .text.HAL_SPI_ErrorCallback
                0x00000000        0x2 build/debug/stm32h7xx_hal_spi.o
 .text.SPI_DMAError
                0x00000000       0x2e build/debug/stm32h7xx_hal_spi.o
 .text.SPI_DMAAbortOnError
                0x00000000       0x1a build/debug/stm32h7xx_hal_spi.o
 .text.HAL_SPI_AbortCpltCallback
                0x00000000        0x2 build/debug/stm32h7xx_hal_spi.o
 .text.HAL_SPI_Abort_IT
                0x00000000      0x174 build/debug/stm32h7xx_hal_spi.o
 .text.SPI_DMARxAbortCallback
                0x00000000       0x26 build/debug/stm32h7xx_hal_spi.o
 .text.SPI_DMATxAbortCallback
                0x00000000       0x26 build/debug/stm32h7xx_hal_spi.o
 .text.HAL_SPI_SuspendCallback
                0x00000000        0x2 build/debug/stm32h7xx_hal_spi.o
 .text.HAL_SPI_IRQHandler
                0x00000000      0x240 build/debug/stm32h7xx_hal_spi.o
 .text.HAL_SPI_GetState
                0x00000000        0x6 build/debug/stm32h7xx_hal_spi.o
 .text.HAL_SPI_GetError
                0x00000000        0x6 build/debug/stm32h7xx_hal_spi.o
 .text          0x00000000        0x0 build/debug/stm32h7xx_hal_spi_ex.o
 .data          0x00000000        0x0 build/debug/stm32h7xx_hal_spi_ex.o
 .bss           0x00000000        0x0 build/debug/stm32h7xx_hal_spi_ex.o
 .text.HAL_SPIEx_FlushRxFifo
                0x00000000       0x5c build/debug/stm32h7xx_hal_spi_ex.o
 .text.HAL_SPIEx_EnableLockConfiguration
                0x00000000       0x6c build/debug/stm32h7xx_hal_spi_ex.o
 .rodata.HAL_SPIEx_ConfigureUnderrun.str1.4
                0x00000000       0x38 build/debug/stm32h7xx_hal_spi_ex.o
 .text.HAL_SPIEx_ConfigureUnderrun
                0x00000000       0xcc build/debug/stm32h7xx_hal_spi_ex.o
 .debug_info    0x00000000      0x8db build/debug/stm32h7xx_hal_spi_ex.o
 .debug_abbrev  0x00000000      0x1ae build/debug/stm32h7xx_hal_spi_ex.o
 .debug_loclists
                0x00000000      0x175 build/debug/stm32h7xx_hal_spi_ex.o
 .debug_aranges
                0x00000000       0x30 build/debug/stm32h7xx_hal_spi_ex.o
 .debug_rnglists
                0x00000000       0x20 build/debug/stm32h7xx_hal_spi_ex.o
 .debug_line    0x00000000      0x31b build/debug/stm32h7xx_hal_spi_ex.o
 .debug_str     0x00000000      0x87a build/debug/stm32h7xx_hal_spi_ex.o
 .comment       0x00000000       0x27 build/debug/stm32h7xx_hal_spi_ex.o
 .debug_frame   0x00000000       0x64 build/debug/stm32h7xx_hal_spi_ex.o
 .ARM.attributes
                0x00000000       0x32 build/debug/stm32h7xx_hal_spi_ex.o
 .text          0x00000000        0x0 build/debug/stm32h7xx_hal_tim.o
 .data          0x00000000        0x0 build/debug/stm32h7xx_hal_tim.o
 .bss           0x00000000        0x0 build/debug/stm32h7xx_hal_tim.o
 .text.TIM_TI1_ConfigInputStage
                0x00000000       0x26 build/debug/stm32h7xx_hal_tim.o
 .text.TIM_TI2_SetConfig
                0x00000000       0x36 build/debug/stm32h7xx_hal_tim.o
 .text.TIM_TI2_ConfigInputStage
                0x00000000       0x28 build/debug/stm32h7xx_hal_tim.o
 .text.TIM_TI3_SetConfig
                0x00000000       0x36 build/debug/stm32h7xx_hal_tim.o
 .text.TIM_TI4_SetConfig
                0x00000000       0x36 build/debug/stm32h7xx_hal_tim.o
 .text.TIM_ITRx_SetConfig
                0x00000000       0x14 build/debug/stm32h7xx_hal_tim.o
 .text.HAL_TIM_Base_MspInit
                0x00000000        0x2 build/debug/stm32h7xx_hal_tim.o
 .text.HAL_TIM_Base_MspDeInit
                0x00000000        0x2 build/debug/stm32h7xx_hal_tim.o
 .text.HAL_TIM_Base_DeInit
                0x00000000       0xf8 build/debug/stm32h7xx_hal_tim.o
 .text.HAL_TIM_Base_Start
                0x00000000      0x128 build/debug/stm32h7xx_hal_tim.o
 .text.HAL_TIM_Base_Stop
                0x00000000       0xbc build/debug/stm32h7xx_hal_tim.o
 .text.HAL_TIM_Base_Start_IT
                0x00000000      0x130 build/debug/stm32h7xx_hal_tim.o
 .text.HAL_TIM_Base_Stop_IT
                0x00000000       0xc8 build/debug/stm32h7xx_hal_tim.o
 .text.HAL_TIM_Base_Start_DMA
                0x00000000      0x16c build/debug/stm32h7xx_hal_tim.o
 .text.HAL_TIM_Base_Stop_DMA
                0x00000000       0xb4 build/debug/stm32h7xx_hal_tim.o
 .text.HAL_TIM_OC_MspInit
                0x00000000        0x2 build/debug/stm32h7xx_hal_tim.o
 .text.HAL_TIM_OC_MspDeInit
                0x00000000        0x2 build/debug/stm32h7xx_hal_tim.o
 .text.HAL_TIM_OC_DeInit
                0x00000000       0xf8 build/debug/stm32h7xx_hal_tim.o
 .text.HAL_TIM_PWM_MspInit
                0x00000000        0x2 build/debug/stm32h7xx_hal_tim.o
 .text.HAL_TIM_PWM_MspDeInit
                0x00000000        0x2 build/debug/stm32h7xx_hal_tim.o
 .text.HAL_TIM_PWM_DeInit
                0x00000000       0xf8 build/debug/stm32h7xx_hal_tim.o
 .text.HAL_TIM_IC_MspInit
                0x00000000        0x2 build/debug/stm32h7xx_hal_tim.o
 .text.HAL_TIM_IC_MspDeInit
                0x00000000        0x2 build/debug/stm32h7xx_hal_tim.o
 .text.HAL_TIM_IC_DeInit
                0x00000000       0xf8 build/debug/stm32h7xx_hal_tim.o
 .text.HAL_TIM_OnePulse_MspInit
                0x00000000        0x2 build/debug/stm32h7xx_hal_tim.o
 .text.HAL_TIM_OnePulse_MspDeInit
                0x00000000        0x2 build/debug/stm32h7xx_hal_tim.o
 .text.HAL_TIM_OnePulse_DeInit
                0x00000000       0xe0 build/debug/stm32h7xx_hal_tim.o
 .text.HAL_TIM_Encoder_MspInit
                0x00000000        0x2 build/debug/stm32h7xx_hal_tim.o
 .text.HAL_TIM_Encoder_MspDeInit
                0x00000000        0x2 build/debug/stm32h7xx_hal_tim.o
 .text.HAL_TIM_Encoder_DeInit
                0x00000000       0xe0 build/debug/stm32h7xx_hal_tim.o
 .text.HAL_TIM_DMABurst_MultiWriteStart
                0x00000000      0x304 build/debug/stm32h7xx_hal_tim.o
 .text.HAL_TIM_DMABurst_WriteStart
                0x00000000       0x16 build/debug/stm32h7xx_hal_tim.o
 .text.HAL_TIM_DMABurst_WriteStop
                0x00000000       0x9c build/debug/stm32h7xx_hal_tim.o
 .text.HAL_TIM_DMABurst_MultiReadStart
                0x00000000      0x304 build/debug/stm32h7xx_hal_tim.o
 .text.HAL_TIM_DMABurst_ReadStart
                0x00000000       0x16 build/debug/stm32h7xx_hal_tim.o
 .text.HAL_TIM_DMABurst_ReadStop
                0x00000000       0x9c build/debug/stm32h7xx_hal_tim.o
 .text.HAL_TIM_GenerateEvent
                0x00000000       0xd4 build/debug/stm32h7xx_hal_tim.o
 .text.HAL_TIM_ConfigTI1Input
                0x00000000       0x84 build/debug/stm32h7xx_hal_tim.o
 .text.HAL_TIM_ReadCapturedValue
                0x00000000      0x1a0 build/debug/stm32h7xx_hal_tim.o
 .text.HAL_TIM_PeriodElapsedCallback
                0x00000000        0x2 build/debug/stm32h7xx_hal_tim.o
 .text.TIM_DMAPeriodElapsedCplt
                0x00000000       0x16 build/debug/stm32h7xx_hal_tim.o
 .text.HAL_TIM_PeriodElapsedHalfCpltCallback
                0x00000000        0x2 build/debug/stm32h7xx_hal_tim.o
 .text.TIM_DMAPeriodElapsedHalfCplt
                0x00000000        0xa build/debug/stm32h7xx_hal_tim.o
 .text.HAL_TIM_OC_DelayElapsedCallback
                0x00000000        0x2 build/debug/stm32h7xx_hal_tim.o
 .text.HAL_TIM_IC_CaptureCallback
                0x00000000        0x2 build/debug/stm32h7xx_hal_tim.o
 .text.TIM_DMACaptureCplt
                0x00000000       0x80 build/debug/stm32h7xx_hal_tim.o
 .text.HAL_TIM_IC_CaptureHalfCpltCallback
                0x00000000        0x2 build/debug/stm32h7xx_hal_tim.o
 .text.TIM_DMACaptureHalfCplt
                0x00000000       0x3e build/debug/stm32h7xx_hal_tim.o
 .text.HAL_TIM_PWM_PulseFinishedCallback
                0x00000000        0x2 build/debug/stm32h7xx_hal_tim.o
 .text.TIM_DMADelayPulseCplt
                0x00000000       0x70 build/debug/stm32h7xx_hal_tim.o
 .text.HAL_TIM_PWM_PulseFinishedHalfCpltCallback
                0x00000000        0x2 build/debug/stm32h7xx_hal_tim.o
 .text.TIM_DMADelayPulseHalfCplt
                0x00000000       0x3e build/debug/stm32h7xx_hal_tim.o
 .text.HAL_TIM_TriggerCallback
                0x00000000        0x2 build/debug/stm32h7xx_hal_tim.o
 .text.HAL_TIM_IRQHandler
                0x00000000      0x17a build/debug/stm32h7xx_hal_tim.o
 .text.TIM_DMATriggerCplt
                0x00000000       0x16 build/debug/stm32h7xx_hal_tim.o
 .text.HAL_TIM_TriggerHalfCpltCallback
                0x00000000        0x2 build/debug/stm32h7xx_hal_tim.o
 .text.TIM_DMATriggerHalfCplt
                0x00000000        0xa build/debug/stm32h7xx_hal_tim.o
 .text.HAL_TIM_ErrorCallback
                0x00000000        0x2 build/debug/stm32h7xx_hal_tim.o
 .text.TIM_DMAError
                0x00000000       0x5c build/debug/stm32h7xx_hal_tim.o
 .text.HAL_TIM_Base_GetState
                0x00000000        0x6 build/debug/stm32h7xx_hal_tim.o
 .text.HAL_TIM_OC_GetState
                0x00000000        0x6 build/debug/stm32h7xx_hal_tim.o
 .text.HAL_TIM_PWM_GetState
                0x00000000        0x6 build/debug/stm32h7xx_hal_tim.o
 .text.HAL_TIM_IC_GetState
                0x00000000        0x6 build/debug/stm32h7xx_hal_tim.o
 .text.HAL_TIM_OnePulse_GetState
                0x00000000        0x6 build/debug/stm32h7xx_hal_tim.o
 .text.HAL_TIM_Encoder_GetState
                0x00000000        0x6 build/debug/stm32h7xx_hal_tim.o
 .text.HAL_TIM_GetActiveChannel
                0x00000000        0x4 build/debug/stm32h7xx_hal_tim.o
 .text.HAL_TIM_GetChannelState
                0x00000000      0x224 build/debug/stm32h7xx_hal_tim.o
 .text.HAL_TIM_DMABurstState
                0x00000000       0x4c build/debug/stm32h7xx_hal_tim.o
 .text.HAL_TIM_Base_Init
                0x00000000      0x198 build/debug/stm32h7xx_hal_tim.o
 .text.HAL_TIM_OC_Init
                0x00000000      0x198 build/debug/stm32h7xx_hal_tim.o
 .text.HAL_TIM_IC_Init
                0x00000000      0x198 build/debug/stm32h7xx_hal_tim.o
 .text.HAL_TIM_OnePulse_Init
                0x00000000      0x1a8 build/debug/stm32h7xx_hal_tim.o
 .text.HAL_TIM_Encoder_Init
                0x00000000      0x270 build/debug/stm32h7xx_hal_tim.o
 .text.HAL_TIM_OC_ConfigChannel
                0x00000000      0x2c4 build/debug/stm32h7xx_hal_tim.o
 .text.TIM_TI1_SetConfig
                0x00000000       0xac build/debug/stm32h7xx_hal_tim.o
 .text.HAL_TIM_IC_ConfigChannel
                0x00000000      0x2a4 build/debug/stm32h7xx_hal_tim.o
 .text.HAL_TIM_OnePulse_ConfigChannel
                0x00000000      0x2dc build/debug/stm32h7xx_hal_tim.o
 .text.TIM_ETR_SetConfig
                0x00000000       0x1a build/debug/stm32h7xx_hal_tim.o
 .text.HAL_TIM_ConfigOCrefClear
                0x00000000      0x1d0 build/debug/stm32h7xx_hal_tim.o
 .text.HAL_TIM_ConfigClockSource
                0x00000000      0x5c0 build/debug/stm32h7xx_hal_tim.o
 .text.TIM_SlaveTimer_SetConfig
                0x00000000      0x428 build/debug/stm32h7xx_hal_tim.o
 .text.HAL_TIM_SlaveConfigSynchro
                0x00000000      0x148 build/debug/stm32h7xx_hal_tim.o
 .text.HAL_TIM_SlaveConfigSynchro_IT
                0x00000000      0x148 build/debug/stm32h7xx_hal_tim.o
 .text.TIM_CCxChannelCmd
                0x00000000       0xfc build/debug/stm32h7xx_hal_tim.o
 .text.HAL_TIM_OC_Start
                0x00000000      0x37c build/debug/stm32h7xx_hal_tim.o
 .text.HAL_TIM_OC_Stop
                0x00000000      0x2bc build/debug/stm32h7xx_hal_tim.o
 .text.HAL_TIM_OC_Start_IT
                0x00000000      0x3c4 build/debug/stm32h7xx_hal_tim.o
 .text.HAL_TIM_OC_Stop_IT
                0x00000000      0x2e4 build/debug/stm32h7xx_hal_tim.o
 .text.HAL_TIM_OC_Start_DMA
                0x00000000      0x534 build/debug/stm32h7xx_hal_tim.o
 .text.HAL_TIM_OC_Stop_DMA
                0x00000000      0x304 build/debug/stm32h7xx_hal_tim.o
 .text.HAL_TIM_PWM_Start
                0x00000000      0x37c build/debug/stm32h7xx_hal_tim.o
 .text.HAL_TIM_PWM_Stop
                0x00000000      0x2bc build/debug/stm32h7xx_hal_tim.o
 .text.HAL_TIM_PWM_Start_IT
                0x00000000      0x3c4 build/debug/stm32h7xx_hal_tim.o
 .text.HAL_TIM_PWM_Stop_IT
                0x00000000      0x2e4 build/debug/stm32h7xx_hal_tim.o
 .text.HAL_TIM_PWM_Start_DMA
                0x00000000      0x534 build/debug/stm32h7xx_hal_tim.o
 .text.HAL_TIM_PWM_Stop_DMA
                0x00000000      0x304 build/debug/stm32h7xx_hal_tim.o
 .text.HAL_TIM_IC_Start
                0x00000000      0x368 build/debug/stm32h7xx_hal_tim.o
 .text.HAL_TIM_IC_Stop
                0x00000000      0x270 build/debug/stm32h7xx_hal_tim.o
 .text.HAL_TIM_IC_Start_IT
                0x00000000      0x3b0 build/debug/stm32h7xx_hal_tim.o
 .text.HAL_TIM_IC_Stop_IT
                0x00000000      0x2c0 build/debug/stm32h7xx_hal_tim.o
 .text.HAL_TIM_IC_Start_DMA
                0x00000000      0x4e4 build/debug/stm32h7xx_hal_tim.o
 .text.HAL_TIM_IC_Stop_DMA
                0x00000000      0x338 build/debug/stm32h7xx_hal_tim.o
 .text.HAL_TIM_OnePulse_Start
                0x00000000       0x9c build/debug/stm32h7xx_hal_tim.o
 .text.HAL_TIM_OnePulse_Stop
                0x00000000       0x98 build/debug/stm32h7xx_hal_tim.o
 .text.HAL_TIM_OnePulse_Start_IT
                0x00000000       0xb4 build/debug/stm32h7xx_hal_tim.o
 .text.HAL_TIM_OnePulse_Stop_IT
                0x00000000       0xac build/debug/stm32h7xx_hal_tim.o
 .text.HAL_TIM_Encoder_Start
                0x00000000      0x124 build/debug/stm32h7xx_hal_tim.o
 .text.HAL_TIM_Encoder_Stop
                0x00000000      0x138 build/debug/stm32h7xx_hal_tim.o
 .text.HAL_TIM_Encoder_Start_IT
                0x00000000      0x150 build/debug/stm32h7xx_hal_tim.o
 .text.HAL_TIM_Encoder_Stop_IT
                0x00000000      0x160 build/debug/stm32h7xx_hal_tim.o
 .text.HAL_TIM_Encoder_Start_DMA
                0x00000000      0x2b8 build/debug/stm32h7xx_hal_tim.o
 .text.HAL_TIM_Encoder_Stop_DMA
                0x00000000      0x178 build/debug/stm32h7xx_hal_tim.o
 .text          0x00000000        0x0 build/debug/stm32h7xx_hal_tim_ex.o
 .data          0x00000000        0x0 build/debug/stm32h7xx_hal_tim_ex.o
 .bss           0x00000000        0x0 build/debug/stm32h7xx_hal_tim_ex.o
 .text.TIM_CCxNChannelCmd
                0x00000000       0x1e build/debug/stm32h7xx_hal_tim_ex.o
 .text.TIM_DMAErrorCCxN
                0x00000000       0x44 build/debug/stm32h7xx_hal_tim_ex.o
 .text.TIM_DMADelayPulseNCplt
                0x00000000       0x58 build/debug/stm32h7xx_hal_tim_ex.o
 .text.HAL_TIMEx_HallSensor_MspInit
                0x00000000        0x2 build/debug/stm32h7xx_hal_tim_ex.o
 .text.HAL_TIMEx_HallSensor_Init
                0x00000000      0x214 build/debug/stm32h7xx_hal_tim_ex.o
 .text.HAL_TIMEx_HallSensor_MspDeInit
                0x00000000        0x2 build/debug/stm32h7xx_hal_tim_ex.o
 .text.HAL_TIMEx_HallSensor_DeInit
                0x00000000       0xe0 build/debug/stm32h7xx_hal_tim_ex.o
 .text.HAL_TIMEx_HallSensor_Start
                0x00000000      0x134 build/debug/stm32h7xx_hal_tim_ex.o
 .text.HAL_TIMEx_HallSensor_Stop
                0x00000000       0x9c build/debug/stm32h7xx_hal_tim_ex.o
 .text.HAL_TIMEx_HallSensor_Start_IT
                0x00000000      0x140 build/debug/stm32h7xx_hal_tim_ex.o
 .text.HAL_TIMEx_HallSensor_Stop_IT
                0x00000000       0xa4 build/debug/stm32h7xx_hal_tim_ex.o
 .text.HAL_TIMEx_HallSensor_Start_DMA
                0x00000000      0x164 build/debug/stm32h7xx_hal_tim_ex.o
 .text.HAL_TIMEx_HallSensor_Stop_DMA
                0x00000000       0xa4 build/debug/stm32h7xx_hal_tim_ex.o
 .text.HAL_TIMEx_OCN_Start
                0x00000000      0x16c build/debug/stm32h7xx_hal_tim_ex.o
 .text.HAL_TIMEx_OCN_Stop
                0x00000000       0xd8 build/debug/stm32h7xx_hal_tim_ex.o
 .text.HAL_TIMEx_OCN_Start_IT
                0x00000000      0x1a4 build/debug/stm32h7xx_hal_tim_ex.o
 .text.HAL_TIMEx_OCN_Stop_IT
                0x00000000      0x124 build/debug/stm32h7xx_hal_tim_ex.o
 .text.HAL_TIMEx_OCN_Start_DMA
                0x00000000      0x2b0 build/debug/stm32h7xx_hal_tim_ex.o
 .text.HAL_TIMEx_OCN_Stop_DMA
                0x00000000      0x124 build/debug/stm32h7xx_hal_tim_ex.o
 .text.HAL_TIMEx_PWMN_Start
                0x00000000      0x16c build/debug/stm32h7xx_hal_tim_ex.o
 .text.HAL_TIMEx_PWMN_Stop
                0x00000000       0xd8 build/debug/stm32h7xx_hal_tim_ex.o
 .text.HAL_TIMEx_PWMN_Start_IT
                0x00000000      0x1a4 build/debug/stm32h7xx_hal_tim_ex.o
 .text.HAL_TIMEx_PWMN_Stop_IT
                0x00000000      0x124 build/debug/stm32h7xx_hal_tim_ex.o
 .text.HAL_TIMEx_PWMN_Start_DMA
                0x00000000      0x2b0 build/debug/stm32h7xx_hal_tim_ex.o
 .text.HAL_TIMEx_PWMN_Stop_DMA
                0x00000000      0x124 build/debug/stm32h7xx_hal_tim_ex.o
 .text.HAL_TIMEx_OnePulseN_Start
                0x00000000       0xf0 build/debug/stm32h7xx_hal_tim_ex.o
 .text.HAL_TIMEx_OnePulseN_Stop
                0x00000000       0xd8 build/debug/stm32h7xx_hal_tim_ex.o
 .text.HAL_TIMEx_OnePulseN_Start_IT
                0x00000000      0x108 build/debug/stm32h7xx_hal_tim_ex.o
 .text.HAL_TIMEx_OnePulseN_Stop_IT
                0x00000000       0xec build/debug/stm32h7xx_hal_tim_ex.o
 .text.HAL_TIMEx_ConfigCommutEvent
                0x00000000      0x138 build/debug/stm32h7xx_hal_tim_ex.o
 .text.HAL_TIMEx_ConfigCommutEvent_IT
                0x00000000      0x138 build/debug/stm32h7xx_hal_tim_ex.o
 .text.HAL_TIMEx_ConfigCommutEvent_DMA
                0x00000000      0x158 build/debug/stm32h7xx_hal_tim_ex.o
 .text.HAL_TIMEx_ConfigBreakDeadTime
                0x00000000      0x21c build/debug/stm32h7xx_hal_tim_ex.o
 .text.HAL_TIMEx_ConfigBreakInput
                0x00000000      0x160 build/debug/stm32h7xx_hal_tim_ex.o
 .text.HAL_TIMEx_RemapConfig
                0x00000000      0x138 build/debug/stm32h7xx_hal_tim_ex.o
 .text.HAL_TIMEx_TISelection
                0x00000000      0x148 build/debug/stm32h7xx_hal_tim_ex.o
 .text.HAL_TIMEx_GroupChannel5
                0x00000000       0x74 build/debug/stm32h7xx_hal_tim_ex.o
 .text.HAL_TIMEx_DisarmBreakInput
                0x00000000       0xa4 build/debug/stm32h7xx_hal_tim_ex.o
 .text.HAL_TIMEx_ReArmBreakInput
                0x00000000       0xd4 build/debug/stm32h7xx_hal_tim_ex.o
 .text.HAL_TIMEx_CommutCallback
                0x00000000        0x2 build/debug/stm32h7xx_hal_tim_ex.o
 .text.TIMEx_DMACommutationCplt
                0x00000000       0x10 build/debug/stm32h7xx_hal_tim_ex.o
 .text.HAL_TIMEx_CommutHalfCpltCallback
                0x00000000        0x2 build/debug/stm32h7xx_hal_tim_ex.o
 .text.TIMEx_DMACommutationHalfCplt
                0x00000000       0x10 build/debug/stm32h7xx_hal_tim_ex.o
 .text.HAL_TIMEx_BreakCallback
                0x00000000        0x2 build/debug/stm32h7xx_hal_tim_ex.o
 .text.HAL_TIMEx_Break2Callback
                0x00000000        0x2 build/debug/stm32h7xx_hal_tim_ex.o
 .text.HAL_TIMEx_HallSensor_GetState
                0x00000000        0x6 build/debug/stm32h7xx_hal_tim_ex.o
 .text.HAL_TIMEx_GetChannelNState
                0x00000000       0x90 build/debug/stm32h7xx_hal_tim_ex.o
 .text          0x00000000        0x0 build/debug/stm32h7xx_it.o
 .data          0x00000000        0x0 build/debug/stm32h7xx_it.o
 .bss           0x00000000        0x0 build/debug/stm32h7xx_it.o
 .text          0x00000000        0x0 build/debug/stm32h7xx_ll_usb.o
 .data          0x00000000        0x0 build/debug/stm32h7xx_ll_usb.o
 .bss           0x00000000        0x0 build/debug/stm32h7xx_ll_usb.o
 .text.USB_ActivateDedicatedEndpoint
                0x00000000       0xa0 build/debug/stm32h7xx_ll_usb.o
 .text.USB_DeactivateDedicatedEndpoint
                0x00000000       0xa0 build/debug/stm32h7xx_ll_usb.o
 .text.USB_StopDevice
                0x00000000       0x40 build/debug/stm32h7xx_ll_usb.o
 .text.USB_ReadChInterrupts
                0x00000000       0x12 build/debug/stm32h7xx_ll_usb.o
 .text.USB_ClearInterrupts
                0x00000000        0x8 build/debug/stm32h7xx_ll_usb.o
 .text.USB_HostInit
                0x00000000       0xd8 build/debug/stm32h7xx_ll_usb.o
 .text.USB_InitFSLSPClkSel
                0x00000000       0x42 build/debug/stm32h7xx_ll_usb.o
 .text.USB_ResetPort
                0x00000000       0x3e build/debug/stm32h7xx_ll_usb.o
 .text.USB_DriveVbus
                0x00000000       0x46 build/debug/stm32h7xx_ll_usb.o
 .text.USB_GetHostSpeed
                0x00000000       0x16 build/debug/stm32h7xx_ll_usb.o
 .text.USB_GetCurrentFrame
                0x00000000        0xa build/debug/stm32h7xx_ll_usb.o
 .text.USB_HC_Init
                0x00000000      0x128 build/debug/stm32h7xx_ll_usb.o
 .text.USB_HC_ReadInterrupt
                0x00000000        0xa build/debug/stm32h7xx_ll_usb.o
 .text.USB_HC_Halt
                0x00000000       0xfc build/debug/stm32h7xx_ll_usb.o
 .text.USB_DoPing
                0x00000000       0x24 build/debug/stm32h7xx_ll_usb.o
 .text.USB_HC_StartXfer
                0x00000000      0x2a8 build/debug/stm32h7xx_ll_usb.o
 .text.USB_StopHost
                0x00000000       0x92 build/debug/stm32h7xx_ll_usb.o
 .text.USB_ActivateRemoteWakeup
                0x00000000       0x1a build/debug/stm32h7xx_ll_usb.o
 .text.USB_DeActivateRemoteWakeup
                0x00000000       0x10 build/debug/stm32h7xx_ll_usb.o
 .text          0x00000000        0x0 build/debug/syscalls.o
 .data          0x00000000        0x0 build/debug/syscalls.o
 .bss           0x00000000        0x0 build/debug/syscalls.o
 .text.initialise_monitor_handles
                0x00000000        0x2 build/debug/syscalls.o
 .text._open    0x00000000        0xa build/debug/syscalls.o
 .text._wait    0x00000000       0x10 build/debug/syscalls.o
 .text._unlink  0x00000000       0x10 build/debug/syscalls.o
 .text._times   0x00000000        0x6 build/debug/syscalls.o
 .text._stat    0x00000000        0xa build/debug/syscalls.o
 .text._link    0x00000000       0x10 build/debug/syscalls.o
 .text._fork    0x00000000       0x10 build/debug/syscalls.o
 .text._execve  0x00000000       0x10 build/debug/syscalls.o
 .data.environ  0x00000000        0x4 build/debug/syscalls.o
 .bss.__env     0x00000000        0x4 build/debug/syscalls.o
 .text          0x00000000        0x0 build/debug/sysmem.o
 .data          0x00000000        0x0 build/debug/sysmem.o
 .bss           0x00000000        0x0 build/debug/sysmem.o
 .text          0x00000000        0x0 build/debug/system_stm32h7xx.o
 .data          0x00000000        0x0 build/debug/system_stm32h7xx.o
 .bss           0x00000000        0x0 build/debug/system_stm32h7xx.o
 .text.SystemCoreClockUpdate
                0x00000000      0x218 build/debug/system_stm32h7xx.o
 .text          0x00000000        0x0 build/debug/tim.o
 .data          0x00000000        0x0 build/debug/tim.o
 .bss           0x00000000        0x0 build/debug/tim.o
 .text.HAL_TIM_PWM_MspDeInit
                0x00000000       0x38 build/debug/tim.o
 .text          0x00000000        0x0 build/debug/usb_device.o
 .data          0x00000000        0x0 build/debug/usb_device.o
 .bss           0x00000000        0x0 build/debug/usb_device.o
 .text          0x00000000        0x0 build/debug/usbd_cdc.o
 .data          0x00000000        0x0 build/debug/usbd_cdc.o
 .bss           0x00000000        0x0 build/debug/usbd_cdc.o
 .text          0x00000000        0x0 build/debug/usbd_cdc_if.o
 .data          0x00000000        0x0 build/debug/usbd_cdc_if.o
 .bss           0x00000000        0x0 build/debug/usbd_cdc_if.o
 .text          0x00000000        0x0 build/debug/usbd_conf.o
 .data          0x00000000        0x0 build/debug/usbd_conf.o
 .bss           0x00000000        0x0 build/debug/usbd_conf.o
 .text.HAL_PCD_MspDeInit
                0x00000000       0x38 build/debug/usbd_conf.o
 .text.USBD_LL_Delay
                0x00000000        0x8 build/debug/usbd_conf.o
 .text.USBD_LL_DeInit
                0x00000000       0x10 build/debug/usbd_conf.o
 .text.USBD_LL_Stop
                0x00000000       0x10 build/debug/usbd_conf.o
 .text.USBD_LL_FlushEP
                0x00000000       0x10 build/debug/usbd_conf.o
 .text          0x00000000        0x0 build/debug/usbd_core.o
 .data          0x00000000        0x0 build/debug/usbd_core.o
 .bss           0x00000000        0x0 build/debug/usbd_core.o
 .text.USBD_DeInit
                0x00000000       0x32 build/debug/usbd_core.o
 .text.USBD_Stop
                0x00000000       0x1a build/debug/usbd_core.o
 .text.USBD_RunTestMode
                0x00000000        0x4 build/debug/usbd_core.o
 .text          0x00000000        0x0 build/debug/usbd_ctlreq.o
 .data          0x00000000        0x0 build/debug/usbd_ctlreq.o
 .bss           0x00000000        0x0 build/debug/usbd_ctlreq.o
 .text          0x00000000        0x0 build/debug/usbd_desc.o
 .data          0x00000000        0x0 build/debug/usbd_desc.o
 .bss           0x00000000        0x0 build/debug/usbd_desc.o
 .text          0x00000000        0x0 build/debug/usbd_ioreq.o
 .data          0x00000000        0x0 build/debug/usbd_ioreq.o
 .bss           0x00000000        0x0 build/debug/usbd_ioreq.o
 .text.USBD_GetRxCount
                0x00000000        0x8 build/debug/usbd_ioreq.o
 .data          0x00000000        0x0 build/debug/ADXL375.o
 .bss           0x00000000        0x0 build/debug/ADXL375.o
 .text          0x00000000      0x190 build/debug/ICM42688.o
 .data          0x00000000        0x0 build/debug/ICM42688.o
 .bss           0x00000000        0x0 build/debug/ICM42688.o
 .debug_info    0x00000000     0x21e3 build/debug/ICM42688.o
 .debug_abbrev  0x00000000      0x3e0 build/debug/ICM42688.o
 .debug_loclists
                0x00000000      0x21d build/debug/ICM42688.o
 .debug_aranges
                0x00000000       0x20 build/debug/ICM42688.o
 .debug_line    0x00000000      0x43c build/debug/ICM42688.o
 .debug_str     0x00000000     0x1482 build/debug/ICM42688.o
 .comment       0x00000000       0x27 build/debug/ICM42688.o
 .debug_frame   0x00000000       0xb4 build/debug/ICM42688.o
 .ARM.attributes
                0x00000000       0x32 build/debug/ICM42688.o
 .data          0x00000000        0x0 build/debug/MS5607.o
 .bss           0x00000000        0x1 build/debug/MS5607.o
 .data          0x00000000        0x0 build/debug/abstract.o
 .bss           0x00000000        0x0 build/debug/abstract.o
 .data          0x00000000        0x0 build/debug/cpp_main.o
 .text          0x00000000       0x14 build/debug/startup_stm32h725xx.o
 .data          0x00000000        0x0 build/debug/startup_stm32h725xx.o
 .bss           0x00000000        0x0 build/debug/startup_stm32h725xx.o
 .data          0x00000000        0x0 /usr/lib/gcc/arm-none-eabi/13.2.1/../../../arm-none-eabi/lib/thumb/v7e-m+dp/hard/libm.a(libm_a-pow.o)
 .bss           0x00000000        0x0 /usr/lib/gcc/arm-none-eabi/13.2.1/../../../arm-none-eabi/lib/thumb/v7e-m+dp/hard/libm.a(libm_a-pow.o)
 .text          0x00000000        0x0 /usr/lib/gcc/arm-none-eabi/13.2.1/../../../arm-none-eabi/lib/thumb/v7e-m+dp/hard/libm.a(libm_a-exp_data.o)
 .data          0x00000000        0x0 /usr/lib/gcc/arm-none-eabi/13.2.1/../../../arm-none-eabi/lib/thumb/v7e-m+dp/hard/libm.a(libm_a-exp_data.o)
 .bss           0x00000000        0x0 /usr/lib/gcc/arm-none-eabi/13.2.1/../../../arm-none-eabi/lib/thumb/v7e-m+dp/hard/libm.a(libm_a-exp_data.o)
 .text          0x00000000        0x0 /usr/lib/gcc/arm-none-eabi/13.2.1/../../../arm-none-eabi/lib/thumb/v7e-m+dp/hard/libm.a(libm_a-pow_log_data.o)
 .data          0x00000000        0x0 /usr/lib/gcc/arm-none-eabi/13.2.1/../../../arm-none-eabi/lib/thumb/v7e-m+dp/hard/libm.a(libm_a-pow_log_data.o)
 .bss           0x00000000        0x0 /usr/lib/gcc/arm-none-eabi/13.2.1/../../../arm-none-eabi/lib/thumb/v7e-m+dp/hard/libm.a(libm_a-pow_log_data.o)
 .data          0x00000000        0x0 /usr/lib/gcc/arm-none-eabi/13.2.1/../../../arm-none-eabi/lib/thumb/v7e-m+dp/hard/libm.a(libm_a-math_err.o)
 .bss           0x00000000        0x0 /usr/lib/gcc/arm-none-eabi/13.2.1/../../../arm-none-eabi/lib/thumb/v7e-m+dp/hard/libm.a(libm_a-math_err.o)
 .data          0x00000000        0x0 /usr/lib/gcc/arm-none-eabi/13.2.1/../../../arm-none-eabi/lib/thumb/v7e-m+dp/hard/libc_nano.a(libc_a-strcpy.o)
 .bss           0x00000000        0x0 /usr/lib/gcc/arm-none-eabi/13.2.1/../../../arm-none-eabi/lib/thumb/v7e-m+dp/hard/libc_nano.a(libc_a-strcpy.o)
 .data          0x00000000        0x0 /usr/lib/gcc/arm-none-eabi/13.2.1/../../../arm-none-eabi/lib/thumb/v7e-m+dp/hard/libc_nano.a(libc_a-init.o)
 .bss           0x00000000        0x0 /usr/lib/gcc/arm-none-eabi/13.2.1/../../../arm-none-eabi/lib/thumb/v7e-m+dp/hard/libc_nano.a(libc_a-init.o)
 .data          0x00000000        0x0 /usr/lib/gcc/arm-none-eabi/13.2.1/../../../arm-none-eabi/lib/thumb/v7e-m+dp/hard/libc_nano.a(libc_a-strlen.o)
 .bss           0x00000000        0x0 /usr/lib/gcc/arm-none-eabi/13.2.1/../../../arm-none-eabi/lib/thumb/v7e-m+dp/hard/libc_nano.a(libc_a-strlen.o)
 .ARM.extab     0x00000000        0x0 /usr/lib/gcc/arm-none-eabi/13.2.1/../../../arm-none-eabi/lib/thumb/v7e-m+dp/hard/libc_nano.a(libc_a-strlen.o)
 .eh_frame      0x00000000       0x34 /usr/lib/gcc/arm-none-eabi/13.2.1/../../../arm-none-eabi/lib/thumb/v7e-m+dp/hard/libc_nano.a(libc_a-strlen.o)
 .data          0x00000000        0x0 /usr/lib/gcc/arm-none-eabi/13.2.1/../../../arm-none-eabi/lib/thumb/v7e-m+dp/hard/libc_nano.a(libc_a-memset.o)
 .bss           0x00000000        0x0 /usr/lib/gcc/arm-none-eabi/13.2.1/../../../arm-none-eabi/lib/thumb/v7e-m+dp/hard/libc_nano.a(libc_a-memset.o)
 .data          0x00000000        0x0 /usr/lib/gcc/arm-none-eabi/13.2.1/../../../arm-none-eabi/lib/thumb/v7e-m+dp/hard/libc_nano.a(libc_a-errno.o)
 .bss           0x00000000        0x0 /usr/lib/gcc/arm-none-eabi/13.2.1/../../../arm-none-eabi/lib/thumb/v7e-m+dp/hard/libc_nano.a(libc_a-errno.o)
 .data          0x00000000        0x0 /usr/lib/gcc/arm-none-eabi/13.2.1/../../../arm-none-eabi/lib/thumb/v7e-m+dp/hard/libc_nano.a(libc_a-nano-vfprintf_float.o)
 .bss           0x00000000        0x0 /usr/lib/gcc/arm-none-eabi/13.2.1/../../../arm-none-eabi/lib/thumb/v7e-m+dp/hard/libc_nano.a(libc_a-nano-vfprintf_float.o)
 .data          0x00000000        0x0 /usr/lib/gcc/arm-none-eabi/13.2.1/../../../arm-none-eabi/lib/thumb/v7e-m+dp/hard/libc_nano.a(libc_a-dtoa.o)
 .bss           0x00000000        0x0 /usr/lib/gcc/arm-none-eabi/13.2.1/../../../arm-none-eabi/lib/thumb/v7e-m+dp/hard/libc_nano.a(libc_a-dtoa.o)
 .data          0x00000000        0x0 /usr/lib/gcc/arm-none-eabi/13.2.1/../../../arm-none-eabi/lib/thumb/v7e-m+dp/hard/libc_nano.a(libc_a-memcpy.o)
 .bss           0x00000000        0x0 /usr/lib/gcc/arm-none-eabi/13.2.1/../../../arm-none-eabi/lib/thumb/v7e-m+dp/hard/libc_nano.a(libc_a-memcpy.o)
 .ARM.extab     0x00000000        0x0 /usr/lib/gcc/arm-none-eabi/13.2.1/../../../arm-none-eabi/lib/thumb/v7e-m+dp/hard/libc_nano.a(libc_a-memcpy.o)
 .eh_frame      0x00000000       0x2c /usr/lib/gcc/arm-none-eabi/13.2.1/../../../arm-none-eabi/lib/thumb/v7e-m+dp/hard/libc_nano.a(libc_a-memcpy.o)
 .data          0x00000000        0x0 /usr/lib/gcc/arm-none-eabi/13.2.1/../../../arm-none-eabi/lib/thumb/v7e-m+dp/hard/libc_nano.a(libc_a-malloc.o)
 .bss           0x00000000        0x0 /usr/lib/gcc/arm-none-eabi/13.2.1/../../../arm-none-eabi/lib/thumb/v7e-m+dp/hard/libc_nano.a(libc_a-malloc.o)
 .data          0x00000000        0x0 /usr/lib/gcc/arm-none-eabi/13.2.1/../../../arm-none-eabi/lib/thumb/v7e-m+dp/hard/libc_nano.a(libc_a-nano-vfprintf_i.o)
 .bss           0x00000000        0x0 /usr/lib/gcc/arm-none-eabi/13.2.1/../../../arm-none-eabi/lib/thumb/v7e-m+dp/hard/libc_nano.a(libc_a-nano-vfprintf_i.o)
 .text          0x00000000       0x24 /usr/lib/gcc/arm-none-eabi/13.2.1/../../../arm-none-eabi/lib/thumb/v7e-m+dp/hard/libc_nano.a(libc_a-exit.o)
 .data          0x00000000        0x0 /usr/lib/gcc/arm-none-eabi/13.2.1/../../../arm-none-eabi/lib/thumb/v7e-m+dp/hard/libc_nano.a(libc_a-exit.o)
 .bss           0x00000000        0x0 /usr/lib/gcc/arm-none-eabi/13.2.1/../../../arm-none-eabi/lib/thumb/v7e-m+dp/hard/libc_nano.a(libc_a-exit.o)
 .debug_info    0x00000000      0x11b /usr/lib/gcc/arm-none-eabi/13.2.1/../../../arm-none-eabi/lib/thumb/v7e-m+dp/hard/libc_nano.a(libc_a-exit.o)
 .debug_abbrev  0x00000000       0xd8 /usr/lib/gcc/arm-none-eabi/13.2.1/../../../arm-none-eabi/lib/thumb/v7e-m+dp/hard/libc_nano.a(libc_a-exit.o)
 .debug_loclists
                0x00000000       0x1b /usr/lib/gcc/arm-none-eabi/13.2.1/../../../arm-none-eabi/lib/thumb/v7e-m+dp/hard/libc_nano.a(libc_a-exit.o)
 .debug_aranges
                0x00000000       0x20 /usr/lib/gcc/arm-none-eabi/13.2.1/../../../arm-none-eabi/lib/thumb/v7e-m+dp/hard/libc_nano.a(libc_a-exit.o)
 .debug_line    0x00000000      0x12d /usr/lib/gcc/arm-none-eabi/13.2.1/../../../arm-none-eabi/lib/thumb/v7e-m+dp/hard/libc_nano.a(libc_a-exit.o)
 .debug_str     0x00000000      0x1c2 /usr/lib/gcc/arm-none-eabi/13.2.1/../../../arm-none-eabi/lib/thumb/v7e-m+dp/hard/libc_nano.a(libc_a-exit.o)
 .comment       0x00000000       0x27 /usr/lib/gcc/arm-none-eabi/13.2.1/../../../arm-none-eabi/lib/thumb/v7e-m+dp/hard/libc_nano.a(libc_a-exit.o)
 .debug_frame   0x00000000       0x28 /usr/lib/gcc/arm-none-eabi/13.2.1/../../../arm-none-eabi/lib/thumb/v7e-m+dp/hard/libc_nano.a(libc_a-exit.o)
 .ARM.attributes
                0x00000000       0x32 /usr/lib/gcc/arm-none-eabi/13.2.1/../../../arm-none-eabi/lib/thumb/v7e-m+dp/hard/libc_nano.a(libc_a-exit.o)
 .text          0x00000000        0xc /usr/lib/gcc/arm-none-eabi/13.2.1/../../../arm-none-eabi/lib/thumb/v7e-m+dp/hard/libc_nano.a(libc_a-atexit.o)
 .data          0x00000000        0x0 /usr/lib/gcc/arm-none-eabi/13.2.1/../../../arm-none-eabi/lib/thumb/v7e-m+dp/hard/libc_nano.a(libc_a-atexit.o)
 .bss           0x00000000        0x0 /usr/lib/gcc/arm-none-eabi/13.2.1/../../../arm-none-eabi/lib/thumb/v7e-m+dp/hard/libc_nano.a(libc_a-atexit.o)
 .debug_info    0x00000000      0x11e /usr/lib/gcc/arm-none-eabi/13.2.1/../../../arm-none-eabi/lib/thumb/v7e-m+dp/hard/libc_nano.a(libc_a-atexit.o)
 .debug_abbrev  0x00000000       0xc1 /usr/lib/gcc/arm-none-eabi/13.2.1/../../../arm-none-eabi/lib/thumb/v7e-m+dp/hard/libc_nano.a(libc_a-atexit.o)
 .debug_loclists
                0x00000000       0x2b /usr/lib/gcc/arm-none-eabi/13.2.1/../../../arm-none-eabi/lib/thumb/v7e-m+dp/hard/libc_nano.a(libc_a-atexit.o)
 .debug_aranges
                0x00000000       0x20 /usr/lib/gcc/arm-none-eabi/13.2.1/../../../arm-none-eabi/lib/thumb/v7e-m+dp/hard/libc_nano.a(libc_a-atexit.o)
 .debug_line    0x00000000       0xc3 /usr/lib/gcc/arm-none-eabi/13.2.1/../../../arm-none-eabi/lib/thumb/v7e-m+dp/hard/libc_nano.a(libc_a-atexit.o)
 .debug_str     0x00000000      0x1d9 /usr/lib/gcc/arm-none-eabi/13.2.1/../../../arm-none-eabi/lib/thumb/v7e-m+dp/hard/libc_nano.a(libc_a-atexit.o)
 .comment       0x00000000       0x27 /usr/lib/gcc/arm-none-eabi/13.2.1/../../../arm-none-eabi/lib/thumb/v7e-m+dp/hard/libc_nano.a(libc_a-atexit.o)
 .debug_frame   0x00000000       0x20 /usr/lib/gcc/arm-none-eabi/13.2.1/../../../arm-none-eabi/lib/thumb/v7e-m+dp/hard/libc_nano.a(libc_a-atexit.o)
 .ARM.attributes
                0x00000000       0x32 /usr/lib/gcc/arm-none-eabi/13.2.1/../../../arm-none-eabi/lib/thumb/v7e-m+dp/hard/libc_nano.a(libc_a-atexit.o)
 .text          0x00000000       0x28 /usr/lib/gcc/arm-none-eabi/13.2.1/../../../arm-none-eabi/lib/thumb/v7e-m+dp/hard/libc_nano.a(libc_a-fini.o)
 .data          0x00000000        0x0 /usr/lib/gcc/arm-none-eabi/13.2.1/../../../arm-none-eabi/lib/thumb/v7e-m+dp/hard/libc_nano.a(libc_a-fini.o)
 .bss           0x00000000        0x0 /usr/lib/gcc/arm-none-eabi/13.2.1/../../../arm-none-eabi/lib/thumb/v7e-m+dp/hard/libc_nano.a(libc_a-fini.o)
 .debug_info    0x00000000       0xf7 /usr/lib/gcc/arm-none-eabi/13.2.1/../../../arm-none-eabi/lib/thumb/v7e-m+dp/hard/libc_nano.a(libc_a-fini.o)
 .debug_abbrev  0x00000000       0xcc /usr/lib/gcc/arm-none-eabi/13.2.1/../../../arm-none-eabi/lib/thumb/v7e-m+dp/hard/libc_nano.a(libc_a-fini.o)
 .debug_loclists
                0x00000000       0x42 /usr/lib/gcc/arm-none-eabi/13.2.1/../../../arm-none-eabi/lib/thumb/v7e-m+dp/hard/libc_nano.a(libc_a-fini.o)
 .debug_aranges
                0x00000000       0x20 /usr/lib/gcc/arm-none-eabi/13.2.1/../../../arm-none-eabi/lib/thumb/v7e-m+dp/hard/libc_nano.a(libc_a-fini.o)
 .debug_line    0x00000000       0xd2 /usr/lib/gcc/arm-none-eabi/13.2.1/../../../arm-none-eabi/lib/thumb/v7e-m+dp/hard/libc_nano.a(libc_a-fini.o)
 .debug_str     0x00000000      0x1d3 /usr/lib/gcc/arm-none-eabi/13.2.1/../../../arm-none-eabi/lib/thumb/v7e-m+dp/hard/libc_nano.a(libc_a-fini.o)
 .comment       0x00000000       0x27 /usr/lib/gcc/arm-none-eabi/13.2.1/../../../arm-none-eabi/lib/thumb/v7e-m+dp/hard/libc_nano.a(libc_a-fini.o)
 .debug_frame   0x00000000       0x34 /usr/lib/gcc/arm-none-eabi/13.2.1/../../../arm-none-eabi/lib/thumb/v7e-m+dp/hard/libc_nano.a(libc_a-fini.o)
 .ARM.attributes
                0x00000000       0x32 /usr/lib/gcc/arm-none-eabi/13.2.1/../../../arm-none-eabi/lib/thumb/v7e-m+dp/hard/libc_nano.a(libc_a-fini.o)
 .data          0x00000000        0x0 /usr/lib/gcc/arm-none-eabi/13.2.1/../../../arm-none-eabi/lib/thumb/v7e-m+dp/hard/libc_nano.a(libc_a-assert.o)
 .bss           0x00000000        0x0 /usr/lib/gcc/arm-none-eabi/13.2.1/../../../arm-none-eabi/lib/thumb/v7e-m+dp/hard/libc_nano.a(libc_a-assert.o)
 .data          0x00000000        0x0 /usr/lib/gcc/arm-none-eabi/13.2.1/../../../arm-none-eabi/lib/thumb/v7e-m+dp/hard/libc_nano.a(libc_a-mprec.o)
 .bss           0x00000000        0x0 /usr/lib/gcc/arm-none-eabi/13.2.1/../../../arm-none-eabi/lib/thumb/v7e-m+dp/hard/libc_nano.a(libc_a-mprec.o)
 .text          0x00000000        0x0 /usr/lib/gcc/arm-none-eabi/13.2.1/../../../arm-none-eabi/lib/thumb/v7e-m+dp/hard/libc_nano.a(libc_a-impure.o)
 .bss           0x00000000        0x0 /usr/lib/gcc/arm-none-eabi/13.2.1/../../../arm-none-eabi/lib/thumb/v7e-m+dp/hard/libc_nano.a(libc_a-impure.o)
 .data          0x00000000        0x0 /usr/lib/gcc/arm-none-eabi/13.2.1/../../../arm-none-eabi/lib/thumb/v7e-m+dp/hard/libc_nano.a(libc_a-localeconv.o)
 .bss           0x00000000        0x0 /usr/lib/gcc/arm-none-eabi/13.2.1/../../../arm-none-eabi/lib/thumb/v7e-m+dp/hard/libc_nano.a(libc_a-localeconv.o)
 .data          0x00000000        0x0 /usr/lib/gcc/arm-none-eabi/13.2.1/../../../arm-none-eabi/lib/thumb/v7e-m+dp/hard/libc_nano.a(libc_a-abort.o)
 .bss           0x00000000        0x0 /usr/lib/gcc/arm-none-eabi/13.2.1/../../../arm-none-eabi/lib/thumb/v7e-m+dp/hard/libc_nano.a(libc_a-abort.o)
 .data          0x00000000        0x0 /usr/lib/gcc/arm-none-eabi/13.2.1/../../../arm-none-eabi/lib/thumb/v7e-m+dp/hard/libc_nano.a(libc_a-fflush.o)
 .bss           0x00000000        0x0 /usr/lib/gcc/arm-none-eabi/13.2.1/../../../arm-none-eabi/lib/thumb/v7e-m+dp/hard/libc_nano.a(libc_a-fflush.o)
 .data          0x00000000        0x0 /usr/lib/gcc/arm-none-eabi/13.2.1/../../../arm-none-eabi/lib/thumb/v7e-m+dp/hard/libc_nano.a(libc_a-callocr.o)
 .bss           0x00000000        0x0 /usr/lib/gcc/arm-none-eabi/13.2.1/../../../arm-none-eabi/lib/thumb/v7e-m+dp/hard/libc_nano.a(libc_a-callocr.o)
 .text          0x00000000       0x8c /usr/lib/gcc/arm-none-eabi/13.2.1/../../../arm-none-eabi/lib/thumb/v7e-m+dp/hard/libc_nano.a(libc_a-locale.o)
 .bss           0x00000000        0x4 /usr/lib/gcc/arm-none-eabi/13.2.1/../../../arm-none-eabi/lib/thumb/v7e-m+dp/hard/libc_nano.a(libc_a-locale.o)
 .data          0x00000000        0x0 /usr/lib/gcc/arm-none-eabi/13.2.1/../../../arm-none-eabi/lib/thumb/v7e-m+dp/hard/libc_nano.a(libc_a-mallocr.o)
 .data          0x00000000        0x0 /usr/lib/gcc/arm-none-eabi/13.2.1/../../../arm-none-eabi/lib/thumb/v7e-m+dp/hard/libc_nano.a(libc_a-freer.o)
 .bss           0x00000000        0x0 /usr/lib/gcc/arm-none-eabi/13.2.1/../../../arm-none-eabi/lib/thumb/v7e-m+dp/hard/libc_nano.a(libc_a-freer.o)
 .data          0x00000000        0x0 /usr/lib/gcc/arm-none-eabi/13.2.1/../../../arm-none-eabi/lib/thumb/v7e-m+dp/hard/libc_nano.a(libc_a-fwalk.o)
 .bss           0x00000000        0x0 /usr/lib/gcc/arm-none-eabi/13.2.1/../../../arm-none-eabi/lib/thumb/v7e-m+dp/hard/libc_nano.a(libc_a-fwalk.o)
 .data          0x00000000        0x0 /usr/lib/gcc/arm-none-eabi/13.2.1/../../../arm-none-eabi/lib/thumb/v7e-m+dp/hard/libc_nano.a(libc_a-wctomb_r.o)
 .bss           0x00000000        0x0 /usr/lib/gcc/arm-none-eabi/13.2.1/../../../arm-none-eabi/lib/thumb/v7e-m+dp/hard/libc_nano.a(libc_a-wctomb_r.o)
 .data          0x00000000        0x0 /usr/lib/gcc/arm-none-eabi/13.2.1/../../../arm-none-eabi/lib/thumb/v7e-m+dp/hard/libc_nano.a(libc_a-memchr.o)
 .bss           0x00000000        0x0 /usr/lib/gcc/arm-none-eabi/13.2.1/../../../arm-none-eabi/lib/thumb/v7e-m+dp/hard/libc_nano.a(libc_a-memchr.o)
 .ARM.extab     0x00000000        0x0 /usr/lib/gcc/arm-none-eabi/13.2.1/../../../arm-none-eabi/lib/thumb/v7e-m+dp/hard/libc_nano.a(libc_a-memchr.o)
 .eh_frame      0x00000000       0x50 /usr/lib/gcc/arm-none-eabi/13.2.1/../../../arm-none-eabi/lib/thumb/v7e-m+dp/hard/libc_nano.a(libc_a-memchr.o)
 .data          0x00000000        0x0 /usr/lib/gcc/arm-none-eabi/13.2.1/../../../arm-none-eabi/lib/thumb/v7e-m+dp/hard/libc_nano.a(libc_a-fprintf.o)
 .bss           0x00000000        0x0 /usr/lib/gcc/arm-none-eabi/13.2.1/../../../arm-none-eabi/lib/thumb/v7e-m+dp/hard/libc_nano.a(libc_a-fprintf.o)
 .text          0x00000000       0xac /usr/lib/gcc/arm-none-eabi/13.2.1/../../../arm-none-eabi/lib/thumb/v7e-m+dp/hard/libc_nano.a(libc_a-__atexit.o)
 .data          0x00000000        0x4 /usr/lib/gcc/arm-none-eabi/13.2.1/../../../arm-none-eabi/lib/thumb/v7e-m+dp/hard/libc_nano.a(libc_a-__atexit.o)
 .bss           0x00000000       0x8c /usr/lib/gcc/arm-none-eabi/13.2.1/../../../arm-none-eabi/lib/thumb/v7e-m+dp/hard/libc_nano.a(libc_a-__atexit.o)
 .debug_info    0x00000000      0x284 /usr/lib/gcc/arm-none-eabi/13.2.1/../../../arm-none-eabi/lib/thumb/v7e-m+dp/hard/libc_nano.a(libc_a-__atexit.o)
 .debug_abbrev  0x00000000      0x1d4 /usr/lib/gcc/arm-none-eabi/13.2.1/../../../arm-none-eabi/lib/thumb/v7e-m+dp/hard/libc_nano.a(libc_a-__atexit.o)
 .debug_loclists
                0x00000000      0x127 /usr/lib/gcc/arm-none-eabi/13.2.1/../../../arm-none-eabi/lib/thumb/v7e-m+dp/hard/libc_nano.a(libc_a-__atexit.o)
 .debug_aranges
                0x00000000       0x20 /usr/lib/gcc/arm-none-eabi/13.2.1/../../../arm-none-eabi/lib/thumb/v7e-m+dp/hard/libc_nano.a(libc_a-__atexit.o)
 .debug_line    0x00000000      0x230 /usr/lib/gcc/arm-none-eabi/13.2.1/../../../arm-none-eabi/lib/thumb/v7e-m+dp/hard/libc_nano.a(libc_a-__atexit.o)
 .debug_str     0x00000000      0x293 /usr/lib/gcc/arm-none-eabi/13.2.1/../../../arm-none-eabi/lib/thumb/v7e-m+dp/hard/libc_nano.a(libc_a-__atexit.o)
 .comment       0x00000000       0x27 /usr/lib/gcc/arm-none-eabi/13.2.1/../../../arm-none-eabi/lib/thumb/v7e-m+dp/hard/libc_nano.a(libc_a-__atexit.o)
 .debug_frame   0x00000000       0x38 /usr/lib/gcc/arm-none-eabi/13.2.1/../../../arm-none-eabi/lib/thumb/v7e-m+dp/hard/libc_nano.a(libc_a-__atexit.o)
 .ARM.attributes
                0x00000000       0x32 /usr/lib/gcc/arm-none-eabi/13.2.1/../../../arm-none-eabi/lib/thumb/v7e-m+dp/hard/libc_nano.a(libc_a-__atexit.o)
 .data          0x00000000        0x0 /usr/lib/gcc/arm-none-eabi/13.2.1/../../../arm-none-eabi/lib/thumb/v7e-m+dp/hard/libc_nano.a(libc_a-mlock.o)
 .bss           0x00000000        0x0 /usr/lib/gcc/arm-none-eabi/13.2.1/../../../arm-none-eabi/lib/thumb/v7e-m+dp/hard/libc_nano.a(libc_a-mlock.o)
 .text          0x00000000      0x2e0 /usr/lib/gcc/arm-none-eabi/13.2.1/../../../arm-none-eabi/lib/thumb/v7e-m+dp/hard/libc_nano.a(libc_a-strcmp.o)
 .data          0x00000000        0x0 /usr/lib/gcc/arm-none-eabi/13.2.1/../../../arm-none-eabi/lib/thumb/v7e-m+dp/hard/libc_nano.a(libc_a-strcmp.o)
 .bss           0x00000000        0x0 /usr/lib/gcc/arm-none-eabi/13.2.1/../../../arm-none-eabi/lib/thumb/v7e-m+dp/hard/libc_nano.a(libc_a-strcmp.o)
 .ARM.extab     0x00000000        0x0 /usr/lib/gcc/arm-none-eabi/13.2.1/../../../arm-none-eabi/lib/thumb/v7e-m+dp/hard/libc_nano.a(libc_a-strcmp.o)
 .ARM.exidx     0x00000000        0x8 /usr/lib/gcc/arm-none-eabi/13.2.1/../../../arm-none-eabi/lib/thumb/v7e-m+dp/hard/libc_nano.a(libc_a-strcmp.o)
 .debug_line    0x00000000      0x10e /usr/lib/gcc/arm-none-eabi/13.2.1/../../../arm-none-eabi/lib/thumb/v7e-m+dp/hard/libc_nano.a(libc_a-strcmp.o)
 .debug_line_str
                0x00000000       0x98 /usr/lib/gcc/arm-none-eabi/13.2.1/../../../arm-none-eabi/lib/thumb/v7e-m+dp/hard/libc_nano.a(libc_a-strcmp.o)
 .debug_info    0x00000000       0x33 /usr/lib/gcc/arm-none-eabi/13.2.1/../../../arm-none-eabi/lib/thumb/v7e-m+dp/hard/libc_nano.a(libc_a-strcmp.o)
 .debug_abbrev  0x00000000       0x28 /usr/lib/gcc/arm-none-eabi/13.2.1/../../../arm-none-eabi/lib/thumb/v7e-m+dp/hard/libc_nano.a(libc_a-strcmp.o)
 .debug_aranges
                0x00000000       0x20 /usr/lib/gcc/arm-none-eabi/13.2.1/../../../arm-none-eabi/lib/thumb/v7e-m+dp/hard/libc_nano.a(libc_a-strcmp.o)
 .debug_str     0x00000000       0xab /usr/lib/gcc/arm-none-eabi/13.2.1/../../../arm-none-eabi/lib/thumb/v7e-m+dp/hard/libc_nano.a(libc_a-strcmp.o)
 .debug_frame   0x00000000       0x7c /usr/lib/gcc/arm-none-eabi/13.2.1/../../../arm-none-eabi/lib/thumb/v7e-m+dp/hard/libc_nano.a(libc_a-strcmp.o)
 .ARM.attributes
                0x00000000       0x1e /usr/lib/gcc/arm-none-eabi/13.2.1/../../../arm-none-eabi/lib/thumb/v7e-m+dp/hard/libc_nano.a(libc_a-strcmp.o)
 .text          0x00000000        0x0 /usr/lib/gcc/arm-none-eabi/13.2.1/../../../arm-none-eabi/lib/thumb/v7e-m+dp/hard/libc_nano.a(libc_a-ctype_.o)
 .data          0x00000000        0x0 /usr/lib/gcc/arm-none-eabi/13.2.1/../../../arm-none-eabi/lib/thumb/v7e-m+dp/hard/libc_nano.a(libc_a-ctype_.o)
 .bss           0x00000000        0x0 /usr/lib/gcc/arm-none-eabi/13.2.1/../../../arm-none-eabi/lib/thumb/v7e-m+dp/hard/libc_nano.a(libc_a-ctype_.o)
 .data          0x00000000        0x0 /usr/lib/gcc/arm-none-eabi/13.2.1/../../../arm-none-eabi/lib/thumb/v7e-m+dp/hard/libc_nano.a(libc_a-nano-vfprintf.o)
 .bss           0x00000000        0x0 /usr/lib/gcc/arm-none-eabi/13.2.1/../../../arm-none-eabi/lib/thumb/v7e-m+dp/hard/libc_nano.a(libc_a-nano-vfprintf.o)
 .data          0x00000000        0x0 /usr/lib/gcc/arm-none-eabi/13.2.1/../../../arm-none-eabi/lib/thumb/v7e-m+dp/hard/libc_nano.a(libc_a-wbuf.o)
 .bss           0x00000000        0x0 /usr/lib/gcc/arm-none-eabi/13.2.1/../../../arm-none-eabi/lib/thumb/v7e-m+dp/hard/libc_nano.a(libc_a-wbuf.o)
 .data          0x00000000        0x0 /usr/lib/gcc/arm-none-eabi/13.2.1/../../../arm-none-eabi/lib/thumb/v7e-m+dp/hard/libc_nano.a(libc_a-sbrkr.o)
 .bss           0x00000000        0x0 /usr/lib/gcc/arm-none-eabi/13.2.1/../../../arm-none-eabi/lib/thumb/v7e-m+dp/hard/libc_nano.a(libc_a-sbrkr.o)
 .data          0x00000000        0x0 /usr/lib/gcc/arm-none-eabi/13.2.1/../../../arm-none-eabi/lib/thumb/v7e-m+dp/hard/libc_nano.a(libc_a-stdio.o)
 .bss           0x00000000        0x0 /usr/lib/gcc/arm-none-eabi/13.2.1/../../../arm-none-eabi/lib/thumb/v7e-m+dp/hard/libc_nano.a(libc_a-stdio.o)
 .data          0x00000000        0x0 /usr/lib/gcc/arm-none-eabi/13.2.1/../../../arm-none-eabi/lib/thumb/v7e-m+dp/hard/libc_nano.a(libc_a-fvwrite.o)
 .bss           0x00000000        0x0 /usr/lib/gcc/arm-none-eabi/13.2.1/../../../arm-none-eabi/lib/thumb/v7e-m+dp/hard/libc_nano.a(libc_a-fvwrite.o)
 .data          0x00000000        0x0 /usr/lib/gcc/arm-none-eabi/13.2.1/../../../arm-none-eabi/lib/thumb/v7e-m+dp/hard/libc_nano.a(libc_a-mbtowc_r.o)
 .bss           0x00000000        0x0 /usr/lib/gcc/arm-none-eabi/13.2.1/../../../arm-none-eabi/lib/thumb/v7e-m+dp/hard/libc_nano.a(libc_a-mbtowc_r.o)
 .data          0x00000000        0x0 /usr/lib/gcc/arm-none-eabi/13.2.1/../../../arm-none-eabi/lib/thumb/v7e-m+dp/hard/libc_nano.a(libc_a-signal.o)
 .bss           0x00000000        0x0 /usr/lib/gcc/arm-none-eabi/13.2.1/../../../arm-none-eabi/lib/thumb/v7e-m+dp/hard/libc_nano.a(libc_a-signal.o)
 .data          0x00000000        0x0 /usr/lib/gcc/arm-none-eabi/13.2.1/../../../arm-none-eabi/lib/thumb/v7e-m+dp/hard/libc_nano.a(libc_a-closer.o)
 .bss           0x00000000        0x0 /usr/lib/gcc/arm-none-eabi/13.2.1/../../../arm-none-eabi/lib/thumb/v7e-m+dp/hard/libc_nano.a(libc_a-closer.o)
 .data          0x00000000        0x0 /usr/lib/gcc/arm-none-eabi/13.2.1/../../../arm-none-eabi/lib/thumb/v7e-m+dp/hard/libc_nano.a(libc_a-memmove.o)
 .bss           0x00000000        0x0 /usr/lib/gcc/arm-none-eabi/13.2.1/../../../arm-none-eabi/lib/thumb/v7e-m+dp/hard/libc_nano.a(libc_a-memmove.o)
 .text          0x00000000       0xc4 /usr/lib/gcc/arm-none-eabi/13.2.1/../../../arm-none-eabi/lib/thumb/v7e-m+dp/hard/libc_nano.a(libc_a-__call_atexit.o)
 .data          0x00000000        0x0 /usr/lib/gcc/arm-none-eabi/13.2.1/../../../arm-none-eabi/lib/thumb/v7e-m+dp/hard/libc_nano.a(libc_a-__call_atexit.o)
 .bss           0x00000000        0x4 /usr/lib/gcc/arm-none-eabi/13.2.1/../../../arm-none-eabi/lib/thumb/v7e-m+dp/hard/libc_nano.a(libc_a-__call_atexit.o)
 .debug_info    0x00000000      0x235 /usr/lib/gcc/arm-none-eabi/13.2.1/../../../arm-none-eabi/lib/thumb/v7e-m+dp/hard/libc_nano.a(libc_a-__call_atexit.o)
 .debug_abbrev  0x00000000      0x179 /usr/lib/gcc/arm-none-eabi/13.2.1/../../../arm-none-eabi/lib/thumb/v7e-m+dp/hard/libc_nano.a(libc_a-__call_atexit.o)
 .debug_loclists
                0x00000000       0xff /usr/lib/gcc/arm-none-eabi/13.2.1/../../../arm-none-eabi/lib/thumb/v7e-m+dp/hard/libc_nano.a(libc_a-__call_atexit.o)
 .debug_aranges
                0x00000000       0x20 /usr/lib/gcc/arm-none-eabi/13.2.1/../../../arm-none-eabi/lib/thumb/v7e-m+dp/hard/libc_nano.a(libc_a-__call_atexit.o)
 .debug_rnglists
                0x00000000       0x2c /usr/lib/gcc/arm-none-eabi/13.2.1/../../../arm-none-eabi/lib/thumb/v7e-m+dp/hard/libc_nano.a(libc_a-__call_atexit.o)
 .debug_line    0x00000000      0x246 /usr/lib/gcc/arm-none-eabi/13.2.1/../../../arm-none-eabi/lib/thumb/v7e-m+dp/hard/libc_nano.a(libc_a-__call_atexit.o)
 .debug_str     0x00000000      0x245 /usr/lib/gcc/arm-none-eabi/13.2.1/../../../arm-none-eabi/lib/thumb/v7e-m+dp/hard/libc_nano.a(libc_a-__call_atexit.o)
 .comment       0x00000000       0x27 /usr/lib/gcc/arm-none-eabi/13.2.1/../../../arm-none-eabi/lib/thumb/v7e-m+dp/hard/libc_nano.a(libc_a-__call_atexit.o)
 .debug_frame   0x00000000       0x40 /usr/lib/gcc/arm-none-eabi/13.2.1/../../../arm-none-eabi/lib/thumb/v7e-m+dp/hard/libc_nano.a(libc_a-__call_atexit.o)
 .ARM.attributes
                0x00000000       0x32 /usr/lib/gcc/arm-none-eabi/13.2.1/../../../arm-none-eabi/lib/thumb/v7e-m+dp/hard/libc_nano.a(libc_a-__call_atexit.o)
 .data          0x00000000        0x0 /usr/lib/gcc/arm-none-eabi/13.2.1/../../../arm-none-eabi/lib/thumb/v7e-m+dp/hard/libc_nano.a(libc_a-wsetup.o)
 .bss           0x00000000        0x0 /usr/lib/gcc/arm-none-eabi/13.2.1/../../../arm-none-eabi/lib/thumb/v7e-m+dp/hard/libc_nano.a(libc_a-wsetup.o)
 .data          0x00000000        0x0 /usr/lib/gcc/arm-none-eabi/13.2.1/../../../arm-none-eabi/lib/thumb/v7e-m+dp/hard/libc_nano.a(libc_a-readr.o)
 .bss           0x00000000        0x0 /usr/lib/gcc/arm-none-eabi/13.2.1/../../../arm-none-eabi/lib/thumb/v7e-m+dp/hard/libc_nano.a(libc_a-readr.o)
 .text          0x00000000       0xd4 /usr/lib/gcc/arm-none-eabi/13.2.1/../../../arm-none-eabi/lib/thumb/v7e-m+dp/hard/libc_nano.a(libc_a-reent.o)
 .data          0x00000000        0x0 /usr/lib/gcc/arm-none-eabi/13.2.1/../../../arm-none-eabi/lib/thumb/v7e-m+dp/hard/libc_nano.a(libc_a-reent.o)
 .data          0x00000000        0x0 /usr/lib/gcc/arm-none-eabi/13.2.1/../../../arm-none-eabi/lib/thumb/v7e-m+dp/hard/libc_nano.a(libc_a-reallocr.o)
 .bss           0x00000000        0x0 /usr/lib/gcc/arm-none-eabi/13.2.1/../../../arm-none-eabi/lib/thumb/v7e-m+dp/hard/libc_nano.a(libc_a-reallocr.o)
 .data          0x00000000        0x0 /usr/lib/gcc/arm-none-eabi/13.2.1/../../../arm-none-eabi/lib/thumb/v7e-m+dp/hard/libc_nano.a(libc_a-makebuf.o)
 .bss           0x00000000        0x0 /usr/lib/gcc/arm-none-eabi/13.2.1/../../../arm-none-eabi/lib/thumb/v7e-m+dp/hard/libc_nano.a(libc_a-makebuf.o)
 .data          0x00000000        0x0 /usr/lib/gcc/arm-none-eabi/13.2.1/../../../arm-none-eabi/lib/thumb/v7e-m+dp/hard/libc_nano.a(libc_a-lseekr.o)
 .bss           0x00000000        0x0 /usr/lib/gcc/arm-none-eabi/13.2.1/../../../arm-none-eabi/lib/thumb/v7e-m+dp/hard/libc_nano.a(libc_a-lseekr.o)
 .data          0x00000000        0x0 /usr/lib/gcc/arm-none-eabi/13.2.1/../../../arm-none-eabi/lib/thumb/v7e-m+dp/hard/libc_nano.a(libc_a-writer.o)
 .bss           0x00000000        0x0 /usr/lib/gcc/arm-none-eabi/13.2.1/../../../arm-none-eabi/lib/thumb/v7e-m+dp/hard/libc_nano.a(libc_a-writer.o)
 .data          0x00000000        0x0 /usr/lib/gcc/arm-none-eabi/13.2.1/../../../arm-none-eabi/lib/thumb/v7e-m+dp/hard/libc_nano.a(libc_a-isattyr.o)
 .bss           0x00000000        0x0 /usr/lib/gcc/arm-none-eabi/13.2.1/../../../arm-none-eabi/lib/thumb/v7e-m+dp/hard/libc_nano.a(libc_a-isattyr.o)
 .data          0x00000000        0x0 /usr/lib/gcc/arm-none-eabi/13.2.1/../../../arm-none-eabi/lib/thumb/v7e-m+dp/hard/libc_nano.a(libc_a-msizer.o)
 .bss           0x00000000        0x0 /usr/lib/gcc/arm-none-eabi/13.2.1/../../../arm-none-eabi/lib/thumb/v7e-m+dp/hard/libc_nano.a(libc_a-msizer.o)
 .data          0x00000000        0x0 /usr/lib/gcc/arm-none-eabi/13.2.1/../../../arm-none-eabi/lib/thumb/v7e-m+dp/hard/libc_nano.a(libc_a-signalr.o)
 .bss           0x00000000        0x0 /usr/lib/gcc/arm-none-eabi/13.2.1/../../../arm-none-eabi/lib/thumb/v7e-m+dp/hard/libc_nano.a(libc_a-signalr.o)
 .data          0x00000000        0x0 /usr/lib/gcc/arm-none-eabi/13.2.1/../../../arm-none-eabi/lib/thumb/v7e-m+dp/hard/libc_nano.a(libc_a-fstatr.o)
 .bss           0x00000000        0x0 /usr/lib/gcc/arm-none-eabi/13.2.1/../../../arm-none-eabi/lib/thumb/v7e-m+dp/hard/libc_nano.a(libc_a-fstatr.o)
 .text          0x00000000        0x0 /usr/lib/gcc/arm-none-eabi/13.2.1/thumb/v7e-m+dp/hard/crtend.o
 .data          0x00000000        0x0 /usr/lib/gcc/arm-none-eabi/13.2.1/thumb/v7e-m+dp/hard/crtend.o
 .bss           0x00000000        0x0 /usr/lib/gcc/arm-none-eabi/13.2.1/thumb/v7e-m+dp/hard/crtend.o
 .rodata        0x00000000       0x24 /usr/lib/gcc/arm-none-eabi/13.2.1/thumb/v7e-m+dp/hard/crtend.o
 .eh_frame      0x00000000        0x4 /usr/lib/gcc/arm-none-eabi/13.2.1/thumb/v7e-m+dp/hard/crtend.o
 .text          0x00000000        0x0 /usr/lib/gcc/arm-none-eabi/13.2.1/thumb/v7e-m+dp/hard/crtn.o
 .data          0x00000000        0x0 /usr/lib/gcc/arm-none-eabi/13.2.1/thumb/v7e-m+dp/hard/crtn.o
 .bss           0x00000000        0x0 /usr/lib/gcc/arm-none-eabi/13.2.1/thumb/v7e-m+dp/hard/crtn.o

Memory Configuration

Name             Origin             Length             Attributes
DTCMRAM          0x20000000         0x00020000         xrw
RAM              0x24000000         0x00020000         xrw
RAM_D2           0x30000000         0x00008000         xrw
RAM_D3           0x38000000         0x00004000         xrw
ITCMRAM          0x00000000         0x00010000         xrw
FLASH            0x08000000         0x00100000         xr
*default*        0x00000000         0xffffffff

Linker script and memory map

LOAD /usr/lib/gcc/arm-none-eabi/13.2.1/thumb/v7e-m+dp/hard/crti.o
LOAD /usr/lib/gcc/arm-none-eabi/13.2.1/thumb/v7e-m+dp/hard/crtbegin.o
LOAD /usr/lib/gcc/arm-none-eabi/13.2.1/../../../arm-none-eabi/lib/thumb/v7e-m+dp/hard/crt0.o
LOAD build/debug/adc.o
LOAD build/debug/cordic.o
LOAD build/debug/fmac.o
LOAD build/debug/gpio.o
LOAD build/debug/i2c.o
LOAD build/debug/main.o
LOAD build/debug/memorymap.o
LOAD build/debug/spi.o
LOAD build/debug/stm32h7xx_hal.o
LOAD build/debug/stm32h7xx_hal_adc.o
LOAD build/debug/stm32h7xx_hal_adc_ex.o
LOAD build/debug/stm32h7xx_hal_cordic.o
LOAD build/debug/stm32h7xx_hal_cortex.o
LOAD build/debug/stm32h7xx_hal_dma.o
LOAD build/debug/stm32h7xx_hal_dma_ex.o
LOAD build/debug/stm32h7xx_hal_exti.o
LOAD build/debug/stm32h7xx_hal_flash.o
LOAD build/debug/stm32h7xx_hal_flash_ex.o
LOAD build/debug/stm32h7xx_hal_fmac.o
LOAD build/debug/stm32h7xx_hal_gpio.o
LOAD build/debug/stm32h7xx_hal_hsem.o
LOAD build/debug/stm32h7xx_hal_i2c.o
LOAD build/debug/stm32h7xx_hal_i2c_ex.o
LOAD build/debug/stm32h7xx_hal_mdma.o
LOAD build/debug/stm32h7xx_hal_msp.o
LOAD build/debug/stm32h7xx_hal_pcd.o
LOAD build/debug/stm32h7xx_hal_pcd_ex.o
LOAD build/debug/stm32h7xx_hal_pwr.o
LOAD build/debug/stm32h7xx_hal_pwr_ex.o
LOAD build/debug/stm32h7xx_hal_rcc.o
LOAD build/debug/stm32h7xx_hal_rcc_ex.o
LOAD build/debug/stm32h7xx_hal_spi.o
LOAD build/debug/stm32h7xx_hal_spi_ex.o
LOAD build/debug/stm32h7xx_hal_tim.o
LOAD build/debug/stm32h7xx_hal_tim_ex.o
LOAD build/debug/stm32h7xx_it.o
LOAD build/debug/stm32h7xx_ll_usb.o
LOAD build/debug/syscalls.o
LOAD build/debug/sysmem.o
LOAD build/debug/system_stm32h7xx.o
LOAD build/debug/tim.o
LOAD build/debug/usb_device.o
LOAD build/debug/usbd_cdc.o
LOAD build/debug/usbd_cdc_if.o
LOAD build/debug/usbd_conf.o
LOAD build/debug/usbd_core.o
LOAD build/debug/usbd_ctlreq.o
LOAD build/debug/usbd_desc.o
LOAD build/debug/usbd_ioreq.o
LOAD build/debug/ADXL375.o
LOAD build/debug/ICM42688.o
LOAD build/debug/MS5607.o
LOAD build/debug/abstract.o
LOAD build/debug/cpp_main.o
LOAD build/debug/startup_stm32h725xx.o
LOAD /usr/lib/gcc/arm-none-eabi/13.2.1/../../../arm-none-eabi/lib/thumb/v7e-m+dp/hard/libnosys.a
LOAD /usr/lib/gcc/arm-none-eabi/13.2.1/../../../arm-none-eabi/lib/thumb/v7e-m+dp/hard/libstdc++_nano.a
LOAD /usr/lib/gcc/arm-none-eabi/13.2.1/../../../arm-none-eabi/lib/thumb/v7e-m+dp/hard/libm.a
LOAD /usr/lib/gcc/arm-none-eabi/13.2.1/../../../arm-none-eabi/lib/thumb/v7e-m+dp/hard/libc_nano.a
START GROUP
LOAD /usr/lib/gcc/arm-none-eabi/13.2.1/thumb/v7e-m+dp/hard/libgcc.a
LOAD /usr/lib/gcc/arm-none-eabi/13.2.1/../../../arm-none-eabi/lib/thumb/v7e-m+dp/hard/libc_nano.a
END GROUP
START GROUP
LOAD /usr/lib/gcc/arm-none-eabi/13.2.1/thumb/v7e-m+dp/hard/libgcc.a
LOAD /usr/lib/gcc/arm-none-eabi/13.2.1/../../../arm-none-eabi/lib/thumb/v7e-m+dp/hard/libc_nano.a
END GROUP
LOAD /usr/lib/gcc/arm-none-eabi/13.2.1/thumb/v7e-m+dp/hard/crtend.o
LOAD /usr/lib/gcc/arm-none-eabi/13.2.1/thumb/v7e-m+dp/hard/crtn.o
                0x20020000                        _estack = (ORIGIN (DTCMRAM) + LENGTH (DTCMRAM))
                0x00000200                        _Min_Heap_Size = 0x200
                0x00000400                        _Min_Stack_Size = 0x400

.isr_vector     0x08000000      0x2cc
                0x08000000                        . = ALIGN (0x4)
 *(.isr_vector)
 .isr_vector    0x08000000      0x2cc build/debug/startup_stm32h725xx.o
                0x08000000                g_pfnVectors
                0x080002cc                        . = ALIGN (0x4)

.text           0x08000300     0xe9e4
                0x08000300                        . = ALIGN (0x4)
 *(.text)
 .text          0x08000300       0x88 /usr/lib/gcc/arm-none-eabi/13.2.1/thumb/v7e-m+dp/hard/crtbegin.o
 .text          0x08000388      0x198 build/debug/ADXL375.o
                0x08000388                ADXL375::ADXL375(__I2C_HandleTypeDef*, unsigned char, signed char*)
                0x08000388                ADXL375::ADXL375(__I2C_HandleTypeDef*, unsigned char, signed char*)
                0x080003b4                ADXL375::ReadReg(unsigned char, unsigned char*, unsigned char)
                0x080003d2                ADXL375::ReadAccel()
                0x08000464                ADXL375::WriteReg(unsigned char, unsigned char*)
                0x08000484                ADXL375::Init()
 .text          0x08000520      0x274 build/debug/MS5607.o
                0x08000520                MS5607::MS5607(__I2C_HandleTypeDef*, unsigned char)
                0x08000520                MS5607::MS5607(__I2C_HandleTypeDef*, unsigned char)
                0x08000532                MS5607::ReadRegs(unsigned char, unsigned char*, unsigned short)
                0x08000550                MS5607::Init()
                0x080005ba                MS5607::Convert()
                0x080006a4                MS5607::GetData()
 .text          0x08000794       0xa8 build/debug/abstract.o
                0x08000794                SerialPrint(unsigned char*)
                0x080007a6                SerialPrintln(unsigned char*)
                0x080007f4                i2cRead(unsigned char, unsigned char, unsigned char*, unsigned char)
                0x08000818                i2cWrite(unsigned char, unsigned char, unsigned char*, unsigned char)
 .text          0x0800083c       0x84 build/debug/cpp_main.o
                0x0800083c                cpp_main
 .text          0x080008c0      0x5d8 /usr/lib/gcc/arm-none-eabi/13.2.1/../../../arm-none-eabi/lib/thumb/v7e-m+dp/hard/libm.a(libm_a-pow.o)
                0x080008c0                pow
 .text          0x08000e98       0xf0 /usr/lib/gcc/arm-none-eabi/13.2.1/../../../arm-none-eabi/lib/thumb/v7e-m+dp/hard/libm.a(libm_a-math_err.o)
                0x08000ed4                __math_uflow
                0x08000ee8                __math_may_uflow
                0x08000ef8                __math_oflow
                0x08000f08                __math_divzero
                0x08000f38                __math_invalid
                0x08000f54                __math_check_uflow
                0x08000f64                __math_check_oflow
 .text          0x08000f88       0xbc /usr/lib/gcc/arm-none-eabi/13.2.1/../../../arm-none-eabi/lib/thumb/v7e-m+dp/hard/libc_nano.a(libc_a-strcpy.o)
                0x08000f88                strcpy
 .text          0x08001044       0x50 /usr/lib/gcc/arm-none-eabi/13.2.1/../../../arm-none-eabi/lib/thumb/v7e-m+dp/hard/libc_nano.a(libc_a-init.o)
                0x08001044                __libc_init_array
 *fill*         0x08001094       0x2c 
 .text          0x080010c0       0xd8 /usr/lib/gcc/arm-none-eabi/13.2.1/../../../arm-none-eabi/lib/thumb/v7e-m+dp/hard/libc_nano.a(libc_a-strlen.o)
                0x080010c0                strlen
 .text          0x08001198       0xa4 /usr/lib/gcc/arm-none-eabi/13.2.1/../../../arm-none-eabi/lib/thumb/v7e-m+dp/hard/libc_nano.a(libc_a-memset.o)
                0x08001198                memset
 .text          0x0800123c        0xc /usr/lib/gcc/arm-none-eabi/13.2.1/../../../arm-none-eabi/lib/thumb/v7e-m+dp/hard/libc_nano.a(libc_a-errno.o)
                0x0800123c                __errno
 .text          0x08001248      0x650 /usr/lib/gcc/arm-none-eabi/13.2.1/../../../arm-none-eabi/lib/thumb/v7e-m+dp/hard/libc_nano.a(libc_a-nano-vfprintf_float.o)
                0x08001248                __cvt
                0x08001340                __exponent
                0x080013c4                _printf_float
 .text          0x08001898      0xe00 /usr/lib/gcc/arm-none-eabi/13.2.1/../../../arm-none-eabi/lib/thumb/v7e-m+dp/hard/libc_nano.a(libc_a-dtoa.o)
                0x080019c4                _dtoa_r
 .text          0x08002698      0x134 /usr/lib/gcc/arm-none-eabi/13.2.1/../../../arm-none-eabi/lib/thumb/v7e-m+dp/hard/libc_nano.a(libc_a-memcpy.o)
                0x08002698                memcpy
 .text          0x080027cc       0x20 /usr/lib/gcc/arm-none-eabi/13.2.1/../../../arm-none-eabi/lib/thumb/v7e-m+dp/hard/libc_nano.a(libc_a-malloc.o)
                0x080027cc                malloc
                0x080027dc                free
 .text          0x080027ec      0x3a8 /usr/lib/gcc/arm-none-eabi/13.2.1/../../../arm-none-eabi/lib/thumb/v7e-m+dp/hard/libc_nano.a(libc_a-nano-vfprintf_i.o)
                0x080027ec                _printf_common
                0x08002910                _printf_i
 .text          0x08002b94       0x4c /usr/lib/gcc/arm-none-eabi/13.2.1/../../../arm-none-eabi/lib/thumb/v7e-m+dp/hard/libc_nano.a(libc_a-assert.o)
                0x08002b94                __assert_func
                0x08002bd4                __assert
 .text          0x08002be0      0xafc /usr/lib/gcc/arm-none-eabi/13.2.1/../../../arm-none-eabi/lib/thumb/v7e-m+dp/hard/libc_nano.a(libc_a-mprec.o)
                0x08002be0                _Balloc
                0x08002c60                _Bfree
                0x08002ca8                __multadd
                0x08002d44                __s2b
                0x08002df8                __hi0bits
                0x08002e3c                __lo0bits
                0x08002e9c                __i2b
                0x08002ec8                __multiply
                0x08003034                __pow5mult
                0x08003114                __lshift
                0x080031fc                __mcmp
                0x08003240                __mdiff
                0x080033b8                __ulp
                0x0800341c                __b2d
                0x080034d8                __d2b
                0x08003598                __ratio
                0x080035fc                _mprec_log10
                0x08003624                __copybits
                0x08003680                __any_on
 .text          0x080036dc       0x14 /usr/lib/gcc/arm-none-eabi/13.2.1/../../../arm-none-eabi/lib/thumb/v7e-m+dp/hard/libc_nano.a(libc_a-localeconv.o)
                0x080036dc                __localeconv_l
                0x080036e0                _localeconv_r
                0x080036e8                localeconv
 .text          0x080036f0      0x224 /usr/lib/gcc/arm-none-eabi/13.2.1/../../../arm-none-eabi/lib/thumb/v7e-m+dp/hard/libc_nano.a(libc_a-findfp.o)
                0x08003820                __sfp
                0x080038c4                __sinit
                0x080038e4                __sfp_lock_acquire
                0x080038e8                __sfp_lock_release
                0x080038ec                __fp_lock_all
                0x08003900                __fp_unlock_all
 .text          0x08003914       0x10 /usr/lib/gcc/arm-none-eabi/13.2.1/../../../arm-none-eabi/lib/thumb/v7e-m+dp/hard/libc_nano.a(libc_a-abort.o)
                0x08003914                abort
 .text          0x08003924      0x1a8 /usr/lib/gcc/arm-none-eabi/13.2.1/../../../arm-none-eabi/lib/thumb/v7e-m+dp/hard/libc_nano.a(libc_a-fflush.o)
                0x08003924                __sflush_r
                0x08003a48                _fflush_r
                0x08003a80                fflush
 .text          0x08003acc       0x28 /usr/lib/gcc/arm-none-eabi/13.2.1/../../../arm-none-eabi/lib/thumb/v7e-m+dp/hard/libc_nano.a(libc_a-callocr.o)
                0x08003acc                _calloc_r
 .text          0x08003af4      0x148 /usr/lib/gcc/arm-none-eabi/13.2.1/../../../arm-none-eabi/lib/thumb/v7e-m+dp/hard/libc_nano.a(libc_a-mallocr.o)
                0x08003b3c                _malloc_r
 .text          0x08003c3c       0xbc /usr/lib/gcc/arm-none-eabi/13.2.1/../../../arm-none-eabi/lib/thumb/v7e-m+dp/hard/libc_nano.a(libc_a-freer.o)
                0x08003c3c                _free_r
 .text          0x08003cf8       0x44 /usr/lib/gcc/arm-none-eabi/13.2.1/../../../arm-none-eabi/lib/thumb/v7e-m+dp/hard/libc_nano.a(libc_a-fwalk.o)
                0x08003cf8                _fwalk_sglue
 .text          0x08003d3c       0x30 /usr/lib/gcc/arm-none-eabi/13.2.1/../../../arm-none-eabi/lib/thumb/v7e-m+dp/hard/libc_nano.a(libc_a-wctomb_r.o)
                0x08003d3c                _wctomb_r
                0x08003d50                __ascii_wctomb
 *fill*         0x08003d6c        0x4 
 .text          0x08003d70       0xa0 /usr/lib/gcc/arm-none-eabi/13.2.1/../../../arm-none-eabi/lib/thumb/v7e-m+dp/hard/libc_nano.a(libc_a-memchr.o)
                0x08003d70                memchr
 .text          0x08003e10       0x44 /usr/lib/gcc/arm-none-eabi/13.2.1/../../../arm-none-eabi/lib/thumb/v7e-m+dp/hard/libc_nano.a(libc_a-fprintf.o)
                0x08003e10                _fprintf_r
                0x08003e10                _fiprintf_r
                0x08003e2c                fprintf
                0x08003e2c                fiprintf
 .text          0x08003e54        0x8 /usr/lib/gcc/arm-none-eabi/13.2.1/../../../arm-none-eabi/lib/thumb/v7e-m+dp/hard/libc_nano.a(libc_a-mlock.o)
                0x08003e54                __malloc_lock
                0x08003e58                __malloc_unlock
 .text          0x08003e5c      0x314 /usr/lib/gcc/arm-none-eabi/13.2.1/../../../arm-none-eabi/lib/thumb/v7e-m+dp/hard/libc_nano.a(libc_a-nano-vfprintf.o)
                0x08003e98                __sfputs_r
                0x08003ec8                __sprint_r
                0x08003ee8                _vfiprintf_r
                0x08003ee8                _vfprintf_r
                0x08004154                vfiprintf
                0x08004154                vfprintf
 .text          0x08004170       0xa0 /usr/lib/gcc/arm-none-eabi/13.2.1/../../../arm-none-eabi/lib/thumb/v7e-m+dp/hard/libc_nano.a(libc_a-wbuf.o)
                0x08004170                __swbuf_r
                0x080041f8                __swbuf
 .text          0x08004210       0x24 /usr/lib/gcc/arm-none-eabi/13.2.1/../../../arm-none-eabi/lib/thumb/v7e-m+dp/hard/libc_nano.a(libc_a-sbrkr.o)
                0x08004210                _sbrk_r
 .text          0x08004234       0x94 /usr/lib/gcc/arm-none-eabi/13.2.1/../../../arm-none-eabi/lib/thumb/v7e-m+dp/hard/libc_nano.a(libc_a-stdio.o)
                0x08004234                __sread
                0x08004258                __seofread
                0x0800425c                __swrite
                0x0800429c                __sseek
                0x080042c0                __sclose
 .text          0x080042c8      0x300 /usr/lib/gcc/arm-none-eabi/13.2.1/../../../arm-none-eabi/lib/thumb/v7e-m+dp/hard/libc_nano.a(libc_a-fvwrite.o)
                0x080042c8                __sfvwrite_r
 .text          0x080045c8       0x40 /usr/lib/gcc/arm-none-eabi/13.2.1/../../../arm-none-eabi/lib/thumb/v7e-m+dp/hard/libc_nano.a(libc_a-mbtowc_r.o)
                0x080045c8                _mbtowc_r
                0x080045dc                __ascii_mbtowc
 .text          0x08004608      0x260 /usr/lib/gcc/arm-none-eabi/13.2.1/../../../arm-none-eabi/lib/thumb/v7e-m+dp/hard/libc_nano.a(libc_a-signal.o)
                0x08004608                _init_signal_r
                0x08004634                _signal_r
                0x08004680                _raise_r
                0x080046d0                __sigtramp_r
                0x08004730                raise
                0x08004784                signal
                0x080047d0                _init_signal
                0x08004804                __sigtramp
 .text          0x08004868       0x24 /usr/lib/gcc/arm-none-eabi/13.2.1/../../../arm-none-eabi/lib/thumb/v7e-m+dp/hard/libc_nano.a(libc_a-closer.o)
                0x08004868                _close_r
 .text          0x0800488c      0x100 /usr/lib/gcc/arm-none-eabi/13.2.1/../../../arm-none-eabi/lib/thumb/v7e-m+dp/hard/libc_nano.a(libc_a-memmove.o)
                0x0800488c                memmove
 .text          0x0800498c       0xc4 /usr/lib/gcc/arm-none-eabi/13.2.1/../../../arm-none-eabi/lib/thumb/v7e-m+dp/hard/libc_nano.a(libc_a-wsetup.o)
                0x0800498c                __swsetup_r
 .text          0x08004a50       0x2c /usr/lib/gcc/arm-none-eabi/13.2.1/../../../arm-none-eabi/lib/thumb/v7e-m+dp/hard/libc_nano.a(libc_a-readr.o)
                0x08004a50                _read_r
 .text          0x08004a7c       0x64 /usr/lib/gcc/arm-none-eabi/13.2.1/../../../arm-none-eabi/lib/thumb/v7e-m+dp/hard/libc_nano.a(libc_a-reallocr.o)
                0x08004a7c                _realloc_r
 .text          0x08004ae0      0x114 /usr/lib/gcc/arm-none-eabi/13.2.1/../../../arm-none-eabi/lib/thumb/v7e-m+dp/hard/libc_nano.a(libc_a-makebuf.o)
                0x08004ae0                __smakebuf_r
                0x08004ba4                __swhatbuf_r
 .text          0x08004bf4       0x2c /usr/lib/gcc/arm-none-eabi/13.2.1/../../../arm-none-eabi/lib/thumb/v7e-m+dp/hard/libc_nano.a(libc_a-lseekr.o)
                0x08004bf4                _lseek_r
 .text          0x08004c20       0x2c /usr/lib/gcc/arm-none-eabi/13.2.1/../../../arm-none-eabi/lib/thumb/v7e-m+dp/hard/libc_nano.a(libc_a-writer.o)
                0x08004c20                _write_r
 .text          0x08004c4c       0x24 /usr/lib/gcc/arm-none-eabi/13.2.1/../../../arm-none-eabi/lib/thumb/v7e-m+dp/hard/libc_nano.a(libc_a-isattyr.o)
                0x08004c4c                _isatty_r
 .text          0x08004c70       0x10 /usr/lib/gcc/arm-none-eabi/13.2.1/../../../arm-none-eabi/lib/thumb/v7e-m+dp/hard/libc_nano.a(libc_a-msizer.o)
                0x08004c70                _malloc_usable_size_r
 .text          0x08004c80       0x30 /usr/lib/gcc/arm-none-eabi/13.2.1/../../../arm-none-eabi/lib/thumb/v7e-m+dp/hard/libc_nano.a(libc_a-signalr.o)
                0x08004c80                _kill_r
                0x08004cac                _getpid_r
 .text          0x08004cb0       0x2c /usr/lib/gcc/arm-none-eabi/13.2.1/../../../arm-none-eabi/lib/thumb/v7e-m+dp/hard/libc_nano.a(libc_a-fstatr.o)
                0x08004cb0                _fstat_r
 *(.text*)
 .text.MX_ADC1_Init
                0x08004cdc       0xa0 build/debug/adc.o
                0x08004cdc                MX_ADC1_Init
 .text.HAL_ADC_MspInit
                0x08004d7c      0x100 build/debug/adc.o
                0x08004d7c                HAL_ADC_MspInit
 .text.MX_CORDIC_Init
                0x08004e7c       0x20 build/debug/cordic.o
                0x08004e7c                MX_CORDIC_Init
 .text.HAL_CORDIC_MspInit
                0x08004e9c       0x30 build/debug/cordic.o
                0x08004e9c                HAL_CORDIC_MspInit
 .text.MX_FMAC_Init
                0x08004ecc       0x20 build/debug/fmac.o
                0x08004ecc                MX_FMAC_Init
 .text.HAL_FMAC_MspInit
                0x08004eec       0x34 build/debug/fmac.o
                0x08004eec                HAL_FMAC_MspInit
 .text.MX_GPIO_Init
                0x08004f20      0x1a8 build/debug/gpio.o
                0x08004f20                MX_GPIO_Init
 .text.MX_I2C3_Init
                0x080050c8       0x58 build/debug/i2c.o
                0x080050c8                MX_I2C3_Init
 .text.HAL_I2C_MspInit
                0x08005120       0xa8 build/debug/i2c.o
                0x08005120                HAL_I2C_MspInit
 .text.Error_Handler
                0x080051c8        0x4 build/debug/main.o
                0x080051c8                Error_Handler
 .text.SystemClock_Config
                0x080051cc       0xa8 build/debug/main.o
                0x080051cc                SystemClock_Config
 .text.PeriphCommonClock_Config
                0x08005274       0x4c build/debug/main.o
                0x08005274                PeriphCommonClock_Config
 .text.main     0x080052c0       0x3c build/debug/main.o
                0x080052c0                main
 .text.assert_failed
                0x080052fc        0x2 build/debug/main.o
                0x080052fc                assert_failed
 *fill*         0x080052fe        0x2 
 .text.MX_SPI1_Init
                0x08005300       0x58 build/debug/spi.o
                0x08005300                MX_SPI1_Init
 .text.MX_SPI2_Init
                0x08005358       0x58 build/debug/spi.o
                0x08005358                MX_SPI2_Init
 .text.HAL_SPI_MspInit
                0x080053b0       0xc8 build/debug/spi.o
                0x080053b0                HAL_SPI_MspInit
 .text.HAL_InitTick
                0x08005478       0x50 build/debug/stm32h7xx_hal.o
                0x08005478                HAL_InitTick
 .text.HAL_Init
                0x080054c8       0x5c build/debug/stm32h7xx_hal.o
                0x080054c8                HAL_Init
 .text.HAL_IncTick
                0x08005524       0x18 build/debug/stm32h7xx_hal.o
                0x08005524                HAL_IncTick
 .text.HAL_GetTick
                0x0800553c        0xc build/debug/stm32h7xx_hal.o
                0x0800553c                HAL_GetTick
 .text.HAL_Delay
                0x08005548       0x28 build/debug/stm32h7xx_hal.o
                0x08005548                HAL_Delay
 .text.HAL_SYSCFG_AnalogSwitchConfig
                0x08005570       0x30 build/debug/stm32h7xx_hal.o
                0x08005570                HAL_SYSCFG_AnalogSwitchConfig
 .text.LL_ADC_SetOffset
                0x080055a0       0x40 build/debug/stm32h7xx_hal_adc.o
 .text.LL_ADC_SetOffsetState
                0x080055e0       0x30 build/debug/stm32h7xx_hal_adc.o
 .text.LL_ADC_REG_SetSequencerRanks
                0x08005610       0x30 build/debug/stm32h7xx_hal_adc.o
 .text.LL_ADC_SetChannelSamplingTime
                0x08005640       0x2c build/debug/stm32h7xx_hal_adc.o
 .text.LL_ADC_SetChannelSingleDiff
                0x0800566c       0x58 build/debug/stm32h7xx_hal_adc.o
 .text.LL_ADC_SetChannelPreselection
                0x080056c4       0x38 build/debug/stm32h7xx_hal_adc.o
 .text.HAL_ADC_ConfigChannel
                0x080056fc      0xac0 build/debug/stm32h7xx_hal_adc.o
                0x080056fc                HAL_ADC_ConfigChannel
 .text.ADC_ConfigureBoostMode
                0x080061bc      0x130 build/debug/stm32h7xx_hal_adc.o
                0x080061bc                ADC_ConfigureBoostMode
 .text.HAL_ADC_Init
                0x080062ec      0x648 build/debug/stm32h7xx_hal_adc.o
                0x080062ec                HAL_ADC_Init
 .text.HAL_ADCEx_MultiModeConfigChannel
                0x08006934      0x1e4 build/debug/stm32h7xx_hal_adc_ex.o
                0x08006934                HAL_ADCEx_MultiModeConfigChannel
 .text.HAL_CORDIC_Init
                0x08006b18       0x4c build/debug/stm32h7xx_hal_cordic.o
                0x08006b18                HAL_CORDIC_Init
 .text.__NVIC_EnableIRQ
                0x08006b64       0x1c build/debug/stm32h7xx_hal_cortex.o
 .text.__NVIC_SetPriority
                0x08006b80       0x24 build/debug/stm32h7xx_hal_cortex.o
 .text.NVIC_EncodePriority
                0x08006ba4       0x3e build/debug/stm32h7xx_hal_cortex.o
 *fill*         0x08006be2        0x2 
 .text.HAL_NVIC_SetPriorityGrouping
                0x08006be4       0x3c build/debug/stm32h7xx_hal_cortex.o
                0x08006be4                HAL_NVIC_SetPriorityGrouping
 .text.HAL_NVIC_SetPriority
                0x08006c20       0x48 build/debug/stm32h7xx_hal_cortex.o
                0x08006c20                HAL_NVIC_SetPriority
 .text.HAL_NVIC_EnableIRQ
                0x08006c68       0x1c build/debug/stm32h7xx_hal_cortex.o
                0x08006c68                HAL_NVIC_EnableIRQ
 .text.HAL_SYSTICK_Config
                0x08006c84       0x28 build/debug/stm32h7xx_hal_cortex.o
                0x08006c84                HAL_SYSTICK_Config
 .text.FMAC_ResetInputStateAndDataPointers
                0x08006cac       0x10 build/debug/stm32h7xx_hal_fmac.o
 .text.FMAC_ResetOutputStateAndDataPointers
                0x08006cbc       0x10 build/debug/stm32h7xx_hal_fmac.o
 .text.FMAC_ResetDataPointers
                0x08006ccc       0x10 build/debug/stm32h7xx_hal_fmac.o
 .text.FMAC_Reset
                0x08006cdc       0x3c build/debug/stm32h7xx_hal_fmac.o
 .text.HAL_FMAC_Init
                0x08006d18       0x6c build/debug/stm32h7xx_hal_fmac.o
                0x08006d18                HAL_FMAC_Init
 .text.HAL_GPIO_Init
                0x08006d84      0x37c build/debug/stm32h7xx_hal_gpio.o
                0x08006d84                HAL_GPIO_Init
 .text.HAL_GPIO_WritePin
                0x08007100       0x38 build/debug/stm32h7xx_hal_gpio.o
                0x08007100                HAL_GPIO_WritePin
 .text.I2C_Flush_TXDR
                0x08007138       0x22 build/debug/stm32h7xx_hal_i2c.o
 *fill*         0x0800715a        0x2 
 .text.I2C_TransferConfig
                0x0800715c       0xd0 build/debug/stm32h7xx_hal_i2c.o
 .text.I2C_IsErrorOccurred
                0x0800722c      0x118 build/debug/stm32h7xx_hal_i2c.o
 .text.I2C_WaitOnTXISFlagUntilTimeout
                0x08007344       0x60 build/debug/stm32h7xx_hal_i2c.o
 .text.I2C_WaitOnFlagUntilTimeout
                0x080073a4       0x7c build/debug/stm32h7xx_hal_i2c.o
 .text.I2C_RequestMemoryWrite
                0x08007420       0x7c build/debug/stm32h7xx_hal_i2c.o
 .text.I2C_RequestMemoryRead
                0x0800749c       0x78 build/debug/stm32h7xx_hal_i2c.o
 .text.I2C_WaitOnSTOPFlagUntilTimeout
                0x08007514       0x5e build/debug/stm32h7xx_hal_i2c.o
 *fill*         0x08007572        0x2 
 .text.HAL_I2C_Init
                0x08007574      0x1a0 build/debug/stm32h7xx_hal_i2c.o
                0x08007574                HAL_I2C_Init
 .text.HAL_I2C_Master_Transmit
                0x08007714      0x1a4 build/debug/stm32h7xx_hal_i2c.o
                0x08007714                HAL_I2C_Master_Transmit
 .text.HAL_I2C_Mem_Write
                0x080078b8      0x1c4 build/debug/stm32h7xx_hal_i2c.o
                0x080078b8                HAL_I2C_Mem_Write
 .text.HAL_I2C_Mem_Read
                0x08007a7c      0x1c8 build/debug/stm32h7xx_hal_i2c.o
                0x08007a7c                HAL_I2C_Mem_Read
 .text.HAL_I2CEx_ConfigAnalogFilter
                0x08007c44       0xb4 build/debug/stm32h7xx_hal_i2c_ex.o
                0x08007c44                HAL_I2CEx_ConfigAnalogFilter
 .text.HAL_I2CEx_ConfigDigitalFilter
                0x08007cf8       0xa8 build/debug/stm32h7xx_hal_i2c_ex.o
                0x08007cf8                HAL_I2CEx_ConfigDigitalFilter
 .text.HAL_MspInit
                0x08007da0       0x24 build/debug/stm32h7xx_hal_msp.o
                0x08007da0                HAL_MspInit
 .text.PCD_WriteEmptyTxFifo
                0x08007dc4       0xd0 build/debug/stm32h7xx_hal_pcd.o
 .text.HAL_PCD_Init
                0x08007e94      0x120 build/debug/stm32h7xx_hal_pcd.o
                0x08007e94                HAL_PCD_Init
 .text.HAL_PCD_Start
                0x08007fb4       0x44 build/debug/stm32h7xx_hal_pcd.o
                0x08007fb4                HAL_PCD_Start
 .text.PCD_EP_OutXfrComplete_int
                0x08007ff8      0x104 build/debug/stm32h7xx_hal_pcd.o
 .text.PCD_EP_OutSetupPacket_int
                0x080080fc       0x50 build/debug/stm32h7xx_hal_pcd.o
 .text.HAL_PCD_SetAddress
                0x0800814c       0x26 build/debug/stm32h7xx_hal_pcd.o
                0x0800814c                HAL_PCD_SetAddress
 .text.HAL_PCD_EP_Open
                0x08008172       0x8c build/debug/stm32h7xx_hal_pcd.o
                0x08008172                HAL_PCD_EP_Open
 .text.HAL_PCD_EP_Close
                0x080081fe       0x70 build/debug/stm32h7xx_hal_pcd.o
                0x080081fe                HAL_PCD_EP_Close
 .text.HAL_PCD_EP_Receive
                0x0800826e       0x4a build/debug/stm32h7xx_hal_pcd.o
                0x0800826e                HAL_PCD_EP_Receive
 .text.HAL_PCD_EP_GetRxCount
                0x080082b8       0x12 build/debug/stm32h7xx_hal_pcd.o
                0x080082b8                HAL_PCD_EP_GetRxCount
 .text.HAL_PCD_EP_Transmit
                0x080082ca       0x4a build/debug/stm32h7xx_hal_pcd.o
                0x080082ca                HAL_PCD_EP_Transmit
 .text.HAL_PCD_EP_SetStall
                0x08008314       0x86 build/debug/stm32h7xx_hal_pcd.o
                0x08008314                HAL_PCD_EP_SetStall
 .text.HAL_PCD_EP_ClrStall
                0x0800839a       0x74 build/debug/stm32h7xx_hal_pcd.o
                0x0800839a                HAL_PCD_EP_ClrStall
 .text.HAL_PCD_EP_Abort
                0x0800840e       0x34 build/debug/stm32h7xx_hal_pcd.o
                0x0800840e                HAL_PCD_EP_Abort
 .text.HAL_PCD_IRQHandler
                0x08008442      0x600 build/debug/stm32h7xx_hal_pcd.o
                0x08008442                HAL_PCD_IRQHandler
 .text.HAL_PCDEx_SetTxFiFo
                0x08008a42       0x4c build/debug/stm32h7xx_hal_pcd_ex.o
                0x08008a42                HAL_PCDEx_SetTxFiFo
 .text.HAL_PCDEx_SetRxFiFo
                0x08008a8e        0x8 build/debug/stm32h7xx_hal_pcd_ex.o
                0x08008a8e                HAL_PCDEx_SetRxFiFo
 *fill*         0x08008a96        0x2 
 .text.HAL_PCDEx_ActivateLPM
                0x08008a98       0x28 build/debug/stm32h7xx_hal_pcd_ex.o
                0x08008a98                HAL_PCDEx_ActivateLPM
 .text.HAL_PCDEx_LPM_Callback
                0x08008ac0        0x2 build/debug/stm32h7xx_hal_pcd_ex.o
                0x08008ac0                HAL_PCDEx_LPM_Callback
 *fill*         0x08008ac2        0x2 
 .text.HAL_PWREx_ConfigSupply
                0x08008ac4       0xdc build/debug/stm32h7xx_hal_pwr_ex.o
                0x08008ac4                HAL_PWREx_ConfigSupply
 .text.HAL_PWREx_EnableUSBVoltageDetector
                0x08008ba0       0x10 build/debug/stm32h7xx_hal_pwr_ex.o
                0x08008ba0                HAL_PWREx_EnableUSBVoltageDetector
 .text.HAL_RCC_OscConfig
                0x08008bb0      0x7a4 build/debug/stm32h7xx_hal_rcc.o
                0x08008bb0                HAL_RCC_OscConfig
 .text.HAL_RCC_GetSysClockFreq
                0x08009354      0x1f8 build/debug/stm32h7xx_hal_rcc.o
                0x08009354                HAL_RCC_GetSysClockFreq
 .text.HAL_RCC_ClockConfig
                0x0800954c      0x488 build/debug/stm32h7xx_hal_rcc.o
                0x0800954c                HAL_RCC_ClockConfig
 .text.HAL_RCC_GetHCLKFreq
                0x080099d4       0x44 build/debug/stm32h7xx_hal_rcc.o
                0x080099d4                HAL_RCC_GetHCLKFreq
 .text.HAL_RCC_GetPCLK1Freq
                0x08009a18       0x24 build/debug/stm32h7xx_hal_rcc.o
                0x08009a18                HAL_RCC_GetPCLK1Freq
 .text.RCCEx_PLL2_Config
                0x08009a3c      0x1bc build/debug/stm32h7xx_hal_rcc_ex.o
 .text.RCCEx_PLL3_Config
                0x08009bf8      0x1c4 build/debug/stm32h7xx_hal_rcc_ex.o
 .text.HAL_RCCEx_PeriphCLKConfig
                0x08009dbc      0xd10 build/debug/stm32h7xx_hal_rcc_ex.o
                0x08009dbc                HAL_RCCEx_PeriphCLKConfig
 .text.HAL_RCCEx_GetD3PCLK1Freq
                0x0800aacc       0x24 build/debug/stm32h7xx_hal_rcc_ex.o
                0x0800aacc                HAL_RCCEx_GetD3PCLK1Freq
 .text.HAL_RCCEx_GetPLL2ClockFreq
                0x0800aaf0      0x200 build/debug/stm32h7xx_hal_rcc_ex.o
                0x0800aaf0                HAL_RCCEx_GetPLL2ClockFreq
 .text.HAL_RCCEx_GetPLL3ClockFreq
                0x0800acf0      0x200 build/debug/stm32h7xx_hal_rcc_ex.o
                0x0800acf0                HAL_RCCEx_GetPLL3ClockFreq
 .text.HAL_RCCEx_GetPLL1ClockFreq
                0x0800aef0      0x200 build/debug/stm32h7xx_hal_rcc_ex.o
                0x0800aef0                HAL_RCCEx_GetPLL1ClockFreq
 .text.HAL_RCCEx_GetPeriphCLKFreq
                0x0800b0f0      0x608 build/debug/stm32h7xx_hal_rcc_ex.o
                0x0800b0f0                HAL_RCCEx_GetPeriphCLKFreq
 .text.SPI_GetPacketSize
                0x0800b6f8       0x10 build/debug/stm32h7xx_hal_spi.o
 .text.HAL_SPI_Init
                0x0800b708      0x368 build/debug/stm32h7xx_hal_spi.o
                0x0800b708                HAL_SPI_Init
 .text.TIM_OC5_SetConfig
                0x0800ba70       0x74 build/debug/stm32h7xx_hal_tim.o
 .text.TIM_OC6_SetConfig
                0x0800bae4       0x74 build/debug/stm32h7xx_hal_tim.o
 .text.TIM_OC1_SetConfig
                0x0800bb58      0x104 build/debug/stm32h7xx_hal_tim.o
 .text.TIM_OC3_SetConfig
                0x0800bc5c       0xf0 build/debug/stm32h7xx_hal_tim.o
 .text.TIM_OC4_SetConfig
                0x0800bd4c       0x9c build/debug/stm32h7xx_hal_tim.o
 .text.TIM_Base_SetConfig
                0x0800bde8      0x120 build/debug/stm32h7xx_hal_tim.o
                0x0800bde8                TIM_Base_SetConfig
 .text.HAL_TIM_PWM_Init
                0x0800bf08      0x198 build/debug/stm32h7xx_hal_tim.o
                0x0800bf08                HAL_TIM_PWM_Init
 .text.TIM_OC2_SetConfig
                0x0800c0a0       0xf0 build/debug/stm32h7xx_hal_tim.o
                0x0800c0a0                TIM_OC2_SetConfig
 .text.HAL_TIM_PWM_ConfigChannel
                0x0800c190      0x39c build/debug/stm32h7xx_hal_tim.o
                0x0800c190                HAL_TIM_PWM_ConfigChannel
 .text.HAL_TIMEx_MasterConfigSynchronization
                0x0800c52c      0x1d4 build/debug/stm32h7xx_hal_tim_ex.o
                0x0800c52c                HAL_TIMEx_MasterConfigSynchronization
 .text.NMI_Handler
                0x0800c700        0x2 build/debug/stm32h7xx_it.o
                0x0800c700                NMI_Handler
 .text.HardFault_Handler
                0x0800c702        0x2 build/debug/stm32h7xx_it.o
                0x0800c702                HardFault_Handler
 .text.MemManage_Handler
                0x0800c704        0x2 build/debug/stm32h7xx_it.o
                0x0800c704                MemManage_Handler
 .text.BusFault_Handler
                0x0800c706        0x2 build/debug/stm32h7xx_it.o
                0x0800c706                BusFault_Handler
 .text.UsageFault_Handler
                0x0800c708        0x2 build/debug/stm32h7xx_it.o
                0x0800c708                UsageFault_Handler
 .text.SVC_Handler
                0x0800c70a        0x2 build/debug/stm32h7xx_it.o
                0x0800c70a                SVC_Handler
 .text.DebugMon_Handler
                0x0800c70c        0x2 build/debug/stm32h7xx_it.o
                0x0800c70c                DebugMon_Handler
 .text.PendSV_Handler
                0x0800c70e        0x2 build/debug/stm32h7xx_it.o
                0x0800c70e                PendSV_Handler
 .text.SysTick_Handler
                0x0800c710        0x8 build/debug/stm32h7xx_it.o
                0x0800c710                SysTick_Handler
 .text.OTG_HS_EP1_OUT_IRQHandler
                0x0800c718       0x10 build/debug/stm32h7xx_it.o
                0x0800c718                OTG_HS_EP1_OUT_IRQHandler
 .text.OTG_HS_EP1_IN_IRQHandler
                0x0800c728       0x10 build/debug/stm32h7xx_it.o
                0x0800c728                OTG_HS_EP1_IN_IRQHandler
 .text.OTG_HS_IRQHandler
                0x0800c738       0x10 build/debug/stm32h7xx_it.o
                0x0800c738                OTG_HS_IRQHandler
 .text.USB_CoreReset
                0x0800c748       0x4a build/debug/stm32h7xx_ll_usb.o
 *fill*         0x0800c792        0x2 
 .text.USB_CoreInit
                0x0800c794       0xa4 build/debug/stm32h7xx_ll_usb.o
                0x0800c794                USB_CoreInit
 .text.USB_SetTurnaroundTime
                0x0800c838       0xe4 build/debug/stm32h7xx_ll_usb.o
                0x0800c838                USB_SetTurnaroundTime
 .text.USB_EnableGlobalInt
                0x0800c91c        0xc build/debug/stm32h7xx_ll_usb.o
                0x0800c91c                USB_EnableGlobalInt
 .text.USB_DisableGlobalInt
                0x0800c928        0xc build/debug/stm32h7xx_ll_usb.o
                0x0800c928                USB_DisableGlobalInt
 .text.USB_FlushTxFifo
                0x0800c934       0x4a build/debug/stm32h7xx_ll_usb.o
                0x0800c934                USB_FlushTxFifo
 .text.USB_FlushRxFifo
                0x0800c97e       0x46 build/debug/stm32h7xx_ll_usb.o
                0x0800c97e                USB_FlushRxFifo
 .text.USB_SetDevSpeed
                0x0800c9c4        0xe build/debug/stm32h7xx_ll_usb.o
                0x0800c9c4                USB_SetDevSpeed
 *fill*         0x0800c9d2        0x2 
 .text.USB_DevInit
                0x0800c9d4      0x18c build/debug/stm32h7xx_ll_usb.o
                0x0800c9d4                USB_DevInit
 .text.USB_GetDevSpeed
                0x0800cb60       0x22 build/debug/stm32h7xx_ll_usb.o
                0x0800cb60                USB_GetDevSpeed
 *fill*         0x0800cb82        0x2 
 .text.USB_ActivateEndpoint
                0x0800cb84       0x98 build/debug/stm32h7xx_ll_usb.o
                0x0800cb84                USB_ActivateEndpoint
 .text.USB_DeactivateEndpoint
                0x0800cc1c       0xe0 build/debug/stm32h7xx_ll_usb.o
                0x0800cc1c                USB_DeactivateEndpoint
 .text.USB_EPStopXfer
                0x0800ccfc       0xbe build/debug/stm32h7xx_ll_usb.o
                0x0800ccfc                USB_EPStopXfer
 .text.USB_WritePacket
                0x0800cdba       0x2e build/debug/stm32h7xx_ll_usb.o
                0x0800cdba                USB_WritePacket
 .text.USB_EPStartXfer
                0x0800cde8      0x244 build/debug/stm32h7xx_ll_usb.o
                0x0800cde8                USB_EPStartXfer
 .text.USB_ReadPacket
                0x0800d02c       0x46 build/debug/stm32h7xx_ll_usb.o
                0x0800d02c                USB_ReadPacket
 .text.USB_EPSetStall
                0x0800d072       0x5a build/debug/stm32h7xx_ll_usb.o
                0x0800d072                USB_EPSetStall
 .text.USB_EPClearStall
                0x0800d0cc       0x5c build/debug/stm32h7xx_ll_usb.o
                0x0800d0cc                USB_EPClearStall
 .text.USB_SetDevAddress
                0x0800d128       0x20 build/debug/stm32h7xx_ll_usb.o
                0x0800d128                USB_SetDevAddress
 .text.USB_DevConnect
                0x0800d148       0x1c build/debug/stm32h7xx_ll_usb.o
                0x0800d148                USB_DevConnect
 .text.USB_DevDisconnect
                0x0800d164       0x1c build/debug/stm32h7xx_ll_usb.o
                0x0800d164                USB_DevDisconnect
 .text.USB_ReadInterrupts
                0x0800d180        0x8 build/debug/stm32h7xx_ll_usb.o
                0x0800d180                USB_ReadInterrupts
 .text.USB_ReadDevAllOutEpInterrupt
                0x0800d188       0x10 build/debug/stm32h7xx_ll_usb.o
                0x0800d188                USB_ReadDevAllOutEpInterrupt
 .text.USB_ReadDevAllInEpInterrupt
                0x0800d198       0x10 build/debug/stm32h7xx_ll_usb.o
                0x0800d198                USB_ReadDevAllInEpInterrupt
 .text.USB_ReadDevOutEPInterrupt
                0x0800d1a8       0x12 build/debug/stm32h7xx_ll_usb.o
                0x0800d1a8                USB_ReadDevOutEPInterrupt
 .text.USB_ReadDevInEPInterrupt
                0x0800d1ba       0x24 build/debug/stm32h7xx_ll_usb.o
                0x0800d1ba                USB_ReadDevInEPInterrupt
 .text.USB_GetMode
                0x0800d1de        0x8 build/debug/stm32h7xx_ll_usb.o
                0x0800d1de                USB_GetMode
 .text.USB_SetCurrentMode
                0x0800d1e6       0x62 build/debug/stm32h7xx_ll_usb.o
                0x0800d1e6                USB_SetCurrentMode
 .text.USB_ActivateSetup
                0x0800d248       0x1c build/debug/stm32h7xx_ll_usb.o
                0x0800d248                USB_ActivateSetup
 .text.USB_EP0_OutStart
                0x0800d264       0x60 build/debug/stm32h7xx_ll_usb.o
                0x0800d264                USB_EP0_OutStart
 .text._getpid  0x0800d2c4        0x4 build/debug/syscalls.o
                0x0800d2c4                _getpid
 .text._kill    0x0800d2c8       0x10 build/debug/syscalls.o
                0x0800d2c8                _kill
 .text._exit    0x0800d2d8        0xc build/debug/syscalls.o
                0x0800d2d8                _exit
 .text._read    0x0800d2e4       0x20 build/debug/syscalls.o
                0x0800d2e4                _read
 .text._write   0x0800d304       0x1c build/debug/syscalls.o
                0x0800d304                _write
 .text._close   0x0800d320        0x6 build/debug/syscalls.o
                0x0800d320                _close
 .text._fstat   0x0800d326        0xa build/debug/syscalls.o
                0x0800d326                _fstat
 .text._isatty  0x0800d330        0x4 build/debug/syscalls.o
                0x0800d330                _isatty
 .text._lseek   0x0800d334        0x4 build/debug/syscalls.o
                0x0800d334                _lseek
 .text._sbrk    0x0800d338       0x48 build/debug/sysmem.o
                0x0800d338                _sbrk
 .text.SystemInit
                0x0800d380       0xd0 build/debug/system_stm32h7xx.o
                0x0800d380                SystemInit
 .text.ExitRun0Mode
                0x0800d450       0x1c build/debug/system_stm32h7xx.o
                0x0800d450                ExitRun0Mode
 .text.HAL_TIM_PWM_MspInit
                0x0800d46c       0x54 build/debug/tim.o
                0x0800d46c                HAL_TIM_PWM_MspInit
 .text.HAL_TIM_MspPostInit
                0x0800d4c0       0x98 build/debug/tim.o
                0x0800d4c0                HAL_TIM_MspPostInit
 .text.MX_TIM2_Init
                0x0800d558       0x80 build/debug/tim.o
                0x0800d558                MX_TIM2_Init
 .text.MX_TIM4_Init
                0x0800d5d8       0xb8 build/debug/tim.o
                0x0800d5d8                MX_TIM4_Init
 .text.MX_USB_DEVICE_Init
                0x0800d690       0x58 build/debug/usb_device.o
                0x0800d690                MX_USB_DEVICE_Init
 .text.USBD_CDC_EP0_RxReady
                0x0800d6e8       0x40 build/debug/usbd_cdc.o
 .text.USBD_CDC_GetDeviceQualifierDescriptor
                0x0800d728        0xc build/debug/usbd_cdc.o
                0x0800d728                USBD_CDC_GetDeviceQualifierDescriptor
 .text.USBD_CDC_GetOtherSpeedCfgDesc
                0x0800d734       0x48 build/debug/usbd_cdc.o
 .text.USBD_CDC_GetFSCfgDesc
                0x0800d77c       0x48 build/debug/usbd_cdc.o
 .text.USBD_CDC_GetHSCfgDesc
                0x0800d7c4       0x48 build/debug/usbd_cdc.o
 .text.USBD_CDC_DataOut
                0x0800d80c       0x38 build/debug/usbd_cdc.o
 .text.USBD_CDC_DataIn
                0x0800d844       0x7c build/debug/usbd_cdc.o
 .text.USBD_CDC_Setup
                0x0800d8c0      0x11a build/debug/usbd_cdc.o
 .text.USBD_CDC_DeInit
                0x0800d9da       0x64 build/debug/usbd_cdc.o
 .text.USBD_CDC_Init
                0x0800da3e       0xee build/debug/usbd_cdc.o
 .text.USBD_CDC_RegisterInterface
                0x0800db2c       0x16 build/debug/usbd_cdc.o
                0x0800db2c                USBD_CDC_RegisterInterface
 .text.USBD_CDC_SetTxBuffer
                0x0800db42       0x1c build/debug/usbd_cdc.o
                0x0800db42                USBD_CDC_SetTxBuffer
 .text.USBD_CDC_SetRxBuffer
                0x0800db5e       0x18 build/debug/usbd_cdc.o
                0x0800db5e                USBD_CDC_SetRxBuffer
 .text.USBD_CDC_TransmitPacket
                0x0800db76       0x36 build/debug/usbd_cdc.o
                0x0800db76                USBD_CDC_TransmitPacket
 .text.USBD_CDC_ReceivePacket
                0x0800dbac       0x38 build/debug/usbd_cdc.o
                0x0800dbac                USBD_CDC_ReceivePacket
 .text.CDC_DeInit_HS
                0x0800dbe4        0x4 build/debug/usbd_cdc_if.o
 .text.CDC_Control_HS
                0x0800dbe8       0x54 build/debug/usbd_cdc_if.o
 .text.CDC_TransmitCplt_HS
                0x0800dc3c        0x4 build/debug/usbd_cdc_if.o
 .text.CDC_Receive_HS
                0x0800dc40       0x1c build/debug/usbd_cdc_if.o
 .text.CDC_Init_HS
                0x0800dc5c       0x28 build/debug/usbd_cdc_if.o
 .text.CDC_Transmit_HS
                0x0800dc84       0x2c build/debug/usbd_cdc_if.o
                0x0800dc84                CDC_Transmit_HS
 .text.HAL_PCD_MspInit
                0x0800dcb0       0x94 build/debug/usbd_conf.o
                0x0800dcb0                HAL_PCD_MspInit
 .text.HAL_PCD_SetupStageCallback
                0x0800dd44       0x10 build/debug/usbd_conf.o
                0x0800dd44                HAL_PCD_SetupStageCallback
 .text.HAL_PCD_DataOutStageCallback
                0x0800dd54       0x18 build/debug/usbd_conf.o
                0x0800dd54                HAL_PCD_DataOutStageCallback
 .text.HAL_PCD_DataInStageCallback
                0x0800dd6c       0x16 build/debug/usbd_conf.o
                0x0800dd6c                HAL_PCD_DataInStageCallback
 .text.HAL_PCD_SOFCallback
                0x0800dd82        0xc build/debug/usbd_conf.o
                0x0800dd82                HAL_PCD_SOFCallback
 .text.HAL_PCD_ResetCallback
                0x0800dd8e       0x28 build/debug/usbd_conf.o
                0x0800dd8e                HAL_PCD_ResetCallback
 *fill*         0x0800ddb6        0x2 
 .text.HAL_PCD_SuspendCallback
                0x0800ddb8       0x30 build/debug/usbd_conf.o
                0x0800ddb8                HAL_PCD_SuspendCallback
 .text.HAL_PCD_ResumeCallback
                0x0800dde8        0xc build/debug/usbd_conf.o
                0x0800dde8                HAL_PCD_ResumeCallback
 .text.HAL_PCD_ISOOUTIncompleteCallback
                0x0800ddf4        0xc build/debug/usbd_conf.o
                0x0800ddf4                HAL_PCD_ISOOUTIncompleteCallback
 .text.HAL_PCD_ISOINIncompleteCallback
                0x0800de00        0xc build/debug/usbd_conf.o
                0x0800de00                HAL_PCD_ISOINIncompleteCallback
 .text.HAL_PCD_ConnectCallback
                0x0800de0c        0xc build/debug/usbd_conf.o
                0x0800de0c                HAL_PCD_ConnectCallback
 .text.HAL_PCD_DisconnectCallback
                0x0800de18        0xc build/debug/usbd_conf.o
                0x0800de18                HAL_PCD_DisconnectCallback
 .text.USBD_LL_Init
                0x0800de24       0x70 build/debug/usbd_conf.o
                0x0800de24                USBD_LL_Init
 .text.USBD_LL_IsStallEP
                0x0800de94       0x2c build/debug/usbd_conf.o
                0x0800de94                USBD_LL_IsStallEP
 .text.USBD_LL_GetRxDataSize
                0x0800dec0        0xc build/debug/usbd_conf.o
                0x0800dec0                USBD_LL_GetRxDataSize
 .text.USBD_static_malloc
                0x0800decc        0x8 build/debug/usbd_conf.o
                0x0800decc                USBD_static_malloc
 .text.USBD_static_free
                0x0800ded4        0x2 build/debug/usbd_conf.o
                0x0800ded4                USBD_static_free
 .text.USBD_Get_USB_Status
                0x0800ded6       0x14 build/debug/usbd_conf.o
                0x0800ded6                USBD_Get_USB_Status
 .text.USBD_LL_Start
                0x0800deea       0x10 build/debug/usbd_conf.o
                0x0800deea                USBD_LL_Start
 .text.USBD_LL_OpenEP
                0x0800defa       0x16 build/debug/usbd_conf.o
                0x0800defa                USBD_LL_OpenEP
 .text.USBD_LL_CloseEP
                0x0800df10       0x10 build/debug/usbd_conf.o
                0x0800df10                USBD_LL_CloseEP
 .text.USBD_LL_StallEP
                0x0800df20       0x10 build/debug/usbd_conf.o
                0x0800df20                USBD_LL_StallEP
 .text.USBD_LL_ClearStallEP
                0x0800df30       0x10 build/debug/usbd_conf.o
                0x0800df30                USBD_LL_ClearStallEP
 .text.USBD_LL_SetUSBAddress
                0x0800df40       0x10 build/debug/usbd_conf.o
                0x0800df40                USBD_LL_SetUSBAddress
 .text.USBD_LL_Transmit
                0x0800df50       0x10 build/debug/usbd_conf.o
                0x0800df50                USBD_LL_Transmit
 .text.USBD_LL_PrepareReceive
                0x0800df60       0x10 build/debug/usbd_conf.o
                0x0800df60                USBD_LL_PrepareReceive
 .text.USBD_Init
                0x0800df70       0x2e build/debug/usbd_core.o
                0x0800df70                USBD_Init
 .text.USBD_RegisterClass
                0x0800df9e       0x34 build/debug/usbd_core.o
                0x0800df9e                USBD_RegisterClass
 .text.USBD_Start
                0x0800dfd2        0x8 build/debug/usbd_core.o
                0x0800dfd2                USBD_Start
 .text.USBD_SetClassConfig
                0x0800dfda       0x12 build/debug/usbd_core.o
                0x0800dfda                USBD_SetClassConfig
 .text.USBD_ClrClassConfig
                0x0800dfec       0x12 build/debug/usbd_core.o
                0x0800dfec                USBD_ClrClassConfig
 .text.USBD_LL_SetupStage
                0x0800dffe       0x58 build/debug/usbd_core.o
                0x0800dffe                USBD_LL_SetupStage
 .text.USBD_LL_Reset
                0x0800e056       0x64 build/debug/usbd_core.o
                0x0800e056                USBD_LL_Reset
 .text.USBD_LL_SetSpeed
                0x0800e0ba        0x6 build/debug/usbd_core.o
                0x0800e0ba                USBD_LL_SetSpeed
 .text.USBD_LL_Suspend
                0x0800e0c0       0x1e build/debug/usbd_core.o
                0x0800e0c0                USBD_LL_Suspend
 .text.USBD_LL_Resume
                0x0800e0de       0x1a build/debug/usbd_core.o
                0x0800e0de                USBD_LL_Resume
 .text.USBD_LL_SOF
                0x0800e0f8       0x22 build/debug/usbd_core.o
                0x0800e0f8                USBD_LL_SOF
 .text.USBD_LL_IsoINIncomplete
                0x0800e11a       0x2e build/debug/usbd_core.o
                0x0800e11a                USBD_LL_IsoINIncomplete
 .text.USBD_LL_IsoOUTIncomplete
                0x0800e148       0x2e build/debug/usbd_core.o
                0x0800e148                USBD_LL_IsoOUTIncomplete
 .text.USBD_LL_DevConnected
                0x0800e176        0x4 build/debug/usbd_core.o
                0x0800e176                USBD_LL_DevConnected
 .text.USBD_LL_DevDisconnected
                0x0800e17a       0x20 build/debug/usbd_core.o
                0x0800e17a                USBD_LL_DevDisconnected
 .text.USBD_CoreFindIF
                0x0800e19a        0x4 build/debug/usbd_core.o
                0x0800e19a                USBD_CoreFindIF
 .text.USBD_CoreFindEP
                0x0800e19e        0x4 build/debug/usbd_core.o
                0x0800e19e                USBD_CoreFindEP
 .text.USBD_LL_DataOutStage
                0x0800e1a2       0xc4 build/debug/usbd_core.o
                0x0800e1a2                USBD_LL_DataOutStage
 .text.USBD_LL_DataInStage
                0x0800e266       0xd6 build/debug/usbd_core.o
                0x0800e266                USBD_LL_DataInStage
 .text.USBD_GetNextDesc
                0x0800e33c        0xe build/debug/usbd_core.o
                0x0800e33c                USBD_GetNextDesc
 .text.USBD_GetEpDesc
                0x0800e34a       0x3e build/debug/usbd_core.o
                0x0800e34a                USBD_GetEpDesc
 .text.USBD_GetLen
                0x0800e388       0x14 build/debug/usbd_ctlreq.o
 .text.USBD_ParseSetupRequest
                0x0800e39c       0x28 build/debug/usbd_ctlreq.o
                0x0800e39c                USBD_ParseSetupRequest
 .text.USBD_CtlError
                0x0800e3c4       0x14 build/debug/usbd_ctlreq.o
                0x0800e3c4                USBD_CtlError
 .text.USBD_GetDescriptor
                0x0800e3d8      0x18a build/debug/usbd_ctlreq.o
 .text.USBD_SetAddress
                0x0800e562       0x50 build/debug/usbd_ctlreq.o
 *fill*         0x0800e5b2        0x2 
 .text.USBD_SetConfig
                0x0800e5b4       0xcc build/debug/usbd_ctlreq.o
 .text.USBD_GetConfig
                0x0800e680       0x40 build/debug/usbd_ctlreq.o
 .text.USBD_GetStatus
                0x0800e6c0       0x38 build/debug/usbd_ctlreq.o
 .text.USBD_SetFeature
                0x0800e6f8       0x2a build/debug/usbd_ctlreq.o
 .text.USBD_ClrFeature
                0x0800e722       0x26 build/debug/usbd_ctlreq.o
 .text.USBD_StdDevReq
                0x0800e748       0x76 build/debug/usbd_ctlreq.o
                0x0800e748                USBD_StdDevReq
 .text.USBD_StdItfReq
                0x0800e7be       0x84 build/debug/usbd_ctlreq.o
                0x0800e7be                USBD_StdItfReq
 .text.USBD_StdEPReq
                0x0800e842      0x232 build/debug/usbd_ctlreq.o
                0x0800e842                USBD_StdEPReq
 .text.USBD_GetString
                0x0800ea74       0x46 build/debug/usbd_ctlreq.o
                0x0800ea74                USBD_GetString
 *fill*         0x0800eaba        0x2 
 .text.USBD_HS_DeviceDescriptor
                0x0800eabc        0xc build/debug/usbd_desc.o
                0x0800eabc                USBD_HS_DeviceDescriptor
 .text.USBD_HS_LangIDStrDescriptor
                0x0800eac8        0xc build/debug/usbd_desc.o
                0x0800eac8                USBD_HS_LangIDStrDescriptor
 .text.IntToUnicode
                0x0800ead4       0x46 build/debug/usbd_desc.o
 *fill*         0x0800eb1a        0x2 
 .text.Get_SerialNum
                0x0800eb1c       0x38 build/debug/usbd_desc.o
 .text.USBD_HS_SerialStrDescriptor
                0x0800eb54       0x14 build/debug/usbd_desc.o
                0x0800eb54                USBD_HS_SerialStrDescriptor
 .text.USBD_HS_ProductStrDescriptor
                0x0800eb68       0x24 build/debug/usbd_desc.o
                0x0800eb68                USBD_HS_ProductStrDescriptor
 .text.USBD_HS_ManufacturerStrDescriptor
                0x0800eb8c       0x1c build/debug/usbd_desc.o
                0x0800eb8c                USBD_HS_ManufacturerStrDescriptor
 .text.USBD_HS_ConfigStrDescriptor
                0x0800eba8       0x24 build/debug/usbd_desc.o
                0x0800eba8                USBD_HS_ConfigStrDescriptor
 .text.USBD_HS_InterfaceStrDescriptor
                0x0800ebcc       0x24 build/debug/usbd_desc.o
                0x0800ebcc                USBD_HS_InterfaceStrDescriptor
 .text.USBD_CtlSendData
                0x0800ebf0       0x1a build/debug/usbd_ioreq.o
                0x0800ebf0                USBD_CtlSendData
 .text.USBD_CtlContinueSendData
                0x0800ec0a       0x10 build/debug/usbd_ioreq.o
                0x0800ec0a                USBD_CtlContinueSendData
 .text.USBD_CtlPrepareRx
                0x0800ec1a       0x1e build/debug/usbd_ioreq.o
                0x0800ec1a                USBD_CtlPrepareRx
 .text.USBD_CtlContinueRx
                0x0800ec38       0x10 build/debug/usbd_ioreq.o
                0x0800ec38                USBD_CtlContinueRx
 .text.USBD_CtlSendStatus
                0x0800ec48       0x16 build/debug/usbd_ioreq.o
                0x0800ec48                USBD_CtlSendStatus
 .text.USBD_CtlReceiveStatus
                0x0800ec5e       0x16 build/debug/usbd_ioreq.o
                0x0800ec5e                USBD_CtlReceiveStatus
 .text.Reset_Handler
                0x0800ec74       0x54 build/debug/startup_stm32h725xx.o
                0x0800ec74                Reset_Handler
 .text.Default_Handler
                0x0800ecc8        0x2 build/debug/startup_stm32h725xx.o
                0x0800ecc8                RTC_Alarm_IRQHandler
                0x0800ecc8                EXTI2_IRQHandler
                0x0800ecc8                TIM8_CC_IRQHandler
                0x0800ecc8                UART8_IRQHandler
                0x0800ecc8                SPI4_IRQHandler
                0x0800ecc8                FDCAN3_IT0_IRQHandler
                0x0800ecc8                TIM1_CC_IRQHandler
                0x0800ecc8                BDMA_Channel6_IRQHandler
                0x0800ecc8                DMA2_Stream5_IRQHandler
                0x0800ecc8                DMA1_Stream5_IRQHandler
                0x0800ecc8                CORDIC_IRQHandler
                0x0800ecc8                BDMA_Channel1_IRQHandler
                0x0800ecc8                TAMP_STAMP_IRQHandler
                0x0800ecc8                EXTI3_IRQHandler
                0x0800ecc8                LPTIM4_IRQHandler
                0x0800ecc8                TIM8_TRG_COM_TIM14_IRQHandler
                0x0800ecc8                LPTIM2_IRQHandler
                0x0800ecc8                DFSDM1_FLT1_IRQHandler
                0x0800ecc8                DMAMUX2_OVR_IRQHandler
                0x0800ecc8                TIM8_UP_TIM13_IRQHandler
                0x0800ecc8                I2C3_ER_IRQHandler
                0x0800ecc8                DFSDM1_FLT2_IRQHandler
                0x0800ecc8                I2C5_EV_IRQHandler
                0x0800ecc8                USART10_IRQHandler
                0x0800ecc8                MDMA_IRQHandler
                0x0800ecc8                LPTIM3_IRQHandler
                0x0800ecc8                HSEM1_IRQHandler
                0x0800ecc8                EXTI0_IRQHandler
                0x0800ecc8                I2C2_EV_IRQHandler
                0x0800ecc8                DMA1_Stream2_IRQHandler
                0x0800ecc8                FPU_IRQHandler
                0x0800ecc8                OTG_HS_WKUP_IRQHandler
                0x0800ecc8                FDCAN1_IT1_IRQHandler
                0x0800ecc8                LTDC_ER_IRQHandler
                0x0800ecc8                DMA2_Stream2_IRQHandler
                0x0800ecc8                SPI1_IRQHandler
                0x0800ecc8                OCTOSPI1_IRQHandler
                0x0800ecc8                TIM6_DAC_IRQHandler
                0x0800ecc8                DMA2_Stream3_IRQHandler
                0x0800ecc8                OCTOSPI2_IRQHandler
                0x0800ecc8                DFSDM1_FLT3_IRQHandler
                0x0800ecc8                TIM23_IRQHandler
                0x0800ecc8                USART6_IRQHandler
                0x0800ecc8                TIM17_IRQHandler
                0x0800ecc8                USART3_IRQHandler
                0x0800ecc8                BDMA_Channel7_IRQHandler
                0x0800ecc8                LPTIM5_IRQHandler
                0x0800ecc8                UART5_IRQHandler
                0x0800ecc8                ADC3_IRQHandler
                0x0800ecc8                DMA2_Stream0_IRQHandler
                0x0800ecc8                TIM4_IRQHandler
                0x0800ecc8                BDMA_Channel2_IRQHandler
                0x0800ecc8                I2C1_EV_IRQHandler
                0x0800ecc8                DMA1_Stream6_IRQHandler
                0x0800ecc8                DMAMUX1_OVR_IRQHandler
                0x0800ecc8                DMA1_Stream1_IRQHandler
                0x0800ecc8                TIM16_IRQHandler
                0x0800ecc8                UART4_IRQHandler
                0x0800ecc8                BDMA_Channel5_IRQHandler
                0x0800ecc8                TIM3_IRQHandler
                0x0800ecc8                RCC_IRQHandler
                0x0800ecc8                UART9_IRQHandler
                0x0800ecc8                TIM8_BRK_TIM12_IRQHandler
                0x0800ecc8                TIM1_TRG_COM_IRQHandler
                0x0800ecc8                Default_Handler
                0x0800ecc8                ECC_IRQHandler
                0x0800ecc8                FMAC_IRQHandler
                0x0800ecc8                CEC_IRQHandler
                0x0800ecc8                EXTI15_10_IRQHandler
                0x0800ecc8                BDMA_Channel0_IRQHandler
                0x0800ecc8                ADC_IRQHandler
                0x0800ecc8                I2C5_ER_IRQHandler
                0x0800ecc8                DMA1_Stream7_IRQHandler
                0x0800ecc8                SPI5_IRQHandler
                0x0800ecc8                TIM7_IRQHandler
                0x0800ecc8                FDCAN3_IT1_IRQHandler
                0x0800ecc8                SDMMC1_IRQHandler
                0x0800ecc8                TIM5_IRQHandler
                0x0800ecc8                DMA2_Stream7_IRQHandler
                0x0800ecc8                TIM15_IRQHandler
                0x0800ecc8                PVD_AVD_IRQHandler
                0x0800ecc8                I2C3_EV_IRQHandler
                0x0800ecc8                EXTI9_5_IRQHandler
                0x0800ecc8                RTC_WKUP_IRQHandler
                0x0800ecc8                LTDC_IRQHandler
                0x0800ecc8                ETH_WKUP_IRQHandler
                0x0800ecc8                SPDIF_RX_IRQHandler
                0x0800ecc8                SPI2_IRQHandler
                0x0800ecc8                DMA1_Stream0_IRQHandler
                0x0800ecc8                TIM24_IRQHandler
                0x0800ecc8                CRS_IRQHandler
                0x0800ecc8                EXTI4_IRQHandler
                0x0800ecc8                RNG_IRQHandler
                0x0800ecc8                FDCAN2_IT1_IRQHandler
                0x0800ecc8                ETH_IRQHandler
                0x0800ecc8                TIM1_UP_IRQHandler
                0x0800ecc8                BDMA_Channel4_IRQHandler
                0x0800ecc8                WWDG_IRQHandler
                0x0800ecc8                SPI6_IRQHandler
                0x0800ecc8                MDIOS_IRQHandler
                0x0800ecc8                I2C4_EV_IRQHandler
                0x0800ecc8                FDCAN2_IT0_IRQHandler
                0x0800ecc8                LPUART1_IRQHandler
                0x0800ecc8                FDCAN1_IT0_IRQHandler
                0x0800ecc8                TIM2_IRQHandler
                0x0800ecc8                DMA2D_IRQHandler
                0x0800ecc8                TIM1_BRK_IRQHandler
                0x0800ecc8                EXTI1_IRQHandler
                0x0800ecc8                SDMMC2_IRQHandler
                0x0800ecc8                BDMA_Channel3_IRQHandler
                0x0800ecc8                DTS_IRQHandler
                0x0800ecc8                UART7_IRQHandler
                0x0800ecc8                MDIOS_WKUP_IRQHandler
                0x0800ecc8                USART2_IRQHandler
                0x0800ecc8                DFSDM1_FLT0_IRQHandler
                0x0800ecc8                SAI4_IRQHandler
                0x0800ecc8                I2C2_ER_IRQHandler
                0x0800ecc8                DMA2_Stream1_IRQHandler
                0x0800ecc8                FLASH_IRQHandler
                0x0800ecc8                DMA2_Stream4_IRQHandler
                0x0800ecc8                USART1_IRQHandler
                0x0800ecc8                SPI3_IRQHandler
                0x0800ecc8                WAKEUP_PIN_IRQHandler
                0x0800ecc8                DMA1_Stream4_IRQHandler
                0x0800ecc8                I2C1_ER_IRQHandler
                0x0800ecc8                FMC_IRQHandler
                0x0800ecc8                FDCAN_CAL_IRQHandler
                0x0800ecc8                SWPMI1_IRQHandler
                0x0800ecc8                COMP1_IRQHandler
                0x0800ecc8                LPTIM1_IRQHandler
                0x0800ecc8                DCMI_PSSI_IRQHandler
                0x0800ecc8                I2C4_ER_IRQHandler
                0x0800ecc8                DMA2_Stream6_IRQHandler
                0x0800ecc8                SAI1_IRQHandler
                0x0800ecc8                DMA1_Stream3_IRQHandler
 *(.glue_7)
 .glue_7        0x0800ecca        0x0 linker stubs
 *(.glue_7t)
 .glue_7t       0x0800ecca        0x0 linker stubs
 *(.eh_frame)
 *fill*         0x0800ecca        0x2 
 .eh_frame      0x0800eccc        0x0 /usr/lib/gcc/arm-none-eabi/13.2.1/thumb/v7e-m+dp/hard/crtbegin.o
 *(.init)
 .init          0x0800eccc        0x4 /usr/lib/gcc/arm-none-eabi/13.2.1/thumb/v7e-m+dp/hard/crti.o
                0x0800eccc                _init
 .init          0x0800ecd0        0x8 /usr/lib/gcc/arm-none-eabi/13.2.1/thumb/v7e-m+dp/hard/crtn.o
 *(.fini)
 .fini          0x0800ecd8        0x4 /usr/lib/gcc/arm-none-eabi/13.2.1/thumb/v7e-m+dp/hard/crti.o
                0x0800ecd8                _fini
 .fini          0x0800ecdc        0x8 /usr/lib/gcc/arm-none-eabi/13.2.1/thumb/v7e-m+dp/hard/crtn.o
                0x0800ece4                        . = ALIGN (0x4)
                0x0800ece4                        _etext = .

.vfp11_veneer   0x0800ece4        0x0
 .vfp11_veneer  0x0800ece4        0x0 linker stubs

.v4_bx          0x0800ece4        0x0
 .v4_bx         0x0800ece4        0x0 linker stubs

.iplt           0x0800ece4        0x0
 .iplt          0x0800ece4        0x0 /usr/lib/gcc/arm-none-eabi/13.2.1/thumb/v7e-m+dp/hard/crtbegin.o

.rodata         0x0800ece8     0x2050
                0x0800ece8                        . = ALIGN (0x4)
 *(.rodata)
 .rodata        0x0800ece8      0x870 /usr/lib/gcc/arm-none-eabi/13.2.1/../../../arm-none-eabi/lib/thumb/v7e-m+dp/hard/libm.a(libm_a-exp_data.o)
                0x0800ece8                __exp_data
 .rodata        0x0800f558     0x1048 /usr/lib/gcc/arm-none-eabi/13.2.1/../../../arm-none-eabi/lib/thumb/v7e-m+dp/hard/libm.a(libm_a-pow_log_data.o)
                0x0800f558                __pow_log_data
 .rodata        0x080105a0      0x128 /usr/lib/gcc/arm-none-eabi/13.2.1/../../../arm-none-eabi/lib/thumb/v7e-m+dp/hard/libc_nano.a(libc_a-mprec.o)
                0x080105b0                __mprec_tens
                0x08010678                __mprec_tinytens
                0x080106a0                __mprec_bigtens
 .rodata        0x080106c8      0x101 /usr/lib/gcc/arm-none-eabi/13.2.1/../../../arm-none-eabi/lib/thumb/v7e-m+dp/hard/libc_nano.a(libc_a-ctype_.o)
                0x080106c8                _ctype_
 *(.rodata*)
 *fill*         0x080107c9        0x3 
 .rodata.HAL_SetTickFreq.str1.4
                0x080107cc      0x55b build/debug/stm32h7xx_hal.o
                                 0x31 (size before relaxing)
 .rodata.HAL_ADC_PollForConversion.str1.4
                0x08010d27       0x35 build/debug/stm32h7xx_hal_adc.o
 .rodata.HAL_ADCEx_Calibration_Start.str1.4
                0x08010d27       0x38 build/debug/stm32h7xx_hal_adc_ex.o
 .rodata.HAL_CORDIC_Init.str1.4
                0x08010d27       0x38 build/debug/stm32h7xx_hal_cordic.o
 .rodata.HAL_NVIC_SetPriorityGrouping.str1.4
                0x08010d27       0x38 build/debug/stm32h7xx_hal_cortex.o
 .rodata.FMAC_FilterConfig.str1.4
                0x08010d27       0x36 build/debug/stm32h7xx_hal_fmac.o
 .rodata.HAL_GPIO_Init.str1.4
                0x08010d27       0x36 build/debug/stm32h7xx_hal_gpio.o
 .rodata.I2C_TransferConfig.str1.4
                0x08010d27       0x35 build/debug/stm32h7xx_hal_i2c.o
 .rodata.HAL_I2CEx_ConfigAnalogFilter.str1.4
                0x08010d27       0x38 build/debug/stm32h7xx_hal_i2c_ex.o
 .rodata.HAL_PCD_Init.str1.4
                0x08010d27       0x35 build/debug/stm32h7xx_hal_pcd.o
 .rodata.HAL_PWREx_ConfigSupply.str1.4
                0x08010d27       0x38 build/debug/stm32h7xx_hal_pwr_ex.o
 .rodata.HAL_RCC_OscConfig.str1.4
                0x08010d27       0x35 build/debug/stm32h7xx_hal_rcc.o
 .rodata.RCCEx_PLL2_Config.str1.4
                0x08010d27       0x38 build/debug/stm32h7xx_hal_rcc_ex.o
 .rodata.HAL_SPI_Init.str1.4
                0x08010d27       0x35 build/debug/stm32h7xx_hal_spi.o
 .rodata.TIM_OC1_SetConfig.str1.4
                0x08010d27       0x35 build/debug/stm32h7xx_hal_tim.o
 .rodata.HAL_TIMEx_HallSensor_Init.str1.4
                0x08010d27       0x38 build/debug/stm32h7xx_hal_tim_ex.o
 *fill*         0x08010d27        0x1 
 .rodata.D1CorePrescTable
                0x08010d28       0x10 build/debug/system_stm32h7xx.o
                0x08010d28                D1CorePrescTable
 .rodata.USBD_HS_ProductStrDescriptor.str1.4
                0x08010d38       0x16 build/debug/usbd_desc.o
 .rodata.USBD_HS_ManufacturerStrDescriptor.str1.4
                0x08010d38       0x13 build/debug/usbd_desc.o
 .rodata.USBD_HS_ConfigStrDescriptor.str1.4
                0x08010d38        0xb build/debug/usbd_desc.o
 .rodata.USBD_HS_InterfaceStrDescriptor.str1.4
                0x08010d38        0xe build/debug/usbd_desc.o
 .rodata.str1.4
                0x08010d38        0x3 build/debug/abstract.o
 .rodata.str1.4
                0x08010d38       0x59 build/debug/cpp_main.o
 .rodata.str1.4
                0x08010d38       0x12 /usr/lib/gcc/arm-none-eabi/13.2.1/../../../arm-none-eabi/lib/thumb/v7e-m+dp/hard/libc_nano.a(libc_a-nano-vfprintf_float.o)
 .rodata.str1.4
                0x08010d38       0x69 /usr/lib/gcc/arm-none-eabi/13.2.1/../../../arm-none-eabi/lib/thumb/v7e-m+dp/hard/libc_nano.a(libc_a-dtoa.o)
 .rodata.str1.4
                0x08010d38       0x25 /usr/lib/gcc/arm-none-eabi/13.2.1/../../../arm-none-eabi/lib/thumb/v7e-m+dp/hard/libc_nano.a(libc_a-nano-vfprintf_i.o)
 .rodata.str1.4
                0x08010d38       0x43 /usr/lib/gcc/arm-none-eabi/13.2.1/../../../arm-none-eabi/lib/thumb/v7e-m+dp/hard/libc_nano.a(libc_a-assert.o)
 .rodata.str1.4
                0x08010d38       0x59 /usr/lib/gcc/arm-none-eabi/13.2.1/../../../arm-none-eabi/lib/thumb/v7e-m+dp/hard/libc_nano.a(libc_a-mprec.o)
 .rodata.str1.4
                0x08010d38       0x12 /usr/lib/gcc/arm-none-eabi/13.2.1/../../../arm-none-eabi/lib/thumb/v7e-m+dp/hard/libc_nano.a(libc_a-locale.o)
 .rodata.str1.4
                0x08010d38       0x13 /usr/lib/gcc/arm-none-eabi/13.2.1/../../../arm-none-eabi/lib/thumb/v7e-m+dp/hard/libc_nano.a(libc_a-nano-vfprintf.o)
                0x08010da4                        . = ALIGN (0x4)

.ARM.extab      0x08010d38        0x0
                0x08010d38                        . = ALIGN (0x4)
 *(.ARM.extab* .gnu.linkonce.armextab.*)
                0x08010d38                        . = ALIGN (0x4)

.ARM            0x08010d38        0x8
                0x08010d38                        . = ALIGN (0x4)
                0x08010d38                        __exidx_start = .
 *(.ARM.exidx*)
 .ARM.exidx     0x08010d38        0x8 /usr/lib/gcc/arm-none-eabi/13.2.1/../../../arm-none-eabi/lib/thumb/v7e-m+dp/hard/libc_nano.a(libc_a-strlen.o)
 .ARM.exidx     0x08010d40        0x0 /usr/lib/gcc/arm-none-eabi/13.2.1/../../../arm-none-eabi/lib/thumb/v7e-m+dp/hard/libc_nano.a(libc_a-memcpy.o)
                                  0x8 (size before relaxing)
 .ARM.exidx     0x08010d40        0x0 /usr/lib/gcc/arm-none-eabi/13.2.1/../../../arm-none-eabi/lib/thumb/v7e-m+dp/hard/libc_nano.a(libc_a-memchr.o)
                                  0x8 (size before relaxing)
                0x08010d40                        __exidx_end = .
                0x08010d40                        . = ALIGN (0x4)

.preinit_array  0x08010d40        0x0
                0x08010d40                        . = ALIGN (0x4)
                0x08010d40                        PROVIDE (__preinit_array_start = .)
 *(.preinit_array*)
                0x08010d40                        PROVIDE (__preinit_array_end = .)
                0x08010d40                        . = ALIGN (0x4)

.init_array     0x08010d40        0x4
                0x08010d40                        . = ALIGN (0x4)
                0x08010d40                        PROVIDE (__init_array_start = .)
 *(SORT_BY_NAME(.init_array.*))
 *(.init_array*)
 .init_array    0x08010d40        0x4 /usr/lib/gcc/arm-none-eabi/13.2.1/thumb/v7e-m+dp/hard/crtbegin.o
                0x08010d44                        PROVIDE (__init_array_end = .)
                0x08010d44                        . = ALIGN (0x4)

.fini_array     0x08010d44        0x4
                0x08010d44                        . = ALIGN (0x4)
                0x08010d44                        PROVIDE (__fini_array_start = .)
 *(SORT_BY_NAME(.fini_array.*))
 *(.fini_array*)
 .fini_array    0x08010d44        0x4 /usr/lib/gcc/arm-none-eabi/13.2.1/thumb/v7e-m+dp/hard/crtbegin.o
                0x08010d48                        PROVIDE (__fini_array_end = .)
                0x08010d48                        . = ALIGN (0x4)
                0x08010d48                        _sidata = LOADADDR (.data)

.rel.dyn        0x08010d48        0x0
 .rel.iplt      0x08010d48        0x0 /usr/lib/gcc/arm-none-eabi/13.2.1/thumb/v7e-m+dp/hard/crtbegin.o

.data           0x20000000      0x2cc load address 0x08010d48
                0x20000000                        . = ALIGN (0x4)
                0x20000000                        _sdata = .
 *(.data)
 .data          0x20000000       0x50 /usr/lib/gcc/arm-none-eabi/13.2.1/../../../arm-none-eabi/lib/thumb/v7e-m+dp/hard/libc_nano.a(libc_a-impure.o)
                0x20000000                _impure_ptr
                0x20000004                _impure_data
 .data          0x20000050        0xc /usr/lib/gcc/arm-none-eabi/13.2.1/../../../arm-none-eabi/lib/thumb/v7e-m+dp/hard/libc_nano.a(libc_a-findfp.o)
                0x20000050                __sglue
 .data          0x2000005c      0x16c /usr/lib/gcc/arm-none-eabi/13.2.1/../../../arm-none-eabi/lib/thumb/v7e-m+dp/hard/libc_nano.a(libc_a-locale.o)
                0x2000005c                __global_locale
 *(.data*)
 .data.uwTickFreq
                0x200001c8        0x1 build/debug/stm32h7xx_hal.o
                0x200001c8                uwTickFreq
 *fill*         0x200001c9        0x3 
 .data.uwTickPrio
                0x200001cc        0x4 build/debug/stm32h7xx_hal.o
                0x200001cc                uwTickPrio
 .data.SystemD2Clock
                0x200001d0        0x4 build/debug/system_stm32h7xx.o
                0x200001d0                SystemD2Clock
 .data.SystemCoreClock
                0x200001d4        0x4 build/debug/system_stm32h7xx.o
                0x200001d4                SystemCoreClock
 .data.USBD_CDC_CfgDesc
                0x200001d8       0x43 build/debug/usbd_cdc.o
 *fill*         0x2000021b        0x1 
 .data.USBD_CDC
                0x2000021c       0x38 build/debug/usbd_cdc.o
                0x2000021c                USBD_CDC
 .data.USBD_CDC_DeviceQualifierDesc
                0x20000254        0xa build/debug/usbd_cdc.o
 *fill*         0x2000025e        0x2 
 .data.USBD_Interface_fops_HS
                0x20000260       0x14 build/debug/usbd_cdc_if.o
                0x20000260                USBD_Interface_fops_HS
 .data.LineCoding
                0x20000274        0x8 build/debug/usbd_cdc_if.o
                0x20000274                LineCoding
 .data.USBD_StringSerial
                0x2000027c       0x1a build/debug/usbd_desc.o
                0x2000027c                USBD_StringSerial
 *fill*         0x20000296        0x2 
 .data.USBD_LangIDDesc
                0x20000298        0x4 build/debug/usbd_desc.o
                0x20000298                USBD_LangIDDesc
 .data.USBD_HS_DeviceDesc
                0x2000029c       0x12 build/debug/usbd_desc.o
                0x2000029c                USBD_HS_DeviceDesc
 *fill*         0x200002ae        0x2 
 .data.HS_Desc  0x200002b0       0x1c build/debug/usbd_desc.o
                0x200002b0                HS_Desc
 *(.RamFunc)
 *(.RamFunc*)
                0x200002cc                        . = ALIGN (0x4)
                0x200002cc                        _edata = .

.tm_clone_table
                0x200002cc        0x0 load address 0x08011014
 .tm_clone_table
                0x200002cc        0x0 /usr/lib/gcc/arm-none-eabi/13.2.1/thumb/v7e-m+dp/hard/crtbegin.o
 .tm_clone_table
                0x200002cc        0x0 /usr/lib/gcc/arm-none-eabi/13.2.1/thumb/v7e-m+dp/hard/crtend.o

.igot.plt       0x200002cc        0x0 load address 0x08011014
 .igot.plt      0x200002cc        0x0 /usr/lib/gcc/arm-none-eabi/13.2.1/thumb/v7e-m+dp/hard/crtbegin.o
                0x200002cc                        . = ALIGN (0x4)

.bss            0x200002cc     0x2124 load address 0x08011014
                0x200002cc                        _sbss = .
                0x200002cc                        __bss_start__ = _sbss
 *(.bss)
 .bss           0x200002cc       0x1c /usr/lib/gcc/arm-none-eabi/13.2.1/thumb/v7e-m+dp/hard/crtbegin.o
 .bss           0x200002e8      0x108 build/debug/cpp_main.o
                0x200002e8                highGOfst
                0x200002ec                usbTxBufLen
                0x200002ee                i2cBuf
                0x200002f0                usbTxBuf
 .bss           0x200003f0      0x13c /usr/lib/gcc/arm-none-eabi/13.2.1/../../../arm-none-eabi/lib/thumb/v7e-m+dp/hard/libc_nano.a(libc_a-findfp.o)
                0x200003f0                __sf
                0x20000528                __stdio_exit_handler
 .bss           0x2000052c        0x8 /usr/lib/gcc/arm-none-eabi/13.2.1/../../../arm-none-eabi/lib/thumb/v7e-m+dp/hard/libc_nano.a(libc_a-mallocr.o)
                0x2000052c                __malloc_sbrk_start
                0x20000530                __malloc_free_list
 .bss           0x20000534        0x4 /usr/lib/gcc/arm-none-eabi/13.2.1/../../../arm-none-eabi/lib/thumb/v7e-m+dp/hard/libc_nano.a(libc_a-reent.o)
                0x20000534                errno
 *(.bss*)
 .bss.hadc1     0x20000538       0x70 build/debug/adc.o
                0x20000538                hadc1
 .bss.hcordic   0x200005a8       0x28 build/debug/cordic.o
                0x200005a8                hcordic
 .bss.hfmac     0x200005d0       0x38 build/debug/fmac.o
                0x200005d0                hfmac
 .bss.hi2c3     0x20000608       0x54 build/debug/i2c.o
                0x20000608                hi2c3
 .bss.hspi2     0x2000065c       0x88 build/debug/spi.o
                0x2000065c                hspi2
 .bss.hspi1     0x200006e4       0x88 build/debug/spi.o
                0x200006e4                hspi1
 .bss.uwTick    0x2000076c        0x4 build/debug/stm32h7xx_hal.o
                0x2000076c                uwTick
 .bss.__sbrk_heap_end
                0x20000770        0x4 build/debug/sysmem.o
 .bss.htim4     0x20000774       0x4c build/debug/tim.o
                0x20000774                htim4
 .bss.htim2     0x200007c0       0x4c build/debug/tim.o
                0x200007c0                htim2
 .bss.hUsbDeviceHS
                0x2000080c      0x2dc build/debug/usb_device.o
                0x2000080c                hUsbDeviceHS
 .bss.UserTxBufferHS
                0x20000ae8      0x800 build/debug/usbd_cdc_if.o
                0x20000ae8                UserTxBufferHS
 .bss.UserRxBufferHS
                0x200012e8      0x800 build/debug/usbd_cdc_if.o
                0x200012e8                UserRxBufferHS
 .bss.mem.0     0x20001ae8      0x220 build/debug/usbd_conf.o
 .bss.hpcd_USB_OTG_HS
                0x20001d08      0x4e4 build/debug/usbd_conf.o
                0x20001d08                hpcd_USB_OTG_HS
 .bss.cfgidx.0  0x200021ec        0x1 build/debug/usbd_ctlreq.o
 *fill*         0x200021ed        0x3 
 .bss.USBD_StrDesc
                0x200021f0      0x200 build/debug/usbd_desc.o
                0x200021f0                USBD_StrDesc
 *(COMMON)
                0x200023f0                        . = ALIGN (0x4)
                0x200023f0                        _ebss = .
                0x200023f0                        __bss_end__ = _ebss

._user_heap_stack
                0x200023f0      0x600 load address 0x08011014
                0x200023f0                        . = ALIGN (0x8)
                [!provide]                        PROVIDE (end = .)
                0x200023f0                        PROVIDE (_end = .)
                0x200025f0                        . = (. + _Min_Heap_Size)
 *fill*         0x200023f0      0x200 
                0x200029f0                        . = (. + _Min_Stack_Size)
 *fill*         0x200025f0      0x400 
                0x200029f0                        . = ALIGN (0x8)

/DISCARD/
 libc.a(*)
 libm.a(*)
 libgcc.a(*)
OUTPUT(build/debug/WINTER3-3.elf elf32-littlearm)
LOAD linker stubs
LOAD /usr/lib/gcc/arm-none-eabi/13.2.1/../../../arm-none-eabi/lib/thumb/v7e-m+dp/hard/libc.a
LOAD /usr/lib/gcc/arm-none-eabi/13.2.1/../../../arm-none-eabi/lib/thumb/v7e-m+dp/hard/libm.a
LOAD /usr/lib/gcc/arm-none-eabi/13.2.1/thumb/v7e-m+dp/hard/libgcc.a

.ARM.attributes
                0x00000000       0x2e
 .ARM.attributes
                0x00000000       0x20 /usr/lib/gcc/arm-none-eabi/13.2.1/thumb/v7e-m+dp/hard/crti.o
 .ARM.attributes
                0x00000020       0x32 /usr/lib/gcc/arm-none-eabi/13.2.1/thumb/v7e-m+dp/hard/crtbegin.o
 .ARM.attributes
                0x00000052       0x32 build/debug/adc.o
 .ARM.attributes
                0x00000084       0x32 build/debug/cordic.o
 .ARM.attributes
                0x000000b6       0x32 build/debug/fmac.o
 .ARM.attributes
                0x000000e8       0x32 build/debug/gpio.o
 .ARM.attributes
                0x0000011a       0x32 build/debug/i2c.o
 .ARM.attributes
                0x0000014c       0x32 build/debug/main.o
 .ARM.attributes
                0x0000017e       0x32 build/debug/spi.o
 .ARM.attributes
                0x000001b0       0x32 build/debug/stm32h7xx_hal.o
 .ARM.attributes
                0x000001e2       0x32 build/debug/stm32h7xx_hal_adc.o
 .ARM.attributes
                0x00000214       0x32 build/debug/stm32h7xx_hal_adc_ex.o
 .ARM.attributes
                0x00000246       0x32 build/debug/stm32h7xx_hal_cordic.o
 .ARM.attributes
                0x00000278       0x32 build/debug/stm32h7xx_hal_cortex.o
 .ARM.attributes
                0x000002aa       0x32 build/debug/stm32h7xx_hal_fmac.o
 .ARM.attributes
                0x000002dc       0x32 build/debug/stm32h7xx_hal_gpio.o
 .ARM.attributes
                0x0000030e       0x32 build/debug/stm32h7xx_hal_i2c.o
 .ARM.attributes
                0x00000340       0x32 build/debug/stm32h7xx_hal_i2c_ex.o
 .ARM.attributes
                0x00000372       0x32 build/debug/stm32h7xx_hal_msp.o
 .ARM.attributes
                0x000003a4       0x32 build/debug/stm32h7xx_hal_pcd.o
 .ARM.attributes
                0x000003d6       0x32 build/debug/stm32h7xx_hal_pcd_ex.o
 .ARM.attributes
                0x00000408       0x32 build/debug/stm32h7xx_hal_pwr_ex.o
 .ARM.attributes
                0x0000043a       0x32 build/debug/stm32h7xx_hal_rcc.o
 .ARM.attributes
                0x0000046c       0x32 build/debug/stm32h7xx_hal_rcc_ex.o
 .ARM.attributes
                0x0000049e       0x32 build/debug/stm32h7xx_hal_spi.o
 .ARM.attributes
                0x000004d0       0x32 build/debug/stm32h7xx_hal_tim.o
 .ARM.attributes
                0x00000502       0x32 build/debug/stm32h7xx_hal_tim_ex.o
 .ARM.attributes
                0x00000534       0x32 build/debug/stm32h7xx_it.o
 .ARM.attributes
                0x00000566       0x32 build/debug/stm32h7xx_ll_usb.o
 .ARM.attributes
                0x00000598       0x32 build/debug/syscalls.o
 .ARM.attributes
                0x000005ca       0x32 build/debug/sysmem.o
 .ARM.attributes
                0x000005fc       0x32 build/debug/system_stm32h7xx.o
 .ARM.attributes
                0x0000062e       0x32 build/debug/tim.o
 .ARM.attributes
                0x00000660       0x32 build/debug/usb_device.o
 .ARM.attributes
                0x00000692       0x32 build/debug/usbd_cdc.o
 .ARM.attributes
                0x000006c4       0x32 build/debug/usbd_cdc_if.o
 .ARM.attributes
                0x000006f6       0x32 build/debug/usbd_conf.o
 .ARM.attributes
                0x00000728       0x32 build/debug/usbd_core.o
 .ARM.attributes
                0x0000075a       0x32 build/debug/usbd_ctlreq.o
 .ARM.attributes
                0x0000078c       0x32 build/debug/usbd_desc.o
 .ARM.attributes
                0x000007be       0x32 build/debug/usbd_ioreq.o
 .ARM.attributes
                0x000007f0       0x32 build/debug/ADXL375.o
 .ARM.attributes
                0x00000822       0x32 build/debug/MS5607.o
 .ARM.attributes
                0x00000854       0x32 build/debug/abstract.o
 .ARM.attributes
                0x00000886       0x32 build/debug/cpp_main.o
 .ARM.attributes
                0x000008b8       0x21 build/debug/startup_stm32h725xx.o
 .ARM.attributes
                0x000008d9       0x32 /usr/lib/gcc/arm-none-eabi/13.2.1/../../../arm-none-eabi/lib/thumb/v7e-m+dp/hard/libm.a(libm_a-pow.o)
 .ARM.attributes
                0x0000090b       0x32 /usr/lib/gcc/arm-none-eabi/13.2.1/../../../arm-none-eabi/lib/thumb/v7e-m+dp/hard/libm.a(libm_a-exp_data.o)
 .ARM.attributes
                0x0000093d       0x32 /usr/lib/gcc/arm-none-eabi/13.2.1/../../../arm-none-eabi/lib/thumb/v7e-m+dp/hard/libm.a(libm_a-pow_log_data.o)
 .ARM.attributes
                0x0000096f       0x32 /usr/lib/gcc/arm-none-eabi/13.2.1/../../../arm-none-eabi/lib/thumb/v7e-m+dp/hard/libm.a(libm_a-math_err.o)
 .ARM.attributes
                0x000009a1       0x32 /usr/lib/gcc/arm-none-eabi/13.2.1/../../../arm-none-eabi/lib/thumb/v7e-m+dp/hard/libc_nano.a(libc_a-strcpy.o)
 .ARM.attributes
                0x000009d3       0x32 /usr/lib/gcc/arm-none-eabi/13.2.1/../../../arm-none-eabi/lib/thumb/v7e-m+dp/hard/libc_nano.a(libc_a-init.o)
 .ARM.attributes
                0x00000a05       0x1c /usr/lib/gcc/arm-none-eabi/13.2.1/../../../arm-none-eabi/lib/thumb/v7e-m+dp/hard/libc_nano.a(libc_a-strlen.o)
 .ARM.attributes
                0x00000a21       0x32 /usr/lib/gcc/arm-none-eabi/13.2.1/../../../arm-none-eabi/lib/thumb/v7e-m+dp/hard/libc_nano.a(libc_a-memset.o)
 .ARM.attributes
                0x00000a53       0x32 /usr/lib/gcc/arm-none-eabi/13.2.1/../../../arm-none-eabi/lib/thumb/v7e-m+dp/hard/libc_nano.a(libc_a-errno.o)
 .ARM.attributes
                0x00000a85       0x32 /usr/lib/gcc/arm-none-eabi/13.2.1/../../../arm-none-eabi/lib/thumb/v7e-m+dp/hard/libc_nano.a(libc_a-nano-vfprintf_float.o)
 .ARM.attributes
                0x00000ab7       0x32 /usr/lib/gcc/arm-none-eabi/13.2.1/../../../arm-none-eabi/lib/thumb/v7e-m+dp/hard/libc_nano.a(libc_a-dtoa.o)
 .ARM.attributes
                0x00000ae9       0x1e /usr/lib/gcc/arm-none-eabi/13.2.1/../../../arm-none-eabi/lib/thumb/v7e-m+dp/hard/libc_nano.a(libc_a-memcpy.o)
 .ARM.attributes
                0x00000b07       0x32 /usr/lib/gcc/arm-none-eabi/13.2.1/../../../arm-none-eabi/lib/thumb/v7e-m+dp/hard/libc_nano.a(libc_a-malloc.o)
 .ARM.attributes
                0x00000b39       0x32 /usr/lib/gcc/arm-none-eabi/13.2.1/../../../arm-none-eabi/lib/thumb/v7e-m+dp/hard/libc_nano.a(libc_a-nano-vfprintf_i.o)
 .ARM.attributes
                0x00000b6b       0x32 /usr/lib/gcc/arm-none-eabi/13.2.1/../../../arm-none-eabi/lib/thumb/v7e-m+dp/hard/libc_nano.a(libc_a-assert.o)
 .ARM.attributes
                0x00000b9d       0x32 /usr/lib/gcc/arm-none-eabi/13.2.1/../../../arm-none-eabi/lib/thumb/v7e-m+dp/hard/libc_nano.a(libc_a-mprec.o)
 .ARM.attributes
                0x00000bcf       0x32 /usr/lib/gcc/arm-none-eabi/13.2.1/../../../arm-none-eabi/lib/thumb/v7e-m+dp/hard/libc_nano.a(libc_a-impure.o)
 .ARM.attributes
                0x00000c01       0x32 /usr/lib/gcc/arm-none-eabi/13.2.1/../../../arm-none-eabi/lib/thumb/v7e-m+dp/hard/libc_nano.a(libc_a-localeconv.o)
 .ARM.attributes
                0x00000c33       0x32 /usr/lib/gcc/arm-none-eabi/13.2.1/../../../arm-none-eabi/lib/thumb/v7e-m+dp/hard/libc_nano.a(libc_a-findfp.o)
 .ARM.attributes
                0x00000c65       0x32 /usr/lib/gcc/arm-none-eabi/13.2.1/../../../arm-none-eabi/lib/thumb/v7e-m+dp/hard/libc_nano.a(libc_a-abort.o)
 .ARM.attributes
                0x00000c97       0x32 /usr/lib/gcc/arm-none-eabi/13.2.1/../../../arm-none-eabi/lib/thumb/v7e-m+dp/hard/libc_nano.a(libc_a-fflush.o)
 .ARM.attributes
                0x00000cc9       0x32 /usr/lib/gcc/arm-none-eabi/13.2.1/../../../arm-none-eabi/lib/thumb/v7e-m+dp/hard/libc_nano.a(libc_a-callocr.o)
 .ARM.attributes
                0x00000cfb       0x32 /usr/lib/gcc/arm-none-eabi/13.2.1/../../../arm-none-eabi/lib/thumb/v7e-m+dp/hard/libc_nano.a(libc_a-locale.o)
 .ARM.attributes
                0x00000d2d       0x32 /usr/lib/gcc/arm-none-eabi/13.2.1/../../../arm-none-eabi/lib/thumb/v7e-m+dp/hard/libc_nano.a(libc_a-mallocr.o)
 .ARM.attributes
                0x00000d5f       0x32 /usr/lib/gcc/arm-none-eabi/13.2.1/../../../arm-none-eabi/lib/thumb/v7e-m+dp/hard/libc_nano.a(libc_a-freer.o)
 .ARM.attributes
                0x00000d91       0x32 /usr/lib/gcc/arm-none-eabi/13.2.1/../../../arm-none-eabi/lib/thumb/v7e-m+dp/hard/libc_nano.a(libc_a-fwalk.o)
 .ARM.attributes
                0x00000dc3       0x32 /usr/lib/gcc/arm-none-eabi/13.2.1/../../../arm-none-eabi/lib/thumb/v7e-m+dp/hard/libc_nano.a(libc_a-wctomb_r.o)
 .ARM.attributes
                0x00000df5       0x1c /usr/lib/gcc/arm-none-eabi/13.2.1/../../../arm-none-eabi/lib/thumb/v7e-m+dp/hard/libc_nano.a(libc_a-memchr.o)
 .ARM.attributes
                0x00000e11       0x32 /usr/lib/gcc/arm-none-eabi/13.2.1/../../../arm-none-eabi/lib/thumb/v7e-m+dp/hard/libc_nano.a(libc_a-fprintf.o)
 .ARM.attributes
                0x00000e43       0x32 /usr/lib/gcc/arm-none-eabi/13.2.1/../../../arm-none-eabi/lib/thumb/v7e-m+dp/hard/libc_nano.a(libc_a-mlock.o)
 .ARM.attributes
                0x00000e75       0x32 /usr/lib/gcc/arm-none-eabi/13.2.1/../../../arm-none-eabi/lib/thumb/v7e-m+dp/hard/libc_nano.a(libc_a-ctype_.o)
 .ARM.attributes
                0x00000ea7       0x32 /usr/lib/gcc/arm-none-eabi/13.2.1/../../../arm-none-eabi/lib/thumb/v7e-m+dp/hard/libc_nano.a(libc_a-nano-vfprintf.o)
 .ARM.attributes
                0x00000ed9       0x32 /usr/lib/gcc/arm-none-eabi/13.2.1/../../../arm-none-eabi/lib/thumb/v7e-m+dp/hard/libc_nano.a(libc_a-wbuf.o)
 .ARM.attributes
                0x00000f0b       0x32 /usr/lib/gcc/arm-none-eabi/13.2.1/../../../arm-none-eabi/lib/thumb/v7e-m+dp/hard/libc_nano.a(libc_a-sbrkr.o)
 .ARM.attributes
                0x00000f3d       0x32 /usr/lib/gcc/arm-none-eabi/13.2.1/../../../arm-none-eabi/lib/thumb/v7e-m+dp/hard/libc_nano.a(libc_a-stdio.o)
 .ARM.attributes
                0x00000f6f       0x32 /usr/lib/gcc/arm-none-eabi/13.2.1/../../../arm-none-eabi/lib/thumb/v7e-m+dp/hard/libc_nano.a(libc_a-fvwrite.o)
 .ARM.attributes
                0x00000fa1       0x32 /usr/lib/gcc/arm-none-eabi/13.2.1/../../../arm-none-eabi/lib/thumb/v7e-m+dp/hard/libc_nano.a(libc_a-mbtowc_r.o)
 .ARM.attributes
                0x00000fd3       0x32 /usr/lib/gcc/arm-none-eabi/13.2.1/../../../arm-none-eabi/lib/thumb/v7e-m+dp/hard/libc_nano.a(libc_a-signal.o)
 .ARM.attributes
                0x00001005       0x32 /usr/lib/gcc/arm-none-eabi/13.2.1/../../../arm-none-eabi/lib/thumb/v7e-m+dp/hard/libc_nano.a(libc_a-closer.o)
 .ARM.attributes
                0x00001037       0x32 /usr/lib/gcc/arm-none-eabi/13.2.1/../../../arm-none-eabi/lib/thumb/v7e-m+dp/hard/libc_nano.a(libc_a-memmove.o)
 .ARM.attributes
                0x00001069       0x32 /usr/lib/gcc/arm-none-eabi/13.2.1/../../../arm-none-eabi/lib/thumb/v7e-m+dp/hard/libc_nano.a(libc_a-wsetup.o)
 .ARM.attributes
                0x0000109b       0x32 /usr/lib/gcc/arm-none-eabi/13.2.1/../../../arm-none-eabi/lib/thumb/v7e-m+dp/hard/libc_nano.a(libc_a-readr.o)
 .ARM.attributes
                0x000010cd       0x32 /usr/lib/gcc/arm-none-eabi/13.2.1/../../../arm-none-eabi/lib/thumb/v7e-m+dp/hard/libc_nano.a(libc_a-reent.o)
 .ARM.attributes
                0x000010ff       0x32 /usr/lib/gcc/arm-none-eabi/13.2.1/../../../arm-none-eabi/lib/thumb/v7e-m+dp/hard/libc_nano.a(libc_a-reallocr.o)
 .ARM.attributes
                0x00001131       0x32 /usr/lib/gcc/arm-none-eabi/13.2.1/../../../arm-none-eabi/lib/thumb/v7e-m+dp/hard/libc_nano.a(libc_a-makebuf.o)
 .ARM.attributes
                0x00001163       0x32 /usr/lib/gcc/arm-none-eabi/13.2.1/../../../arm-none-eabi/lib/thumb/v7e-m+dp/hard/libc_nano.a(libc_a-lseekr.o)
 .ARM.attributes
                0x00001195       0x32 /usr/lib/gcc/arm-none-eabi/13.2.1/../../../arm-none-eabi/lib/thumb/v7e-m+dp/hard/libc_nano.a(libc_a-writer.o)
 .ARM.attributes
                0x000011c7       0x32 /usr/lib/gcc/arm-none-eabi/13.2.1/../../../arm-none-eabi/lib/thumb/v7e-m+dp/hard/libc_nano.a(libc_a-isattyr.o)
 .ARM.attributes
                0x000011f9       0x32 /usr/lib/gcc/arm-none-eabi/13.2.1/../../../arm-none-eabi/lib/thumb/v7e-m+dp/hard/libc_nano.a(libc_a-msizer.o)
 .ARM.attributes
                0x0000122b       0x32 /usr/lib/gcc/arm-none-eabi/13.2.1/../../../arm-none-eabi/lib/thumb/v7e-m+dp/hard/libc_nano.a(libc_a-signalr.o)
 .ARM.attributes
                0x0000125d       0x32 /usr/lib/gcc/arm-none-eabi/13.2.1/../../../arm-none-eabi/lib/thumb/v7e-m+dp/hard/libc_nano.a(libc_a-fstatr.o)
 .ARM.attributes
                0x0000128f       0x32 /usr/lib/gcc/arm-none-eabi/13.2.1/thumb/v7e-m+dp/hard/crtend.o
 .ARM.attributes
                0x000012c1       0x20 /usr/lib/gcc/arm-none-eabi/13.2.1/thumb/v7e-m+dp/hard/crtn.o

.comment        0x00000000       0x26
 .comment       0x00000000       0x26 /usr/lib/gcc/arm-none-eabi/13.2.1/thumb/v7e-m+dp/hard/crtbegin.o
                                 0x27 (size before relaxing)
 .comment       0x00000026       0x27 build/debug/adc.o
 .comment       0x00000026       0x27 build/debug/cordic.o
 .comment       0x00000026       0x27 build/debug/fmac.o
 .comment       0x00000026       0x27 build/debug/gpio.o
 .comment       0x00000026       0x27 build/debug/i2c.o
 .comment       0x00000026       0x27 build/debug/main.o
 .comment       0x00000026       0x27 build/debug/spi.o
 .comment       0x00000026       0x27 build/debug/stm32h7xx_hal.o
 .comment       0x00000026       0x27 build/debug/stm32h7xx_hal_adc.o
 .comment       0x00000026       0x27 build/debug/stm32h7xx_hal_adc_ex.o
 .comment       0x00000026       0x27 build/debug/stm32h7xx_hal_cordic.o
 .comment       0x00000026       0x27 build/debug/stm32h7xx_hal_cortex.o
 .comment       0x00000026       0x27 build/debug/stm32h7xx_hal_fmac.o
 .comment       0x00000026       0x27 build/debug/stm32h7xx_hal_gpio.o
 .comment       0x00000026       0x27 build/debug/stm32h7xx_hal_i2c.o
 .comment       0x00000026       0x27 build/debug/stm32h7xx_hal_i2c_ex.o
 .comment       0x00000026       0x27 build/debug/stm32h7xx_hal_msp.o
 .comment       0x00000026       0x27 build/debug/stm32h7xx_hal_pcd.o
 .comment       0x00000026       0x27 build/debug/stm32h7xx_hal_pcd_ex.o
 .comment       0x00000026       0x27 build/debug/stm32h7xx_hal_pwr_ex.o
 .comment       0x00000026       0x27 build/debug/stm32h7xx_hal_rcc.o
 .comment       0x00000026       0x27 build/debug/stm32h7xx_hal_rcc_ex.o
 .comment       0x00000026       0x27 build/debug/stm32h7xx_hal_spi.o
 .comment       0x00000026       0x27 build/debug/stm32h7xx_hal_tim.o
 .comment       0x00000026       0x27 build/debug/stm32h7xx_hal_tim_ex.o
 .comment       0x00000026       0x27 build/debug/stm32h7xx_it.o
 .comment       0x00000026       0x27 build/debug/stm32h7xx_ll_usb.o
 .comment       0x00000026       0x27 build/debug/syscalls.o
 .comment       0x00000026       0x27 build/debug/sysmem.o
 .comment       0x00000026       0x27 build/debug/system_stm32h7xx.o
 .comment       0x00000026       0x27 build/debug/tim.o
 .comment       0x00000026       0x27 build/debug/usb_device.o
 .comment       0x00000026       0x27 build/debug/usbd_cdc.o
 .comment       0x00000026       0x27 build/debug/usbd_cdc_if.o
 .comment       0x00000026       0x27 build/debug/usbd_conf.o
 .comment       0x00000026       0x27 build/debug/usbd_core.o
 .comment       0x00000026       0x27 build/debug/usbd_ctlreq.o
 .comment       0x00000026       0x27 build/debug/usbd_desc.o
 .comment       0x00000026       0x27 build/debug/usbd_ioreq.o
 .comment       0x00000026       0x27 build/debug/ADXL375.o
 .comment       0x00000026       0x27 build/debug/MS5607.o
 .comment       0x00000026       0x27 build/debug/abstract.o
 .comment       0x00000026       0x27 build/debug/cpp_main.o
 .comment       0x00000026       0x27 /usr/lib/gcc/arm-none-eabi/13.2.1/../../../arm-none-eabi/lib/thumb/v7e-m+dp/hard/libm.a(libm_a-pow.o)
 .comment       0x00000026       0x27 /usr/lib/gcc/arm-none-eabi/13.2.1/../../../arm-none-eabi/lib/thumb/v7e-m+dp/hard/libm.a(libm_a-exp_data.o)
 .comment       0x00000026       0x27 /usr/lib/gcc/arm-none-eabi/13.2.1/../../../arm-none-eabi/lib/thumb/v7e-m+dp/hard/libm.a(libm_a-pow_log_data.o)
 .comment       0x00000026       0x27 /usr/lib/gcc/arm-none-eabi/13.2.1/../../../arm-none-eabi/lib/thumb/v7e-m+dp/hard/libm.a(libm_a-math_err.o)
 .comment       0x00000026       0x27 /usr/lib/gcc/arm-none-eabi/13.2.1/../../../arm-none-eabi/lib/thumb/v7e-m+dp/hard/libc_nano.a(libc_a-strcpy.o)
 .comment       0x00000026       0x27 /usr/lib/gcc/arm-none-eabi/13.2.1/../../../arm-none-eabi/lib/thumb/v7e-m+dp/hard/libc_nano.a(libc_a-init.o)
 .comment       0x00000026       0x27 /usr/lib/gcc/arm-none-eabi/13.2.1/../../../arm-none-eabi/lib/thumb/v7e-m+dp/hard/libc_nano.a(libc_a-memset.o)
 .comment       0x00000026       0x27 /usr/lib/gcc/arm-none-eabi/13.2.1/../../../arm-none-eabi/lib/thumb/v7e-m+dp/hard/libc_nano.a(libc_a-errno.o)
 .comment       0x00000026       0x27 /usr/lib/gcc/arm-none-eabi/13.2.1/../../../arm-none-eabi/lib/thumb/v7e-m+dp/hard/libc_nano.a(libc_a-nano-vfprintf_float.o)
 .comment       0x00000026       0x27 /usr/lib/gcc/arm-none-eabi/13.2.1/../../../arm-none-eabi/lib/thumb/v7e-m+dp/hard/libc_nano.a(libc_a-dtoa.o)
 .comment       0x00000026       0x27 /usr/lib/gcc/arm-none-eabi/13.2.1/../../../arm-none-eabi/lib/thumb/v7e-m+dp/hard/libc_nano.a(libc_a-malloc.o)
 .comment       0x00000026       0x27 /usr/lib/gcc/arm-none-eabi/13.2.1/../../../arm-none-eabi/lib/thumb/v7e-m+dp/hard/libc_nano.a(libc_a-nano-vfprintf_i.o)
 .comment       0x00000026       0x27 /usr/lib/gcc/arm-none-eabi/13.2.1/../../../arm-none-eabi/lib/thumb/v7e-m+dp/hard/libc_nano.a(libc_a-assert.o)
 .comment       0x00000026       0x27 /usr/lib/gcc/arm-none-eabi/13.2.1/../../../arm-none-eabi/lib/thumb/v7e-m+dp/hard/libc_nano.a(libc_a-mprec.o)
 .comment       0x00000026       0x27 /usr/lib/gcc/arm-none-eabi/13.2.1/../../../arm-none-eabi/lib/thumb/v7e-m+dp/hard/libc_nano.a(libc_a-impure.o)
 .comment       0x00000026       0x27 /usr/lib/gcc/arm-none-eabi/13.2.1/../../../arm-none-eabi/lib/thumb/v7e-m+dp/hard/libc_nano.a(libc_a-localeconv.o)
 .comment       0x00000026       0x27 /usr/lib/gcc/arm-none-eabi/13.2.1/../../../arm-none-eabi/lib/thumb/v7e-m+dp/hard/libc_nano.a(libc_a-findfp.o)
 .comment       0x00000026       0x27 /usr/lib/gcc/arm-none-eabi/13.2.1/../../../arm-none-eabi/lib/thumb/v7e-m+dp/hard/libc_nano.a(libc_a-abort.o)
 .comment       0x00000026       0x27 /usr/lib/gcc/arm-none-eabi/13.2.1/../../../arm-none-eabi/lib/thumb/v7e-m+dp/hard/libc_nano.a(libc_a-fflush.o)
 .comment       0x00000026       0x27 /usr/lib/gcc/arm-none-eabi/13.2.1/../../../arm-none-eabi/lib/thumb/v7e-m+dp/hard/libc_nano.a(libc_a-callocr.o)
 .comment       0x00000026       0x27 /usr/lib/gcc/arm-none-eabi/13.2.1/../../../arm-none-eabi/lib/thumb/v7e-m+dp/hard/libc_nano.a(libc_a-locale.o)
 .comment       0x00000026       0x27 /usr/lib/gcc/arm-none-eabi/13.2.1/../../../arm-none-eabi/lib/thumb/v7e-m+dp/hard/libc_nano.a(libc_a-mallocr.o)
 .comment       0x00000026       0x27 /usr/lib/gcc/arm-none-eabi/13.2.1/../../../arm-none-eabi/lib/thumb/v7e-m+dp/hard/libc_nano.a(libc_a-freer.o)
 .comment       0x00000026       0x27 /usr/lib/gcc/arm-none-eabi/13.2.1/../../../arm-none-eabi/lib/thumb/v7e-m+dp/hard/libc_nano.a(libc_a-fwalk.o)
 .comment       0x00000026       0x27 /usr/lib/gcc/arm-none-eabi/13.2.1/../../../arm-none-eabi/lib/thumb/v7e-m+dp/hard/libc_nano.a(libc_a-wctomb_r.o)
 .comment       0x00000026       0x27 /usr/lib/gcc/arm-none-eabi/13.2.1/../../../arm-none-eabi/lib/thumb/v7e-m+dp/hard/libc_nano.a(libc_a-fprintf.o)
 .comment       0x00000026       0x27 /usr/lib/gcc/arm-none-eabi/13.2.1/../../../arm-none-eabi/lib/thumb/v7e-m+dp/hard/libc_nano.a(libc_a-mlock.o)
 .comment       0x00000026       0x27 /usr/lib/gcc/arm-none-eabi/13.2.1/../../../arm-none-eabi/lib/thumb/v7e-m+dp/hard/libc_nano.a(libc_a-ctype_.o)
 .comment       0x00000026       0x27 /usr/lib/gcc/arm-none-eabi/13.2.1/../../../arm-none-eabi/lib/thumb/v7e-m+dp/hard/libc_nano.a(libc_a-nano-vfprintf.o)
 .comment       0x00000026       0x27 /usr/lib/gcc/arm-none-eabi/13.2.1/../../../arm-none-eabi/lib/thumb/v7e-m+dp/hard/libc_nano.a(libc_a-wbuf.o)
 .comment       0x00000026       0x27 /usr/lib/gcc/arm-none-eabi/13.2.1/../../../arm-none-eabi/lib/thumb/v7e-m+dp/hard/libc_nano.a(libc_a-sbrkr.o)
 .comment       0x00000026       0x27 /usr/lib/gcc/arm-none-eabi/13.2.1/../../../arm-none-eabi/lib/thumb/v7e-m+dp/hard/libc_nano.a(libc_a-stdio.o)
 .comment       0x00000026       0x27 /usr/lib/gcc/arm-none-eabi/13.2.1/../../../arm-none-eabi/lib/thumb/v7e-m+dp/hard/libc_nano.a(libc_a-fvwrite.o)
 .comment       0x00000026       0x27 /usr/lib/gcc/arm-none-eabi/13.2.1/../../../arm-none-eabi/lib/thumb/v7e-m+dp/hard/libc_nano.a(libc_a-mbtowc_r.o)
 .comment       0x00000026       0x27 /usr/lib/gcc/arm-none-eabi/13.2.1/../../../arm-none-eabi/lib/thumb/v7e-m+dp/hard/libc_nano.a(libc_a-signal.o)
 .comment       0x00000026       0x27 /usr/lib/gcc/arm-none-eabi/13.2.1/../../../arm-none-eabi/lib/thumb/v7e-m+dp/hard/libc_nano.a(libc_a-closer.o)
 .comment       0x00000026       0x27 /usr/lib/gcc/arm-none-eabi/13.2.1/../../../arm-none-eabi/lib/thumb/v7e-m+dp/hard/libc_nano.a(libc_a-memmove.o)
 .comment       0x00000026       0x27 /usr/lib/gcc/arm-none-eabi/13.2.1/../../../arm-none-eabi/lib/thumb/v7e-m+dp/hard/libc_nano.a(libc_a-wsetup.o)
 .comment       0x00000026       0x27 /usr/lib/gcc/arm-none-eabi/13.2.1/../../../arm-none-eabi/lib/thumb/v7e-m+dp/hard/libc_nano.a(libc_a-readr.o)
 .comment       0x00000026       0x27 /usr/lib/gcc/arm-none-eabi/13.2.1/../../../arm-none-eabi/lib/thumb/v7e-m+dp/hard/libc_nano.a(libc_a-reent.o)
 .comment       0x00000026       0x27 /usr/lib/gcc/arm-none-eabi/13.2.1/../../../arm-none-eabi/lib/thumb/v7e-m+dp/hard/libc_nano.a(libc_a-reallocr.o)
 .comment       0x00000026       0x27 /usr/lib/gcc/arm-none-eabi/13.2.1/../../../arm-none-eabi/lib/thumb/v7e-m+dp/hard/libc_nano.a(libc_a-makebuf.o)
 .comment       0x00000026       0x27 /usr/lib/gcc/arm-none-eabi/13.2.1/../../../arm-none-eabi/lib/thumb/v7e-m+dp/hard/libc_nano.a(libc_a-lseekr.o)
 .comment       0x00000026       0x27 /usr/lib/gcc/arm-none-eabi/13.2.1/../../../arm-none-eabi/lib/thumb/v7e-m+dp/hard/libc_nano.a(libc_a-writer.o)
 .comment       0x00000026       0x27 /usr/lib/gcc/arm-none-eabi/13.2.1/../../../arm-none-eabi/lib/thumb/v7e-m+dp/hard/libc_nano.a(libc_a-isattyr.o)
 .comment       0x00000026       0x27 /usr/lib/gcc/arm-none-eabi/13.2.1/../../../arm-none-eabi/lib/thumb/v7e-m+dp/hard/libc_nano.a(libc_a-msizer.o)
 .comment       0x00000026       0x27 /usr/lib/gcc/arm-none-eabi/13.2.1/../../../arm-none-eabi/lib/thumb/v7e-m+dp/hard/libc_nano.a(libc_a-signalr.o)
 .comment       0x00000026       0x27 /usr/lib/gcc/arm-none-eabi/13.2.1/../../../arm-none-eabi/lib/thumb/v7e-m+dp/hard/libc_nano.a(libc_a-fstatr.o)
 .comment       0x00000026       0x27 /usr/lib/gcc/arm-none-eabi/13.2.1/thumb/v7e-m+dp/hard/crtend.o

.debug_info     0x00000000    0x5aee5
 .debug_info    0x00000000     0x1414 build/debug/adc.o
 .debug_info    0x00001414      0x95a build/debug/cordic.o
 .debug_info    0x00001d6e      0xa19 build/debug/fmac.o
 .debug_info    0x00002787      0x7ed build/debug/gpio.o
 .debug_info    0x00002f74      0xd7f build/debug/i2c.o
 .debug_info    0x00003cf3      0x908 build/debug/main.o
 .debug_info    0x000045fb      0xe2a build/debug/spi.o
 .debug_info    0x00005425     0x1a40 build/debug/stm32h7xx_hal.o
 .debug_info    0x00006e65     0x4264 build/debug/stm32h7xx_hal_adc.o
 .debug_info    0x0000b0c9     0x3f94 build/debug/stm32h7xx_hal_adc_ex.o
 .debug_info    0x0000f05d      0xe52 build/debug/stm32h7xx_hal_cordic.o
 .debug_info    0x0000feaf     0x158d build/debug/stm32h7xx_hal_cortex.o
 .debug_info    0x0001143c     0x1a59 build/debug/stm32h7xx_hal_fmac.o
 .debug_info    0x00012e95      0xe96 build/debug/stm32h7xx_hal_gpio.o
 .debug_info    0x00013d2b     0x480e build/debug/stm32h7xx_hal_i2c.o
 .debug_info    0x00018539      0xe8c build/debug/stm32h7xx_hal_i2c_ex.o
 .debug_info    0x000193c5      0x454 build/debug/stm32h7xx_hal_msp.o
 .debug_info    0x00019819     0x1c60 build/debug/stm32h7xx_hal_pcd.o
 .debug_info    0x0001b479      0x9f6 build/debug/stm32h7xx_hal_pcd_ex.o
 .debug_info    0x0001be6f     0x1148 build/debug/stm32h7xx_hal_pwr_ex.o
 .debug_info    0x0001cfb7     0x14ab build/debug/stm32h7xx_hal_rcc.o
 .debug_info    0x0001e462     0x1d9b build/debug/stm32h7xx_hal_rcc_ex.o
 .debug_info    0x000201fd     0x1cdd build/debug/stm32h7xx_hal_spi.o
 .debug_info    0x00021eda     0x55c8 build/debug/stm32h7xx_hal_tim.o
 .debug_info    0x000274a2     0x27c4 build/debug/stm32h7xx_hal_tim_ex.o
 .debug_info    0x00029c66      0x6e2 build/debug/stm32h7xx_it.o
 .debug_info    0x0002a348     0x1ee9 build/debug/stm32h7xx_ll_usb.o
 .debug_info    0x0002c231      0x789 build/debug/syscalls.o
 .debug_info    0x0002c9ba      0x159 build/debug/sysmem.o
 .debug_info    0x0002cb13      0xc01 build/debug/system_stm32h7xx.o
 .debug_info    0x0002d714     0x10c5 build/debug/tim.o
 .debug_info    0x0002e7d9      0x773 build/debug/usb_device.o
 .debug_info    0x0002ef4c     0x17cf build/debug/usbd_cdc.o
 .debug_info    0x0003071b      0x9f7 build/debug/usbd_cdc_if.o
 .debug_info    0x00031112     0x2955 build/debug/usbd_conf.o
 .debug_info    0x00033a67     0x1236 build/debug/usbd_core.o
 .debug_info    0x00034c9d     0x13ea build/debug/usbd_ctlreq.o
 .debug_info    0x00036087      0x5c3 build/debug/usbd_desc.o
 .debug_info    0x0003664a      0x8d3 build/debug/usbd_ioreq.o
 .debug_info    0x00036f1d     0x20a2 build/debug/ADXL375.o
 .debug_info    0x00038fbf     0x21c4 build/debug/MS5607.o
 .debug_info    0x0003b183     0x2654 build/debug/abstract.o
 .debug_info    0x0003d7d7     0x28a6 build/debug/cpp_main.o
 .debug_info    0x0004007d       0x30 build/debug/startup_stm32h725xx.o
 .debug_info    0x000400ad     0x129d /usr/lib/gcc/arm-none-eabi/13.2.1/../../../arm-none-eabi/lib/thumb/v7e-m+dp/hard/libm.a(libm_a-pow.o)
 .debug_info    0x0004134a      0x15b /usr/lib/gcc/arm-none-eabi/13.2.1/../../../arm-none-eabi/lib/thumb/v7e-m+dp/hard/libm.a(libm_a-exp_data.o)
 .debug_info    0x000414a5      0x140 /usr/lib/gcc/arm-none-eabi/13.2.1/../../../arm-none-eabi/lib/thumb/v7e-m+dp/hard/libm.a(libm_a-pow_log_data.o)
 .debug_info    0x000415e5      0x3fe /usr/lib/gcc/arm-none-eabi/13.2.1/../../../arm-none-eabi/lib/thumb/v7e-m+dp/hard/libm.a(libm_a-math_err.o)
 .debug_info    0x000419e3       0xc3 /usr/lib/gcc/arm-none-eabi/13.2.1/../../../arm-none-eabi/lib/thumb/v7e-m+dp/hard/libc_nano.a(libc_a-strcpy.o)
 .debug_info    0x00041aa6      0x10b /usr/lib/gcc/arm-none-eabi/13.2.1/../../../arm-none-eabi/lib/thumb/v7e-m+dp/hard/libc_nano.a(libc_a-init.o)
 .debug_info    0x00041bb1       0x33 /usr/lib/gcc/arm-none-eabi/13.2.1/../../../arm-none-eabi/lib/thumb/v7e-m+dp/hard/libc_nano.a(libc_a-strlen.o)
 .debug_info    0x00041be4      0x135 /usr/lib/gcc/arm-none-eabi/13.2.1/../../../arm-none-eabi/lib/thumb/v7e-m+dp/hard/libc_nano.a(libc_a-memset.o)
 .debug_info    0x00041d19      0x6f1 /usr/lib/gcc/arm-none-eabi/13.2.1/../../../arm-none-eabi/lib/thumb/v7e-m+dp/hard/libc_nano.a(libc_a-errno.o)
 .debug_info    0x0004240a     0x1338 /usr/lib/gcc/arm-none-eabi/13.2.1/../../../arm-none-eabi/lib/thumb/v7e-m+dp/hard/libc_nano.a(libc_a-nano-vfprintf_float.o)
 .debug_info    0x00043742     0x1647 /usr/lib/gcc/arm-none-eabi/13.2.1/../../../arm-none-eabi/lib/thumb/v7e-m+dp/hard/libc_nano.a(libc_a-dtoa.o)
 .debug_info    0x00044d89       0x33 /usr/lib/gcc/arm-none-eabi/13.2.1/../../../arm-none-eabi/lib/thumb/v7e-m+dp/hard/libc_nano.a(libc_a-memcpy.o)
 .debug_info    0x00044dbc      0x796 /usr/lib/gcc/arm-none-eabi/13.2.1/../../../arm-none-eabi/lib/thumb/v7e-m+dp/hard/libc_nano.a(libc_a-malloc.o)
 .debug_info    0x00045552      0xdd7 /usr/lib/gcc/arm-none-eabi/13.2.1/../../../arm-none-eabi/lib/thumb/v7e-m+dp/hard/libc_nano.a(libc_a-nano-vfprintf_i.o)
 .debug_info    0x00046329      0x825 /usr/lib/gcc/arm-none-eabi/13.2.1/../../../arm-none-eabi/lib/thumb/v7e-m+dp/hard/libc_nano.a(libc_a-assert.o)
 .debug_info    0x00046b4e     0x1f09 /usr/lib/gcc/arm-none-eabi/13.2.1/../../../arm-none-eabi/lib/thumb/v7e-m+dp/hard/libc_nano.a(libc_a-mprec.o)
 .debug_info    0x00048a57      0x70b /usr/lib/gcc/arm-none-eabi/13.2.1/../../../arm-none-eabi/lib/thumb/v7e-m+dp/hard/libc_nano.a(libc_a-impure.o)
 .debug_info    0x00049162      0xa0e /usr/lib/gcc/arm-none-eabi/13.2.1/../../../arm-none-eabi/lib/thumb/v7e-m+dp/hard/libc_nano.a(libc_a-localeconv.o)
 .debug_info    0x00049b70      0xe8c /usr/lib/gcc/arm-none-eabi/13.2.1/../../../arm-none-eabi/lib/thumb/v7e-m+dp/hard/libc_nano.a(libc_a-findfp.o)
 .debug_info    0x0004a9fc       0xd8 /usr/lib/gcc/arm-none-eabi/13.2.1/../../../arm-none-eabi/lib/thumb/v7e-m+dp/hard/libc_nano.a(libc_a-abort.o)
 .debug_info    0x0004aad4      0xa33 /usr/lib/gcc/arm-none-eabi/13.2.1/../../../arm-none-eabi/lib/thumb/v7e-m+dp/hard/libc_nano.a(libc_a-fflush.o)
 .debug_info    0x0004b507      0x7c9 /usr/lib/gcc/arm-none-eabi/13.2.1/../../../arm-none-eabi/lib/thumb/v7e-m+dp/hard/libc_nano.a(libc_a-callocr.o)
 .debug_info    0x0004bcd0      0xbb9 /usr/lib/gcc/arm-none-eabi/13.2.1/../../../arm-none-eabi/lib/thumb/v7e-m+dp/hard/libc_nano.a(libc_a-locale.o)
 .debug_info    0x0004c889      0x9b6 /usr/lib/gcc/arm-none-eabi/13.2.1/../../../arm-none-eabi/lib/thumb/v7e-m+dp/hard/libc_nano.a(libc_a-mallocr.o)
 .debug_info    0x0004d23f      0x87f /usr/lib/gcc/arm-none-eabi/13.2.1/../../../arm-none-eabi/lib/thumb/v7e-m+dp/hard/libc_nano.a(libc_a-freer.o)
 .debug_info    0x0004dabe      0x7c8 /usr/lib/gcc/arm-none-eabi/13.2.1/../../../arm-none-eabi/lib/thumb/v7e-m+dp/hard/libc_nano.a(libc_a-fwalk.o)
 .debug_info    0x0004e286      0xa6c /usr/lib/gcc/arm-none-eabi/13.2.1/../../../arm-none-eabi/lib/thumb/v7e-m+dp/hard/libc_nano.a(libc_a-wctomb_r.o)
 .debug_info    0x0004ecf2       0x25 /usr/lib/gcc/arm-none-eabi/13.2.1/../../../arm-none-eabi/lib/thumb/v7e-m+dp/hard/libc_nano.a(libc_a-memchr.o)
 .debug_info    0x0004ed17      0x85d /usr/lib/gcc/arm-none-eabi/13.2.1/../../../arm-none-eabi/lib/thumb/v7e-m+dp/hard/libc_nano.a(libc_a-fprintf.o)
 .debug_info    0x0004f574      0x71c /usr/lib/gcc/arm-none-eabi/13.2.1/../../../arm-none-eabi/lib/thumb/v7e-m+dp/hard/libc_nano.a(libc_a-mlock.o)
 .debug_info    0x0004fc90       0xb9 /usr/lib/gcc/arm-none-eabi/13.2.1/../../../arm-none-eabi/lib/thumb/v7e-m+dp/hard/libc_nano.a(libc_a-ctype_.o)
 .debug_info    0x0004fd49     0x108a /usr/lib/gcc/arm-none-eabi/13.2.1/../../../arm-none-eabi/lib/thumb/v7e-m+dp/hard/libc_nano.a(libc_a-nano-vfprintf.o)
 .debug_info    0x00050dd3      0x863 /usr/lib/gcc/arm-none-eabi/13.2.1/../../../arm-none-eabi/lib/thumb/v7e-m+dp/hard/libc_nano.a(libc_a-wbuf.o)
 .debug_info    0x00051636      0x778 /usr/lib/gcc/arm-none-eabi/13.2.1/../../../arm-none-eabi/lib/thumb/v7e-m+dp/hard/libc_nano.a(libc_a-sbrkr.o)
 .debug_info    0x00051dae      0xa80 /usr/lib/gcc/arm-none-eabi/13.2.1/../../../arm-none-eabi/lib/thumb/v7e-m+dp/hard/libc_nano.a(libc_a-stdio.o)
 .debug_info    0x0005282e      0xaf1 /usr/lib/gcc/arm-none-eabi/13.2.1/../../../arm-none-eabi/lib/thumb/v7e-m+dp/hard/libc_nano.a(libc_a-fvwrite.o)
 .debug_info    0x0005331f      0xab0 /usr/lib/gcc/arm-none-eabi/13.2.1/../../../arm-none-eabi/lib/thumb/v7e-m+dp/hard/libc_nano.a(libc_a-mbtowc_r.o)
 .debug_info    0x00053dcf      0xc39 /usr/lib/gcc/arm-none-eabi/13.2.1/../../../arm-none-eabi/lib/thumb/v7e-m+dp/hard/libc_nano.a(libc_a-signal.o)
 .debug_info    0x00054a08      0x752 /usr/lib/gcc/arm-none-eabi/13.2.1/../../../arm-none-eabi/lib/thumb/v7e-m+dp/hard/libc_nano.a(libc_a-closer.o)
 .debug_info    0x0005515a      0x148 /usr/lib/gcc/arm-none-eabi/13.2.1/../../../arm-none-eabi/lib/thumb/v7e-m+dp/hard/libc_nano.a(libc_a-memmove.o)
 .debug_info    0x000552a2      0x7b1 /usr/lib/gcc/arm-none-eabi/13.2.1/../../../arm-none-eabi/lib/thumb/v7e-m+dp/hard/libc_nano.a(libc_a-wsetup.o)
 .debug_info    0x00055a53      0x7b5 /usr/lib/gcc/arm-none-eabi/13.2.1/../../../arm-none-eabi/lib/thumb/v7e-m+dp/hard/libc_nano.a(libc_a-readr.o)
 .debug_info    0x00056208      0x89f /usr/lib/gcc/arm-none-eabi/13.2.1/../../../arm-none-eabi/lib/thumb/v7e-m+dp/hard/libc_nano.a(libc_a-reent.o)
 .debug_info    0x00056aa7      0x8cd /usr/lib/gcc/arm-none-eabi/13.2.1/../../../arm-none-eabi/lib/thumb/v7e-m+dp/hard/libc_nano.a(libc_a-reallocr.o)
 .debug_info    0x00057374      0xbe6 /usr/lib/gcc/arm-none-eabi/13.2.1/../../../arm-none-eabi/lib/thumb/v7e-m+dp/hard/libc_nano.a(libc_a-makebuf.o)
 .debug_info    0x00057f5a      0x79e /usr/lib/gcc/arm-none-eabi/13.2.1/../../../arm-none-eabi/lib/thumb/v7e-m+dp/hard/libc_nano.a(libc_a-lseekr.o)
 .debug_info    0x000586f8      0x7bb /usr/lib/gcc/arm-none-eabi/13.2.1/../../../arm-none-eabi/lib/thumb/v7e-m+dp/hard/libc_nano.a(libc_a-writer.o)
 .debug_info    0x00058eb3      0x752 /usr/lib/gcc/arm-none-eabi/13.2.1/../../../arm-none-eabi/lib/thumb/v7e-m+dp/hard/libc_nano.a(libc_a-isattyr.o)
 .debug_info    0x00059605      0x78a /usr/lib/gcc/arm-none-eabi/13.2.1/../../../arm-none-eabi/lib/thumb/v7e-m+dp/hard/libc_nano.a(libc_a-msizer.o)
 .debug_info    0x00059d8f      0x7df /usr/lib/gcc/arm-none-eabi/13.2.1/../../../arm-none-eabi/lib/thumb/v7e-m+dp/hard/libc_nano.a(libc_a-signalr.o)
 .debug_info    0x0005a56e      0x977 /usr/lib/gcc/arm-none-eabi/13.2.1/../../../arm-none-eabi/lib/thumb/v7e-m+dp/hard/libc_nano.a(libc_a-fstatr.o)

.debug_abbrev   0x00000000     0xcc96
 .debug_abbrev  0x00000000      0x23b build/debug/adc.o
 .debug_abbrev  0x0000023b      0x1fc build/debug/cordic.o
 .debug_abbrev  0x00000437      0x1f5 build/debug/fmac.o
 .debug_abbrev  0x0000062c      0x19c build/debug/gpio.o
 .debug_abbrev  0x000007c8      0x26b build/debug/i2c.o
 .debug_abbrev  0x00000a33      0x202 build/debug/main.o
 .debug_abbrev  0x00000c35      0x24c build/debug/spi.o
 .debug_abbrev  0x00000e81      0x2b0 build/debug/stm32h7xx_hal.o
 .debug_abbrev  0x00001131      0x377 build/debug/stm32h7xx_hal_adc.o
 .debug_abbrev  0x000014a8      0x3ef build/debug/stm32h7xx_hal_adc_ex.o
 .debug_abbrev  0x00001897      0x237 build/debug/stm32h7xx_hal_cordic.o
 .debug_abbrev  0x00001ace      0x3fa build/debug/stm32h7xx_hal_cortex.o
 .debug_abbrev  0x00001ec8      0x252 build/debug/stm32h7xx_hal_fmac.o
 .debug_abbrev  0x0000211a      0x292 build/debug/stm32h7xx_hal_gpio.o
 .debug_abbrev  0x000023ac      0x2ab build/debug/stm32h7xx_hal_i2c.o
 .debug_abbrev  0x00002657      0x230 build/debug/stm32h7xx_hal_i2c_ex.o
 .debug_abbrev  0x00002887       0xd9 build/debug/stm32h7xx_hal_msp.o
 .debug_abbrev  0x00002960      0x30f build/debug/stm32h7xx_hal_pcd.o
 .debug_abbrev  0x00002c6f      0x2ad build/debug/stm32h7xx_hal_pcd_ex.o
 .debug_abbrev  0x00002f1c      0x2c8 build/debug/stm32h7xx_hal_pwr_ex.o
 .debug_abbrev  0x000031e4      0x2a9 build/debug/stm32h7xx_hal_rcc.o
 .debug_abbrev  0x0000348d      0x29e build/debug/stm32h7xx_hal_rcc_ex.o
 .debug_abbrev  0x0000372b      0x2b4 build/debug/stm32h7xx_hal_spi.o
 .debug_abbrev  0x000039df      0x26d build/debug/stm32h7xx_hal_tim.o
 .debug_abbrev  0x00003c4c      0x280 build/debug/stm32h7xx_hal_tim_ex.o
 .debug_abbrev  0x00003ecc      0x1ad build/debug/stm32h7xx_it.o
 .debug_abbrev  0x00004079      0x329 build/debug/stm32h7xx_ll_usb.o
 .debug_abbrev  0x000043a2      0x1c1 build/debug/syscalls.o
 .debug_abbrev  0x00004563       0xea build/debug/sysmem.o
 .debug_abbrev  0x0000464d      0x157 build/debug/system_stm32h7xx.o
 .debug_abbrev  0x000047a4      0x264 build/debug/tim.o
 .debug_abbrev  0x00004a08      0x1c3 build/debug/usb_device.o
 .debug_abbrev  0x00004bcb      0x33d build/debug/usbd_cdc.o
 .debug_abbrev  0x00004f08      0x2eb build/debug/usbd_cdc_if.o
 .debug_abbrev  0x000051f3      0x332 build/debug/usbd_conf.o
 .debug_abbrev  0x00005525      0x2f8 build/debug/usbd_core.o
 .debug_abbrev  0x0000581d      0x343 build/debug/usbd_ctlreq.o
 .debug_abbrev  0x00005b60      0x212 build/debug/usbd_desc.o
 .debug_abbrev  0x00005d72      0x1b0 build/debug/usbd_ioreq.o
 .debug_abbrev  0x00005f22      0x3f2 build/debug/ADXL375.o
 .debug_abbrev  0x00006314      0x41e build/debug/MS5607.o
 .debug_abbrev  0x00006732      0x332 build/debug/abstract.o
 .debug_abbrev  0x00006a64      0x406 build/debug/cpp_main.o
 .debug_abbrev  0x00006e6a       0x24 build/debug/startup_stm32h725xx.o
 .debug_abbrev  0x00006e8e      0x35c /usr/lib/gcc/arm-none-eabi/13.2.1/../../../arm-none-eabi/lib/thumb/v7e-m+dp/hard/libm.a(libm_a-pow.o)
 .debug_abbrev  0x000071ea       0xa5 /usr/lib/gcc/arm-none-eabi/13.2.1/../../../arm-none-eabi/lib/thumb/v7e-m+dp/hard/libm.a(libm_a-exp_data.o)
 .debug_abbrev  0x0000728f       0xa7 /usr/lib/gcc/arm-none-eabi/13.2.1/../../../arm-none-eabi/lib/thumb/v7e-m+dp/hard/libm.a(libm_a-pow_log_data.o)
 .debug_abbrev  0x00007336      0x157 /usr/lib/gcc/arm-none-eabi/13.2.1/../../../arm-none-eabi/lib/thumb/v7e-m+dp/hard/libm.a(libm_a-math_err.o)
 .debug_abbrev  0x0000748d       0x7b /usr/lib/gcc/arm-none-eabi/13.2.1/../../../arm-none-eabi/lib/thumb/v7e-m+dp/hard/libc_nano.a(libc_a-strcpy.o)
 .debug_abbrev  0x00007508       0xc9 /usr/lib/gcc/arm-none-eabi/13.2.1/../../../arm-none-eabi/lib/thumb/v7e-m+dp/hard/libc_nano.a(libc_a-init.o)
 .debug_abbrev  0x000075d1       0x28 /usr/lib/gcc/arm-none-eabi/13.2.1/../../../arm-none-eabi/lib/thumb/v7e-m+dp/hard/libc_nano.a(libc_a-strlen.o)
 .debug_abbrev  0x000075f9       0xb7 /usr/lib/gcc/arm-none-eabi/13.2.1/../../../arm-none-eabi/lib/thumb/v7e-m+dp/hard/libc_nano.a(libc_a-memset.o)
 .debug_abbrev  0x000076b0      0x15e /usr/lib/gcc/arm-none-eabi/13.2.1/../../../arm-none-eabi/lib/thumb/v7e-m+dp/hard/libc_nano.a(libc_a-errno.o)
 .debug_abbrev  0x0000780e      0x2e7 /usr/lib/gcc/arm-none-eabi/13.2.1/../../../arm-none-eabi/lib/thumb/v7e-m+dp/hard/libc_nano.a(libc_a-nano-vfprintf_float.o)
 .debug_abbrev  0x00007af5      0x325 /usr/lib/gcc/arm-none-eabi/13.2.1/../../../arm-none-eabi/lib/thumb/v7e-m+dp/hard/libc_nano.a(libc_a-dtoa.o)
 .debug_abbrev  0x00007e1a       0x28 /usr/lib/gcc/arm-none-eabi/13.2.1/../../../arm-none-eabi/lib/thumb/v7e-m+dp/hard/libc_nano.a(libc_a-memcpy.o)
 .debug_abbrev  0x00007e42      0x1cf /usr/lib/gcc/arm-none-eabi/13.2.1/../../../arm-none-eabi/lib/thumb/v7e-m+dp/hard/libc_nano.a(libc_a-malloc.o)
 .debug_abbrev  0x00008011      0x284 /usr/lib/gcc/arm-none-eabi/13.2.1/../../../arm-none-eabi/lib/thumb/v7e-m+dp/hard/libc_nano.a(libc_a-nano-vfprintf_i.o)
 .debug_abbrev  0x00008295      0x1ea /usr/lib/gcc/arm-none-eabi/13.2.1/../../../arm-none-eabi/lib/thumb/v7e-m+dp/hard/libc_nano.a(libc_a-assert.o)
 .debug_abbrev  0x0000847f      0x495 /usr/lib/gcc/arm-none-eabi/13.2.1/../../../arm-none-eabi/lib/thumb/v7e-m+dp/hard/libc_nano.a(libc_a-mprec.o)
 .debug_abbrev  0x00008914      0x149 /usr/lib/gcc/arm-none-eabi/13.2.1/../../../arm-none-eabi/lib/thumb/v7e-m+dp/hard/libc_nano.a(libc_a-impure.o)
 .debug_abbrev  0x00008a5d      0x22e /usr/lib/gcc/arm-none-eabi/13.2.1/../../../arm-none-eabi/lib/thumb/v7e-m+dp/hard/libc_nano.a(libc_a-localeconv.o)
 .debug_abbrev  0x00008c8b      0x408 /usr/lib/gcc/arm-none-eabi/13.2.1/../../../arm-none-eabi/lib/thumb/v7e-m+dp/hard/libc_nano.a(libc_a-findfp.o)
 .debug_abbrev  0x00009093       0x99 /usr/lib/gcc/arm-none-eabi/13.2.1/../../../arm-none-eabi/lib/thumb/v7e-m+dp/hard/libc_nano.a(libc_a-abort.o)
 .debug_abbrev  0x0000912c      0x2e4 /usr/lib/gcc/arm-none-eabi/13.2.1/../../../arm-none-eabi/lib/thumb/v7e-m+dp/hard/libc_nano.a(libc_a-fflush.o)
 .debug_abbrev  0x00009410      0x1cd /usr/lib/gcc/arm-none-eabi/13.2.1/../../../arm-none-eabi/lib/thumb/v7e-m+dp/hard/libc_nano.a(libc_a-callocr.o)
 .debug_abbrev  0x000095dd      0x29d /usr/lib/gcc/arm-none-eabi/13.2.1/../../../arm-none-eabi/lib/thumb/v7e-m+dp/hard/libc_nano.a(libc_a-locale.o)
 .debug_abbrev  0x0000987a      0x24a /usr/lib/gcc/arm-none-eabi/13.2.1/../../../arm-none-eabi/lib/thumb/v7e-m+dp/hard/libc_nano.a(libc_a-mallocr.o)
 .debug_abbrev  0x00009ac4      0x249 /usr/lib/gcc/arm-none-eabi/13.2.1/../../../arm-none-eabi/lib/thumb/v7e-m+dp/hard/libc_nano.a(libc_a-freer.o)
 .debug_abbrev  0x00009d0d      0x19b /usr/lib/gcc/arm-none-eabi/13.2.1/../../../arm-none-eabi/lib/thumb/v7e-m+dp/hard/libc_nano.a(libc_a-fwalk.o)
 .debug_abbrev  0x00009ea8      0x212 /usr/lib/gcc/arm-none-eabi/13.2.1/../../../arm-none-eabi/lib/thumb/v7e-m+dp/hard/libc_nano.a(libc_a-wctomb_r.o)
 .debug_abbrev  0x0000a0ba       0x14 /usr/lib/gcc/arm-none-eabi/13.2.1/../../../arm-none-eabi/lib/thumb/v7e-m+dp/hard/libc_nano.a(libc_a-memchr.o)
 .debug_abbrev  0x0000a0ce      0x21d /usr/lib/gcc/arm-none-eabi/13.2.1/../../../arm-none-eabi/lib/thumb/v7e-m+dp/hard/libc_nano.a(libc_a-fprintf.o)
 .debug_abbrev  0x0000a2eb      0x192 /usr/lib/gcc/arm-none-eabi/13.2.1/../../../arm-none-eabi/lib/thumb/v7e-m+dp/hard/libc_nano.a(libc_a-mlock.o)
 .debug_abbrev  0x0000a47d       0x62 /usr/lib/gcc/arm-none-eabi/13.2.1/../../../arm-none-eabi/lib/thumb/v7e-m+dp/hard/libc_nano.a(libc_a-ctype_.o)
 .debug_abbrev  0x0000a4df      0x36e /usr/lib/gcc/arm-none-eabi/13.2.1/../../../arm-none-eabi/lib/thumb/v7e-m+dp/hard/libc_nano.a(libc_a-nano-vfprintf.o)
 .debug_abbrev  0x0000a84d      0x236 /usr/lib/gcc/arm-none-eabi/13.2.1/../../../arm-none-eabi/lib/thumb/v7e-m+dp/hard/libc_nano.a(libc_a-wbuf.o)
 .debug_abbrev  0x0000aa83      0x1da /usr/lib/gcc/arm-none-eabi/13.2.1/../../../arm-none-eabi/lib/thumb/v7e-m+dp/hard/libc_nano.a(libc_a-sbrkr.o)
 .debug_abbrev  0x0000ac5d      0x224 /usr/lib/gcc/arm-none-eabi/13.2.1/../../../arm-none-eabi/lib/thumb/v7e-m+dp/hard/libc_nano.a(libc_a-stdio.o)
 .debug_abbrev  0x0000ae81      0x21b /usr/lib/gcc/arm-none-eabi/13.2.1/../../../arm-none-eabi/lib/thumb/v7e-m+dp/hard/libc_nano.a(libc_a-fvwrite.o)
 .debug_abbrev  0x0000b09c      0x208 /usr/lib/gcc/arm-none-eabi/13.2.1/../../../arm-none-eabi/lib/thumb/v7e-m+dp/hard/libc_nano.a(libc_a-mbtowc_r.o)
 .debug_abbrev  0x0000b2a4      0x2d7 /usr/lib/gcc/arm-none-eabi/13.2.1/../../../arm-none-eabi/lib/thumb/v7e-m+dp/hard/libc_nano.a(libc_a-signal.o)
 .debug_abbrev  0x0000b57b      0x1b0 /usr/lib/gcc/arm-none-eabi/13.2.1/../../../arm-none-eabi/lib/thumb/v7e-m+dp/hard/libc_nano.a(libc_a-closer.o)
 .debug_abbrev  0x0000b72b       0xc3 /usr/lib/gcc/arm-none-eabi/13.2.1/../../../arm-none-eabi/lib/thumb/v7e-m+dp/hard/libc_nano.a(libc_a-memmove.o)
 .debug_abbrev  0x0000b7ee      0x1e2 /usr/lib/gcc/arm-none-eabi/13.2.1/../../../arm-none-eabi/lib/thumb/v7e-m+dp/hard/libc_nano.a(libc_a-wsetup.o)
 .debug_abbrev  0x0000b9d0      0x1b0 /usr/lib/gcc/arm-none-eabi/13.2.1/../../../arm-none-eabi/lib/thumb/v7e-m+dp/hard/libc_nano.a(libc_a-readr.o)
 .debug_abbrev  0x0000bb80      0x1ee /usr/lib/gcc/arm-none-eabi/13.2.1/../../../arm-none-eabi/lib/thumb/v7e-m+dp/hard/libc_nano.a(libc_a-reent.o)
 .debug_abbrev  0x0000bd6e      0x20c /usr/lib/gcc/arm-none-eabi/13.2.1/../../../arm-none-eabi/lib/thumb/v7e-m+dp/hard/libc_nano.a(libc_a-reallocr.o)
 .debug_abbrev  0x0000bf7a      0x29d /usr/lib/gcc/arm-none-eabi/13.2.1/../../../arm-none-eabi/lib/thumb/v7e-m+dp/hard/libc_nano.a(libc_a-makebuf.o)
 .debug_abbrev  0x0000c217      0x1c4 /usr/lib/gcc/arm-none-eabi/13.2.1/../../../arm-none-eabi/lib/thumb/v7e-m+dp/hard/libc_nano.a(libc_a-lseekr.o)
 .debug_abbrev  0x0000c3db      0x1b5 /usr/lib/gcc/arm-none-eabi/13.2.1/../../../arm-none-eabi/lib/thumb/v7e-m+dp/hard/libc_nano.a(libc_a-writer.o)
 .debug_abbrev  0x0000c590      0x1b0 /usr/lib/gcc/arm-none-eabi/13.2.1/../../../arm-none-eabi/lib/thumb/v7e-m+dp/hard/libc_nano.a(libc_a-isattyr.o)
 .debug_abbrev  0x0000c740      0x196 /usr/lib/gcc/arm-none-eabi/13.2.1/../../../arm-none-eabi/lib/thumb/v7e-m+dp/hard/libc_nano.a(libc_a-msizer.o)
 .debug_abbrev  0x0000c8d6      0x1fd /usr/lib/gcc/arm-none-eabi/13.2.1/../../../arm-none-eabi/lib/thumb/v7e-m+dp/hard/libc_nano.a(libc_a-signalr.o)
 .debug_abbrev  0x0000cad3      0x1c3 /usr/lib/gcc/arm-none-eabi/13.2.1/../../../arm-none-eabi/lib/thumb/v7e-m+dp/hard/libc_nano.a(libc_a-fstatr.o)

.debug_loclists
                0x00000000    0x1f061
 .debug_loclists
                0x00000000       0x87 build/debug/adc.o
 .debug_loclists
                0x00000087       0x75 build/debug/i2c.o
 .debug_loclists
                0x000000fc       0xa5 build/debug/spi.o
 .debug_loclists
                0x000001a1      0x50e build/debug/stm32h7xx_hal.o
 .debug_loclists
                0x000006af     0x1a94 build/debug/stm32h7xx_hal_adc.o
 .debug_loclists
                0x00002143     0x18b3 build/debug/stm32h7xx_hal_adc_ex.o
 .debug_loclists
                0x000039f6      0x689 build/debug/stm32h7xx_hal_cordic.o
 .debug_loclists
                0x0000407f      0x61f build/debug/stm32h7xx_hal_cortex.o
 .debug_loclists
                0x0000469e      0xd8e build/debug/stm32h7xx_hal_fmac.o
 .debug_loclists
                0x0000542c      0x41e build/debug/stm32h7xx_hal_gpio.o
 .debug_loclists
                0x0000584a     0x3ab2 build/debug/stm32h7xx_hal_i2c.o
 .debug_loclists
                0x000092fc       0xd9 build/debug/stm32h7xx_hal_i2c_ex.o
 .debug_loclists
                0x000093d5      0xd6d build/debug/stm32h7xx_hal_pcd.o
 .debug_loclists
                0x0000a142      0x18e build/debug/stm32h7xx_hal_pcd_ex.o
 .debug_loclists
                0x0000a2d0      0x3d9 build/debug/stm32h7xx_hal_pwr_ex.o
 .debug_loclists
                0x0000a6a9      0x62f build/debug/stm32h7xx_hal_rcc.o
 .debug_loclists
                0x0000acd8     0x152b build/debug/stm32h7xx_hal_rcc_ex.o
 .debug_loclists
                0x0000c203     0x1010 build/debug/stm32h7xx_hal_spi.o
 .debug_loclists
                0x0000d213     0x296d build/debug/stm32h7xx_hal_tim.o
 .debug_loclists
                0x0000fb80     0x1304 build/debug/stm32h7xx_hal_tim_ex.o
 .debug_loclists
                0x00010e84     0x18d5 build/debug/stm32h7xx_ll_usb.o
 .debug_loclists
                0x00012759      0x2cd build/debug/syscalls.o
 .debug_loclists
                0x00012a26       0x52 build/debug/sysmem.o
 .debug_loclists
                0x00012a78      0x120 build/debug/system_stm32h7xx.o
 .debug_loclists
                0x00012b98       0x5a build/debug/tim.o
 .debug_loclists
                0x00012bf2      0x755 build/debug/usbd_cdc.o
 .debug_loclists
                0x00013347      0x13e build/debug/usbd_cdc_if.o
 .debug_loclists
                0x00013485      0x89f build/debug/usbd_conf.o
 .debug_loclists
                0x00013d24      0x996 build/debug/usbd_core.o
 .debug_loclists
                0x000146ba     0x10c9 build/debug/usbd_ctlreq.o
 .debug_loclists
                0x00015783      0x299 build/debug/usbd_desc.o
 .debug_loclists
                0x00015a1c      0x214 build/debug/usbd_ioreq.o
 .debug_loclists
                0x00015c30      0x237 build/debug/ADXL375.o
 .debug_loclists
                0x00015e67      0x1c8 build/debug/MS5607.o
 .debug_loclists
                0x0001602f      0x19c build/debug/abstract.o
 .debug_loclists
                0x000161cb       0x29 build/debug/cpp_main.o
 .debug_loclists
                0x000161f4      0xe74 /usr/lib/gcc/arm-none-eabi/13.2.1/../../../arm-none-eabi/lib/thumb/v7e-m+dp/hard/libm.a(libm_a-pow.o)
 .debug_loclists
                0x00017068      0x208 /usr/lib/gcc/arm-none-eabi/13.2.1/../../../arm-none-eabi/lib/thumb/v7e-m+dp/hard/libm.a(libm_a-math_err.o)
 .debug_loclists
                0x00017270       0x2c /usr/lib/gcc/arm-none-eabi/13.2.1/../../../arm-none-eabi/lib/thumb/v7e-m+dp/hard/libc_nano.a(libc_a-strcpy.o)
 .debug_loclists
                0x0001729c       0x65 /usr/lib/gcc/arm-none-eabi/13.2.1/../../../arm-none-eabi/lib/thumb/v7e-m+dp/hard/libc_nano.a(libc_a-init.o)
 .debug_loclists
                0x00017301      0x1c2 /usr/lib/gcc/arm-none-eabi/13.2.1/../../../arm-none-eabi/lib/thumb/v7e-m+dp/hard/libc_nano.a(libc_a-memset.o)
 .debug_loclists
                0x000174c3      0x721 /usr/lib/gcc/arm-none-eabi/13.2.1/../../../arm-none-eabi/lib/thumb/v7e-m+dp/hard/libc_nano.a(libc_a-nano-vfprintf_float.o)
 .debug_loclists
                0x00017be4     0x235e /usr/lib/gcc/arm-none-eabi/13.2.1/../../../arm-none-eabi/lib/thumb/v7e-m+dp/hard/libc_nano.a(libc_a-dtoa.o)
 .debug_loclists
                0x00019f42       0x4a /usr/lib/gcc/arm-none-eabi/13.2.1/../../../arm-none-eabi/lib/thumb/v7e-m+dp/hard/libc_nano.a(libc_a-malloc.o)
 .debug_loclists
                0x00019f8c      0x44f /usr/lib/gcc/arm-none-eabi/13.2.1/../../../arm-none-eabi/lib/thumb/v7e-m+dp/hard/libc_nano.a(libc_a-nano-vfprintf_i.o)
 .debug_loclists
                0x0001a3db       0xfa /usr/lib/gcc/arm-none-eabi/13.2.1/../../../arm-none-eabi/lib/thumb/v7e-m+dp/hard/libc_nano.a(libc_a-assert.o)
 .debug_loclists
                0x0001a4d5     0x20e6 /usr/lib/gcc/arm-none-eabi/13.2.1/../../../arm-none-eabi/lib/thumb/v7e-m+dp/hard/libc_nano.a(libc_a-mprec.o)
 .debug_loclists
                0x0001c5bb       0x48 /usr/lib/gcc/arm-none-eabi/13.2.1/../../../arm-none-eabi/lib/thumb/v7e-m+dp/hard/libc_nano.a(libc_a-localeconv.o)
 .debug_loclists
                0x0001c603      0x1d0 /usr/lib/gcc/arm-none-eabi/13.2.1/../../../arm-none-eabi/lib/thumb/v7e-m+dp/hard/libc_nano.a(libc_a-findfp.o)
 .debug_loclists
                0x0001c7d3      0x2f3 /usr/lib/gcc/arm-none-eabi/13.2.1/../../../arm-none-eabi/lib/thumb/v7e-m+dp/hard/libc_nano.a(libc_a-fflush.o)
 .debug_loclists
                0x0001cac6       0x88 /usr/lib/gcc/arm-none-eabi/13.2.1/../../../arm-none-eabi/lib/thumb/v7e-m+dp/hard/libc_nano.a(libc_a-callocr.o)
 .debug_loclists
                0x0001cb4e      0x151 /usr/lib/gcc/arm-none-eabi/13.2.1/../../../arm-none-eabi/lib/thumb/v7e-m+dp/hard/libc_nano.a(libc_a-locale.o)
 .debug_loclists
                0x0001cc9f      0x263 /usr/lib/gcc/arm-none-eabi/13.2.1/../../../arm-none-eabi/lib/thumb/v7e-m+dp/hard/libc_nano.a(libc_a-mallocr.o)
 .debug_loclists
                0x0001cf02      0x164 /usr/lib/gcc/arm-none-eabi/13.2.1/../../../arm-none-eabi/lib/thumb/v7e-m+dp/hard/libc_nano.a(libc_a-freer.o)
 .debug_loclists
                0x0001d066       0x87 /usr/lib/gcc/arm-none-eabi/13.2.1/../../../arm-none-eabi/lib/thumb/v7e-m+dp/hard/libc_nano.a(libc_a-fwalk.o)
 .debug_loclists
                0x0001d0ed       0xd9 /usr/lib/gcc/arm-none-eabi/13.2.1/../../../arm-none-eabi/lib/thumb/v7e-m+dp/hard/libc_nano.a(libc_a-wctomb_r.o)
 .debug_loclists
                0x0001d1c6       0x6b /usr/lib/gcc/arm-none-eabi/13.2.1/../../../arm-none-eabi/lib/thumb/v7e-m+dp/hard/libc_nano.a(libc_a-fprintf.o)
 .debug_loclists
                0x0001d231      0x5fd /usr/lib/gcc/arm-none-eabi/13.2.1/../../../arm-none-eabi/lib/thumb/v7e-m+dp/hard/libc_nano.a(libc_a-nano-vfprintf.o)
 .debug_loclists
                0x0001d82e      0x104 /usr/lib/gcc/arm-none-eabi/13.2.1/../../../arm-none-eabi/lib/thumb/v7e-m+dp/hard/libc_nano.a(libc_a-wbuf.o)
 .debug_loclists
                0x0001d932       0x4b /usr/lib/gcc/arm-none-eabi/13.2.1/../../../arm-none-eabi/lib/thumb/v7e-m+dp/hard/libc_nano.a(libc_a-sbrkr.o)
 .debug_loclists
                0x0001d97d      0x23b /usr/lib/gcc/arm-none-eabi/13.2.1/../../../arm-none-eabi/lib/thumb/v7e-m+dp/hard/libc_nano.a(libc_a-stdio.o)
 .debug_loclists
                0x0001dbb8      0x42a /usr/lib/gcc/arm-none-eabi/13.2.1/../../../arm-none-eabi/lib/thumb/v7e-m+dp/hard/libc_nano.a(libc_a-fvwrite.o)
 .debug_loclists
                0x0001dfe2      0x158 /usr/lib/gcc/arm-none-eabi/13.2.1/../../../arm-none-eabi/lib/thumb/v7e-m+dp/hard/libc_nano.a(libc_a-mbtowc_r.o)
 .debug_loclists
                0x0001e13a      0x59a /usr/lib/gcc/arm-none-eabi/13.2.1/../../../arm-none-eabi/lib/thumb/v7e-m+dp/hard/libc_nano.a(libc_a-signal.o)
 .debug_loclists
                0x0001e6d4       0x4b /usr/lib/gcc/arm-none-eabi/13.2.1/../../../arm-none-eabi/lib/thumb/v7e-m+dp/hard/libc_nano.a(libc_a-closer.o)
 .debug_loclists
                0x0001e71f      0x233 /usr/lib/gcc/arm-none-eabi/13.2.1/../../../arm-none-eabi/lib/thumb/v7e-m+dp/hard/libc_nano.a(libc_a-memmove.o)
 .debug_loclists
                0x0001e952       0x61 /usr/lib/gcc/arm-none-eabi/13.2.1/../../../arm-none-eabi/lib/thumb/v7e-m+dp/hard/libc_nano.a(libc_a-wsetup.o)
 .debug_loclists
                0x0001e9b3       0x9e /usr/lib/gcc/arm-none-eabi/13.2.1/../../../arm-none-eabi/lib/thumb/v7e-m+dp/hard/libc_nano.a(libc_a-readr.o)
 .debug_loclists
                0x0001ea51       0x80 /usr/lib/gcc/arm-none-eabi/13.2.1/../../../arm-none-eabi/lib/thumb/v7e-m+dp/hard/libc_nano.a(libc_a-reent.o)
 .debug_loclists
                0x0001ead1      0x102 /usr/lib/gcc/arm-none-eabi/13.2.1/../../../arm-none-eabi/lib/thumb/v7e-m+dp/hard/libc_nano.a(libc_a-reallocr.o)
 .debug_loclists
                0x0001ebd3      0x1b4 /usr/lib/gcc/arm-none-eabi/13.2.1/../../../arm-none-eabi/lib/thumb/v7e-m+dp/hard/libc_nano.a(libc_a-makebuf.o)
 .debug_loclists
                0x0001ed87       0x9e /usr/lib/gcc/arm-none-eabi/13.2.1/../../../arm-none-eabi/lib/thumb/v7e-m+dp/hard/libc_nano.a(libc_a-lseekr.o)
 .debug_loclists
                0x0001ee25       0x9e /usr/lib/gcc/arm-none-eabi/13.2.1/../../../arm-none-eabi/lib/thumb/v7e-m+dp/hard/libc_nano.a(libc_a-writer.o)
 .debug_loclists
                0x0001eec3       0x4b /usr/lib/gcc/arm-none-eabi/13.2.1/../../../arm-none-eabi/lib/thumb/v7e-m+dp/hard/libc_nano.a(libc_a-isattyr.o)
 .debug_loclists
                0x0001ef0e       0x59 /usr/lib/gcc/arm-none-eabi/13.2.1/../../../arm-none-eabi/lib/thumb/v7e-m+dp/hard/libc_nano.a(libc_a-msizer.o)
 .debug_loclists
                0x0001ef67       0x89 /usr/lib/gcc/arm-none-eabi/13.2.1/../../../arm-none-eabi/lib/thumb/v7e-m+dp/hard/libc_nano.a(libc_a-signalr.o)
 .debug_loclists
                0x0001eff0       0x71 /usr/lib/gcc/arm-none-eabi/13.2.1/../../../arm-none-eabi/lib/thumb/v7e-m+dp/hard/libc_nano.a(libc_a-fstatr.o)

.debug_aranges  0x00000000     0x25f0
 .debug_aranges
                0x00000000       0x30 build/debug/adc.o
 .debug_aranges
                0x00000030       0x30 build/debug/cordic.o
 .debug_aranges
                0x00000060       0x30 build/debug/fmac.o
 .debug_aranges
                0x00000090       0x20 build/debug/gpio.o
 .debug_aranges
                0x000000b0       0x30 build/debug/i2c.o
 .debug_aranges
                0x000000e0       0x40 build/debug/main.o
 .debug_aranges
                0x00000120       0x38 build/debug/spi.o
 .debug_aranges
                0x00000158      0x1c8 build/debug/stm32h7xx_hal.o
 .debug_aranges
                0x00000320      0x140 build/debug/stm32h7xx_hal_adc.o
 .debug_aranges
                0x00000460      0x148 build/debug/stm32h7xx_hal_adc_ex.o
 .debug_aranges
                0x000005a8       0xb0 build/debug/stm32h7xx_hal_cordic.o
 .debug_aranges
                0x00000658       0xf8 build/debug/stm32h7xx_hal_cortex.o
 .debug_aranges
                0x00000750      0x168 build/debug/stm32h7xx_hal_fmac.o
 .debug_aranges
                0x000008b8       0x58 build/debug/stm32h7xx_hal_gpio.o
 .debug_aranges
                0x00000910      0x2a0 build/debug/stm32h7xx_hal_i2c.o
 .debug_aranges
                0x00000bb0       0x48 build/debug/stm32h7xx_hal_i2c_ex.o
 .debug_aranges
                0x00000bf8       0x20 build/debug/stm32h7xx_hal_msp.o
 .debug_aranges
                0x00000c18      0x140 build/debug/stm32h7xx_hal_pcd.o
 .debug_aranges
                0x00000d58       0x60 build/debug/stm32h7xx_hal_pcd_ex.o
 .debug_aranges
                0x00000db8      0x148 build/debug/stm32h7xx_hal_pwr_ex.o
 .debug_aranges
                0x00000f00       0x88 build/debug/stm32h7xx_hal_rcc.o
 .debug_aranges
                0x00000f88       0xf8 build/debug/stm32h7xx_hal_rcc_ex.o
 .debug_aranges
                0x00001080      0x1a8 build/debug/stm32h7xx_hal_spi.o
 .debug_aranges
                0x00001228      0x3e0 build/debug/stm32h7xx_hal_tim.o
 .debug_aranges
                0x00001608      0x198 build/debug/stm32h7xx_hal_tim_ex.o
 .debug_aranges
                0x000017a0       0x78 build/debug/stm32h7xx_it.o
 .debug_aranges
                0x00001818      0x1a0 build/debug/stm32h7xx_ll_usb.o
 .debug_aranges
                0x000019b8       0xa8 build/debug/syscalls.o
 .debug_aranges
                0x00001a60       0x20 build/debug/sysmem.o
 .debug_aranges
                0x00001a80       0x30 build/debug/system_stm32h7xx.o
 .debug_aranges
                0x00001ab0       0x40 build/debug/tim.o
 .debug_aranges
                0x00001af0       0x20 build/debug/usb_device.o
 .debug_aranges
                0x00001b10       0x90 build/debug/usbd_cdc.o
 .debug_aranges
                0x00001ba0       0x48 build/debug/usbd_cdc_if.o
 .debug_aranges
                0x00001be8      0x110 build/debug/usbd_conf.o
 .debug_aranges
                0x00001cf8       0xd8 build/debug/usbd_core.o
 .debug_aranges
                0x00001dd0       0x88 build/debug/usbd_ctlreq.o
 .debug_aranges
                0x00001e58       0x60 build/debug/usbd_desc.o
 .debug_aranges
                0x00001eb8       0x50 build/debug/usbd_ioreq.o
 .debug_aranges
                0x00001f08       0x20 build/debug/ADXL375.o
 .debug_aranges
                0x00001f28       0x20 build/debug/MS5607.o
 .debug_aranges
                0x00001f48       0x20 build/debug/abstract.o
 .debug_aranges
                0x00001f68       0x20 build/debug/cpp_main.o
 .debug_aranges
                0x00001f88       0x28 build/debug/startup_stm32h725xx.o
 .debug_aranges
                0x00001fb0       0x20 /usr/lib/gcc/arm-none-eabi/13.2.1/../../../arm-none-eabi/lib/thumb/v7e-m+dp/hard/libm.a(libm_a-pow.o)
 .debug_aranges
                0x00001fd0       0x18 /usr/lib/gcc/arm-none-eabi/13.2.1/../../../arm-none-eabi/lib/thumb/v7e-m+dp/hard/libm.a(libm_a-exp_data.o)
 .debug_aranges
                0x00001fe8       0x18 /usr/lib/gcc/arm-none-eabi/13.2.1/../../../arm-none-eabi/lib/thumb/v7e-m+dp/hard/libm.a(libm_a-pow_log_data.o)
 .debug_aranges
                0x00002000       0x20 /usr/lib/gcc/arm-none-eabi/13.2.1/../../../arm-none-eabi/lib/thumb/v7e-m+dp/hard/libm.a(libm_a-math_err.o)
 .debug_aranges
                0x00002020       0x20 /usr/lib/gcc/arm-none-eabi/13.2.1/../../../arm-none-eabi/lib/thumb/v7e-m+dp/hard/libc_nano.a(libc_a-strcpy.o)
 .debug_aranges
                0x00002040       0x20 /usr/lib/gcc/arm-none-eabi/13.2.1/../../../arm-none-eabi/lib/thumb/v7e-m+dp/hard/libc_nano.a(libc_a-init.o)
 .debug_aranges
                0x00002060       0x20 /usr/lib/gcc/arm-none-eabi/13.2.1/../../../arm-none-eabi/lib/thumb/v7e-m+dp/hard/libc_nano.a(libc_a-strlen.o)
 .debug_aranges
                0x00002080       0x20 /usr/lib/gcc/arm-none-eabi/13.2.1/../../../arm-none-eabi/lib/thumb/v7e-m+dp/hard/libc_nano.a(libc_a-memset.o)
 .debug_aranges
                0x000020a0       0x20 /usr/lib/gcc/arm-none-eabi/13.2.1/../../../arm-none-eabi/lib/thumb/v7e-m+dp/hard/libc_nano.a(libc_a-errno.o)
 .debug_aranges
                0x000020c0       0x20 /usr/lib/gcc/arm-none-eabi/13.2.1/../../../arm-none-eabi/lib/thumb/v7e-m+dp/hard/libc_nano.a(libc_a-nano-vfprintf_float.o)
 .debug_aranges
                0x000020e0       0x20 /usr/lib/gcc/arm-none-eabi/13.2.1/../../../arm-none-eabi/lib/thumb/v7e-m+dp/hard/libc_nano.a(libc_a-dtoa.o)
 .debug_aranges
                0x00002100       0x20 /usr/lib/gcc/arm-none-eabi/13.2.1/../../../arm-none-eabi/lib/thumb/v7e-m+dp/hard/libc_nano.a(libc_a-memcpy.o)
 .debug_aranges
                0x00002120       0x20 /usr/lib/gcc/arm-none-eabi/13.2.1/../../../arm-none-eabi/lib/thumb/v7e-m+dp/hard/libc_nano.a(libc_a-malloc.o)
 .debug_aranges
                0x00002140       0x20 /usr/lib/gcc/arm-none-eabi/13.2.1/../../../arm-none-eabi/lib/thumb/v7e-m+dp/hard/libc_nano.a(libc_a-nano-vfprintf_i.o)
 .debug_aranges
                0x00002160       0x20 /usr/lib/gcc/arm-none-eabi/13.2.1/../../../arm-none-eabi/lib/thumb/v7e-m+dp/hard/libc_nano.a(libc_a-assert.o)
 .debug_aranges
                0x00002180       0x20 /usr/lib/gcc/arm-none-eabi/13.2.1/../../../arm-none-eabi/lib/thumb/v7e-m+dp/hard/libc_nano.a(libc_a-mprec.o)
 .debug_aranges
                0x000021a0       0x18 /usr/lib/gcc/arm-none-eabi/13.2.1/../../../arm-none-eabi/lib/thumb/v7e-m+dp/hard/libc_nano.a(libc_a-impure.o)
 .debug_aranges
                0x000021b8       0x20 /usr/lib/gcc/arm-none-eabi/13.2.1/../../../arm-none-eabi/lib/thumb/v7e-m+dp/hard/libc_nano.a(libc_a-localeconv.o)
 .debug_aranges
                0x000021d8       0x20 /usr/lib/gcc/arm-none-eabi/13.2.1/../../../arm-none-eabi/lib/thumb/v7e-m+dp/hard/libc_nano.a(libc_a-findfp.o)
 .debug_aranges
                0x000021f8       0x20 /usr/lib/gcc/arm-none-eabi/13.2.1/../../../arm-none-eabi/lib/thumb/v7e-m+dp/hard/libc_nano.a(libc_a-abort.o)
 .debug_aranges
                0x00002218       0x20 /usr/lib/gcc/arm-none-eabi/13.2.1/../../../arm-none-eabi/lib/thumb/v7e-m+dp/hard/libc_nano.a(libc_a-fflush.o)
 .debug_aranges
                0x00002238       0x20 /usr/lib/gcc/arm-none-eabi/13.2.1/../../../arm-none-eabi/lib/thumb/v7e-m+dp/hard/libc_nano.a(libc_a-callocr.o)
 .debug_aranges
                0x00002258       0x20 /usr/lib/gcc/arm-none-eabi/13.2.1/../../../arm-none-eabi/lib/thumb/v7e-m+dp/hard/libc_nano.a(libc_a-locale.o)
 .debug_aranges
                0x00002278       0x20 /usr/lib/gcc/arm-none-eabi/13.2.1/../../../arm-none-eabi/lib/thumb/v7e-m+dp/hard/libc_nano.a(libc_a-mallocr.o)
 .debug_aranges
                0x00002298       0x20 /usr/lib/gcc/arm-none-eabi/13.2.1/../../../arm-none-eabi/lib/thumb/v7e-m+dp/hard/libc_nano.a(libc_a-freer.o)
 .debug_aranges
                0x000022b8       0x20 /usr/lib/gcc/arm-none-eabi/13.2.1/../../../arm-none-eabi/lib/thumb/v7e-m+dp/hard/libc_nano.a(libc_a-fwalk.o)
 .debug_aranges
                0x000022d8       0x20 /usr/lib/gcc/arm-none-eabi/13.2.1/../../../arm-none-eabi/lib/thumb/v7e-m+dp/hard/libc_nano.a(libc_a-wctomb_r.o)
 .debug_aranges
                0x000022f8       0x20 /usr/lib/gcc/arm-none-eabi/13.2.1/../../../arm-none-eabi/lib/thumb/v7e-m+dp/hard/libc_nano.a(libc_a-memchr.o)
 .debug_aranges
                0x00002318       0x20 /usr/lib/gcc/arm-none-eabi/13.2.1/../../../arm-none-eabi/lib/thumb/v7e-m+dp/hard/libc_nano.a(libc_a-fprintf.o)
 .debug_aranges
                0x00002338       0x20 /usr/lib/gcc/arm-none-eabi/13.2.1/../../../arm-none-eabi/lib/thumb/v7e-m+dp/hard/libc_nano.a(libc_a-mlock.o)
 .debug_aranges
                0x00002358       0x18 /usr/lib/gcc/arm-none-eabi/13.2.1/../../../arm-none-eabi/lib/thumb/v7e-m+dp/hard/libc_nano.a(libc_a-ctype_.o)
 .debug_aranges
                0x00002370       0x20 /usr/lib/gcc/arm-none-eabi/13.2.1/../../../arm-none-eabi/lib/thumb/v7e-m+dp/hard/libc_nano.a(libc_a-nano-vfprintf.o)
 .debug_aranges
                0x00002390       0x20 /usr/lib/gcc/arm-none-eabi/13.2.1/../../../arm-none-eabi/lib/thumb/v7e-m+dp/hard/libc_nano.a(libc_a-wbuf.o)
 .debug_aranges
                0x000023b0       0x20 /usr/lib/gcc/arm-none-eabi/13.2.1/../../../arm-none-eabi/lib/thumb/v7e-m+dp/hard/libc_nano.a(libc_a-sbrkr.o)
 .debug_aranges
                0x000023d0       0x20 /usr/lib/gcc/arm-none-eabi/13.2.1/../../../arm-none-eabi/lib/thumb/v7e-m+dp/hard/libc_nano.a(libc_a-stdio.o)
 .debug_aranges
                0x000023f0       0x20 /usr/lib/gcc/arm-none-eabi/13.2.1/../../../arm-none-eabi/lib/thumb/v7e-m+dp/hard/libc_nano.a(libc_a-fvwrite.o)
 .debug_aranges
                0x00002410       0x20 /usr/lib/gcc/arm-none-eabi/13.2.1/../../../arm-none-eabi/lib/thumb/v7e-m+dp/hard/libc_nano.a(libc_a-mbtowc_r.o)
 .debug_aranges
                0x00002430       0x20 /usr/lib/gcc/arm-none-eabi/13.2.1/../../../arm-none-eabi/lib/thumb/v7e-m+dp/hard/libc_nano.a(libc_a-signal.o)
 .debug_aranges
                0x00002450       0x20 /usr/lib/gcc/arm-none-eabi/13.2.1/../../../arm-none-eabi/lib/thumb/v7e-m+dp/hard/libc_nano.a(libc_a-closer.o)
 .debug_aranges
                0x00002470       0x20 /usr/lib/gcc/arm-none-eabi/13.2.1/../../../arm-none-eabi/lib/thumb/v7e-m+dp/hard/libc_nano.a(libc_a-memmove.o)
 .debug_aranges
                0x00002490       0x20 /usr/lib/gcc/arm-none-eabi/13.2.1/../../../arm-none-eabi/lib/thumb/v7e-m+dp/hard/libc_nano.a(libc_a-wsetup.o)
 .debug_aranges
                0x000024b0       0x20 /usr/lib/gcc/arm-none-eabi/13.2.1/../../../arm-none-eabi/lib/thumb/v7e-m+dp/hard/libc_nano.a(libc_a-readr.o)
 .debug_aranges
                0x000024d0       0x20 /usr/lib/gcc/arm-none-eabi/13.2.1/../../../arm-none-eabi/lib/thumb/v7e-m+dp/hard/libc_nano.a(libc_a-reent.o)
 .debug_aranges
                0x000024f0       0x20 /usr/lib/gcc/arm-none-eabi/13.2.1/../../../arm-none-eabi/lib/thumb/v7e-m+dp/hard/libc_nano.a(libc_a-reallocr.o)
 .debug_aranges
                0x00002510       0x20 /usr/lib/gcc/arm-none-eabi/13.2.1/../../../arm-none-eabi/lib/thumb/v7e-m+dp/hard/libc_nano.a(libc_a-makebuf.o)
 .debug_aranges
                0x00002530       0x20 /usr/lib/gcc/arm-none-eabi/13.2.1/../../../arm-none-eabi/lib/thumb/v7e-m+dp/hard/libc_nano.a(libc_a-lseekr.o)
 .debug_aranges
                0x00002550       0x20 /usr/lib/gcc/arm-none-eabi/13.2.1/../../../arm-none-eabi/lib/thumb/v7e-m+dp/hard/libc_nano.a(libc_a-writer.o)
 .debug_aranges
                0x00002570       0x20 /usr/lib/gcc/arm-none-eabi/13.2.1/../../../arm-none-eabi/lib/thumb/v7e-m+dp/hard/libc_nano.a(libc_a-isattyr.o)
 .debug_aranges
                0x00002590       0x20 /usr/lib/gcc/arm-none-eabi/13.2.1/../../../arm-none-eabi/lib/thumb/v7e-m+dp/hard/libc_nano.a(libc_a-msizer.o)
 .debug_aranges
                0x000025b0       0x20 /usr/lib/gcc/arm-none-eabi/13.2.1/../../../arm-none-eabi/lib/thumb/v7e-m+dp/hard/libc_nano.a(libc_a-signalr.o)
 .debug_aranges
                0x000025d0       0x20 /usr/lib/gcc/arm-none-eabi/13.2.1/../../../arm-none-eabi/lib/thumb/v7e-m+dp/hard/libc_nano.a(libc_a-fstatr.o)

.debug_rnglists
                0x00000000     0x1fd1
 .debug_rnglists
                0x00000000       0x21 build/debug/adc.o
 .debug_rnglists
                0x00000021       0x1f build/debug/cordic.o
 .debug_rnglists
                0x00000040       0x1f build/debug/fmac.o
 .debug_rnglists
                0x0000005f       0x14 build/debug/gpio.o
 .debug_rnglists
                0x00000073       0x20 build/debug/i2c.o
 .debug_rnglists
                0x00000093       0x2c build/debug/main.o
 .debug_rnglists
                0x000000bf       0x26 build/debug/spi.o
 .debug_rnglists
                0x000000e5      0x155 build/debug/stm32h7xx_hal.o
 .debug_rnglists
                0x0000023a      0x261 build/debug/stm32h7xx_hal_adc.o
 .debug_rnglists
                0x0000049b      0x17d build/debug/stm32h7xx_hal_adc_ex.o
 .debug_rnglists
                0x00000618       0x84 build/debug/stm32h7xx_hal_cordic.o
 .debug_rnglists
                0x0000069c       0xe6 build/debug/stm32h7xx_hal_cortex.o
 .debug_rnglists
                0x00000782      0x114 build/debug/stm32h7xx_hal_fmac.o
 .debug_rnglists
                0x00000896       0x40 build/debug/stm32h7xx_hal_gpio.o
 .debug_rnglists
                0x000008d6      0x220 build/debug/stm32h7xx_hal_i2c.o
 .debug_rnglists
                0x00000af6       0x35 build/debug/stm32h7xx_hal_i2c_ex.o
 .debug_rnglists
                0x00000b2b       0x13 build/debug/stm32h7xx_hal_msp.o
 .debug_rnglists
                0x00000b3e       0xf1 build/debug/stm32h7xx_hal_pcd.o
 .debug_rnglists
                0x00000c2f       0x44 build/debug/stm32h7xx_hal_pcd_ex.o
 .debug_rnglists
                0x00000c73      0x12a build/debug/stm32h7xx_hal_pwr_ex.o
 .debug_rnglists
                0x00000d9d       0xb2 build/debug/stm32h7xx_hal_rcc.o
 .debug_rnglists
                0x00000e4f       0xc0 build/debug/stm32h7xx_hal_rcc_ex.o
 .debug_rnglists
                0x00000f0f      0x147 build/debug/stm32h7xx_hal_spi.o
 .debug_rnglists
                0x00001056      0x32b build/debug/stm32h7xx_hal_tim.o
 .debug_rnglists
                0x00001381      0x150 build/debug/stm32h7xx_hal_tim_ex.o
 .debug_rnglists
                0x000014d1       0x55 build/debug/stm32h7xx_it.o
 .debug_rnglists
                0x00001526      0x141 build/debug/stm32h7xx_ll_usb.o
 .debug_rnglists
                0x00001667       0x79 build/debug/syscalls.o
 .debug_rnglists
                0x000016e0       0x13 build/debug/sysmem.o
 .debug_rnglists
                0x000016f3       0x21 build/debug/system_stm32h7xx.o
 .debug_rnglists
                0x00001714       0x2e build/debug/tim.o
 .debug_rnglists
                0x00001742       0x13 build/debug/usb_device.o
 .debug_rnglists
                0x00001755       0x69 build/debug/usbd_cdc.o
 .debug_rnglists
                0x000017be       0x31 build/debug/usbd_cdc_if.o
 .debug_rnglists
                0x000017ef       0xc8 build/debug/usbd_conf.o
 .debug_rnglists
                0x000018b7       0x9f build/debug/usbd_core.o
 .debug_rnglists
                0x00001956       0x65 build/debug/usbd_ctlreq.o
 .debug_rnglists
                0x000019bb       0x43 build/debug/usbd_desc.o
 .debug_rnglists
                0x000019fe       0x37 build/debug/usbd_ioreq.o
 .debug_rnglists
                0x00001a35       0x21 build/debug/MS5607.o
 .debug_rnglists
                0x00001a56       0x19 build/debug/startup_stm32h725xx.o
 .debug_rnglists
                0x00001a6f      0x18c /usr/lib/gcc/arm-none-eabi/13.2.1/../../../arm-none-eabi/lib/thumb/v7e-m+dp/hard/libm.a(libm_a-pow.o)
 .debug_rnglists
                0x00001bfb       0x14 /usr/lib/gcc/arm-none-eabi/13.2.1/../../../arm-none-eabi/lib/thumb/v7e-m+dp/hard/libc_nano.a(libc_a-strcpy.o)
 .debug_rnglists
                0x00001c0f       0x43 /usr/lib/gcc/arm-none-eabi/13.2.1/../../../arm-none-eabi/lib/thumb/v7e-m+dp/hard/libc_nano.a(libc_a-nano-vfprintf_float.o)
 .debug_rnglists
                0x00001c52       0x41 /usr/lib/gcc/arm-none-eabi/13.2.1/../../../arm-none-eabi/lib/thumb/v7e-m+dp/hard/libc_nano.a(libc_a-dtoa.o)
 .debug_rnglists
                0x00001c93       0x66 /usr/lib/gcc/arm-none-eabi/13.2.1/../../../arm-none-eabi/lib/thumb/v7e-m+dp/hard/libc_nano.a(libc_a-nano-vfprintf_i.o)
 .debug_rnglists
                0x00001cf9       0xc2 /usr/lib/gcc/arm-none-eabi/13.2.1/../../../arm-none-eabi/lib/thumb/v7e-m+dp/hard/libc_nano.a(libc_a-mprec.o)
 .debug_rnglists
                0x00001dbb       0x77 /usr/lib/gcc/arm-none-eabi/13.2.1/../../../arm-none-eabi/lib/thumb/v7e-m+dp/hard/libc_nano.a(libc_a-findfp.o)
 .debug_rnglists
                0x00001e32       0x59 /usr/lib/gcc/arm-none-eabi/13.2.1/../../../arm-none-eabi/lib/thumb/v7e-m+dp/hard/libc_nano.a(libc_a-fflush.o)
 .debug_rnglists
                0x00001e8b       0x19 /usr/lib/gcc/arm-none-eabi/13.2.1/../../../arm-none-eabi/lib/thumb/v7e-m+dp/hard/libc_nano.a(libc_a-locale.o)
 .debug_rnglists
                0x00001ea4       0x1e /usr/lib/gcc/arm-none-eabi/13.2.1/../../../arm-none-eabi/lib/thumb/v7e-m+dp/hard/libc_nano.a(libc_a-mallocr.o)
 .debug_rnglists
                0x00001ec2       0x13 /usr/lib/gcc/arm-none-eabi/13.2.1/../../../arm-none-eabi/lib/thumb/v7e-m+dp/hard/libc_nano.a(libc_a-freer.o)
 .debug_rnglists
                0x00001ed5       0x1c /usr/lib/gcc/arm-none-eabi/13.2.1/../../../arm-none-eabi/lib/thumb/v7e-m+dp/hard/libc_nano.a(libc_a-nano-vfprintf.o)
 .debug_rnglists
                0x00001ef1       0x18 /usr/lib/gcc/arm-none-eabi/13.2.1/../../../arm-none-eabi/lib/thumb/v7e-m+dp/hard/libc_nano.a(libc_a-wbuf.o)
 .debug_rnglists
                0x00001f09       0x2b /usr/lib/gcc/arm-none-eabi/13.2.1/../../../arm-none-eabi/lib/thumb/v7e-m+dp/hard/libc_nano.a(libc_a-fvwrite.o)
 .debug_rnglists
                0x00001f34       0x65 /usr/lib/gcc/arm-none-eabi/13.2.1/../../../arm-none-eabi/lib/thumb/v7e-m+dp/hard/libc_nano.a(libc_a-signal.o)
 .debug_rnglists
                0x00001f99       0x1b /usr/lib/gcc/arm-none-eabi/13.2.1/../../../arm-none-eabi/lib/thumb/v7e-m+dp/hard/libc_nano.a(libc_a-wsetup.o)
 .debug_rnglists
                0x00001fb4       0x1d /usr/lib/gcc/arm-none-eabi/13.2.1/../../../arm-none-eabi/lib/thumb/v7e-m+dp/hard/libc_nano.a(libc_a-makebuf.o)

.debug_line     0x00000000    0x32cb9
 .debug_line    0x00000000      0x3d3 build/debug/adc.o
 .debug_line    0x000003d3      0x1b9 build/debug/cordic.o
 .debug_line    0x0000058c      0x1b3 build/debug/fmac.o
 .debug_line    0x0000073f      0x249 build/debug/gpio.o
 .debug_line    0x00000988      0x2af build/debug/i2c.o
 .debug_line    0x00000c37      0x3d8 build/debug/main.o
 .debug_line    0x0000100f      0x3cb build/debug/spi.o
 .debug_line    0x000013da      0xa9c build/debug/stm32h7xx_hal.o
 .debug_line    0x00001e76     0x3179 build/debug/stm32h7xx_hal_adc.o
 .debug_line    0x00004fef     0x2a78 build/debug/stm32h7xx_hal_adc_ex.o
 .debug_line    0x00007a67      0x9e5 build/debug/stm32h7xx_hal_cordic.o
 .debug_line    0x0000844c      0x912 build/debug/stm32h7xx_hal_cortex.o
 .debug_line    0x00008d5e     0x1668 build/debug/stm32h7xx_hal_fmac.o
 .debug_line    0x0000a3c6      0x7b6 build/debug/stm32h7xx_hal_gpio.o
 .debug_line    0x0000ab7c     0x5275 build/debug/stm32h7xx_hal_i2c.o
 .debug_line    0x0000fdf1      0x3eb build/debug/stm32h7xx_hal_i2c_ex.o
 .debug_line    0x000101dc       0xcb build/debug/stm32h7xx_hal_msp.o
 .debug_line    0x000102a7     0x13f7 build/debug/stm32h7xx_hal_pcd.o
 .debug_line    0x0001169e      0x42b build/debug/stm32h7xx_hal_pcd_ex.o
 .debug_line    0x00011ac9      0xb56 build/debug/stm32h7xx_hal_pwr_ex.o
 .debug_line    0x0001261f     0x14b3 build/debug/stm32h7xx_hal_rcc.o
 .debug_line    0x00013ad2     0x2094 build/debug/stm32h7xx_hal_rcc_ex.o
 .debug_line    0x00015b66     0x28a3 build/debug/stm32h7xx_hal_spi.o
 .debug_line    0x00018409     0x6d01 build/debug/stm32h7xx_hal_tim.o
 .debug_line    0x0001f10a     0x2610 build/debug/stm32h7xx_hal_tim_ex.o
 .debug_line    0x0002171a      0x23d build/debug/stm32h7xx_it.o
 .debug_line    0x00021957     0x1e5d build/debug/stm32h7xx_ll_usb.o
 .debug_line    0x000237b4      0x372 build/debug/syscalls.o
 .debug_line    0x00023b26       0xfd build/debug/sysmem.o
 .debug_line    0x00023c23      0x3c2 build/debug/system_stm32h7xx.o
 .debug_line    0x00023fe5      0x407 build/debug/tim.o
 .debug_line    0x000243ec      0x1d0 build/debug/usb_device.o
 .debug_line    0x000245bc      0x987 build/debug/usbd_cdc.o
 .debug_line    0x00024f43      0x26a build/debug/usbd_cdc_if.o
 .debug_line    0x000251ad      0x7cb build/debug/usbd_conf.o
 .debug_line    0x00025978      0x94a build/debug/usbd_core.o
 .debug_line    0x000262c2      0xc70 build/debug/usbd_ctlreq.o
 .debug_line    0x00026f32      0x2af build/debug/usbd_desc.o
 .debug_line    0x000271e1      0x221 build/debug/usbd_ioreq.o
 .debug_line    0x00027402      0x413 build/debug/ADXL375.o
 .debug_line    0x00027815      0x4e5 build/debug/MS5607.o
 .debug_line    0x00027cfa      0x351 build/debug/abstract.o
 .debug_line    0x0002804b      0x350 build/debug/cpp_main.o
 .debug_line    0x0002839b       0x77 build/debug/startup_stm32h725xx.o
 .debug_line    0x00028412      0xc06 /usr/lib/gcc/arm-none-eabi/13.2.1/../../../arm-none-eabi/lib/thumb/v7e-m+dp/hard/libm.a(libm_a-pow.o)
 .debug_line    0x00029018      0x10c /usr/lib/gcc/arm-none-eabi/13.2.1/../../../arm-none-eabi/lib/thumb/v7e-m+dp/hard/libm.a(libm_a-exp_data.o)
 .debug_line    0x00029124       0x65 /usr/lib/gcc/arm-none-eabi/13.2.1/../../../arm-none-eabi/lib/thumb/v7e-m+dp/hard/libm.a(libm_a-pow_log_data.o)
 .debug_line    0x00029189      0x27c /usr/lib/gcc/arm-none-eabi/13.2.1/../../../arm-none-eabi/lib/thumb/v7e-m+dp/hard/libm.a(libm_a-math_err.o)
 .debug_line    0x00029405       0xb9 /usr/lib/gcc/arm-none-eabi/13.2.1/../../../arm-none-eabi/lib/thumb/v7e-m+dp/hard/libc_nano.a(libc_a-strcpy.o)
 .debug_line    0x000294be      0x11e /usr/lib/gcc/arm-none-eabi/13.2.1/../../../arm-none-eabi/lib/thumb/v7e-m+dp/hard/libc_nano.a(libc_a-init.o)
 .debug_line    0x000295dc       0x86 /usr/lib/gcc/arm-none-eabi/13.2.1/../../../arm-none-eabi/lib/thumb/v7e-m+dp/hard/libc_nano.a(libc_a-strlen.o)
 .debug_line    0x00029662      0x1b6 /usr/lib/gcc/arm-none-eabi/13.2.1/../../../arm-none-eabi/lib/thumb/v7e-m+dp/hard/libc_nano.a(libc_a-memset.o)
 .debug_line    0x00029818      0x10c /usr/lib/gcc/arm-none-eabi/13.2.1/../../../arm-none-eabi/lib/thumb/v7e-m+dp/hard/libc_nano.a(libc_a-errno.o)
 .debug_line    0x00029924      0xa6c /usr/lib/gcc/arm-none-eabi/13.2.1/../../../arm-none-eabi/lib/thumb/v7e-m+dp/hard/libc_nano.a(libc_a-nano-vfprintf_float.o)
 .debug_line    0x0002a390     0x1497 /usr/lib/gcc/arm-none-eabi/13.2.1/../../../arm-none-eabi/lib/thumb/v7e-m+dp/hard/libc_nano.a(libc_a-dtoa.o)
 .debug_line    0x0002b827       0xb9 /usr/lib/gcc/arm-none-eabi/13.2.1/../../../arm-none-eabi/lib/thumb/v7e-m+dp/hard/libc_nano.a(libc_a-memcpy.o)
 .debug_line    0x0002b8e0      0x16b /usr/lib/gcc/arm-none-eabi/13.2.1/../../../arm-none-eabi/lib/thumb/v7e-m+dp/hard/libc_nano.a(libc_a-malloc.o)
 .debug_line    0x0002ba4b      0x75d /usr/lib/gcc/arm-none-eabi/13.2.1/../../../arm-none-eabi/lib/thumb/v7e-m+dp/hard/libc_nano.a(libc_a-nano-vfprintf_i.o)
 .debug_line    0x0002c1a8      0x1ad /usr/lib/gcc/arm-none-eabi/13.2.1/../../../arm-none-eabi/lib/thumb/v7e-m+dp/hard/libc_nano.a(libc_a-assert.o)
 .debug_line    0x0002c355     0x142c /usr/lib/gcc/arm-none-eabi/13.2.1/../../../arm-none-eabi/lib/thumb/v7e-m+dp/hard/libc_nano.a(libc_a-mprec.o)
 .debug_line    0x0002d781       0xe7 /usr/lib/gcc/arm-none-eabi/13.2.1/../../../arm-none-eabi/lib/thumb/v7e-m+dp/hard/libc_nano.a(libc_a-impure.o)
 .debug_line    0x0002d868      0x17e /usr/lib/gcc/arm-none-eabi/13.2.1/../../../arm-none-eabi/lib/thumb/v7e-m+dp/hard/libc_nano.a(libc_a-localeconv.o)
 .debug_line    0x0002d9e6      0x4fc /usr/lib/gcc/arm-none-eabi/13.2.1/../../../arm-none-eabi/lib/thumb/v7e-m+dp/hard/libc_nano.a(libc_a-findfp.o)
 .debug_line    0x0002dee2      0x115 /usr/lib/gcc/arm-none-eabi/13.2.1/../../../arm-none-eabi/lib/thumb/v7e-m+dp/hard/libc_nano.a(libc_a-abort.o)
 .debug_line    0x0002dff7      0x446 /usr/lib/gcc/arm-none-eabi/13.2.1/../../../arm-none-eabi/lib/thumb/v7e-m+dp/hard/libc_nano.a(libc_a-fflush.o)
 .debug_line    0x0002e43d      0x1a2 /usr/lib/gcc/arm-none-eabi/13.2.1/../../../arm-none-eabi/lib/thumb/v7e-m+dp/hard/libc_nano.a(libc_a-callocr.o)
 .debug_line    0x0002e5df      0x29f /usr/lib/gcc/arm-none-eabi/13.2.1/../../../arm-none-eabi/lib/thumb/v7e-m+dp/hard/libc_nano.a(libc_a-locale.o)
 .debug_line    0x0002e87e      0x446 /usr/lib/gcc/arm-none-eabi/13.2.1/../../../arm-none-eabi/lib/thumb/v7e-m+dp/hard/libc_nano.a(libc_a-mallocr.o)
 .debug_line    0x0002ecc4      0x2c3 /usr/lib/gcc/arm-none-eabi/13.2.1/../../../arm-none-eabi/lib/thumb/v7e-m+dp/hard/libc_nano.a(libc_a-freer.o)
 .debug_line    0x0002ef87      0x1d1 /usr/lib/gcc/arm-none-eabi/13.2.1/../../../arm-none-eabi/lib/thumb/v7e-m+dp/hard/libc_nano.a(libc_a-fwalk.o)
 .debug_line    0x0002f158      0x1fe /usr/lib/gcc/arm-none-eabi/13.2.1/../../../arm-none-eabi/lib/thumb/v7e-m+dp/hard/libc_nano.a(libc_a-wctomb_r.o)
 .debug_line    0x0002f356       0x84 /usr/lib/gcc/arm-none-eabi/13.2.1/../../../arm-none-eabi/lib/thumb/v7e-m+dp/hard/libc_nano.a(libc_a-memchr.o)
 .debug_line    0x0002f3da      0x1aa /usr/lib/gcc/arm-none-eabi/13.2.1/../../../arm-none-eabi/lib/thumb/v7e-m+dp/hard/libc_nano.a(libc_a-fprintf.o)
 .debug_line    0x0002f584      0x153 /usr/lib/gcc/arm-none-eabi/13.2.1/../../../arm-none-eabi/lib/thumb/v7e-m+dp/hard/libc_nano.a(libc_a-mlock.o)
 .debug_line    0x0002f6d7       0x97 /usr/lib/gcc/arm-none-eabi/13.2.1/../../../arm-none-eabi/lib/thumb/v7e-m+dp/hard/libc_nano.a(libc_a-ctype_.o)
 .debug_line    0x0002f76e      0x6c5 /usr/lib/gcc/arm-none-eabi/13.2.1/../../../arm-none-eabi/lib/thumb/v7e-m+dp/hard/libc_nano.a(libc_a-nano-vfprintf.o)
 .debug_line    0x0002fe33      0x256 /usr/lib/gcc/arm-none-eabi/13.2.1/../../../arm-none-eabi/lib/thumb/v7e-m+dp/hard/libc_nano.a(libc_a-wbuf.o)
 .debug_line    0x00030089      0x193 /usr/lib/gcc/arm-none-eabi/13.2.1/../../../arm-none-eabi/lib/thumb/v7e-m+dp/hard/libc_nano.a(libc_a-sbrkr.o)
 .debug_line    0x0003021c      0x22b /usr/lib/gcc/arm-none-eabi/13.2.1/../../../arm-none-eabi/lib/thumb/v7e-m+dp/hard/libc_nano.a(libc_a-stdio.o)
 .debug_line    0x00030447      0x5ec /usr/lib/gcc/arm-none-eabi/13.2.1/../../../arm-none-eabi/lib/thumb/v7e-m+dp/hard/libc_nano.a(libc_a-fvwrite.o)
 .debug_line    0x00030a33      0x214 /usr/lib/gcc/arm-none-eabi/13.2.1/../../../arm-none-eabi/lib/thumb/v7e-m+dp/hard/libc_nano.a(libc_a-mbtowc_r.o)
 .debug_line    0x00030c47      0x66f /usr/lib/gcc/arm-none-eabi/13.2.1/../../../arm-none-eabi/lib/thumb/v7e-m+dp/hard/libc_nano.a(libc_a-signal.o)
 .debug_line    0x000312b6      0x193 /usr/lib/gcc/arm-none-eabi/13.2.1/../../../arm-none-eabi/lib/thumb/v7e-m+dp/hard/libc_nano.a(libc_a-closer.o)
 .debug_line    0x00031449      0x1f1 /usr/lib/gcc/arm-none-eabi/13.2.1/../../../arm-none-eabi/lib/thumb/v7e-m+dp/hard/libc_nano.a(libc_a-memmove.o)
 .debug_line    0x0003163a      0x2b0 /usr/lib/gcc/arm-none-eabi/13.2.1/../../../arm-none-eabi/lib/thumb/v7e-m+dp/hard/libc_nano.a(libc_a-wsetup.o)
 .debug_line    0x000318ea      0x198 /usr/lib/gcc/arm-none-eabi/13.2.1/../../../arm-none-eabi/lib/thumb/v7e-m+dp/hard/libc_nano.a(libc_a-readr.o)
 .debug_line    0x00031a82      0x27b /usr/lib/gcc/arm-none-eabi/13.2.1/../../../arm-none-eabi/lib/thumb/v7e-m+dp/hard/libc_nano.a(libc_a-reent.o)
 .debug_line    0x00031cfd      0x1f8 /usr/lib/gcc/arm-none-eabi/13.2.1/../../../arm-none-eabi/lib/thumb/v7e-m+dp/hard/libc_nano.a(libc_a-reallocr.o)
 .debug_line    0x00031ef5      0x3a7 /usr/lib/gcc/arm-none-eabi/13.2.1/../../../arm-none-eabi/lib/thumb/v7e-m+dp/hard/libc_nano.a(libc_a-makebuf.o)
 .debug_line    0x0003229c      0x199 /usr/lib/gcc/arm-none-eabi/13.2.1/../../../arm-none-eabi/lib/thumb/v7e-m+dp/hard/libc_nano.a(libc_a-lseekr.o)
 .debug_line    0x00032435      0x199 /usr/lib/gcc/arm-none-eabi/13.2.1/../../../arm-none-eabi/lib/thumb/v7e-m+dp/hard/libc_nano.a(libc_a-writer.o)
 .debug_line    0x000325ce      0x194 /usr/lib/gcc/arm-none-eabi/13.2.1/../../../arm-none-eabi/lib/thumb/v7e-m+dp/hard/libc_nano.a(libc_a-isattyr.o)
 .debug_line    0x00032762      0x176 /usr/lib/gcc/arm-none-eabi/13.2.1/../../../arm-none-eabi/lib/thumb/v7e-m+dp/hard/libc_nano.a(libc_a-msizer.o)
 .debug_line    0x000328d8      0x1c5 /usr/lib/gcc/arm-none-eabi/13.2.1/../../../arm-none-eabi/lib/thumb/v7e-m+dp/hard/libc_nano.a(libc_a-signalr.o)
 .debug_line    0x00032a9d      0x21c /usr/lib/gcc/arm-none-eabi/13.2.1/../../../arm-none-eabi/lib/thumb/v7e-m+dp/hard/libc_nano.a(libc_a-fstatr.o)

.debug_str      0x00000000     0xce8e
 .debug_str     0x00000000     0xce8e build/debug/adc.o
                                0xf4d (size before relaxing)
 .debug_str     0x0000ce8e      0x849 build/debug/cordic.o
 .debug_str     0x0000ce8e      0x8f5 build/debug/fmac.o
 .debug_str     0x0000ce8e      0x48f build/debug/gpio.o
 .debug_str     0x0000ce8e      0xa9d build/debug/i2c.o
 .debug_str     0x0000ce8e      0x81e build/debug/main.o
 .debug_str     0x0000ce8e      0xab1 build/debug/spi.o
 .debug_str     0x0000ce8e     0x156b build/debug/stm32h7xx_hal.o
 .debug_str     0x0000ce8e     0x1517 build/debug/stm32h7xx_hal_adc.o
 .debug_str     0x0000ce8e     0x15a5 build/debug/stm32h7xx_hal_adc_ex.o
 .debug_str     0x0000ce8e      0x88d build/debug/stm32h7xx_hal_cordic.o
 .debug_str     0x0000ce8e     0x100f build/debug/stm32h7xx_hal_cortex.o
 .debug_str     0x0000ce8e      0xc91 build/debug/stm32h7xx_hal_fmac.o
 .debug_str     0x0000ce8e      0x6ac build/debug/stm32h7xx_hal_gpio.o
 .debug_str     0x0000ce8e     0x114a build/debug/stm32h7xx_hal_i2c.o
 .debug_str     0x0000ce8e      0xaf1 build/debug/stm32h7xx_hal_i2c_ex.o
 .debug_str     0x0000ce8e      0x3bd build/debug/stm32h7xx_hal_msp.o
 .debug_str     0x0000ce8e      0xe10 build/debug/stm32h7xx_hal_pcd.o
 .debug_str     0x0000ce8e      0x7ee build/debug/stm32h7xx_hal_pcd_ex.o
 .debug_str     0x0000ce8e      0x983 build/debug/stm32h7xx_hal_pwr_ex.o
 .debug_str     0x0000ce8e      0x97f build/debug/stm32h7xx_hal_rcc.o
 .debug_str     0x0000ce8e      0xec1 build/debug/stm32h7xx_hal_rcc_ex.o
 .debug_str     0x0000ce8e      0xd98 build/debug/stm32h7xx_hal_spi.o
 .debug_str     0x0000ce8e     0x183f build/debug/stm32h7xx_hal_tim.o
 .debug_str     0x0000ce8e     0x11cb build/debug/stm32h7xx_hal_tim_ex.o
 .debug_str     0x0000ce8e      0x6a6 build/debug/stm32h7xx_it.o
 .debug_str     0x0000ce8e      0xd4a build/debug/stm32h7xx_ll_usb.o
 .debug_str     0x0000ce8e      0x3cd build/debug/syscalls.o
 .debug_str     0x0000ce8e      0x1e4 build/debug/sysmem.o
 .debug_str     0x0000ce8e      0x69d build/debug/system_stm32h7xx.o
 .debug_str     0x0000ce8e      0xc35 build/debug/tim.o
 .debug_str     0x0000ce8e      0x6a0 build/debug/usb_device.o
 .debug_str     0x0000ce8e      0xd9a build/debug/usbd_cdc.o
 .debug_str     0x0000ce8e      0x794 build/debug/usbd_cdc_if.o
 .debug_str     0x0000ce8e     0x1db0 build/debug/usbd_conf.o
 .debug_str     0x0000ce8e      0x998 build/debug/usbd_core.o
 .debug_str     0x0000ce8e      0x7c3 build/debug/usbd_ctlreq.o
 .debug_str     0x0000ce8e      0x41f build/debug/usbd_desc.o
 .debug_str     0x0000ce8e      0x698 build/debug/usbd_ioreq.o
 .debug_str     0x0000ce8e     0x13ee build/debug/ADXL375.o
 .debug_str     0x0000ce8e     0x1492 build/debug/MS5607.o
 .debug_str     0x0000ce8e     0x14ac build/debug/abstract.o
 .debug_str     0x0000ce8e     0x16b4 build/debug/cpp_main.o
 .debug_str     0x0000ce8e       0x50 build/debug/startup_stm32h725xx.o
 .debug_str     0x0000ce8e      0x3b0 /usr/lib/gcc/arm-none-eabi/13.2.1/../../../arm-none-eabi/lib/thumb/v7e-m+dp/hard/libm.a(libm_a-pow.o)
 .debug_str     0x0000ce8e      0x209 /usr/lib/gcc/arm-none-eabi/13.2.1/../../../arm-none-eabi/lib/thumb/v7e-m+dp/hard/libm.a(libm_a-exp_data.o)
 .debug_str     0x0000ce8e      0x1e9 /usr/lib/gcc/arm-none-eabi/13.2.1/../../../arm-none-eabi/lib/thumb/v7e-m+dp/hard/libm.a(libm_a-pow_log_data.o)
 .debug_str     0x0000ce8e      0x259 /usr/lib/gcc/arm-none-eabi/13.2.1/../../../arm-none-eabi/lib/thumb/v7e-m+dp/hard/libm.a(libm_a-math_err.o)
 .debug_str     0x0000ce8e      0x19a /usr/lib/gcc/arm-none-eabi/13.2.1/../../../arm-none-eabi/lib/thumb/v7e-m+dp/hard/libc_nano.a(libc_a-strcpy.o)
 .debug_str     0x0000ce8e      0x1fd /usr/lib/gcc/arm-none-eabi/13.2.1/../../../arm-none-eabi/lib/thumb/v7e-m+dp/hard/libc_nano.a(libc_a-init.o)
 .debug_str     0x0000ce8e       0xab /usr/lib/gcc/arm-none-eabi/13.2.1/../../../arm-none-eabi/lib/thumb/v7e-m+dp/hard/libc_nano.a(libc_a-strlen.o)
 .debug_str     0x0000ce8e      0x1b0 /usr/lib/gcc/arm-none-eabi/13.2.1/../../../arm-none-eabi/lib/thumb/v7e-m+dp/hard/libc_nano.a(libc_a-memset.o)
 .debug_str     0x0000ce8e      0x4b9 /usr/lib/gcc/arm-none-eabi/13.2.1/../../../arm-none-eabi/lib/thumb/v7e-m+dp/hard/libc_nano.a(libc_a-errno.o)
 .debug_str     0x0000ce8e      0x821 /usr/lib/gcc/arm-none-eabi/13.2.1/../../../arm-none-eabi/lib/thumb/v7e-m+dp/hard/libc_nano.a(libc_a-nano-vfprintf_float.o)
 .debug_str     0x0000ce8e      0x808 /usr/lib/gcc/arm-none-eabi/13.2.1/../../../arm-none-eabi/lib/thumb/v7e-m+dp/hard/libc_nano.a(libc_a-dtoa.o)
 .debug_str     0x0000ce8e       0xac /usr/lib/gcc/arm-none-eabi/13.2.1/../../../arm-none-eabi/lib/thumb/v7e-m+dp/hard/libc_nano.a(libc_a-memcpy.o)
 .debug_str     0x0000ce8e      0x4e4 /usr/lib/gcc/arm-none-eabi/13.2.1/../../../arm-none-eabi/lib/thumb/v7e-m+dp/hard/libc_nano.a(libc_a-malloc.o)
 .debug_str     0x0000ce8e      0x79e /usr/lib/gcc/arm-none-eabi/13.2.1/../../../arm-none-eabi/lib/thumb/v7e-m+dp/hard/libc_nano.a(libc_a-nano-vfprintf_i.o)
 .debug_str     0x0000ce8e      0x4f8 /usr/lib/gcc/arm-none-eabi/13.2.1/../../../arm-none-eabi/lib/thumb/v7e-m+dp/hard/libc_nano.a(libc_a-assert.o)
 .debug_str     0x0000ce8e      0x7c2 /usr/lib/gcc/arm-none-eabi/13.2.1/../../../arm-none-eabi/lib/thumb/v7e-m+dp/hard/libc_nano.a(libc_a-mprec.o)
 .debug_str     0x0000ce8e      0x4bf /usr/lib/gcc/arm-none-eabi/13.2.1/../../../arm-none-eabi/lib/thumb/v7e-m+dp/hard/libc_nano.a(libc_a-impure.o)
 .debug_str     0x0000ce8e      0x705 /usr/lib/gcc/arm-none-eabi/13.2.1/../../../arm-none-eabi/lib/thumb/v7e-m+dp/hard/libc_nano.a(libc_a-localeconv.o)
 .debug_str     0x0000ce8e      0x6c2 /usr/lib/gcc/arm-none-eabi/13.2.1/../../../arm-none-eabi/lib/thumb/v7e-m+dp/hard/libc_nano.a(libc_a-findfp.o)
 .debug_str     0x0000ce8e      0x19f /usr/lib/gcc/arm-none-eabi/13.2.1/../../../arm-none-eabi/lib/thumb/v7e-m+dp/hard/libc_nano.a(libc_a-abort.o)
 .debug_str     0x0000ce8e      0x546 /usr/lib/gcc/arm-none-eabi/13.2.1/../../../arm-none-eabi/lib/thumb/v7e-m+dp/hard/libc_nano.a(libc_a-fflush.o)
 .debug_str     0x0000ce8e      0x4ed /usr/lib/gcc/arm-none-eabi/13.2.1/../../../arm-none-eabi/lib/thumb/v7e-m+dp/hard/libc_nano.a(libc_a-callocr.o)
 .debug_str     0x0000ce8e      0x73e /usr/lib/gcc/arm-none-eabi/13.2.1/../../../arm-none-eabi/lib/thumb/v7e-m+dp/hard/libc_nano.a(libc_a-locale.o)
 .debug_str     0x0000ce8e      0x5a0 /usr/lib/gcc/arm-none-eabi/13.2.1/../../../arm-none-eabi/lib/thumb/v7e-m+dp/hard/libc_nano.a(libc_a-mallocr.o)
 .debug_str     0x0000ce8e      0x53f /usr/lib/gcc/arm-none-eabi/13.2.1/../../../arm-none-eabi/lib/thumb/v7e-m+dp/hard/libc_nano.a(libc_a-freer.o)
 .debug_str     0x0000ce8e      0x4cf /usr/lib/gcc/arm-none-eabi/13.2.1/../../../arm-none-eabi/lib/thumb/v7e-m+dp/hard/libc_nano.a(libc_a-fwalk.o)
 .debug_str     0x0000ce8e      0x6ec /usr/lib/gcc/arm-none-eabi/13.2.1/../../../arm-none-eabi/lib/thumb/v7e-m+dp/hard/libc_nano.a(libc_a-wctomb_r.o)
 .debug_str     0x0000ce8e       0x9e /usr/lib/gcc/arm-none-eabi/13.2.1/../../../arm-none-eabi/lib/thumb/v7e-m+dp/hard/libc_nano.a(libc_a-memchr.o)
 .debug_str     0x0000ce8e      0x4fd /usr/lib/gcc/arm-none-eabi/13.2.1/../../../arm-none-eabi/lib/thumb/v7e-m+dp/hard/libc_nano.a(libc_a-fprintf.o)
 .debug_str     0x0000ce8e      0x4dd /usr/lib/gcc/arm-none-eabi/13.2.1/../../../arm-none-eabi/lib/thumb/v7e-m+dp/hard/libc_nano.a(libc_a-mlock.o)
 .debug_str     0x0000ce8e      0x195 /usr/lib/gcc/arm-none-eabi/13.2.1/../../../arm-none-eabi/lib/thumb/v7e-m+dp/hard/libc_nano.a(libc_a-ctype_.o)
 .debug_str     0x0000ce8e      0x82c /usr/lib/gcc/arm-none-eabi/13.2.1/../../../arm-none-eabi/lib/thumb/v7e-m+dp/hard/libc_nano.a(libc_a-nano-vfprintf.o)
 .debug_str     0x0000ce8e      0x4f5 /usr/lib/gcc/arm-none-eabi/13.2.1/../../../arm-none-eabi/lib/thumb/v7e-m+dp/hard/libc_nano.a(libc_a-wbuf.o)
 .debug_str     0x0000ce8e      0x4c8 /usr/lib/gcc/arm-none-eabi/13.2.1/../../../arm-none-eabi/lib/thumb/v7e-m+dp/hard/libc_nano.a(libc_a-sbrkr.o)
 .debug_str     0x0000ce8e      0x52c /usr/lib/gcc/arm-none-eabi/13.2.1/../../../arm-none-eabi/lib/thumb/v7e-m+dp/hard/libc_nano.a(libc_a-stdio.o)
 .debug_str     0x0000ce8e      0x563 /usr/lib/gcc/arm-none-eabi/13.2.1/../../../arm-none-eabi/lib/thumb/v7e-m+dp/hard/libc_nano.a(libc_a-fvwrite.o)
 .debug_str     0x0000ce8e      0x6e5 /usr/lib/gcc/arm-none-eabi/13.2.1/../../../arm-none-eabi/lib/thumb/v7e-m+dp/hard/libc_nano.a(libc_a-mbtowc_r.o)
 .debug_str     0x0000ce8e      0x546 /usr/lib/gcc/arm-none-eabi/13.2.1/../../../arm-none-eabi/lib/thumb/v7e-m+dp/hard/libc_nano.a(libc_a-signal.o)
 .debug_str     0x0000ce8e      0x4b5 /usr/lib/gcc/arm-none-eabi/13.2.1/../../../arm-none-eabi/lib/thumb/v7e-m+dp/hard/libc_nano.a(libc_a-closer.o)
 .debug_str     0x0000ce8e      0x1cf /usr/lib/gcc/arm-none-eabi/13.2.1/../../../arm-none-eabi/lib/thumb/v7e-m+dp/hard/libc_nano.a(libc_a-memmove.o)
 .debug_str     0x0000ce8e      0x4f0 /usr/lib/gcc/arm-none-eabi/13.2.1/../../../arm-none-eabi/lib/thumb/v7e-m+dp/hard/libc_nano.a(libc_a-wsetup.o)
 .debug_str     0x0000ce8e      0x4c3 /usr/lib/gcc/arm-none-eabi/13.2.1/../../../arm-none-eabi/lib/thumb/v7e-m+dp/hard/libc_nano.a(libc_a-readr.o)
 .debug_str     0x0000ce8e      0x4de /usr/lib/gcc/arm-none-eabi/13.2.1/../../../arm-none-eabi/lib/thumb/v7e-m+dp/hard/libc_nano.a(libc_a-reent.o)
 .debug_str     0x0000ce8e      0x535 /usr/lib/gcc/arm-none-eabi/13.2.1/../../../arm-none-eabi/lib/thumb/v7e-m+dp/hard/libc_nano.a(libc_a-reallocr.o)
 .debug_str     0x0000ce8e      0x652 /usr/lib/gcc/arm-none-eabi/13.2.1/../../../arm-none-eabi/lib/thumb/v7e-m+dp/hard/libc_nano.a(libc_a-makebuf.o)
 .debug_str     0x0000ce8e      0x4c3 /usr/lib/gcc/arm-none-eabi/13.2.1/../../../arm-none-eabi/lib/thumb/v7e-m+dp/hard/libc_nano.a(libc_a-lseekr.o)
 .debug_str     0x0000ce8e      0x4c5 /usr/lib/gcc/arm-none-eabi/13.2.1/../../../arm-none-eabi/lib/thumb/v7e-m+dp/hard/libc_nano.a(libc_a-writer.o)
 .debug_str     0x0000ce8e      0x4bf /usr/lib/gcc/arm-none-eabi/13.2.1/../../../arm-none-eabi/lib/thumb/v7e-m+dp/hard/libc_nano.a(libc_a-isattyr.o)
 .debug_str     0x0000ce8e      0x508 /usr/lib/gcc/arm-none-eabi/13.2.1/../../../arm-none-eabi/lib/thumb/v7e-m+dp/hard/libc_nano.a(libc_a-msizer.o)
 .debug_str     0x0000ce8e      0x4db /usr/lib/gcc/arm-none-eabi/13.2.1/../../../arm-none-eabi/lib/thumb/v7e-m+dp/hard/libc_nano.a(libc_a-signalr.o)
 .debug_str     0x0000ce8e      0x607 /usr/lib/gcc/arm-none-eabi/13.2.1/../../../arm-none-eabi/lib/thumb/v7e-m+dp/hard/libc_nano.a(libc_a-fstatr.o)

.debug_frame    0x00000000     0x6a4c
 .debug_frame   0x00000000       0x6c build/debug/adc.o
 .debug_frame   0x0000006c       0x50 build/debug/cordic.o
 .debug_frame   0x000000bc       0x50 build/debug/fmac.o
 .debug_frame   0x0000010c       0x3c build/debug/gpio.o
 .debug_frame   0x00000148       0x64 build/debug/i2c.o
 .debug_frame   0x000001ac       0x88 build/debug/main.o
 .debug_frame   0x00000234       0x78 build/debug/spi.o
 .debug_frame   0x000002ac      0x440 build/debug/stm32h7xx_hal.o
 .debug_frame   0x000006ec      0x3ac build/debug/stm32h7xx_hal_adc.o
 .debug_frame   0x00000a98      0x3e4 build/debug/stm32h7xx_hal_adc_ex.o
 .debug_frame   0x00000e7c      0x1d8 build/debug/stm32h7xx_hal_cordic.o
 .debug_frame   0x00001054      0x264 build/debug/stm32h7xx_hal_cortex.o
 .debug_frame   0x000012b8      0x434 build/debug/stm32h7xx_hal_fmac.o
 .debug_frame   0x000016ec       0xfc build/debug/stm32h7xx_hal_gpio.o
 .debug_frame   0x000017e8      0x9a4 build/debug/stm32h7xx_hal_i2c.o
 .debug_frame   0x0000218c       0xb8 build/debug/stm32h7xx_hal_i2c_ex.o
 .debug_frame   0x00002244       0x28 build/debug/stm32h7xx_hal_msp.o
 .debug_frame   0x0000226c      0x378 build/debug/stm32h7xx_hal_pcd.o
 .debug_frame   0x000025e4       0xb8 build/debug/stm32h7xx_hal_pcd_ex.o
 .debug_frame   0x0000269c      0x308 build/debug/stm32h7xx_hal_pwr_ex.o
 .debug_frame   0x000029a4      0x188 build/debug/stm32h7xx_hal_rcc.o
 .debug_frame   0x00002b2c      0x294 build/debug/stm32h7xx_hal_rcc_ex.o
 .debug_frame   0x00002dc0      0x4bc build/debug/stm32h7xx_hal_spi.o
 .debug_frame   0x0000327c      0xc34 build/debug/stm32h7xx_hal_tim.o
 .debug_frame   0x00003eb0      0x514 build/debug/stm32h7xx_hal_tim_ex.o
 .debug_frame   0x000043c4       0xf0 build/debug/stm32h7xx_it.o
 .debug_frame   0x000044b4      0x498 build/debug/stm32h7xx_ll_usb.o
 .debug_frame   0x0000494c      0x190 build/debug/syscalls.o
 .debug_frame   0x00004adc       0x28 build/debug/sysmem.o
 .debug_frame   0x00004b04       0x4c build/debug/system_stm32h7xx.o
 .debug_frame   0x00004b50       0x9c build/debug/tim.o
 .debug_frame   0x00004bec       0x28 build/debug/usb_device.o
 .debug_frame   0x00004c14      0x190 build/debug/usbd_cdc.o
 .debug_frame   0x00004da4       0x88 build/debug/usbd_cdc_if.o
 .debug_frame   0x00004e2c      0x2e4 build/debug/usbd_conf.o
 .debug_frame   0x00005110      0x240 build/debug/usbd_core.o
 .debug_frame   0x00005350      0x180 build/debug/usbd_ctlreq.o
 .debug_frame   0x000054d0       0xe0 build/debug/usbd_desc.o
 .debug_frame   0x000055b0       0xb8 build/debug/usbd_ioreq.o
 .debug_frame   0x00005668       0x9c build/debug/ADXL375.o
 .debug_frame   0x00005704       0xa4 build/debug/MS5607.o
 .debug_frame   0x000057a8       0x8c build/debug/abstract.o
 .debug_frame   0x00005834       0x2c build/debug/cpp_main.o
 .debug_frame   0x00005860      0x170 /usr/lib/gcc/arm-none-eabi/13.2.1/../../../arm-none-eabi/lib/thumb/v7e-m+dp/hard/libm.a(libm_a-pow.o)
 .debug_frame   0x000059d0       0xcc /usr/lib/gcc/arm-none-eabi/13.2.1/../../../arm-none-eabi/lib/thumb/v7e-m+dp/hard/libm.a(libm_a-math_err.o)
 .debug_frame   0x00005a9c       0x20 /usr/lib/gcc/arm-none-eabi/13.2.1/../../../arm-none-eabi/lib/thumb/v7e-m+dp/hard/libc_nano.a(libc_a-strcpy.o)
 .debug_frame   0x00005abc       0x2c /usr/lib/gcc/arm-none-eabi/13.2.1/../../../arm-none-eabi/lib/thumb/v7e-m+dp/hard/libc_nano.a(libc_a-init.o)
 .debug_frame   0x00005ae8       0x2c /usr/lib/gcc/arm-none-eabi/13.2.1/../../../arm-none-eabi/lib/thumb/v7e-m+dp/hard/libc_nano.a(libc_a-memset.o)
 .debug_frame   0x00005b14       0x20 /usr/lib/gcc/arm-none-eabi/13.2.1/../../../arm-none-eabi/lib/thumb/v7e-m+dp/hard/libc_nano.a(libc_a-errno.o)
 .debug_frame   0x00005b34       0xa8 /usr/lib/gcc/arm-none-eabi/13.2.1/../../../arm-none-eabi/lib/thumb/v7e-m+dp/hard/libc_nano.a(libc_a-nano-vfprintf_float.o)
 .debug_frame   0x00005bdc       0xa0 /usr/lib/gcc/arm-none-eabi/13.2.1/../../../arm-none-eabi/lib/thumb/v7e-m+dp/hard/libc_nano.a(libc_a-dtoa.o)
 .debug_frame   0x00005c7c       0x30 /usr/lib/gcc/arm-none-eabi/13.2.1/../../../arm-none-eabi/lib/thumb/v7e-m+dp/hard/libc_nano.a(libc_a-malloc.o)
 .debug_frame   0x00005cac       0x6c /usr/lib/gcc/arm-none-eabi/13.2.1/../../../arm-none-eabi/lib/thumb/v7e-m+dp/hard/libc_nano.a(libc_a-nano-vfprintf_i.o)
 .debug_frame   0x00005d18       0x40 /usr/lib/gcc/arm-none-eabi/13.2.1/../../../arm-none-eabi/lib/thumb/v7e-m+dp/hard/libc_nano.a(libc_a-assert.o)
 .debug_frame   0x00005d58      0x290 /usr/lib/gcc/arm-none-eabi/13.2.1/../../../arm-none-eabi/lib/thumb/v7e-m+dp/hard/libc_nano.a(libc_a-mprec.o)
 .debug_frame   0x00005fe8       0x40 /usr/lib/gcc/arm-none-eabi/13.2.1/../../../arm-none-eabi/lib/thumb/v7e-m+dp/hard/libc_nano.a(libc_a-localeconv.o)
 .debug_frame   0x00006028       0xf4 /usr/lib/gcc/arm-none-eabi/13.2.1/../../../arm-none-eabi/lib/thumb/v7e-m+dp/hard/libc_nano.a(libc_a-findfp.o)
 .debug_frame   0x0000611c       0x28 /usr/lib/gcc/arm-none-eabi/13.2.1/../../../arm-none-eabi/lib/thumb/v7e-m+dp/hard/libc_nano.a(libc_a-abort.o)
 .debug_frame   0x00006144       0x8c /usr/lib/gcc/arm-none-eabi/13.2.1/../../../arm-none-eabi/lib/thumb/v7e-m+dp/hard/libc_nano.a(libc_a-fflush.o)
 .debug_frame   0x000061d0       0x2c /usr/lib/gcc/arm-none-eabi/13.2.1/../../../arm-none-eabi/lib/thumb/v7e-m+dp/hard/libc_nano.a(libc_a-callocr.o)
 .debug_frame   0x000061fc       0x68 /usr/lib/gcc/arm-none-eabi/13.2.1/../../../arm-none-eabi/lib/thumb/v7e-m+dp/hard/libc_nano.a(libc_a-locale.o)
 .debug_frame   0x00006264       0x50 /usr/lib/gcc/arm-none-eabi/13.2.1/../../../arm-none-eabi/lib/thumb/v7e-m+dp/hard/libc_nano.a(libc_a-mallocr.o)
 .debug_frame   0x000062b4       0x58 /usr/lib/gcc/arm-none-eabi/13.2.1/../../../arm-none-eabi/lib/thumb/v7e-m+dp/hard/libc_nano.a(libc_a-freer.o)
 .debug_frame   0x0000630c       0x34 /usr/lib/gcc/arm-none-eabi/13.2.1/../../../arm-none-eabi/lib/thumb/v7e-m+dp/hard/libc_nano.a(libc_a-fwalk.o)
 .debug_frame   0x00006340       0x3c /usr/lib/gcc/arm-none-eabi/13.2.1/../../../arm-none-eabi/lib/thumb/v7e-m+dp/hard/libc_nano.a(libc_a-wctomb_r.o)
 .debug_frame   0x0000637c       0x70 /usr/lib/gcc/arm-none-eabi/13.2.1/../../../arm-none-eabi/lib/thumb/v7e-m+dp/hard/libc_nano.a(libc_a-fprintf.o)
 .debug_frame   0x000063ec       0x30 /usr/lib/gcc/arm-none-eabi/13.2.1/../../../arm-none-eabi/lib/thumb/v7e-m+dp/hard/libc_nano.a(libc_a-mlock.o)
 .debug_frame   0x0000641c       0xbc /usr/lib/gcc/arm-none-eabi/13.2.1/../../../arm-none-eabi/lib/thumb/v7e-m+dp/hard/libc_nano.a(libc_a-nano-vfprintf.o)
 .debug_frame   0x000064d8       0x4c /usr/lib/gcc/arm-none-eabi/13.2.1/../../../arm-none-eabi/lib/thumb/v7e-m+dp/hard/libc_nano.a(libc_a-wbuf.o)
 .debug_frame   0x00006524       0x2c /usr/lib/gcc/arm-none-eabi/13.2.1/../../../arm-none-eabi/lib/thumb/v7e-m+dp/hard/libc_nano.a(libc_a-sbrkr.o)
 .debug_frame   0x00006550       0x8c /usr/lib/gcc/arm-none-eabi/13.2.1/../../../arm-none-eabi/lib/thumb/v7e-m+dp/hard/libc_nano.a(libc_a-stdio.o)
 .debug_frame   0x000065dc       0x64 /usr/lib/gcc/arm-none-eabi/13.2.1/../../../arm-none-eabi/lib/thumb/v7e-m+dp/hard/libc_nano.a(libc_a-fvwrite.o)
 .debug_frame   0x00006640       0x4c /usr/lib/gcc/arm-none-eabi/13.2.1/../../../arm-none-eabi/lib/thumb/v7e-m+dp/hard/libc_nano.a(libc_a-mbtowc_r.o)
 .debug_frame   0x0000668c      0x118 /usr/lib/gcc/arm-none-eabi/13.2.1/../../../arm-none-eabi/lib/thumb/v7e-m+dp/hard/libc_nano.a(libc_a-signal.o)
 .debug_frame   0x000067a4       0x2c /usr/lib/gcc/arm-none-eabi/13.2.1/../../../arm-none-eabi/lib/thumb/v7e-m+dp/hard/libc_nano.a(libc_a-closer.o)
 .debug_frame   0x000067d0       0x40 /usr/lib/gcc/arm-none-eabi/13.2.1/../../../arm-none-eabi/lib/thumb/v7e-m+dp/hard/libc_nano.a(libc_a-memmove.o)
 .debug_frame   0x00006810       0x2c /usr/lib/gcc/arm-none-eabi/13.2.1/../../../arm-none-eabi/lib/thumb/v7e-m+dp/hard/libc_nano.a(libc_a-wsetup.o)
 .debug_frame   0x0000683c       0x2c /usr/lib/gcc/arm-none-eabi/13.2.1/../../../arm-none-eabi/lib/thumb/v7e-m+dp/hard/libc_nano.a(libc_a-readr.o)
 .debug_frame   0x00006868       0x40 /usr/lib/gcc/arm-none-eabi/13.2.1/../../../arm-none-eabi/lib/thumb/v7e-m+dp/hard/libc_nano.a(libc_a-reent.o)
 .debug_frame   0x000068a8       0x38 /usr/lib/gcc/arm-none-eabi/13.2.1/../../../arm-none-eabi/lib/thumb/v7e-m+dp/hard/libc_nano.a(libc_a-reallocr.o)
 .debug_frame   0x000068e0       0x60 /usr/lib/gcc/arm-none-eabi/13.2.1/../../../arm-none-eabi/lib/thumb/v7e-m+dp/hard/libc_nano.a(libc_a-makebuf.o)
 .debug_frame   0x00006940       0x2c /usr/lib/gcc/arm-none-eabi/13.2.1/../../../arm-none-eabi/lib/thumb/v7e-m+dp/hard/libc_nano.a(libc_a-lseekr.o)
 .debug_frame   0x0000696c       0x2c /usr/lib/gcc/arm-none-eabi/13.2.1/../../../arm-none-eabi/lib/thumb/v7e-m+dp/hard/libc_nano.a(libc_a-writer.o)
 .debug_frame   0x00006998       0x2c /usr/lib/gcc/arm-none-eabi/13.2.1/../../../arm-none-eabi/lib/thumb/v7e-m+dp/hard/libc_nano.a(libc_a-isattyr.o)
 .debug_frame   0x000069c4       0x20 /usr/lib/gcc/arm-none-eabi/13.2.1/../../../arm-none-eabi/lib/thumb/v7e-m+dp/hard/libc_nano.a(libc_a-msizer.o)
 .debug_frame   0x000069e4       0x3c /usr/lib/gcc/arm-none-eabi/13.2.1/../../../arm-none-eabi/lib/thumb/v7e-m+dp/hard/libc_nano.a(libc_a-signalr.o)
 .debug_frame   0x00006a20       0x2c /usr/lib/gcc/arm-none-eabi/13.2.1/../../../arm-none-eabi/lib/thumb/v7e-m+dp/hard/libc_nano.a(libc_a-fstatr.o)

.debug_line_str
                0x00000000       0xe7
 .debug_line_str
                0x00000000       0xe7 build/debug/startup_stm32h725xx.o
                                 0x36 (size before relaxing)
 .debug_line_str
                0x000000e7       0x98 /usr/lib/gcc/arm-none-eabi/13.2.1/../../../arm-none-eabi/lib/thumb/v7e-m+dp/hard/libc_nano.a(libc_a-strlen.o)
 .debug_line_str
                0x000000e7       0x99 /usr/lib/gcc/arm-none-eabi/13.2.1/../../../arm-none-eabi/lib/thumb/v7e-m+dp/hard/libc_nano.a(libc_a-memcpy.o)
 .debug_line_str
                0x000000e7       0x92 /usr/lib/gcc/arm-none-eabi/13.2.1/../../../arm-none-eabi/lib/thumb/v7e-m+dp/hard/libc_nano.a(libc_a-memchr.o)

Cross Reference Table

Symbol                                            File
ADC3_IRQHandler                                   build/debug/startup_stm32h725xx.o
ADC_ConfigureBoostMode                            build/debug/stm32h7xx_hal_adc.o
ADC_ConversionStop                                build/debug/stm32h7xx_hal_adc.o
                                                  build/debug/stm32h7xx_hal_adc_ex.o
ADC_DMAConvCplt                                   build/debug/stm32h7xx_hal_adc.o
                                                  build/debug/stm32h7xx_hal_adc_ex.o
ADC_DMAError                                      build/debug/stm32h7xx_hal_adc.o
                                                  build/debug/stm32h7xx_hal_adc_ex.o
ADC_DMAHalfConvCplt                               build/debug/stm32h7xx_hal_adc.o
                                                  build/debug/stm32h7xx_hal_adc_ex.o
ADC_Disable                                       build/debug/stm32h7xx_hal_adc.o
                                                  build/debug/stm32h7xx_hal_adc_ex.o
ADC_Enable                                        build/debug/stm32h7xx_hal_adc.o
                                                  build/debug/stm32h7xx_hal_adc_ex.o
ADC_IRQHandler                                    build/debug/startup_stm32h725xx.o
ADXL375::ADXL375(__I2C_HandleTypeDef*, unsigned char, signed char*) build/debug/ADXL375.o
ADXL375::ADXL375(__I2C_HandleTypeDef*, unsigned char, signed char*) build/debug/ADXL375.o
                                                  build/debug/cpp_main.o
ADXL375::Init()                                   build/debug/ADXL375.o
                                                  build/debug/cpp_main.o
ADXL375::ReadAccel()                              build/debug/ADXL375.o
ADXL375::ReadReg(unsigned char, unsigned char*, unsigned char) build/debug/ADXL375.o
ADXL375::WriteReg(unsigned char, unsigned char*)  build/debug/ADXL375.o
BDMA_Channel0_IRQHandler                          build/debug/startup_stm32h725xx.o
BDMA_Channel1_IRQHandler                          build/debug/startup_stm32h725xx.o
BDMA_Channel2_IRQHandler                          build/debug/startup_stm32h725xx.o
BDMA_Channel3_IRQHandler                          build/debug/startup_stm32h725xx.o
BDMA_Channel4_IRQHandler                          build/debug/startup_stm32h725xx.o
BDMA_Channel5_IRQHandler                          build/debug/startup_stm32h725xx.o
BDMA_Channel6_IRQHandler                          build/debug/startup_stm32h725xx.o
BDMA_Channel7_IRQHandler                          build/debug/startup_stm32h725xx.o
BusFault_Handler                                  build/debug/stm32h7xx_it.o
CDC_Transmit_HS                                   build/debug/usbd_cdc_if.o
                                                  build/debug/abstract.o
CEC_IRQHandler                                    build/debug/startup_stm32h725xx.o
COMP1_IRQHandler                                  build/debug/startup_stm32h725xx.o
CORDIC_IRQHandler                                 build/debug/startup_stm32h725xx.o
CRS_IRQHandler                                    build/debug/startup_stm32h725xx.o
D1CorePrescTable                                  build/debug/system_stm32h7xx.o
                                                  build/debug/stm32h7xx_hal_rcc_ex.o
                                                  build/debug/stm32h7xx_hal_rcc.o
                                                  build/debug/stm32h7xx_hal.o
DCMI_PSSI_IRQHandler                              build/debug/startup_stm32h725xx.o
DFSDM1_FLT0_IRQHandler                            build/debug/startup_stm32h725xx.o
DFSDM1_FLT1_IRQHandler                            build/debug/startup_stm32h725xx.o
DFSDM1_FLT2_IRQHandler                            build/debug/startup_stm32h725xx.o
DFSDM1_FLT3_IRQHandler                            build/debug/startup_stm32h725xx.o
DMA1_Stream0_IRQHandler                           build/debug/startup_stm32h725xx.o
DMA1_Stream1_IRQHandler                           build/debug/startup_stm32h725xx.o
DMA1_Stream2_IRQHandler                           build/debug/startup_stm32h725xx.o
DMA1_Stream3_IRQHandler                           build/debug/startup_stm32h725xx.o
DMA1_Stream4_IRQHandler                           build/debug/startup_stm32h725xx.o
DMA1_Stream5_IRQHandler                           build/debug/startup_stm32h725xx.o
DMA1_Stream6_IRQHandler                           build/debug/startup_stm32h725xx.o
DMA1_Stream7_IRQHandler                           build/debug/startup_stm32h725xx.o
DMA2D_IRQHandler                                  build/debug/startup_stm32h725xx.o
DMA2_Stream0_IRQHandler                           build/debug/startup_stm32h725xx.o
DMA2_Stream1_IRQHandler                           build/debug/startup_stm32h725xx.o
DMA2_Stream2_IRQHandler                           build/debug/startup_stm32h725xx.o
DMA2_Stream3_IRQHandler                           build/debug/startup_stm32h725xx.o
DMA2_Stream4_IRQHandler                           build/debug/startup_stm32h725xx.o
DMA2_Stream5_IRQHandler                           build/debug/startup_stm32h725xx.o
DMA2_Stream6_IRQHandler                           build/debug/startup_stm32h725xx.o
DMA2_Stream7_IRQHandler                           build/debug/startup_stm32h725xx.o
DMAMUX1_OVR_IRQHandler                            build/debug/startup_stm32h725xx.o
DMAMUX2_OVR_IRQHandler                            build/debug/startup_stm32h725xx.o
DTS_IRQHandler                                    build/debug/startup_stm32h725xx.o
DebugMon_Handler                                  build/debug/stm32h7xx_it.o
Default_Handler                                   build/debug/startup_stm32h725xx.o
ECC_IRQHandler                                    build/debug/startup_stm32h725xx.o
ETH_IRQHandler                                    build/debug/startup_stm32h725xx.o
ETH_WKUP_IRQHandler                               build/debug/startup_stm32h725xx.o
EXTI0_IRQHandler                                  build/debug/startup_stm32h725xx.o
EXTI15_10_IRQHandler                              build/debug/startup_stm32h725xx.o
EXTI1_IRQHandler                                  build/debug/startup_stm32h725xx.o
EXTI2_IRQHandler                                  build/debug/startup_stm32h725xx.o
EXTI3_IRQHandler                                  build/debug/startup_stm32h725xx.o
EXTI4_IRQHandler                                  build/debug/startup_stm32h725xx.o
EXTI9_5_IRQHandler                                build/debug/startup_stm32h725xx.o
Error_Handler                                     build/debug/main.o
                                                  build/debug/usbd_conf.o
                                                  build/debug/usb_device.o
                                                  build/debug/tim.o
                                                  build/debug/spi.o
                                                  build/debug/i2c.o
                                                  build/debug/fmac.o
                                                  build/debug/cordic.o
                                                  build/debug/adc.o
ExitRun0Mode                                      build/debug/system_stm32h7xx.o
                                                  build/debug/startup_stm32h725xx.o
FDCAN1_IT0_IRQHandler                             build/debug/startup_stm32h725xx.o
FDCAN1_IT1_IRQHandler                             build/debug/startup_stm32h725xx.o
FDCAN2_IT0_IRQHandler                             build/debug/startup_stm32h725xx.o
FDCAN2_IT1_IRQHandler                             build/debug/startup_stm32h725xx.o
FDCAN3_IT0_IRQHandler                             build/debug/startup_stm32h725xx.o
FDCAN3_IT1_IRQHandler                             build/debug/startup_stm32h725xx.o
FDCAN_CAL_IRQHandler                              build/debug/startup_stm32h725xx.o
FLASH_CRC_WaitForLastOperation                    build/debug/stm32h7xx_hal_flash.o
                                                  build/debug/stm32h7xx_hal_flash_ex.o
FLASH_Erase_Sector                                build/debug/stm32h7xx_hal_flash_ex.o
                                                  build/debug/stm32h7xx_hal_flash.o
FLASH_IRQHandler                                  build/debug/startup_stm32h725xx.o
FLASH_OB_WaitForLastOperation                     build/debug/stm32h7xx_hal_flash.o
                                                  build/debug/stm32h7xx_hal_flash_ex.o
FLASH_WaitForLastOperation                        build/debug/stm32h7xx_hal_flash.o
                                                  build/debug/stm32h7xx_hal_flash_ex.o
FMAC_IRQHandler                                   build/debug/startup_stm32h725xx.o
FMC_IRQHandler                                    build/debug/startup_stm32h725xx.o
FPU_IRQHandler                                    build/debug/startup_stm32h725xx.o
HAL_ADCEx_Calibration_GetValue                    build/debug/stm32h7xx_hal_adc_ex.o
HAL_ADCEx_Calibration_SetValue                    build/debug/stm32h7xx_hal_adc_ex.o
HAL_ADCEx_Calibration_Start                       build/debug/stm32h7xx_hal_adc_ex.o
HAL_ADCEx_DisableInjectedQueue                    build/debug/stm32h7xx_hal_adc_ex.o
HAL_ADCEx_DisableVoltageRegulator                 build/debug/stm32h7xx_hal_adc_ex.o
HAL_ADCEx_EnableInjectedQueue                     build/debug/stm32h7xx_hal_adc_ex.o
HAL_ADCEx_EndOfSamplingCallback                   build/debug/stm32h7xx_hal_adc_ex.o
                                                  build/debug/stm32h7xx_hal_adc.o
HAL_ADCEx_EnterADCDeepPowerDownMode               build/debug/stm32h7xx_hal_adc_ex.o
HAL_ADCEx_InjectedConfigChannel                   build/debug/stm32h7xx_hal_adc_ex.o
HAL_ADCEx_InjectedConvCpltCallback                build/debug/stm32h7xx_hal_adc_ex.o
                                                  build/debug/stm32h7xx_hal_adc.o
HAL_ADCEx_InjectedGetValue                        build/debug/stm32h7xx_hal_adc_ex.o
HAL_ADCEx_InjectedPollForConversion               build/debug/stm32h7xx_hal_adc_ex.o
HAL_ADCEx_InjectedQueueOverflowCallback           build/debug/stm32h7xx_hal_adc_ex.o
                                                  build/debug/stm32h7xx_hal_adc.o
HAL_ADCEx_InjectedStart                           build/debug/stm32h7xx_hal_adc_ex.o
HAL_ADCEx_InjectedStart_IT                        build/debug/stm32h7xx_hal_adc_ex.o
HAL_ADCEx_InjectedStop                            build/debug/stm32h7xx_hal_adc_ex.o
HAL_ADCEx_InjectedStop_IT                         build/debug/stm32h7xx_hal_adc_ex.o
HAL_ADCEx_LevelOutOfWindow2Callback               build/debug/stm32h7xx_hal_adc_ex.o
                                                  build/debug/stm32h7xx_hal_adc.o
HAL_ADCEx_LevelOutOfWindow3Callback               build/debug/stm32h7xx_hal_adc_ex.o
                                                  build/debug/stm32h7xx_hal_adc.o
HAL_ADCEx_LinearCalibration_FactorLoad            build/debug/stm32h7xx_hal_adc_ex.o
HAL_ADCEx_LinearCalibration_GetValue              build/debug/stm32h7xx_hal_adc_ex.o
HAL_ADCEx_LinearCalibration_SetValue              build/debug/stm32h7xx_hal_adc_ex.o
HAL_ADCEx_MultiModeConfigChannel                  build/debug/stm32h7xx_hal_adc_ex.o
                                                  build/debug/adc.o
HAL_ADCEx_MultiModeGetValue                       build/debug/stm32h7xx_hal_adc_ex.o
HAL_ADCEx_MultiModeStart_DMA                      build/debug/stm32h7xx_hal_adc_ex.o
HAL_ADCEx_MultiModeStop_DMA                       build/debug/stm32h7xx_hal_adc_ex.o
HAL_ADCEx_RegularMultiModeStop_DMA                build/debug/stm32h7xx_hal_adc_ex.o
HAL_ADCEx_RegularStop                             build/debug/stm32h7xx_hal_adc_ex.o
HAL_ADCEx_RegularStop_DMA                         build/debug/stm32h7xx_hal_adc_ex.o
HAL_ADCEx_RegularStop_IT                          build/debug/stm32h7xx_hal_adc_ex.o
HAL_ADC_AnalogWDGConfig                           build/debug/stm32h7xx_hal_adc.o
HAL_ADC_ConfigChannel                             build/debug/stm32h7xx_hal_adc.o
                                                  build/debug/adc.o
HAL_ADC_ConvCpltCallback                          build/debug/stm32h7xx_hal_adc.o
HAL_ADC_ConvHalfCpltCallback                      build/debug/stm32h7xx_hal_adc.o
HAL_ADC_DeInit                                    build/debug/stm32h7xx_hal_adc.o
HAL_ADC_ErrorCallback                             build/debug/stm32h7xx_hal_adc.o
HAL_ADC_GetError                                  build/debug/stm32h7xx_hal_adc.o
HAL_ADC_GetState                                  build/debug/stm32h7xx_hal_adc.o
HAL_ADC_GetValue                                  build/debug/stm32h7xx_hal_adc.o
HAL_ADC_IRQHandler                                build/debug/stm32h7xx_hal_adc.o
HAL_ADC_Init                                      build/debug/stm32h7xx_hal_adc.o
                                                  build/debug/adc.o
HAL_ADC_LevelOutOfWindowCallback                  build/debug/stm32h7xx_hal_adc.o
HAL_ADC_MspDeInit                                 build/debug/adc.o
HAL_ADC_MspInit                                   build/debug/adc.o
HAL_ADC_PollForConversion                         build/debug/stm32h7xx_hal_adc.o
HAL_ADC_PollForEvent                              build/debug/stm32h7xx_hal_adc.o
HAL_ADC_Start                                     build/debug/stm32h7xx_hal_adc.o
HAL_ADC_Start_DMA                                 build/debug/stm32h7xx_hal_adc.o
HAL_ADC_Start_IT                                  build/debug/stm32h7xx_hal_adc.o
HAL_ADC_Stop                                      build/debug/stm32h7xx_hal_adc.o
HAL_ADC_Stop_DMA                                  build/debug/stm32h7xx_hal_adc.o
HAL_ADC_Stop_IT                                   build/debug/stm32h7xx_hal_adc.o
HAL_CORDIC_Calculate                              build/debug/stm32h7xx_hal_cordic.o
HAL_CORDIC_CalculateCpltCallback                  build/debug/stm32h7xx_hal_cordic.o
HAL_CORDIC_CalculateZO                            build/debug/stm32h7xx_hal_cordic.o
HAL_CORDIC_Calculate_DMA                          build/debug/stm32h7xx_hal_cordic.o
HAL_CORDIC_Calculate_IT                           build/debug/stm32h7xx_hal_cordic.o
HAL_CORDIC_Configure                              build/debug/stm32h7xx_hal_cordic.o
HAL_CORDIC_DeInit                                 build/debug/stm32h7xx_hal_cordic.o
HAL_CORDIC_ErrorCallback                          build/debug/stm32h7xx_hal_cordic.o
HAL_CORDIC_GetError                               build/debug/stm32h7xx_hal_cordic.o
HAL_CORDIC_GetState                               build/debug/stm32h7xx_hal_cordic.o
HAL_CORDIC_IRQHandler                             build/debug/stm32h7xx_hal_cordic.o
HAL_CORDIC_Init                                   build/debug/stm32h7xx_hal_cordic.o
                                                  build/debug/cordic.o
HAL_CORDIC_MspDeInit                              build/debug/cordic.o
HAL_CORDIC_MspInit                                build/debug/cordic.o
HAL_DBGMCU_DisableDBGSleepMode                    build/debug/stm32h7xx_hal.o
HAL_DBGMCU_DisableDBGStandbyMode                  build/debug/stm32h7xx_hal.o
HAL_DBGMCU_DisableDBGStopMode                     build/debug/stm32h7xx_hal.o
HAL_DBGMCU_EnableDBGSleepMode                     build/debug/stm32h7xx_hal.o
HAL_DBGMCU_EnableDBGStandbyMode                   build/debug/stm32h7xx_hal.o
HAL_DBGMCU_EnableDBGStopMode                      build/debug/stm32h7xx_hal.o
HAL_DMAEx_ChangeMemory                            build/debug/stm32h7xx_hal_dma_ex.o
HAL_DMAEx_ConfigMuxRequestGenerator               build/debug/stm32h7xx_hal_dma_ex.o
HAL_DMAEx_ConfigMuxSync                           build/debug/stm32h7xx_hal_dma_ex.o
HAL_DMAEx_DisableMuxRequestGenerator              build/debug/stm32h7xx_hal_dma_ex.o
HAL_DMAEx_EnableMuxRequestGenerator               build/debug/stm32h7xx_hal_dma_ex.o
HAL_DMAEx_MUX_IRQHandler                          build/debug/stm32h7xx_hal_dma_ex.o
HAL_DMAEx_MultiBufferStart                        build/debug/stm32h7xx_hal_dma_ex.o
HAL_DMAEx_MultiBufferStart_IT                     build/debug/stm32h7xx_hal_dma_ex.o
HAL_DMA_Abort                                     build/debug/stm32h7xx_hal_dma.o
                                                  build/debug/stm32h7xx_hal_spi.o
                                                  build/debug/stm32h7xx_hal_adc_ex.o
                                                  build/debug/stm32h7xx_hal_adc.o
HAL_DMA_Abort_IT                                  build/debug/stm32h7xx_hal_dma.o
                                                  build/debug/stm32h7xx_hal_tim_ex.o
                                                  build/debug/stm32h7xx_hal_tim.o
                                                  build/debug/stm32h7xx_hal_spi.o
                                                  build/debug/stm32h7xx_hal_i2c.o
                                                  build/debug/stm32h7xx_hal_fmac.o
HAL_DMA_DeInit                                    build/debug/stm32h7xx_hal_dma.o
HAL_DMA_GetError                                  build/debug/stm32h7xx_hal_dma.o
                                                  build/debug/stm32h7xx_hal_spi.o
                                                  build/debug/stm32h7xx_hal_i2c.o
HAL_DMA_GetState                                  build/debug/stm32h7xx_hal_dma.o
                                                  build/debug/stm32h7xx_hal_i2c.o
HAL_DMA_IRQHandler                                build/debug/stm32h7xx_hal_dma.o
HAL_DMA_Init                                      build/debug/stm32h7xx_hal_dma.o
HAL_DMA_PollForTransfer                           build/debug/stm32h7xx_hal_dma.o
HAL_DMA_RegisterCallback                          build/debug/stm32h7xx_hal_dma.o
HAL_DMA_Start                                     build/debug/stm32h7xx_hal_dma.o
HAL_DMA_Start_IT                                  build/debug/stm32h7xx_hal_dma.o
                                                  build/debug/stm32h7xx_hal_tim_ex.o
                                                  build/debug/stm32h7xx_hal_tim.o
                                                  build/debug/stm32h7xx_hal_spi.o
                                                  build/debug/stm32h7xx_hal_i2c.o
                                                  build/debug/stm32h7xx_hal_fmac.o
                                                  build/debug/stm32h7xx_hal_cordic.o
                                                  build/debug/stm32h7xx_hal_adc_ex.o
                                                  build/debug/stm32h7xx_hal_adc.o
HAL_DMA_UnRegisterCallback                        build/debug/stm32h7xx_hal_dma.o
HAL_DeInit                                        build/debug/stm32h7xx_hal.o
HAL_Delay                                         build/debug/stm32h7xx_hal.o
                                                  build/debug/cpp_main.o
                                                  build/debug/MS5607.o
                                                  build/debug/usbd_conf.o
                                                  build/debug/stm32h7xx_ll_usb.o
                                                  build/debug/stm32h7xx_hal_pcd_ex.o
HAL_DisableCompensationCell                       build/debug/stm32h7xx_hal.o
HAL_DisableDomain3DBGStandbyMode                  build/debug/stm32h7xx_hal.o
HAL_DisableDomain3DBGStopMode                     build/debug/stm32h7xx_hal.o
HAL_EXTI_ClearConfigLine                          build/debug/stm32h7xx_hal_exti.o
HAL_EXTI_ClearPending                             build/debug/stm32h7xx_hal_exti.o
HAL_EXTI_D1_ClearFlag                             build/debug/stm32h7xx_hal.o
HAL_EXTI_D1_EventInputConfig                      build/debug/stm32h7xx_hal.o
HAL_EXTI_D3_EventInputConfig                      build/debug/stm32h7xx_hal.o
HAL_EXTI_EdgeConfig                               build/debug/stm32h7xx_hal.o
HAL_EXTI_GenerateSWI                              build/debug/stm32h7xx_hal_exti.o
HAL_EXTI_GenerateSWInterrupt                      build/debug/stm32h7xx_hal.o
HAL_EXTI_GetConfigLine                            build/debug/stm32h7xx_hal_exti.o
HAL_EXTI_GetHandle                                build/debug/stm32h7xx_hal_exti.o
HAL_EXTI_GetPending                               build/debug/stm32h7xx_hal_exti.o
HAL_EXTI_IRQHandler                               build/debug/stm32h7xx_hal_exti.o
HAL_EXTI_RegisterCallback                         build/debug/stm32h7xx_hal_exti.o
HAL_EXTI_SetConfigLine                            build/debug/stm32h7xx_hal_exti.o
HAL_EnableCompensationCell                        build/debug/stm32h7xx_hal.o
HAL_EnableDomain3DBGStandbyMode                   build/debug/stm32h7xx_hal.o
HAL_EnableDomain3DBGStopMode                      build/debug/stm32h7xx_hal.o
HAL_FLASHEx_ComputeCRC                            build/debug/stm32h7xx_hal_flash_ex.o
HAL_FLASHEx_Erase                                 build/debug/stm32h7xx_hal_flash_ex.o
HAL_FLASHEx_Erase_IT                              build/debug/stm32h7xx_hal_flash_ex.o
HAL_FLASHEx_Lock_Bank1                            build/debug/stm32h7xx_hal_flash_ex.o
HAL_FLASHEx_OBGetConfig                           build/debug/stm32h7xx_hal_flash_ex.o
HAL_FLASHEx_OBProgram                             build/debug/stm32h7xx_hal_flash_ex.o
HAL_FLASHEx_Unlock_Bank1                          build/debug/stm32h7xx_hal_flash_ex.o
HAL_FLASH_EndOfOperationCallback                  build/debug/stm32h7xx_hal_flash.o
HAL_FLASH_GetError                                build/debug/stm32h7xx_hal_flash.o
HAL_FLASH_IRQHandler                              build/debug/stm32h7xx_hal_flash.o
HAL_FLASH_Lock                                    build/debug/stm32h7xx_hal_flash.o
HAL_FLASH_OB_Launch                               build/debug/stm32h7xx_hal_flash.o
HAL_FLASH_OB_Lock                                 build/debug/stm32h7xx_hal_flash.o
HAL_FLASH_OB_Unlock                               build/debug/stm32h7xx_hal_flash.o
HAL_FLASH_OperationErrorCallback                  build/debug/stm32h7xx_hal_flash.o
HAL_FLASH_Program                                 build/debug/stm32h7xx_hal_flash.o
HAL_FLASH_Program_IT                              build/debug/stm32h7xx_hal_flash.o
HAL_FLASH_Unlock                                  build/debug/stm32h7xx_hal_flash.o
HAL_FMAC_AppendFilterData                         build/debug/stm32h7xx_hal_fmac.o
HAL_FMAC_ConfigFilterOutputBuffer                 build/debug/stm32h7xx_hal_fmac.o
HAL_FMAC_DeInit                                   build/debug/stm32h7xx_hal_fmac.o
HAL_FMAC_ErrorCallback                            build/debug/stm32h7xx_hal_fmac.o
HAL_FMAC_FilterConfig                             build/debug/stm32h7xx_hal_fmac.o
HAL_FMAC_FilterConfigCallback                     build/debug/stm32h7xx_hal_fmac.o
HAL_FMAC_FilterConfig_DMA                         build/debug/stm32h7xx_hal_fmac.o
HAL_FMAC_FilterPreload                            build/debug/stm32h7xx_hal_fmac.o
HAL_FMAC_FilterPreloadCallback                    build/debug/stm32h7xx_hal_fmac.o
HAL_FMAC_FilterPreload_DMA                        build/debug/stm32h7xx_hal_fmac.o
HAL_FMAC_FilterStart                              build/debug/stm32h7xx_hal_fmac.o
HAL_FMAC_FilterStop                               build/debug/stm32h7xx_hal_fmac.o
HAL_FMAC_GetDataCallback                          build/debug/stm32h7xx_hal_fmac.o
HAL_FMAC_GetError                                 build/debug/stm32h7xx_hal_fmac.o
HAL_FMAC_GetState                                 build/debug/stm32h7xx_hal_fmac.o
HAL_FMAC_HalfGetDataCallback                      build/debug/stm32h7xx_hal_fmac.o
HAL_FMAC_HalfOutputDataReadyCallback              build/debug/stm32h7xx_hal_fmac.o
HAL_FMAC_IRQHandler                               build/debug/stm32h7xx_hal_fmac.o
HAL_FMAC_Init                                     build/debug/stm32h7xx_hal_fmac.o
                                                  build/debug/fmac.o
HAL_FMAC_MspDeInit                                build/debug/fmac.o
HAL_FMAC_MspInit                                  build/debug/fmac.o
HAL_FMAC_OutputDataReadyCallback                  build/debug/stm32h7xx_hal_fmac.o
HAL_FMAC_PollFilterData                           build/debug/stm32h7xx_hal_fmac.o
HAL_GPIO_DeInit                                   build/debug/stm32h7xx_hal_gpio.o
                                                  build/debug/spi.o
                                                  build/debug/i2c.o
                                                  build/debug/adc.o
HAL_GPIO_EXTI_Callback                            build/debug/stm32h7xx_hal_gpio.o
HAL_GPIO_EXTI_IRQHandler                          build/debug/stm32h7xx_hal_gpio.o
HAL_GPIO_Init                                     build/debug/stm32h7xx_hal_gpio.o
                                                  build/debug/tim.o
                                                  build/debug/stm32h7xx_hal_rcc.o
                                                  build/debug/spi.o
                                                  build/debug/i2c.o
                                                  build/debug/gpio.o
                                                  build/debug/adc.o
HAL_GPIO_LockPin                                  build/debug/stm32h7xx_hal_gpio.o
HAL_GPIO_ReadPin                                  build/debug/stm32h7xx_hal_gpio.o
HAL_GPIO_TogglePin                                build/debug/stm32h7xx_hal_gpio.o
HAL_GPIO_WritePin                                 build/debug/stm32h7xx_hal_gpio.o
                                                  build/debug/gpio.o
HAL_GetCurrentCPUID                               build/debug/stm32h7xx_hal_cortex.o
HAL_GetDEVID                                      build/debug/stm32h7xx_hal.o
HAL_GetFMCMemorySwappingConfig                    build/debug/stm32h7xx_hal.o
HAL_GetHalVersion                                 build/debug/stm32h7xx_hal.o
HAL_GetREVID                                      build/debug/stm32h7xx_hal.o
                                                  build/debug/stm32h7xx_hal_rcc_ex.o
HAL_GetTick                                       build/debug/stm32h7xx_hal.o
                                                  build/debug/stm32h7xx_hal_tim_ex.o
                                                  build/debug/stm32h7xx_hal_spi.o
                                                  build/debug/stm32h7xx_hal_rcc_ex.o
                                                  build/debug/stm32h7xx_hal_rcc.o
                                                  build/debug/stm32h7xx_hal_pwr_ex.o
                                                  build/debug/stm32h7xx_hal_pcd_ex.o
                                                  build/debug/stm32h7xx_hal_mdma.o
                                                  build/debug/stm32h7xx_hal_i2c.o
                                                  build/debug/stm32h7xx_hal_fmac.o
                                                  build/debug/stm32h7xx_hal_flash.o
                                                  build/debug/stm32h7xx_hal_dma.o
                                                  build/debug/stm32h7xx_hal_cordic.o
                                                  build/debug/stm32h7xx_hal_adc_ex.o
                                                  build/debug/stm32h7xx_hal_adc.o
HAL_GetTickFreq                                   build/debug/stm32h7xx_hal.o
HAL_GetTickPrio                                   build/debug/stm32h7xx_hal.o
HAL_GetUIDw0                                      build/debug/stm32h7xx_hal.o
HAL_GetUIDw1                                      build/debug/stm32h7xx_hal.o
HAL_GetUIDw2                                      build/debug/stm32h7xx_hal.o
HAL_HSEM_ActivateNotification                     build/debug/stm32h7xx_hal_hsem.o
HAL_HSEM_DeactivateNotification                   build/debug/stm32h7xx_hal_hsem.o
HAL_HSEM_FastTake                                 build/debug/stm32h7xx_hal_hsem.o
HAL_HSEM_FreeCallback                             build/debug/stm32h7xx_hal_hsem.o
HAL_HSEM_GetClearKey                              build/debug/stm32h7xx_hal_hsem.o
HAL_HSEM_IRQHandler                               build/debug/stm32h7xx_hal_hsem.o
HAL_HSEM_IsSemTaken                               build/debug/stm32h7xx_hal_hsem.o
HAL_HSEM_Release                                  build/debug/stm32h7xx_hal_hsem.o
HAL_HSEM_ReleaseAll                               build/debug/stm32h7xx_hal_hsem.o
HAL_HSEM_SetClearKey                              build/debug/stm32h7xx_hal_hsem.o
HAL_HSEM_Take                                     build/debug/stm32h7xx_hal_hsem.o
HAL_I2CEx_ConfigAnalogFilter                      build/debug/stm32h7xx_hal_i2c_ex.o
                                                  build/debug/i2c.o
HAL_I2CEx_ConfigDigitalFilter                     build/debug/stm32h7xx_hal_i2c_ex.o
                                                  build/debug/i2c.o
HAL_I2CEx_DisableFastModePlus                     build/debug/stm32h7xx_hal_i2c_ex.o
HAL_I2CEx_DisableWakeUp                           build/debug/stm32h7xx_hal_i2c_ex.o
HAL_I2CEx_EnableFastModePlus                      build/debug/stm32h7xx_hal_i2c_ex.o
HAL_I2CEx_EnableWakeUp                            build/debug/stm32h7xx_hal_i2c_ex.o
HAL_I2C_AbortCpltCallback                         build/debug/stm32h7xx_hal_i2c.o
HAL_I2C_AddrCallback                              build/debug/stm32h7xx_hal_i2c.o
HAL_I2C_DeInit                                    build/debug/stm32h7xx_hal_i2c.o
HAL_I2C_DisableListen_IT                          build/debug/stm32h7xx_hal_i2c.o
HAL_I2C_ER_IRQHandler                             build/debug/stm32h7xx_hal_i2c.o
HAL_I2C_EV_IRQHandler                             build/debug/stm32h7xx_hal_i2c.o
HAL_I2C_EnableListen_IT                           build/debug/stm32h7xx_hal_i2c.o
HAL_I2C_ErrorCallback                             build/debug/stm32h7xx_hal_i2c.o
HAL_I2C_GetError                                  build/debug/stm32h7xx_hal_i2c.o
HAL_I2C_GetMode                                   build/debug/stm32h7xx_hal_i2c.o
HAL_I2C_GetState                                  build/debug/stm32h7xx_hal_i2c.o
HAL_I2C_Init                                      build/debug/stm32h7xx_hal_i2c.o
                                                  build/debug/i2c.o
HAL_I2C_IsDeviceReady                             build/debug/stm32h7xx_hal_i2c.o
HAL_I2C_ListenCpltCallback                        build/debug/stm32h7xx_hal_i2c.o
HAL_I2C_MasterRxCpltCallback                      build/debug/stm32h7xx_hal_i2c.o
HAL_I2C_MasterTxCpltCallback                      build/debug/stm32h7xx_hal_i2c.o
HAL_I2C_Master_Abort_IT                           build/debug/stm32h7xx_hal_i2c.o
HAL_I2C_Master_Receive                            build/debug/stm32h7xx_hal_i2c.o
HAL_I2C_Master_Receive_DMA                        build/debug/stm32h7xx_hal_i2c.o
HAL_I2C_Master_Receive_IT                         build/debug/stm32h7xx_hal_i2c.o
HAL_I2C_Master_Seq_Receive_DMA                    build/debug/stm32h7xx_hal_i2c.o
HAL_I2C_Master_Seq_Receive_IT                     build/debug/stm32h7xx_hal_i2c.o
HAL_I2C_Master_Seq_Transmit_DMA                   build/debug/stm32h7xx_hal_i2c.o
HAL_I2C_Master_Seq_Transmit_IT                    build/debug/stm32h7xx_hal_i2c.o
HAL_I2C_Master_Transmit                           build/debug/stm32h7xx_hal_i2c.o
                                                  build/debug/MS5607.o
HAL_I2C_Master_Transmit_DMA                       build/debug/stm32h7xx_hal_i2c.o
HAL_I2C_Master_Transmit_IT                        build/debug/stm32h7xx_hal_i2c.o
HAL_I2C_MemRxCpltCallback                         build/debug/stm32h7xx_hal_i2c.o
HAL_I2C_MemTxCpltCallback                         build/debug/stm32h7xx_hal_i2c.o
HAL_I2C_Mem_Read                                  build/debug/stm32h7xx_hal_i2c.o
                                                  build/debug/abstract.o
                                                  build/debug/MS5607.o
                                                  build/debug/ICM42688.o
                                                  build/debug/ADXL375.o
HAL_I2C_Mem_Read_DMA                              build/debug/stm32h7xx_hal_i2c.o
HAL_I2C_Mem_Read_IT                               build/debug/stm32h7xx_hal_i2c.o
HAL_I2C_Mem_Write                                 build/debug/stm32h7xx_hal_i2c.o
                                                  build/debug/abstract.o
                                                  build/debug/ICM42688.o
                                                  build/debug/ADXL375.o
HAL_I2C_Mem_Write_DMA                             build/debug/stm32h7xx_hal_i2c.o
HAL_I2C_Mem_Write_IT                              build/debug/stm32h7xx_hal_i2c.o
HAL_I2C_MspDeInit                                 build/debug/i2c.o
HAL_I2C_MspInit                                   build/debug/i2c.o
HAL_I2C_SlaveRxCpltCallback                       build/debug/stm32h7xx_hal_i2c.o
HAL_I2C_SlaveTxCpltCallback                       build/debug/stm32h7xx_hal_i2c.o
HAL_I2C_Slave_Receive                             build/debug/stm32h7xx_hal_i2c.o
HAL_I2C_Slave_Receive_DMA                         build/debug/stm32h7xx_hal_i2c.o
HAL_I2C_Slave_Receive_IT                          build/debug/stm32h7xx_hal_i2c.o
HAL_I2C_Slave_Seq_Receive_DMA                     build/debug/stm32h7xx_hal_i2c.o
HAL_I2C_Slave_Seq_Receive_IT                      build/debug/stm32h7xx_hal_i2c.o
HAL_I2C_Slave_Seq_Transmit_DMA                    build/debug/stm32h7xx_hal_i2c.o
HAL_I2C_Slave_Seq_Transmit_IT                     build/debug/stm32h7xx_hal_i2c.o
HAL_I2C_Slave_Transmit                            build/debug/stm32h7xx_hal_i2c.o
HAL_I2C_Slave_Transmit_DMA                        build/debug/stm32h7xx_hal_i2c.o
HAL_I2C_Slave_Transmit_IT                         build/debug/stm32h7xx_hal_i2c.o
HAL_IncTick                                       build/debug/stm32h7xx_hal.o
                                                  build/debug/stm32h7xx_it.o
HAL_Init                                          build/debug/stm32h7xx_hal.o
                                                  build/debug/main.o
HAL_InitTick                                      build/debug/stm32h7xx_hal.o
                                                  build/debug/stm32h7xx_hal_rcc.o
HAL_MDMA_Abort                                    build/debug/stm32h7xx_hal_mdma.o
HAL_MDMA_Abort_IT                                 build/debug/stm32h7xx_hal_mdma.o
HAL_MDMA_ConfigPostRequestMask                    build/debug/stm32h7xx_hal_mdma.o
HAL_MDMA_DeInit                                   build/debug/stm32h7xx_hal_mdma.o
HAL_MDMA_GenerateSWRequest                        build/debug/stm32h7xx_hal_mdma.o
HAL_MDMA_GetError                                 build/debug/stm32h7xx_hal_mdma.o
HAL_MDMA_GetState                                 build/debug/stm32h7xx_hal_mdma.o
HAL_MDMA_IRQHandler                               build/debug/stm32h7xx_hal_mdma.o
HAL_MDMA_Init                                     build/debug/stm32h7xx_hal_mdma.o
HAL_MDMA_LinkedList_AddNode                       build/debug/stm32h7xx_hal_mdma.o
HAL_MDMA_LinkedList_CreateNode                    build/debug/stm32h7xx_hal_mdma.o
HAL_MDMA_LinkedList_DisableCircularMode           build/debug/stm32h7xx_hal_mdma.o
HAL_MDMA_LinkedList_EnableCircularMode            build/debug/stm32h7xx_hal_mdma.o
HAL_MDMA_LinkedList_RemoveNode                    build/debug/stm32h7xx_hal_mdma.o
HAL_MDMA_PollForTransfer                          build/debug/stm32h7xx_hal_mdma.o
HAL_MDMA_RegisterCallback                         build/debug/stm32h7xx_hal_mdma.o
HAL_MDMA_Start                                    build/debug/stm32h7xx_hal_mdma.o
HAL_MDMA_Start_IT                                 build/debug/stm32h7xx_hal_mdma.o
HAL_MDMA_UnRegisterCallback                       build/debug/stm32h7xx_hal_mdma.o
HAL_MPU_ConfigRegion                              build/debug/stm32h7xx_hal_cortex.o
HAL_MPU_Disable                                   build/debug/stm32h7xx_hal_cortex.o
HAL_MPU_DisableRegion                             build/debug/stm32h7xx_hal_cortex.o
HAL_MPU_Enable                                    build/debug/stm32h7xx_hal_cortex.o
HAL_MPU_EnableRegion                              build/debug/stm32h7xx_hal_cortex.o
HAL_MspDeInit                                     build/debug/stm32h7xx_hal.o
HAL_MspInit                                       build/debug/stm32h7xx_hal_msp.o
                                                  build/debug/stm32h7xx_hal.o
HAL_NVIC_ClearPendingIRQ                          build/debug/stm32h7xx_hal_cortex.o
HAL_NVIC_DisableIRQ                               build/debug/stm32h7xx_hal_cortex.o
                                                  build/debug/usbd_conf.o
HAL_NVIC_EnableIRQ                                build/debug/stm32h7xx_hal_cortex.o
                                                  build/debug/usbd_conf.o
HAL_NVIC_GetActive                                build/debug/stm32h7xx_hal_cortex.o
HAL_NVIC_GetPendingIRQ                            build/debug/stm32h7xx_hal_cortex.o
HAL_NVIC_GetPriority                              build/debug/stm32h7xx_hal_cortex.o
HAL_NVIC_GetPriorityGrouping                      build/debug/stm32h7xx_hal_cortex.o
HAL_NVIC_SetPendingIRQ                            build/debug/stm32h7xx_hal_cortex.o
HAL_NVIC_SetPriority                              build/debug/stm32h7xx_hal_cortex.o
                                                  build/debug/usbd_conf.o
                                                  build/debug/stm32h7xx_hal.o
HAL_NVIC_SetPriorityGrouping                      build/debug/stm32h7xx_hal_cortex.o
                                                  build/debug/stm32h7xx_hal.o
HAL_NVIC_SystemReset                              build/debug/stm32h7xx_hal_cortex.o
HAL_PCDEx_ActivateBCD                             build/debug/stm32h7xx_hal_pcd_ex.o
HAL_PCDEx_ActivateLPM                             build/debug/stm32h7xx_hal_pcd_ex.o
                                                  build/debug/stm32h7xx_hal_pcd.o
HAL_PCDEx_BCD_Callback                            build/debug/stm32h7xx_hal_pcd_ex.o
HAL_PCDEx_BCD_VBUSDetect                          build/debug/stm32h7xx_hal_pcd_ex.o
HAL_PCDEx_DeActivateBCD                           build/debug/stm32h7xx_hal_pcd_ex.o
HAL_PCDEx_DeActivateLPM                           build/debug/stm32h7xx_hal_pcd_ex.o
HAL_PCDEx_LPM_Callback                            build/debug/stm32h7xx_hal_pcd_ex.o
                                                  build/debug/stm32h7xx_hal_pcd.o
HAL_PCDEx_SetRxFiFo                               build/debug/stm32h7xx_hal_pcd_ex.o
                                                  build/debug/usbd_conf.o
HAL_PCDEx_SetTxFiFo                               build/debug/stm32h7xx_hal_pcd_ex.o
                                                  build/debug/usbd_conf.o
HAL_PCD_ActivateRemoteWakeup                      build/debug/stm32h7xx_hal_pcd.o
HAL_PCD_ConnectCallback                           build/debug/usbd_conf.o
                                                  build/debug/stm32h7xx_hal_pcd.o
HAL_PCD_DataInStageCallback                       build/debug/usbd_conf.o
                                                  build/debug/stm32h7xx_hal_pcd.o
HAL_PCD_DataOutStageCallback                      build/debug/usbd_conf.o
                                                  build/debug/stm32h7xx_hal_pcd.o
HAL_PCD_DeActivateRemoteWakeup                    build/debug/stm32h7xx_hal_pcd.o
HAL_PCD_DeInit                                    build/debug/stm32h7xx_hal_pcd.o
                                                  build/debug/usbd_conf.o
HAL_PCD_DevConnect                                build/debug/stm32h7xx_hal_pcd.o
HAL_PCD_DevDisconnect                             build/debug/stm32h7xx_hal_pcd.o
HAL_PCD_DisconnectCallback                        build/debug/usbd_conf.o
                                                  build/debug/stm32h7xx_hal_pcd.o
HAL_PCD_EP_Abort                                  build/debug/stm32h7xx_hal_pcd.o
HAL_PCD_EP_Close                                  build/debug/stm32h7xx_hal_pcd.o
                                                  build/debug/usbd_conf.o
HAL_PCD_EP_ClrStall                               build/debug/stm32h7xx_hal_pcd.o
                                                  build/debug/usbd_conf.o
HAL_PCD_EP_Flush                                  build/debug/stm32h7xx_hal_pcd.o
                                                  build/debug/usbd_conf.o
HAL_PCD_EP_GetRxCount                             build/debug/stm32h7xx_hal_pcd.o
                                                  build/debug/usbd_conf.o
HAL_PCD_EP_Open                                   build/debug/stm32h7xx_hal_pcd.o
                                                  build/debug/usbd_conf.o
HAL_PCD_EP_Receive                                build/debug/stm32h7xx_hal_pcd.o
                                                  build/debug/usbd_conf.o
HAL_PCD_EP_SetStall                               build/debug/stm32h7xx_hal_pcd.o
                                                  build/debug/usbd_conf.o
HAL_PCD_EP_Transmit                               build/debug/stm32h7xx_hal_pcd.o
                                                  build/debug/usbd_conf.o
HAL_PCD_GetState                                  build/debug/stm32h7xx_hal_pcd.o
HAL_PCD_IRQHandler                                build/debug/stm32h7xx_hal_pcd.o
                                                  build/debug/stm32h7xx_it.o
HAL_PCD_ISOINIncompleteCallback                   build/debug/usbd_conf.o
                                                  build/debug/stm32h7xx_hal_pcd.o
HAL_PCD_ISOOUTIncompleteCallback                  build/debug/usbd_conf.o
                                                  build/debug/stm32h7xx_hal_pcd.o
HAL_PCD_Init                                      build/debug/stm32h7xx_hal_pcd.o
                                                  build/debug/usbd_conf.o
HAL_PCD_MspDeInit                                 build/debug/usbd_conf.o
                                                  build/debug/stm32h7xx_hal_pcd.o
HAL_PCD_MspInit                                   build/debug/usbd_conf.o
                                                  build/debug/stm32h7xx_hal_pcd.o
HAL_PCD_ResetCallback                             build/debug/usbd_conf.o
                                                  build/debug/stm32h7xx_hal_pcd.o
HAL_PCD_ResumeCallback                            build/debug/usbd_conf.o
                                                  build/debug/stm32h7xx_hal_pcd.o
HAL_PCD_SOFCallback                               build/debug/usbd_conf.o
                                                  build/debug/stm32h7xx_hal_pcd.o
HAL_PCD_SetAddress                                build/debug/stm32h7xx_hal_pcd.o
                                                  build/debug/usbd_conf.o
HAL_PCD_SetTestMode                               build/debug/stm32h7xx_hal_pcd.o
HAL_PCD_SetupStageCallback                        build/debug/usbd_conf.o
                                                  build/debug/stm32h7xx_hal_pcd.o
HAL_PCD_Start                                     build/debug/stm32h7xx_hal_pcd.o
                                                  build/debug/usbd_conf.o
HAL_PCD_Stop                                      build/debug/stm32h7xx_hal_pcd.o
                                                  build/debug/usbd_conf.o
HAL_PCD_SuspendCallback                           build/debug/usbd_conf.o
                                                  build/debug/stm32h7xx_hal_pcd.o
HAL_PWREx_AVDCallback                             build/debug/stm32h7xx_hal_pwr_ex.o
HAL_PWREx_ClearPendingEvent                       build/debug/stm32h7xx_hal_pwr_ex.o
HAL_PWREx_ClearWakeupFlag                         build/debug/stm32h7xx_hal_pwr_ex.o
HAL_PWREx_ConfigAVD                               build/debug/stm32h7xx_hal_pwr_ex.o
HAL_PWREx_ConfigD3Domain                          build/debug/stm32h7xx_hal_pwr_ex.o
HAL_PWREx_ConfigSupply                            build/debug/stm32h7xx_hal_pwr_ex.o
                                                  build/debug/main.o
HAL_PWREx_ControlStopModeVoltageScaling           build/debug/stm32h7xx_hal_pwr_ex.o
HAL_PWREx_ControlVoltageScaling                   build/debug/stm32h7xx_hal_pwr_ex.o
HAL_PWREx_DisableAVD                              build/debug/stm32h7xx_hal_pwr_ex.o
HAL_PWREx_DisableBatteryCharging                  build/debug/stm32h7xx_hal_pwr_ex.o
HAL_PWREx_DisableBkUpReg                          build/debug/stm32h7xx_hal_pwr_ex.o
HAL_PWREx_DisableFlashPowerDown                   build/debug/stm32h7xx_hal_pwr_ex.o
HAL_PWREx_DisableMonitoring                       build/debug/stm32h7xx_hal_pwr_ex.o
HAL_PWREx_DisableUSBReg                           build/debug/stm32h7xx_hal_pwr_ex.o
HAL_PWREx_DisableUSBVoltageDetector               build/debug/stm32h7xx_hal_pwr_ex.o
HAL_PWREx_DisableWakeUpPin                        build/debug/stm32h7xx_hal_pwr_ex.o
HAL_PWREx_EnableAVD                               build/debug/stm32h7xx_hal_pwr_ex.o
HAL_PWREx_EnableBatteryCharging                   build/debug/stm32h7xx_hal_pwr_ex.o
HAL_PWREx_EnableBkUpReg                           build/debug/stm32h7xx_hal_pwr_ex.o
HAL_PWREx_EnableFlashPowerDown                    build/debug/stm32h7xx_hal_pwr_ex.o
HAL_PWREx_EnableMonitoring                        build/debug/stm32h7xx_hal_pwr_ex.o
HAL_PWREx_EnableUSBReg                            build/debug/stm32h7xx_hal_pwr_ex.o
HAL_PWREx_EnableUSBVoltageDetector                build/debug/stm32h7xx_hal_pwr_ex.o
                                                  build/debug/usbd_conf.o
                                                  build/debug/usb_device.o
HAL_PWREx_EnableWakeUpPin                         build/debug/stm32h7xx_hal_pwr_ex.o
HAL_PWREx_EnterSTANDBYMode                        build/debug/stm32h7xx_hal_pwr_ex.o
HAL_PWREx_EnterSTOPMode                           build/debug/stm32h7xx_hal_pwr_ex.o
HAL_PWREx_GetStopModeVoltageRange                 build/debug/stm32h7xx_hal_pwr_ex.o
HAL_PWREx_GetSupplyConfig                         build/debug/stm32h7xx_hal_pwr_ex.o
HAL_PWREx_GetTemperatureLevel                     build/debug/stm32h7xx_hal_pwr_ex.o
HAL_PWREx_GetVBATLevel                            build/debug/stm32h7xx_hal_pwr_ex.o
HAL_PWREx_GetVoltageRange                         build/debug/stm32h7xx_hal_pwr_ex.o
HAL_PWREx_GetWakeupFlag                           build/debug/stm32h7xx_hal_pwr_ex.o
HAL_PWREx_PVD_AVD_IRQHandler                      build/debug/stm32h7xx_hal_pwr_ex.o
HAL_PWREx_WAKEUP_PIN_IRQHandler                   build/debug/stm32h7xx_hal_pwr_ex.o
HAL_PWREx_WKUP1_Callback                          build/debug/stm32h7xx_hal_pwr_ex.o
HAL_PWREx_WKUP2_Callback                          build/debug/stm32h7xx_hal_pwr_ex.o
HAL_PWREx_WKUP4_Callback                          build/debug/stm32h7xx_hal_pwr_ex.o
HAL_PWREx_WKUP6_Callback                          build/debug/stm32h7xx_hal_pwr_ex.o
HAL_PWR_ConfigPVD                                 build/debug/stm32h7xx_hal_pwr.o
HAL_PWR_DeInit                                    build/debug/stm32h7xx_hal_pwr.o
HAL_PWR_DisableBkUpAccess                         build/debug/stm32h7xx_hal_pwr.o
HAL_PWR_DisablePVD                                build/debug/stm32h7xx_hal_pwr.o
HAL_PWR_DisableSEVOnPend                          build/debug/stm32h7xx_hal_pwr.o
HAL_PWR_DisableSleepOnExit                        build/debug/stm32h7xx_hal_pwr.o
HAL_PWR_DisableWakeUpPin                          build/debug/stm32h7xx_hal_pwr.o
HAL_PWR_EnableBkUpAccess                          build/debug/stm32h7xx_hal_pwr.o
HAL_PWR_EnablePVD                                 build/debug/stm32h7xx_hal_pwr.o
HAL_PWR_EnableSEVOnPend                           build/debug/stm32h7xx_hal_pwr.o
HAL_PWR_EnableSleepOnExit                         build/debug/stm32h7xx_hal_pwr.o
HAL_PWR_EnableWakeUpPin                           build/debug/stm32h7xx_hal_pwr.o
HAL_PWR_EnterSLEEPMode                            build/debug/stm32h7xx_hal_pwr.o
HAL_PWR_EnterSTANDBYMode                          build/debug/stm32h7xx_hal_pwr.o
HAL_PWR_EnterSTOPMode                             build/debug/stm32h7xx_hal_pwr.o
HAL_PWR_PVDCallback                               build/debug/stm32h7xx_hal_pwr.o
                                                  build/debug/stm32h7xx_hal_pwr_ex.o
HAL_PWR_PVD_IRQHandler                            build/debug/stm32h7xx_hal_pwr.o
HAL_RCCEx_CRSConfig                               build/debug/stm32h7xx_hal_rcc_ex.o
HAL_RCCEx_CRSGetSynchronizationInfo               build/debug/stm32h7xx_hal_rcc_ex.o
HAL_RCCEx_CRSSoftwareSynchronizationGenerate      build/debug/stm32h7xx_hal_rcc_ex.o
HAL_RCCEx_CRSWaitSynchronization                  build/debug/stm32h7xx_hal_rcc_ex.o
HAL_RCCEx_CRS_ErrorCallback                       build/debug/stm32h7xx_hal_rcc_ex.o
HAL_RCCEx_CRS_ExpectedSyncCallback                build/debug/stm32h7xx_hal_rcc_ex.o
HAL_RCCEx_CRS_IRQHandler                          build/debug/stm32h7xx_hal_rcc_ex.o
HAL_RCCEx_CRS_SyncOkCallback                      build/debug/stm32h7xx_hal_rcc_ex.o
HAL_RCCEx_CRS_SyncWarnCallback                    build/debug/stm32h7xx_hal_rcc_ex.o
HAL_RCCEx_DisableLSECSS                           build/debug/stm32h7xx_hal_rcc_ex.o
HAL_RCCEx_EnableLSECSS                            build/debug/stm32h7xx_hal_rcc_ex.o
HAL_RCCEx_EnableLSECSS_IT                         build/debug/stm32h7xx_hal_rcc_ex.o
HAL_RCCEx_GetD1PCLK1Freq                          build/debug/stm32h7xx_hal_rcc_ex.o
HAL_RCCEx_GetD1SysClockFreq                       build/debug/stm32h7xx_hal_rcc_ex.o
HAL_RCCEx_GetD3PCLK1Freq                          build/debug/stm32h7xx_hal_rcc_ex.o
HAL_RCCEx_GetPLL1ClockFreq                        build/debug/stm32h7xx_hal_rcc_ex.o
HAL_RCCEx_GetPLL2ClockFreq                        build/debug/stm32h7xx_hal_rcc_ex.o
HAL_RCCEx_GetPLL3ClockFreq                        build/debug/stm32h7xx_hal_rcc_ex.o
HAL_RCCEx_GetPeriphCLKConfig                      build/debug/stm32h7xx_hal_rcc_ex.o
HAL_RCCEx_GetPeriphCLKFreq                        build/debug/stm32h7xx_hal_rcc_ex.o
                                                  build/debug/stm32h7xx_hal_adc.o
HAL_RCCEx_KerWakeUpStopCLKConfig                  build/debug/stm32h7xx_hal_rcc_ex.o
HAL_RCCEx_LSECSS_Callback                         build/debug/stm32h7xx_hal_rcc_ex.o
HAL_RCCEx_LSECSS_IRQHandler                       build/debug/stm32h7xx_hal_rcc_ex.o
HAL_RCCEx_PeriphCLKConfig                         build/debug/stm32h7xx_hal_rcc_ex.o
                                                  build/debug/usbd_conf.o
                                                  build/debug/main.o
                                                  build/debug/adc.o
HAL_RCCEx_WWDGxSysResetConfig                     build/debug/stm32h7xx_hal_rcc_ex.o
HAL_RCCEx_WakeUpStopCLKConfig                     build/debug/stm32h7xx_hal_rcc_ex.o
HAL_RCC_CSSCallback                               build/debug/stm32h7xx_hal_rcc.o
HAL_RCC_ClockConfig                               build/debug/stm32h7xx_hal_rcc.o
                                                  build/debug/main.o
HAL_RCC_DeInit                                    build/debug/stm32h7xx_hal_rcc.o
HAL_RCC_DisableCSS                                build/debug/stm32h7xx_hal_rcc.o
HAL_RCC_EnableCSS                                 build/debug/stm32h7xx_hal_rcc.o
HAL_RCC_GetClockConfig                            build/debug/stm32h7xx_hal_rcc.o
HAL_RCC_GetHCLKFreq                               build/debug/stm32h7xx_hal_rcc.o
                                                  build/debug/stm32h7xx_hal_rcc_ex.o
                                                  build/debug/stm32h7xx_hal_pcd.o
                                                  build/debug/stm32h7xx_hal_adc.o
HAL_RCC_GetOscConfig                              build/debug/stm32h7xx_hal_rcc.o
HAL_RCC_GetPCLK1Freq                              build/debug/stm32h7xx_hal_rcc.o
                                                  build/debug/stm32h7xx_hal_rcc_ex.o
HAL_RCC_GetPCLK2Freq                              build/debug/stm32h7xx_hal_rcc.o
HAL_RCC_GetSysClockFreq                           build/debug/stm32h7xx_hal_rcc.o
                                                  build/debug/stm32h7xx_hal_rcc_ex.o
                                                  build/debug/stm32h7xx_hal.o
HAL_RCC_MCOConfig                                 build/debug/stm32h7xx_hal_rcc.o
HAL_RCC_NMI_IRQHandler                            build/debug/stm32h7xx_hal_rcc.o
HAL_RCC_OscConfig                                 build/debug/stm32h7xx_hal_rcc.o
                                                  build/debug/main.o
HAL_ResumeTick                                    build/debug/stm32h7xx_hal.o
HAL_SPIEx_ConfigureUnderrun                       build/debug/stm32h7xx_hal_spi_ex.o
HAL_SPIEx_EnableLockConfiguration                 build/debug/stm32h7xx_hal_spi_ex.o
HAL_SPIEx_FlushRxFifo                             build/debug/stm32h7xx_hal_spi_ex.o
HAL_SPI_Abort                                     build/debug/stm32h7xx_hal_spi.o
HAL_SPI_AbortCpltCallback                         build/debug/stm32h7xx_hal_spi.o
HAL_SPI_Abort_IT                                  build/debug/stm32h7xx_hal_spi.o
HAL_SPI_DMAPause                                  build/debug/stm32h7xx_hal_spi.o
HAL_SPI_DMAResume                                 build/debug/stm32h7xx_hal_spi.o
HAL_SPI_DMAStop                                   build/debug/stm32h7xx_hal_spi.o
HAL_SPI_DeInit                                    build/debug/stm32h7xx_hal_spi.o
HAL_SPI_ErrorCallback                             build/debug/stm32h7xx_hal_spi.o
HAL_SPI_GetError                                  build/debug/stm32h7xx_hal_spi.o
HAL_SPI_GetState                                  build/debug/stm32h7xx_hal_spi.o
HAL_SPI_IRQHandler                                build/debug/stm32h7xx_hal_spi.o
HAL_SPI_Init                                      build/debug/stm32h7xx_hal_spi.o
                                                  build/debug/spi.o
HAL_SPI_MspDeInit                                 build/debug/spi.o
HAL_SPI_MspInit                                   build/debug/spi.o
HAL_SPI_Receive                                   build/debug/stm32h7xx_hal_spi.o
HAL_SPI_Receive_DMA                               build/debug/stm32h7xx_hal_spi.o
HAL_SPI_Receive_IT                                build/debug/stm32h7xx_hal_spi.o
HAL_SPI_RxCpltCallback                            build/debug/stm32h7xx_hal_spi.o
HAL_SPI_RxHalfCpltCallback                        build/debug/stm32h7xx_hal_spi.o
HAL_SPI_SuspendCallback                           build/debug/stm32h7xx_hal_spi.o
HAL_SPI_Transmit                                  build/debug/stm32h7xx_hal_spi.o
HAL_SPI_TransmitReceive                           build/debug/stm32h7xx_hal_spi.o
HAL_SPI_TransmitReceive_DMA                       build/debug/stm32h7xx_hal_spi.o
HAL_SPI_TransmitReceive_IT                        build/debug/stm32h7xx_hal_spi.o
HAL_SPI_Transmit_DMA                              build/debug/stm32h7xx_hal_spi.o
HAL_SPI_Transmit_IT                               build/debug/stm32h7xx_hal_spi.o
HAL_SPI_TxCpltCallback                            build/debug/stm32h7xx_hal_spi.o
HAL_SPI_TxHalfCpltCallback                        build/debug/stm32h7xx_hal_spi.o
HAL_SPI_TxRxCpltCallback                          build/debug/stm32h7xx_hal_spi.o
HAL_SPI_TxRxHalfCpltCallback                      build/debug/stm32h7xx_hal_spi.o
HAL_SYSCFG_ADC2ALT_Rout0Config                    build/debug/stm32h7xx_hal.o
HAL_SYSCFG_ADC2ALT_Rout1Config                    build/debug/stm32h7xx_hal.o
HAL_SYSCFG_AnalogSwitchConfig                     build/debug/stm32h7xx_hal.o
                                                  build/debug/gpio.o
HAL_SYSCFG_CM7BootAddConfig                       build/debug/stm32h7xx_hal.o
HAL_SYSCFG_CompensationCodeConfig                 build/debug/stm32h7xx_hal.o
HAL_SYSCFG_CompensationCodeSelect                 build/debug/stm32h7xx_hal.o
HAL_SYSCFG_DisableBOOST                           build/debug/stm32h7xx_hal.o
HAL_SYSCFG_DisableIOSpeedOptimize                 build/debug/stm32h7xx_hal.o
HAL_SYSCFG_DisableVREFBUF                         build/debug/stm32h7xx_hal.o
HAL_SYSCFG_ETHInterfaceSelect                     build/debug/stm32h7xx_hal.o
HAL_SYSCFG_EnableBOOST                            build/debug/stm32h7xx_hal.o
HAL_SYSCFG_EnableIOSpeedOptimize                  build/debug/stm32h7xx_hal.o
HAL_SYSCFG_EnableVREFBUF                          build/debug/stm32h7xx_hal.o
HAL_SYSCFG_VREFBUF_HighImpedanceConfig            build/debug/stm32h7xx_hal.o
HAL_SYSCFG_VREFBUF_TrimmingConfig                 build/debug/stm32h7xx_hal.o
HAL_SYSCFG_VREFBUF_VoltageScalingConfig           build/debug/stm32h7xx_hal.o
HAL_SYSTICK_CLKSourceConfig                       build/debug/stm32h7xx_hal_cortex.o
HAL_SYSTICK_Callback                              build/debug/stm32h7xx_hal_cortex.o
HAL_SYSTICK_Config                                build/debug/stm32h7xx_hal_cortex.o
                                                  build/debug/stm32h7xx_hal.o
HAL_SYSTICK_IRQHandler                            build/debug/stm32h7xx_hal_cortex.o
HAL_SetFMCMemorySwappingConfig                    build/debug/stm32h7xx_hal.o
HAL_SetTickFreq                                   build/debug/stm32h7xx_hal.o
HAL_SuspendTick                                   build/debug/stm32h7xx_hal.o
HAL_TIMEx_Break2Callback                          build/debug/stm32h7xx_hal_tim_ex.o
                                                  build/debug/stm32h7xx_hal_tim.o
HAL_TIMEx_BreakCallback                           build/debug/stm32h7xx_hal_tim_ex.o
                                                  build/debug/stm32h7xx_hal_tim.o
HAL_TIMEx_CommutCallback                          build/debug/stm32h7xx_hal_tim_ex.o
                                                  build/debug/stm32h7xx_hal_tim.o
HAL_TIMEx_CommutHalfCpltCallback                  build/debug/stm32h7xx_hal_tim_ex.o
HAL_TIMEx_ConfigBreakDeadTime                     build/debug/stm32h7xx_hal_tim_ex.o
HAL_TIMEx_ConfigBreakInput                        build/debug/stm32h7xx_hal_tim_ex.o
HAL_TIMEx_ConfigCommutEvent                       build/debug/stm32h7xx_hal_tim_ex.o
HAL_TIMEx_ConfigCommutEvent_DMA                   build/debug/stm32h7xx_hal_tim_ex.o
HAL_TIMEx_ConfigCommutEvent_IT                    build/debug/stm32h7xx_hal_tim_ex.o
HAL_TIMEx_DisarmBreakInput                        build/debug/stm32h7xx_hal_tim_ex.o
HAL_TIMEx_GetChannelNState                        build/debug/stm32h7xx_hal_tim_ex.o
HAL_TIMEx_GroupChannel5                           build/debug/stm32h7xx_hal_tim_ex.o
HAL_TIMEx_HallSensor_DeInit                       build/debug/stm32h7xx_hal_tim_ex.o
HAL_TIMEx_HallSensor_GetState                     build/debug/stm32h7xx_hal_tim_ex.o
HAL_TIMEx_HallSensor_Init                         build/debug/stm32h7xx_hal_tim_ex.o
HAL_TIMEx_HallSensor_MspDeInit                    build/debug/stm32h7xx_hal_tim_ex.o
HAL_TIMEx_HallSensor_MspInit                      build/debug/stm32h7xx_hal_tim_ex.o
HAL_TIMEx_HallSensor_Start                        build/debug/stm32h7xx_hal_tim_ex.o
HAL_TIMEx_HallSensor_Start_DMA                    build/debug/stm32h7xx_hal_tim_ex.o
HAL_TIMEx_HallSensor_Start_IT                     build/debug/stm32h7xx_hal_tim_ex.o
HAL_TIMEx_HallSensor_Stop                         build/debug/stm32h7xx_hal_tim_ex.o
HAL_TIMEx_HallSensor_Stop_DMA                     build/debug/stm32h7xx_hal_tim_ex.o
HAL_TIMEx_HallSensor_Stop_IT                      build/debug/stm32h7xx_hal_tim_ex.o
HAL_TIMEx_MasterConfigSynchronization             build/debug/stm32h7xx_hal_tim_ex.o
                                                  build/debug/tim.o
HAL_TIMEx_OCN_Start                               build/debug/stm32h7xx_hal_tim_ex.o
HAL_TIMEx_OCN_Start_DMA                           build/debug/stm32h7xx_hal_tim_ex.o
HAL_TIMEx_OCN_Start_IT                            build/debug/stm32h7xx_hal_tim_ex.o
HAL_TIMEx_OCN_Stop                                build/debug/stm32h7xx_hal_tim_ex.o
HAL_TIMEx_OCN_Stop_DMA                            build/debug/stm32h7xx_hal_tim_ex.o
HAL_TIMEx_OCN_Stop_IT                             build/debug/stm32h7xx_hal_tim_ex.o
HAL_TIMEx_OnePulseN_Start                         build/debug/stm32h7xx_hal_tim_ex.o
HAL_TIMEx_OnePulseN_Start_IT                      build/debug/stm32h7xx_hal_tim_ex.o
HAL_TIMEx_OnePulseN_Stop                          build/debug/stm32h7xx_hal_tim_ex.o
HAL_TIMEx_OnePulseN_Stop_IT                       build/debug/stm32h7xx_hal_tim_ex.o
HAL_TIMEx_PWMN_Start                              build/debug/stm32h7xx_hal_tim_ex.o
HAL_TIMEx_PWMN_Start_DMA                          build/debug/stm32h7xx_hal_tim_ex.o
HAL_TIMEx_PWMN_Start_IT                           build/debug/stm32h7xx_hal_tim_ex.o
HAL_TIMEx_PWMN_Stop                               build/debug/stm32h7xx_hal_tim_ex.o
HAL_TIMEx_PWMN_Stop_DMA                           build/debug/stm32h7xx_hal_tim_ex.o
HAL_TIMEx_PWMN_Stop_IT                            build/debug/stm32h7xx_hal_tim_ex.o
HAL_TIMEx_ReArmBreakInput                         build/debug/stm32h7xx_hal_tim_ex.o
HAL_TIMEx_RemapConfig                             build/debug/stm32h7xx_hal_tim_ex.o
HAL_TIMEx_TISelection                             build/debug/stm32h7xx_hal_tim_ex.o
HAL_TIM_Base_DeInit                               build/debug/stm32h7xx_hal_tim.o
HAL_TIM_Base_GetState                             build/debug/stm32h7xx_hal_tim.o
HAL_TIM_Base_Init                                 build/debug/stm32h7xx_hal_tim.o
HAL_TIM_Base_MspDeInit                            build/debug/stm32h7xx_hal_tim.o
HAL_TIM_Base_MspInit                              build/debug/stm32h7xx_hal_tim.o
HAL_TIM_Base_Start                                build/debug/stm32h7xx_hal_tim.o
HAL_TIM_Base_Start_DMA                            build/debug/stm32h7xx_hal_tim.o
HAL_TIM_Base_Start_IT                             build/debug/stm32h7xx_hal_tim.o
HAL_TIM_Base_Stop                                 build/debug/stm32h7xx_hal_tim.o
HAL_TIM_Base_Stop_DMA                             build/debug/stm32h7xx_hal_tim.o
HAL_TIM_Base_Stop_IT                              build/debug/stm32h7xx_hal_tim.o
HAL_TIM_ConfigClockSource                         build/debug/stm32h7xx_hal_tim.o
HAL_TIM_ConfigOCrefClear                          build/debug/stm32h7xx_hal_tim.o
HAL_TIM_ConfigTI1Input                            build/debug/stm32h7xx_hal_tim.o
HAL_TIM_DMABurstState                             build/debug/stm32h7xx_hal_tim.o
HAL_TIM_DMABurst_MultiReadStart                   build/debug/stm32h7xx_hal_tim.o
HAL_TIM_DMABurst_MultiWriteStart                  build/debug/stm32h7xx_hal_tim.o
HAL_TIM_DMABurst_ReadStart                        build/debug/stm32h7xx_hal_tim.o
HAL_TIM_DMABurst_ReadStop                         build/debug/stm32h7xx_hal_tim.o
HAL_TIM_DMABurst_WriteStart                       build/debug/stm32h7xx_hal_tim.o
HAL_TIM_DMABurst_WriteStop                        build/debug/stm32h7xx_hal_tim.o
HAL_TIM_Encoder_DeInit                            build/debug/stm32h7xx_hal_tim.o
HAL_TIM_Encoder_GetState                          build/debug/stm32h7xx_hal_tim.o
HAL_TIM_Encoder_Init                              build/debug/stm32h7xx_hal_tim.o
HAL_TIM_Encoder_MspDeInit                         build/debug/stm32h7xx_hal_tim.o
HAL_TIM_Encoder_MspInit                           build/debug/stm32h7xx_hal_tim.o
HAL_TIM_Encoder_Start                             build/debug/stm32h7xx_hal_tim.o
HAL_TIM_Encoder_Start_DMA                         build/debug/stm32h7xx_hal_tim.o
HAL_TIM_Encoder_Start_IT                          build/debug/stm32h7xx_hal_tim.o
HAL_TIM_Encoder_Stop                              build/debug/stm32h7xx_hal_tim.o
HAL_TIM_Encoder_Stop_DMA                          build/debug/stm32h7xx_hal_tim.o
HAL_TIM_Encoder_Stop_IT                           build/debug/stm32h7xx_hal_tim.o
HAL_TIM_ErrorCallback                             build/debug/stm32h7xx_hal_tim.o
                                                  build/debug/stm32h7xx_hal_tim_ex.o
HAL_TIM_GenerateEvent                             build/debug/stm32h7xx_hal_tim.o
HAL_TIM_GetActiveChannel                          build/debug/stm32h7xx_hal_tim.o
HAL_TIM_GetChannelState                           build/debug/stm32h7xx_hal_tim.o
HAL_TIM_IC_CaptureCallback                        build/debug/stm32h7xx_hal_tim.o
HAL_TIM_IC_CaptureHalfCpltCallback                build/debug/stm32h7xx_hal_tim.o
HAL_TIM_IC_ConfigChannel                          build/debug/stm32h7xx_hal_tim.o
HAL_TIM_IC_DeInit                                 build/debug/stm32h7xx_hal_tim.o
HAL_TIM_IC_GetState                               build/debug/stm32h7xx_hal_tim.o
HAL_TIM_IC_Init                                   build/debug/stm32h7xx_hal_tim.o
HAL_TIM_IC_MspDeInit                              build/debug/stm32h7xx_hal_tim.o
HAL_TIM_IC_MspInit                                build/debug/stm32h7xx_hal_tim.o
HAL_TIM_IC_Start                                  build/debug/stm32h7xx_hal_tim.o
HAL_TIM_IC_Start_DMA                              build/debug/stm32h7xx_hal_tim.o
HAL_TIM_IC_Start_IT                               build/debug/stm32h7xx_hal_tim.o
HAL_TIM_IC_Stop                                   build/debug/stm32h7xx_hal_tim.o
HAL_TIM_IC_Stop_DMA                               build/debug/stm32h7xx_hal_tim.o
HAL_TIM_IC_Stop_IT                                build/debug/stm32h7xx_hal_tim.o
HAL_TIM_IRQHandler                                build/debug/stm32h7xx_hal_tim.o
HAL_TIM_MspPostInit                               build/debug/tim.o
HAL_TIM_OC_ConfigChannel                          build/debug/stm32h7xx_hal_tim.o
HAL_TIM_OC_DeInit                                 build/debug/stm32h7xx_hal_tim.o
HAL_TIM_OC_DelayElapsedCallback                   build/debug/stm32h7xx_hal_tim.o
HAL_TIM_OC_GetState                               build/debug/stm32h7xx_hal_tim.o
HAL_TIM_OC_Init                                   build/debug/stm32h7xx_hal_tim.o
HAL_TIM_OC_MspDeInit                              build/debug/stm32h7xx_hal_tim.o
HAL_TIM_OC_MspInit                                build/debug/stm32h7xx_hal_tim.o
HAL_TIM_OC_Start                                  build/debug/stm32h7xx_hal_tim.o
HAL_TIM_OC_Start_DMA                              build/debug/stm32h7xx_hal_tim.o
HAL_TIM_OC_Start_IT                               build/debug/stm32h7xx_hal_tim.o
HAL_TIM_OC_Stop                                   build/debug/stm32h7xx_hal_tim.o
HAL_TIM_OC_Stop_DMA                               build/debug/stm32h7xx_hal_tim.o
HAL_TIM_OC_Stop_IT                                build/debug/stm32h7xx_hal_tim.o
HAL_TIM_OnePulse_ConfigChannel                    build/debug/stm32h7xx_hal_tim.o
HAL_TIM_OnePulse_DeInit                           build/debug/stm32h7xx_hal_tim.o
HAL_TIM_OnePulse_GetState                         build/debug/stm32h7xx_hal_tim.o
HAL_TIM_OnePulse_Init                             build/debug/stm32h7xx_hal_tim.o
HAL_TIM_OnePulse_MspDeInit                        build/debug/stm32h7xx_hal_tim.o
HAL_TIM_OnePulse_MspInit                          build/debug/stm32h7xx_hal_tim.o
HAL_TIM_OnePulse_Start                            build/debug/stm32h7xx_hal_tim.o
HAL_TIM_OnePulse_Start_IT                         build/debug/stm32h7xx_hal_tim.o
HAL_TIM_OnePulse_Stop                             build/debug/stm32h7xx_hal_tim.o
HAL_TIM_OnePulse_Stop_IT                          build/debug/stm32h7xx_hal_tim.o
HAL_TIM_PWM_ConfigChannel                         build/debug/stm32h7xx_hal_tim.o
                                                  build/debug/tim.o
HAL_TIM_PWM_DeInit                                build/debug/stm32h7xx_hal_tim.o
HAL_TIM_PWM_GetState                              build/debug/stm32h7xx_hal_tim.o
HAL_TIM_PWM_Init                                  build/debug/stm32h7xx_hal_tim.o
                                                  build/debug/tim.o
HAL_TIM_PWM_MspDeInit                             build/debug/tim.o
                                                  build/debug/stm32h7xx_hal_tim.o
HAL_TIM_PWM_MspInit                               build/debug/tim.o
                                                  build/debug/stm32h7xx_hal_tim.o
HAL_TIM_PWM_PulseFinishedCallback                 build/debug/stm32h7xx_hal_tim.o
                                                  build/debug/stm32h7xx_hal_tim_ex.o
HAL_TIM_PWM_PulseFinishedHalfCpltCallback         build/debug/stm32h7xx_hal_tim.o
HAL_TIM_PWM_Start                                 build/debug/stm32h7xx_hal_tim.o
HAL_TIM_PWM_Start_DMA                             build/debug/stm32h7xx_hal_tim.o
HAL_TIM_PWM_Start_IT                              build/debug/stm32h7xx_hal_tim.o
HAL_TIM_PWM_Stop                                  build/debug/stm32h7xx_hal_tim.o
HAL_TIM_PWM_Stop_DMA                              build/debug/stm32h7xx_hal_tim.o
HAL_TIM_PWM_Stop_IT                               build/debug/stm32h7xx_hal_tim.o
HAL_TIM_PeriodElapsedCallback                     build/debug/stm32h7xx_hal_tim.o
HAL_TIM_PeriodElapsedHalfCpltCallback             build/debug/stm32h7xx_hal_tim.o
HAL_TIM_ReadCapturedValue                         build/debug/stm32h7xx_hal_tim.o
HAL_TIM_SlaveConfigSynchro                        build/debug/stm32h7xx_hal_tim.o
HAL_TIM_SlaveConfigSynchro_IT                     build/debug/stm32h7xx_hal_tim.o
HAL_TIM_TriggerCallback                           build/debug/stm32h7xx_hal_tim.o
HAL_TIM_TriggerHalfCpltCallback                   build/debug/stm32h7xx_hal_tim.o
HSEM1_IRQHandler                                  build/debug/startup_stm32h725xx.o
HS_Desc                                           build/debug/usbd_desc.o
                                                  build/debug/usb_device.o
HardFault_Handler                                 build/debug/stm32h7xx_it.o
I2C1_ER_IRQHandler                                build/debug/startup_stm32h725xx.o
I2C1_EV_IRQHandler                                build/debug/startup_stm32h725xx.o
I2C2_ER_IRQHandler                                build/debug/startup_stm32h725xx.o
I2C2_EV_IRQHandler                                build/debug/startup_stm32h725xx.o
I2C3_ER_IRQHandler                                build/debug/startup_stm32h725xx.o
I2C3_EV_IRQHandler                                build/debug/startup_stm32h725xx.o
I2C4_ER_IRQHandler                                build/debug/startup_stm32h725xx.o
I2C4_EV_IRQHandler                                build/debug/startup_stm32h725xx.o
I2C5_ER_IRQHandler                                build/debug/startup_stm32h725xx.o
I2C5_EV_IRQHandler                                build/debug/startup_stm32h725xx.o
ICM42688::ICM42688(__I2C_HandleTypeDef*, float*, float*, unsigned char, unsigned char, unsigned char, unsigned char) build/debug/ICM42688.o
ICM42688::ICM42688(__I2C_HandleTypeDef*, float*, float*, unsigned char, unsigned char, unsigned char, unsigned char) build/debug/ICM42688.o
ICM42688::Init()                                  build/debug/ICM42688.o
ICM42688::ReadRegs(unsigned char, unsigned char*, unsigned char) build/debug/ICM42688.o
ICM42688::WriteReg(unsigned char, unsigned char*) build/debug/ICM42688.o
ICM42688::WriteRegs(unsigned char, unsigned char*, unsigned char) build/debug/ICM42688.o
ICM42688::convertOfst(signed char*)               build/debug/ICM42688.o
LPTIM1_IRQHandler                                 build/debug/startup_stm32h725xx.o
LPTIM2_IRQHandler                                 build/debug/startup_stm32h725xx.o
LPTIM3_IRQHandler                                 build/debug/startup_stm32h725xx.o
LPTIM4_IRQHandler                                 build/debug/startup_stm32h725xx.o
LPTIM5_IRQHandler                                 build/debug/startup_stm32h725xx.o
LPUART1_IRQHandler                                build/debug/startup_stm32h725xx.o
LTDC_ER_IRQHandler                                build/debug/startup_stm32h725xx.o
LTDC_IRQHandler                                   build/debug/startup_stm32h725xx.o
LineCoding                                        build/debug/usbd_cdc_if.o
MDIOS_IRQHandler                                  build/debug/startup_stm32h725xx.o
MDIOS_WKUP_IRQHandler                             build/debug/startup_stm32h725xx.o
MDMA_IRQHandler                                   build/debug/startup_stm32h725xx.o
MS5607::Convert()                                 build/debug/MS5607.o
MS5607::GetData()                                 build/debug/MS5607.o
MS5607::Init()                                    build/debug/MS5607.o
                                                  build/debug/cpp_main.o
MS5607::MS5607(__I2C_HandleTypeDef*, unsigned char) build/debug/MS5607.o
                                                  build/debug/cpp_main.o
MS5607::MS5607(__I2C_HandleTypeDef*, unsigned char) build/debug/MS5607.o
MS5607::ReadRegs(unsigned char, unsigned char*, unsigned short) build/debug/MS5607.o
MX_ADC1_Init                                      build/debug/adc.o
                                                  build/debug/main.o
MX_CORDIC_Init                                    build/debug/cordic.o
                                                  build/debug/main.o
MX_FMAC_Init                                      build/debug/fmac.o
                                                  build/debug/main.o
MX_GPIO_Init                                      build/debug/gpio.o
                                                  build/debug/main.o
MX_I2C3_Init                                      build/debug/i2c.o
                                                  build/debug/main.o
MX_SPI1_Init                                      build/debug/spi.o
                                                  build/debug/main.o
MX_SPI2_Init                                      build/debug/spi.o
                                                  build/debug/main.o
MX_TIM2_Init                                      build/debug/tim.o
                                                  build/debug/main.o
MX_TIM4_Init                                      build/debug/tim.o
                                                  build/debug/main.o
MX_USB_DEVICE_Init                                build/debug/usb_device.o
                                                  build/debug/main.o
MemManage_Handler                                 build/debug/stm32h7xx_it.o
NMI_Handler                                       build/debug/stm32h7xx_it.o
OCTOSPI1_IRQHandler                               build/debug/startup_stm32h725xx.o
OCTOSPI2_IRQHandler                               build/debug/startup_stm32h725xx.o
OTG_HS_EP1_IN_IRQHandler                          build/debug/stm32h7xx_it.o
OTG_HS_EP1_OUT_IRQHandler                         build/debug/stm32h7xx_it.o
OTG_HS_IRQHandler                                 build/debug/stm32h7xx_it.o
OTG_HS_WKUP_IRQHandler                            build/debug/startup_stm32h725xx.o
PVD_AVD_IRQHandler                                build/debug/startup_stm32h725xx.o
PendSV_Handler                                    build/debug/stm32h7xx_it.o
PeriphCommonClock_Config                          build/debug/main.o
RCC_IRQHandler                                    build/debug/startup_stm32h725xx.o
RNG_IRQHandler                                    build/debug/startup_stm32h725xx.o
RTC_Alarm_IRQHandler                              build/debug/startup_stm32h725xx.o
RTC_WKUP_IRQHandler                               build/debug/startup_stm32h725xx.o
Reset_Handler                                     build/debug/startup_stm32h725xx.o
SAI1_IRQHandler                                   build/debug/startup_stm32h725xx.o
SAI4_IRQHandler                                   build/debug/startup_stm32h725xx.o
SDMMC1_IRQHandler                                 build/debug/startup_stm32h725xx.o
SDMMC2_IRQHandler                                 build/debug/startup_stm32h725xx.o
SPDIF_RX_IRQHandler                               build/debug/startup_stm32h725xx.o
SPI1_IRQHandler                                   build/debug/startup_stm32h725xx.o
SPI2_IRQHandler                                   build/debug/startup_stm32h725xx.o
SPI3_IRQHandler                                   build/debug/startup_stm32h725xx.o
SPI4_IRQHandler                                   build/debug/startup_stm32h725xx.o
SPI5_IRQHandler                                   build/debug/startup_stm32h725xx.o
SPI6_IRQHandler                                   build/debug/startup_stm32h725xx.o
SVC_Handler                                       build/debug/stm32h7xx_it.o
SWPMI1_IRQHandler                                 build/debug/startup_stm32h725xx.o
SerialPrint(unsigned char*)                       build/debug/abstract.o
SerialPrintln(unsigned char*)                     build/debug/abstract.o
                                                  build/debug/cpp_main.o
SysTick_Handler                                   build/debug/stm32h7xx_it.o
SystemClock_Config                                build/debug/main.o
SystemCoreClock                                   build/debug/system_stm32h7xx.o
                                                  build/debug/stm32h7xx_hal_spi.o
                                                  build/debug/stm32h7xx_hal_rcc_ex.o
                                                  build/debug/stm32h7xx_hal_rcc.o
                                                  build/debug/stm32h7xx_hal_mdma.o
                                                  build/debug/stm32h7xx_hal_dma.o
                                                  build/debug/stm32h7xx_hal_adc_ex.o
                                                  build/debug/stm32h7xx_hal_adc.o
                                                  build/debug/stm32h7xx_hal.o
SystemCoreClockUpdate                             build/debug/system_stm32h7xx.o
SystemD2Clock                                     build/debug/system_stm32h7xx.o
                                                  build/debug/stm32h7xx_hal_rcc_ex.o
                                                  build/debug/stm32h7xx_hal_rcc.o
                                                  build/debug/stm32h7xx_hal.o
SystemInit                                        build/debug/system_stm32h7xx.o
                                                  build/debug/startup_stm32h725xx.o
TAMP_STAMP_IRQHandler                             build/debug/startup_stm32h725xx.o
TIM15_IRQHandler                                  build/debug/startup_stm32h725xx.o
TIM16_IRQHandler                                  build/debug/startup_stm32h725xx.o
TIM17_IRQHandler                                  build/debug/startup_stm32h725xx.o
TIM1_BRK_IRQHandler                               build/debug/startup_stm32h725xx.o
TIM1_CC_IRQHandler                                build/debug/startup_stm32h725xx.o
TIM1_TRG_COM_IRQHandler                           build/debug/startup_stm32h725xx.o
TIM1_UP_IRQHandler                                build/debug/startup_stm32h725xx.o
TIM23_IRQHandler                                  build/debug/startup_stm32h725xx.o
TIM24_IRQHandler                                  build/debug/startup_stm32h725xx.o
TIM2_IRQHandler                                   build/debug/startup_stm32h725xx.o
TIM3_IRQHandler                                   build/debug/startup_stm32h725xx.o
TIM4_IRQHandler                                   build/debug/startup_stm32h725xx.o
TIM5_IRQHandler                                   build/debug/startup_stm32h725xx.o
TIM6_DAC_IRQHandler                               build/debug/startup_stm32h725xx.o
TIM7_IRQHandler                                   build/debug/startup_stm32h725xx.o
TIM8_BRK_TIM12_IRQHandler                         build/debug/startup_stm32h725xx.o
TIM8_CC_IRQHandler                                build/debug/startup_stm32h725xx.o
TIM8_TRG_COM_TIM14_IRQHandler                     build/debug/startup_stm32h725xx.o
TIM8_UP_TIM13_IRQHandler                          build/debug/startup_stm32h725xx.o
TIMEx_DMACommutationCplt                          build/debug/stm32h7xx_hal_tim_ex.o
                                                  build/debug/stm32h7xx_hal_tim.o
TIMEx_DMACommutationHalfCplt                      build/debug/stm32h7xx_hal_tim_ex.o
                                                  build/debug/stm32h7xx_hal_tim.o
TIM_Base_SetConfig                                build/debug/stm32h7xx_hal_tim.o
                                                  build/debug/stm32h7xx_hal_tim_ex.o
TIM_CCxChannelCmd                                 build/debug/stm32h7xx_hal_tim.o
                                                  build/debug/stm32h7xx_hal_tim_ex.o
TIM_DMACaptureCplt                                build/debug/stm32h7xx_hal_tim.o
                                                  build/debug/stm32h7xx_hal_tim_ex.o
TIM_DMACaptureHalfCplt                            build/debug/stm32h7xx_hal_tim.o
                                                  build/debug/stm32h7xx_hal_tim_ex.o
TIM_DMADelayPulseHalfCplt                         build/debug/stm32h7xx_hal_tim.o
                                                  build/debug/stm32h7xx_hal_tim_ex.o
TIM_DMAError                                      build/debug/stm32h7xx_hal_tim.o
                                                  build/debug/stm32h7xx_hal_tim_ex.o
TIM_ETR_SetConfig                                 build/debug/stm32h7xx_hal_tim.o
TIM_OC2_SetConfig                                 build/debug/stm32h7xx_hal_tim.o
                                                  build/debug/stm32h7xx_hal_tim_ex.o
TIM_TI1_SetConfig                                 build/debug/stm32h7xx_hal_tim.o
                                                  build/debug/stm32h7xx_hal_tim_ex.o
UART4_IRQHandler                                  build/debug/startup_stm32h725xx.o
UART5_IRQHandler                                  build/debug/startup_stm32h725xx.o
UART7_IRQHandler                                  build/debug/startup_stm32h725xx.o
UART8_IRQHandler                                  build/debug/startup_stm32h725xx.o
UART9_IRQHandler                                  build/debug/startup_stm32h725xx.o
USART10_IRQHandler                                build/debug/startup_stm32h725xx.o
USART1_IRQHandler                                 build/debug/startup_stm32h725xx.o
USART2_IRQHandler                                 build/debug/startup_stm32h725xx.o
USART3_IRQHandler                                 build/debug/startup_stm32h725xx.o
USART6_IRQHandler                                 build/debug/startup_stm32h725xx.o
USBD_CDC                                          build/debug/usbd_cdc.o
                                                  build/debug/usb_device.o
USBD_CDC_GetDeviceQualifierDescriptor             build/debug/usbd_cdc.o
USBD_CDC_ReceivePacket                            build/debug/usbd_cdc.o
                                                  build/debug/usbd_cdc_if.o
USBD_CDC_RegisterInterface                        build/debug/usbd_cdc.o
                                                  build/debug/usb_device.o
USBD_CDC_SetRxBuffer                              build/debug/usbd_cdc.o
                                                  build/debug/usbd_cdc_if.o
USBD_CDC_SetTxBuffer                              build/debug/usbd_cdc.o
                                                  build/debug/usbd_cdc_if.o
USBD_CDC_TransmitPacket                           build/debug/usbd_cdc.o
                                                  build/debug/usbd_cdc_if.o
USBD_ClrClassConfig                               build/debug/usbd_core.o
                                                  build/debug/usbd_ctlreq.o
USBD_CoreFindEP                                   build/debug/usbd_core.o
                                                  build/debug/usbd_ctlreq.o
USBD_CoreFindIF                                   build/debug/usbd_core.o
                                                  build/debug/usbd_ctlreq.o
USBD_CtlContinueRx                                build/debug/usbd_ioreq.o
                                                  build/debug/usbd_core.o
USBD_CtlContinueSendData                          build/debug/usbd_ioreq.o
                                                  build/debug/usbd_core.o
USBD_CtlError                                     build/debug/usbd_ctlreq.o
                                                  build/debug/usbd_cdc.o
USBD_CtlPrepareRx                                 build/debug/usbd_ioreq.o
                                                  build/debug/usbd_cdc.o
USBD_CtlReceiveStatus                             build/debug/usbd_ioreq.o
                                                  build/debug/usbd_core.o
USBD_CtlSendData                                  build/debug/usbd_ioreq.o
                                                  build/debug/usbd_ctlreq.o
                                                  build/debug/usbd_cdc.o
USBD_CtlSendStatus                                build/debug/usbd_ioreq.o
                                                  build/debug/usbd_ctlreq.o
                                                  build/debug/usbd_core.o
USBD_DeInit                                       build/debug/usbd_core.o
USBD_GetEpDesc                                    build/debug/usbd_core.o
                                                  build/debug/usbd_cdc.o
USBD_GetNextDesc                                  build/debug/usbd_core.o
USBD_GetRxCount                                   build/debug/usbd_ioreq.o
USBD_GetString                                    build/debug/usbd_ctlreq.o
                                                  build/debug/usbd_desc.o
USBD_Get_USB_Status                               build/debug/usbd_conf.o
USBD_HS_ConfigStrDescriptor                       build/debug/usbd_desc.o
USBD_HS_DeviceDesc                                build/debug/usbd_desc.o
USBD_HS_DeviceDescriptor                          build/debug/usbd_desc.o
USBD_HS_InterfaceStrDescriptor                    build/debug/usbd_desc.o
USBD_HS_LangIDStrDescriptor                       build/debug/usbd_desc.o
USBD_HS_ManufacturerStrDescriptor                 build/debug/usbd_desc.o
USBD_HS_ProductStrDescriptor                      build/debug/usbd_desc.o
USBD_HS_SerialStrDescriptor                       build/debug/usbd_desc.o
USBD_Init                                         build/debug/usbd_core.o
                                                  build/debug/usb_device.o
USBD_Interface_fops_HS                            build/debug/usbd_cdc_if.o
                                                  build/debug/usb_device.o
USBD_LL_ClearStallEP                              build/debug/usbd_conf.o
                                                  build/debug/usbd_ctlreq.o
USBD_LL_CloseEP                                   build/debug/usbd_conf.o
                                                  build/debug/usbd_cdc.o
USBD_LL_DataInStage                               build/debug/usbd_core.o
                                                  build/debug/usbd_conf.o
USBD_LL_DataOutStage                              build/debug/usbd_core.o
                                                  build/debug/usbd_conf.o
USBD_LL_DeInit                                    build/debug/usbd_conf.o
                                                  build/debug/usbd_core.o
USBD_LL_Delay                                     build/debug/usbd_conf.o
USBD_LL_DevConnected                              build/debug/usbd_core.o
                                                  build/debug/usbd_conf.o
USBD_LL_DevDisconnected                           build/debug/usbd_core.o
                                                  build/debug/usbd_conf.o
USBD_LL_FlushEP                                   build/debug/usbd_conf.o
USBD_LL_GetRxDataSize                             build/debug/usbd_conf.o
                                                  build/debug/usbd_ioreq.o
                                                  build/debug/usbd_cdc.o
USBD_LL_Init                                      build/debug/usbd_conf.o
                                                  build/debug/usbd_core.o
USBD_LL_IsStallEP                                 build/debug/usbd_conf.o
                                                  build/debug/usbd_ctlreq.o
USBD_LL_IsoINIncomplete                           build/debug/usbd_core.o
                                                  build/debug/usbd_conf.o
USBD_LL_IsoOUTIncomplete                          build/debug/usbd_core.o
                                                  build/debug/usbd_conf.o
USBD_LL_OpenEP                                    build/debug/usbd_conf.o
                                                  build/debug/usbd_core.o
                                                  build/debug/usbd_cdc.o
USBD_LL_PrepareReceive                            build/debug/usbd_conf.o
                                                  build/debug/usbd_ioreq.o
                                                  build/debug/usbd_core.o
                                                  build/debug/usbd_cdc.o
USBD_LL_Reset                                     build/debug/usbd_core.o
                                                  build/debug/usbd_conf.o
USBD_LL_Resume                                    build/debug/usbd_core.o
                                                  build/debug/usbd_conf.o
USBD_LL_SOF                                       build/debug/usbd_core.o
                                                  build/debug/usbd_conf.o
USBD_LL_SetSpeed                                  build/debug/usbd_core.o
                                                  build/debug/usbd_conf.o
USBD_LL_SetUSBAddress                             build/debug/usbd_conf.o
                                                  build/debug/usbd_ctlreq.o
USBD_LL_SetupStage                                build/debug/usbd_core.o
                                                  build/debug/usbd_conf.o
USBD_LL_StallEP                                   build/debug/usbd_conf.o
                                                  build/debug/usbd_ctlreq.o
                                                  build/debug/usbd_core.o
USBD_LL_Start                                     build/debug/usbd_conf.o
                                                  build/debug/usbd_core.o
USBD_LL_Stop                                      build/debug/usbd_conf.o
                                                  build/debug/usbd_core.o
USBD_LL_Suspend                                   build/debug/usbd_core.o
                                                  build/debug/usbd_conf.o
USBD_LL_Transmit                                  build/debug/usbd_conf.o
                                                  build/debug/usbd_ioreq.o
                                                  build/debug/usbd_cdc.o
USBD_LangIDDesc                                   build/debug/usbd_desc.o
USBD_ParseSetupRequest                            build/debug/usbd_ctlreq.o
                                                  build/debug/usbd_core.o
USBD_RegisterClass                                build/debug/usbd_core.o
                                                  build/debug/usb_device.o
USBD_RunTestMode                                  build/debug/usbd_core.o
USBD_SetClassConfig                               build/debug/usbd_core.o
                                                  build/debug/usbd_ctlreq.o
USBD_Start                                        build/debug/usbd_core.o
                                                  build/debug/usb_device.o
USBD_StdDevReq                                    build/debug/usbd_ctlreq.o
                                                  build/debug/usbd_core.o
USBD_StdEPReq                                     build/debug/usbd_ctlreq.o
                                                  build/debug/usbd_core.o
USBD_StdItfReq                                    build/debug/usbd_ctlreq.o
                                                  build/debug/usbd_core.o
USBD_Stop                                         build/debug/usbd_core.o
USBD_StrDesc                                      build/debug/usbd_desc.o
USBD_StringSerial                                 build/debug/usbd_desc.o
USBD_static_free                                  build/debug/usbd_conf.o
                                                  build/debug/usbd_cdc.o
USBD_static_malloc                                build/debug/usbd_conf.o
                                                  build/debug/usbd_cdc.o
USB_ActivateDedicatedEndpoint                     build/debug/stm32h7xx_ll_usb.o
USB_ActivateEndpoint                              build/debug/stm32h7xx_ll_usb.o
                                                  build/debug/stm32h7xx_hal_pcd.o
USB_ActivateRemoteWakeup                          build/debug/stm32h7xx_ll_usb.o
                                                  build/debug/stm32h7xx_hal_pcd.o
USB_ActivateSetup                                 build/debug/stm32h7xx_ll_usb.o
                                                  build/debug/stm32h7xx_hal_pcd.o
USB_ClearInterrupts                               build/debug/stm32h7xx_ll_usb.o
USB_CoreInit                                      build/debug/stm32h7xx_ll_usb.o
                                                  build/debug/stm32h7xx_hal_pcd.o
USB_DeActivateRemoteWakeup                        build/debug/stm32h7xx_ll_usb.o
                                                  build/debug/stm32h7xx_hal_pcd.o
USB_DeactivateDedicatedEndpoint                   build/debug/stm32h7xx_ll_usb.o
USB_DeactivateEndpoint                            build/debug/stm32h7xx_ll_usb.o
                                                  build/debug/stm32h7xx_hal_pcd.o
USB_DevConnect                                    build/debug/stm32h7xx_ll_usb.o
                                                  build/debug/stm32h7xx_hal_pcd.o
USB_DevDisconnect                                 build/debug/stm32h7xx_ll_usb.o
                                                  build/debug/stm32h7xx_hal_pcd.o
USB_DevInit                                       build/debug/stm32h7xx_ll_usb.o
                                                  build/debug/stm32h7xx_hal_pcd.o
USB_DisableGlobalInt                              build/debug/stm32h7xx_ll_usb.o
                                                  build/debug/stm32h7xx_hal_pcd.o
USB_DoPing                                        build/debug/stm32h7xx_ll_usb.o
USB_DriveVbus                                     build/debug/stm32h7xx_ll_usb.o
USB_EP0_OutStart                                  build/debug/stm32h7xx_ll_usb.o
                                                  build/debug/stm32h7xx_hal_pcd.o
USB_EPClearStall                                  build/debug/stm32h7xx_ll_usb.o
                                                  build/debug/stm32h7xx_hal_pcd.o
USB_EPSetStall                                    build/debug/stm32h7xx_ll_usb.o
                                                  build/debug/stm32h7xx_hal_pcd.o
USB_EPStartXfer                                   build/debug/stm32h7xx_ll_usb.o
                                                  build/debug/stm32h7xx_hal_pcd.o
USB_EPStopXfer                                    build/debug/stm32h7xx_ll_usb.o
                                                  build/debug/stm32h7xx_hal_pcd.o
USB_EnableGlobalInt                               build/debug/stm32h7xx_ll_usb.o
                                                  build/debug/stm32h7xx_hal_pcd.o
USB_FlushRxFifo                                   build/debug/stm32h7xx_ll_usb.o
                                                  build/debug/stm32h7xx_hal_pcd.o
USB_FlushTxFifo                                   build/debug/stm32h7xx_ll_usb.o
                                                  build/debug/stm32h7xx_hal_pcd.o
USB_GetCurrentFrame                               build/debug/stm32h7xx_ll_usb.o
USB_GetDevSpeed                                   build/debug/stm32h7xx_ll_usb.o
                                                  build/debug/stm32h7xx_hal_pcd.o
USB_GetHostSpeed                                  build/debug/stm32h7xx_ll_usb.o
USB_GetMode                                       build/debug/stm32h7xx_ll_usb.o
                                                  build/debug/stm32h7xx_hal_pcd.o
USB_HC_Halt                                       build/debug/stm32h7xx_ll_usb.o
USB_HC_Init                                       build/debug/stm32h7xx_ll_usb.o
USB_HC_ReadInterrupt                              build/debug/stm32h7xx_ll_usb.o
USB_HC_StartXfer                                  build/debug/stm32h7xx_ll_usb.o
USB_HostInit                                      build/debug/stm32h7xx_ll_usb.o
USB_InitFSLSPClkSel                               build/debug/stm32h7xx_ll_usb.o
USB_ReadChInterrupts                              build/debug/stm32h7xx_ll_usb.o
USB_ReadDevAllInEpInterrupt                       build/debug/stm32h7xx_ll_usb.o
                                                  build/debug/stm32h7xx_hal_pcd.o
USB_ReadDevAllOutEpInterrupt                      build/debug/stm32h7xx_ll_usb.o
                                                  build/debug/stm32h7xx_hal_pcd.o
USB_ReadDevInEPInterrupt                          build/debug/stm32h7xx_ll_usb.o
                                                  build/debug/stm32h7xx_hal_pcd.o
USB_ReadDevOutEPInterrupt                         build/debug/stm32h7xx_ll_usb.o
                                                  build/debug/stm32h7xx_hal_pcd.o
USB_ReadInterrupts                                build/debug/stm32h7xx_ll_usb.o
                                                  build/debug/stm32h7xx_hal_pcd.o
USB_ReadPacket                                    build/debug/stm32h7xx_ll_usb.o
                                                  build/debug/stm32h7xx_hal_pcd.o
USB_ResetPort                                     build/debug/stm32h7xx_ll_usb.o
USB_SetCurrentMode                                build/debug/stm32h7xx_ll_usb.o
                                                  build/debug/stm32h7xx_hal_pcd.o
USB_SetDevAddress                                 build/debug/stm32h7xx_ll_usb.o
                                                  build/debug/stm32h7xx_hal_pcd.o
USB_SetDevSpeed                                   build/debug/stm32h7xx_ll_usb.o
USB_SetTurnaroundTime                             build/debug/stm32h7xx_ll_usb.o
                                                  build/debug/stm32h7xx_hal_pcd.o
USB_StopDevice                                    build/debug/stm32h7xx_ll_usb.o
                                                  build/debug/stm32h7xx_hal_pcd.o
USB_StopHost                                      build/debug/stm32h7xx_ll_usb.o
USB_WritePacket                                   build/debug/stm32h7xx_ll_usb.o
                                                  build/debug/stm32h7xx_hal_pcd.o
UsageFault_Handler                                build/debug/stm32h7xx_it.o
UserRxBufferHS                                    build/debug/usbd_cdc_if.o
UserTxBufferHS                                    build/debug/usbd_cdc_if.o
WAKEUP_PIN_IRQHandler                             build/debug/startup_stm32h725xx.o
WWDG_IRQHandler                                   build/debug/startup_stm32h725xx.o
_Balloc                                           /usr/lib/gcc/arm-none-eabi/13.2.1/../../../arm-none-eabi/lib/thumb/v7e-m+dp/hard/libc_nano.a(libc_a-mprec.o)
                                                  /usr/lib/gcc/arm-none-eabi/13.2.1/../../../arm-none-eabi/lib/thumb/v7e-m+dp/hard/libc_nano.a(libc_a-dtoa.o)
_Bfree                                            /usr/lib/gcc/arm-none-eabi/13.2.1/../../../arm-none-eabi/lib/thumb/v7e-m+dp/hard/libc_nano.a(libc_a-mprec.o)
                                                  /usr/lib/gcc/arm-none-eabi/13.2.1/../../../arm-none-eabi/lib/thumb/v7e-m+dp/hard/libc_nano.a(libc_a-dtoa.o)
_ITM_deregisterTMCloneTable                       /usr/lib/gcc/arm-none-eabi/13.2.1/thumb/v7e-m+dp/hard/crtbegin.o
_ITM_registerTMCloneTable                         /usr/lib/gcc/arm-none-eabi/13.2.1/thumb/v7e-m+dp/hard/crtbegin.o
_Min_Stack_Size                                   build/debug/sysmem.o
_PathLocale                                       /usr/lib/gcc/arm-none-eabi/13.2.1/../../../arm-none-eabi/lib/thumb/v7e-m+dp/hard/libc_nano.a(libc_a-locale.o)
__TMC_END__                                       /usr/lib/gcc/arm-none-eabi/13.2.1/thumb/v7e-m+dp/hard/crtend.o
                                                  /usr/lib/gcc/arm-none-eabi/13.2.1/thumb/v7e-m+dp/hard/crtbegin.o
__any_on                                          /usr/lib/gcc/arm-none-eabi/13.2.1/../../../arm-none-eabi/lib/thumb/v7e-m+dp/hard/libc_nano.a(libc_a-mprec.o)
__ascii_mbtowc                                    /usr/lib/gcc/arm-none-eabi/13.2.1/../../../arm-none-eabi/lib/thumb/v7e-m+dp/hard/libc_nano.a(libc_a-mbtowc_r.o)
                                                  /usr/lib/gcc/arm-none-eabi/13.2.1/../../../arm-none-eabi/lib/thumb/v7e-m+dp/hard/libc_nano.a(libc_a-locale.o)
__ascii_wctomb                                    /usr/lib/gcc/arm-none-eabi/13.2.1/../../../arm-none-eabi/lib/thumb/v7e-m+dp/hard/libc_nano.a(libc_a-wctomb_r.o)
                                                  /usr/lib/gcc/arm-none-eabi/13.2.1/../../../arm-none-eabi/lib/thumb/v7e-m+dp/hard/libc_nano.a(libc_a-locale.o)
__assert                                          /usr/lib/gcc/arm-none-eabi/13.2.1/../../../arm-none-eabi/lib/thumb/v7e-m+dp/hard/libc_nano.a(libc_a-assert.o)
__assert_func                                     /usr/lib/gcc/arm-none-eabi/13.2.1/../../../arm-none-eabi/lib/thumb/v7e-m+dp/hard/libc_nano.a(libc_a-assert.o)
                                                  /usr/lib/gcc/arm-none-eabi/13.2.1/../../../arm-none-eabi/lib/thumb/v7e-m+dp/hard/libc_nano.a(libc_a-mprec.o)
                                                  /usr/lib/gcc/arm-none-eabi/13.2.1/../../../arm-none-eabi/lib/thumb/v7e-m+dp/hard/libc_nano.a(libc_a-dtoa.o)
__atexit                                          /usr/lib/gcc/arm-none-eabi/13.2.1/../../../arm-none-eabi/lib/thumb/v7e-m+dp/hard/libc_nano.a(libc_a-__call_atexit.o)
                                                  /usr/lib/gcc/arm-none-eabi/13.2.1/../../../arm-none-eabi/lib/thumb/v7e-m+dp/hard/libc_nano.a(libc_a-__atexit.o)
__atexit0                                         /usr/lib/gcc/arm-none-eabi/13.2.1/../../../arm-none-eabi/lib/thumb/v7e-m+dp/hard/libc_nano.a(libc_a-__atexit.o)
__atexit_dummy                                    /usr/lib/gcc/arm-none-eabi/13.2.1/../../../arm-none-eabi/lib/thumb/v7e-m+dp/hard/libc_nano.a(libc_a-__atexit.o)
__b2d                                             /usr/lib/gcc/arm-none-eabi/13.2.1/../../../arm-none-eabi/lib/thumb/v7e-m+dp/hard/libc_nano.a(libc_a-mprec.o)
__bss_end__                                       /usr/lib/gcc/arm-none-eabi/13.2.1/../../../arm-none-eabi/lib/thumb/v7e-m+dp/hard/crt0.o
__bss_start__                                     /usr/lib/gcc/arm-none-eabi/13.2.1/../../../arm-none-eabi/lib/thumb/v7e-m+dp/hard/crt0.o
__call_exitprocs                                  /usr/lib/gcc/arm-none-eabi/13.2.1/../../../arm-none-eabi/lib/thumb/v7e-m+dp/hard/libc_nano.a(libc_a-__call_atexit.o)
                                                  /usr/lib/gcc/arm-none-eabi/13.2.1/../../../arm-none-eabi/lib/thumb/v7e-m+dp/hard/libc_nano.a(libc_a-__atexit.o)
                                                  /usr/lib/gcc/arm-none-eabi/13.2.1/../../../arm-none-eabi/lib/thumb/v7e-m+dp/hard/libc_nano.a(libc_a-exit.o)
__copybits                                        /usr/lib/gcc/arm-none-eabi/13.2.1/../../../arm-none-eabi/lib/thumb/v7e-m+dp/hard/libc_nano.a(libc_a-mprec.o)
__cvt                                             /usr/lib/gcc/arm-none-eabi/13.2.1/../../../arm-none-eabi/lib/thumb/v7e-m+dp/hard/libc_nano.a(libc_a-nano-vfprintf_float.o)
__d2b                                             /usr/lib/gcc/arm-none-eabi/13.2.1/../../../arm-none-eabi/lib/thumb/v7e-m+dp/hard/libc_nano.a(libc_a-mprec.o)
                                                  /usr/lib/gcc/arm-none-eabi/13.2.1/../../../arm-none-eabi/lib/thumb/v7e-m+dp/hard/libc_nano.a(libc_a-dtoa.o)
__deregister_frame_info                           /usr/lib/gcc/arm-none-eabi/13.2.1/thumb/v7e-m+dp/hard/crtbegin.o
__dso_handle                                      /usr/lib/gcc/arm-none-eabi/13.2.1/thumb/v7e-m+dp/hard/crtbegin.o
__env                                             build/debug/syscalls.o
__errno                                           /usr/lib/gcc/arm-none-eabi/13.2.1/../../../arm-none-eabi/lib/thumb/v7e-m+dp/hard/libc_nano.a(libc_a-errno.o)
                                                  /usr/lib/gcc/arm-none-eabi/13.2.1/../../../arm-none-eabi/lib/thumb/v7e-m+dp/hard/libm.a(libm_a-math_err.o)
                                                  build/debug/sysmem.o
                                                  build/debug/syscalls.o
__exp_data                                        /usr/lib/gcc/arm-none-eabi/13.2.1/../../../arm-none-eabi/lib/thumb/v7e-m+dp/hard/libm.a(libm_a-exp_data.o)
                                                  /usr/lib/gcc/arm-none-eabi/13.2.1/../../../arm-none-eabi/lib/thumb/v7e-m+dp/hard/libm.a(libm_a-pow.o)
__exponent                                        /usr/lib/gcc/arm-none-eabi/13.2.1/../../../arm-none-eabi/lib/thumb/v7e-m+dp/hard/libc_nano.a(libc_a-nano-vfprintf_float.o)
__fini_array_end                                  /usr/lib/gcc/arm-none-eabi/13.2.1/../../../arm-none-eabi/lib/thumb/v7e-m+dp/hard/libc_nano.a(libc_a-fini.o)
__fini_array_start                                /usr/lib/gcc/arm-none-eabi/13.2.1/../../../arm-none-eabi/lib/thumb/v7e-m+dp/hard/libc_nano.a(libc_a-fini.o)
__fp_lock_all                                     /usr/lib/gcc/arm-none-eabi/13.2.1/../../../arm-none-eabi/lib/thumb/v7e-m+dp/hard/libc_nano.a(libc_a-findfp.o)
__fp_unlock_all                                   /usr/lib/gcc/arm-none-eabi/13.2.1/../../../arm-none-eabi/lib/thumb/v7e-m+dp/hard/libc_nano.a(libc_a-findfp.o)
__global_locale                                   /usr/lib/gcc/arm-none-eabi/13.2.1/../../../arm-none-eabi/lib/thumb/v7e-m+dp/hard/libc_nano.a(libc_a-locale.o)
                                                  /usr/lib/gcc/arm-none-eabi/13.2.1/../../../arm-none-eabi/lib/thumb/v7e-m+dp/hard/libc_nano.a(libc_a-mbtowc_r.o)
                                                  /usr/lib/gcc/arm-none-eabi/13.2.1/../../../arm-none-eabi/lib/thumb/v7e-m+dp/hard/libc_nano.a(libc_a-wctomb_r.o)
                                                  /usr/lib/gcc/arm-none-eabi/13.2.1/../../../arm-none-eabi/lib/thumb/v7e-m+dp/hard/libc_nano.a(libc_a-localeconv.o)
__hi0bits                                         /usr/lib/gcc/arm-none-eabi/13.2.1/../../../arm-none-eabi/lib/thumb/v7e-m+dp/hard/libc_nano.a(libc_a-mprec.o)
                                                  /usr/lib/gcc/arm-none-eabi/13.2.1/../../../arm-none-eabi/lib/thumb/v7e-m+dp/hard/libc_nano.a(libc_a-dtoa.o)
__i2b                                             /usr/lib/gcc/arm-none-eabi/13.2.1/../../../arm-none-eabi/lib/thumb/v7e-m+dp/hard/libc_nano.a(libc_a-mprec.o)
                                                  /usr/lib/gcc/arm-none-eabi/13.2.1/../../../arm-none-eabi/lib/thumb/v7e-m+dp/hard/libc_nano.a(libc_a-dtoa.o)
__init_array_end                                  /usr/lib/gcc/arm-none-eabi/13.2.1/../../../arm-none-eabi/lib/thumb/v7e-m+dp/hard/libc_nano.a(libc_a-init.o)
__init_array_start                                /usr/lib/gcc/arm-none-eabi/13.2.1/../../../arm-none-eabi/lib/thumb/v7e-m+dp/hard/libc_nano.a(libc_a-init.o)
__io_getchar                                      build/debug/syscalls.o
__io_putchar                                      build/debug/syscalls.o
__libc_fini_array                                 /usr/lib/gcc/arm-none-eabi/13.2.1/../../../arm-none-eabi/lib/thumb/v7e-m+dp/hard/libc_nano.a(libc_a-fini.o)
                                                  /usr/lib/gcc/arm-none-eabi/13.2.1/../../../arm-none-eabi/lib/thumb/v7e-m+dp/hard/crt0.o
__libc_init_array                                 /usr/lib/gcc/arm-none-eabi/13.2.1/../../../arm-none-eabi/lib/thumb/v7e-m+dp/hard/libc_nano.a(libc_a-init.o)
                                                  build/debug/startup_stm32h725xx.o
                                                  /usr/lib/gcc/arm-none-eabi/13.2.1/../../../arm-none-eabi/lib/thumb/v7e-m+dp/hard/crt0.o
__lo0bits                                         /usr/lib/gcc/arm-none-eabi/13.2.1/../../../arm-none-eabi/lib/thumb/v7e-m+dp/hard/libc_nano.a(libc_a-mprec.o)
__locale_mb_cur_max                               /usr/lib/gcc/arm-none-eabi/13.2.1/../../../arm-none-eabi/lib/thumb/v7e-m+dp/hard/libc_nano.a(libc_a-locale.o)
__localeconv_l                                    /usr/lib/gcc/arm-none-eabi/13.2.1/../../../arm-none-eabi/lib/thumb/v7e-m+dp/hard/libc_nano.a(libc_a-localeconv.o)
__lshift                                          /usr/lib/gcc/arm-none-eabi/13.2.1/../../../arm-none-eabi/lib/thumb/v7e-m+dp/hard/libc_nano.a(libc_a-mprec.o)
                                                  /usr/lib/gcc/arm-none-eabi/13.2.1/../../../arm-none-eabi/lib/thumb/v7e-m+dp/hard/libc_nano.a(libc_a-dtoa.o)
__malloc_free_list                                /usr/lib/gcc/arm-none-eabi/13.2.1/../../../arm-none-eabi/lib/thumb/v7e-m+dp/hard/libc_nano.a(libc_a-mallocr.o)
                                                  /usr/lib/gcc/arm-none-eabi/13.2.1/../../../arm-none-eabi/lib/thumb/v7e-m+dp/hard/libc_nano.a(libc_a-freer.o)
__malloc_lock                                     /usr/lib/gcc/arm-none-eabi/13.2.1/../../../arm-none-eabi/lib/thumb/v7e-m+dp/hard/libc_nano.a(libc_a-mlock.o)
                                                  /usr/lib/gcc/arm-none-eabi/13.2.1/../../../arm-none-eabi/lib/thumb/v7e-m+dp/hard/libc_nano.a(libc_a-freer.o)
                                                  /usr/lib/gcc/arm-none-eabi/13.2.1/../../../arm-none-eabi/lib/thumb/v7e-m+dp/hard/libc_nano.a(libc_a-mallocr.o)
__malloc_sbrk_start                               /usr/lib/gcc/arm-none-eabi/13.2.1/../../../arm-none-eabi/lib/thumb/v7e-m+dp/hard/libc_nano.a(libc_a-mallocr.o)
__malloc_unlock                                   /usr/lib/gcc/arm-none-eabi/13.2.1/../../../arm-none-eabi/lib/thumb/v7e-m+dp/hard/libc_nano.a(libc_a-mlock.o)
                                                  /usr/lib/gcc/arm-none-eabi/13.2.1/../../../arm-none-eabi/lib/thumb/v7e-m+dp/hard/libc_nano.a(libc_a-freer.o)
                                                  /usr/lib/gcc/arm-none-eabi/13.2.1/../../../arm-none-eabi/lib/thumb/v7e-m+dp/hard/libc_nano.a(libc_a-mallocr.o)
__math_check_oflow                                /usr/lib/gcc/arm-none-eabi/13.2.1/../../../arm-none-eabi/lib/thumb/v7e-m+dp/hard/libm.a(libm_a-math_err.o)
                                                  /usr/lib/gcc/arm-none-eabi/13.2.1/../../../arm-none-eabi/lib/thumb/v7e-m+dp/hard/libm.a(libm_a-pow.o)
__math_check_uflow                                /usr/lib/gcc/arm-none-eabi/13.2.1/../../../arm-none-eabi/lib/thumb/v7e-m+dp/hard/libm.a(libm_a-math_err.o)
                                                  /usr/lib/gcc/arm-none-eabi/13.2.1/../../../arm-none-eabi/lib/thumb/v7e-m+dp/hard/libm.a(libm_a-pow.o)
__math_divzero                                    /usr/lib/gcc/arm-none-eabi/13.2.1/../../../arm-none-eabi/lib/thumb/v7e-m+dp/hard/libm.a(libm_a-math_err.o)
                                                  /usr/lib/gcc/arm-none-eabi/13.2.1/../../../arm-none-eabi/lib/thumb/v7e-m+dp/hard/libm.a(libm_a-pow.o)
__math_invalid                                    /usr/lib/gcc/arm-none-eabi/13.2.1/../../../arm-none-eabi/lib/thumb/v7e-m+dp/hard/libm.a(libm_a-math_err.o)
                                                  /usr/lib/gcc/arm-none-eabi/13.2.1/../../../arm-none-eabi/lib/thumb/v7e-m+dp/hard/libm.a(libm_a-pow.o)
__math_may_uflow                                  /usr/lib/gcc/arm-none-eabi/13.2.1/../../../arm-none-eabi/lib/thumb/v7e-m+dp/hard/libm.a(libm_a-math_err.o)
__math_oflow                                      /usr/lib/gcc/arm-none-eabi/13.2.1/../../../arm-none-eabi/lib/thumb/v7e-m+dp/hard/libm.a(libm_a-math_err.o)
                                                  /usr/lib/gcc/arm-none-eabi/13.2.1/../../../arm-none-eabi/lib/thumb/v7e-m+dp/hard/libm.a(libm_a-pow.o)
__math_uflow                                      /usr/lib/gcc/arm-none-eabi/13.2.1/../../../arm-none-eabi/lib/thumb/v7e-m+dp/hard/libm.a(libm_a-math_err.o)
                                                  /usr/lib/gcc/arm-none-eabi/13.2.1/../../../arm-none-eabi/lib/thumb/v7e-m+dp/hard/libm.a(libm_a-pow.o)
__mcmp                                            /usr/lib/gcc/arm-none-eabi/13.2.1/../../../arm-none-eabi/lib/thumb/v7e-m+dp/hard/libc_nano.a(libc_a-mprec.o)
                                                  /usr/lib/gcc/arm-none-eabi/13.2.1/../../../arm-none-eabi/lib/thumb/v7e-m+dp/hard/libc_nano.a(libc_a-dtoa.o)
__mdiff                                           /usr/lib/gcc/arm-none-eabi/13.2.1/../../../arm-none-eabi/lib/thumb/v7e-m+dp/hard/libc_nano.a(libc_a-mprec.o)
                                                  /usr/lib/gcc/arm-none-eabi/13.2.1/../../../arm-none-eabi/lib/thumb/v7e-m+dp/hard/libc_nano.a(libc_a-dtoa.o)
__mprec_bigtens                                   /usr/lib/gcc/arm-none-eabi/13.2.1/../../../arm-none-eabi/lib/thumb/v7e-m+dp/hard/libc_nano.a(libc_a-mprec.o)
                                                  /usr/lib/gcc/arm-none-eabi/13.2.1/../../../arm-none-eabi/lib/thumb/v7e-m+dp/hard/libc_nano.a(libc_a-dtoa.o)
__mprec_tens                                      /usr/lib/gcc/arm-none-eabi/13.2.1/../../../arm-none-eabi/lib/thumb/v7e-m+dp/hard/libc_nano.a(libc_a-mprec.o)
                                                  /usr/lib/gcc/arm-none-eabi/13.2.1/../../../arm-none-eabi/lib/thumb/v7e-m+dp/hard/libc_nano.a(libc_a-dtoa.o)
__mprec_tinytens                                  /usr/lib/gcc/arm-none-eabi/13.2.1/../../../arm-none-eabi/lib/thumb/v7e-m+dp/hard/libc_nano.a(libc_a-mprec.o)
__multadd                                         /usr/lib/gcc/arm-none-eabi/13.2.1/../../../arm-none-eabi/lib/thumb/v7e-m+dp/hard/libc_nano.a(libc_a-mprec.o)
                                                  /usr/lib/gcc/arm-none-eabi/13.2.1/../../../arm-none-eabi/lib/thumb/v7e-m+dp/hard/libc_nano.a(libc_a-dtoa.o)
__multiply                                        /usr/lib/gcc/arm-none-eabi/13.2.1/../../../arm-none-eabi/lib/thumb/v7e-m+dp/hard/libc_nano.a(libc_a-mprec.o)
                                                  /usr/lib/gcc/arm-none-eabi/13.2.1/../../../arm-none-eabi/lib/thumb/v7e-m+dp/hard/libc_nano.a(libc_a-dtoa.o)
__on_exit_args                                    /usr/lib/gcc/arm-none-eabi/13.2.1/../../../arm-none-eabi/lib/thumb/v7e-m+dp/hard/libc_nano.a(libc_a-__atexit.o)
__pow5mult                                        /usr/lib/gcc/arm-none-eabi/13.2.1/../../../arm-none-eabi/lib/thumb/v7e-m+dp/hard/libc_nano.a(libc_a-mprec.o)
                                                  /usr/lib/gcc/arm-none-eabi/13.2.1/../../../arm-none-eabi/lib/thumb/v7e-m+dp/hard/libc_nano.a(libc_a-dtoa.o)
__pow_log_data                                    /usr/lib/gcc/arm-none-eabi/13.2.1/../../../arm-none-eabi/lib/thumb/v7e-m+dp/hard/libm.a(libm_a-pow_log_data.o)
                                                  /usr/lib/gcc/arm-none-eabi/13.2.1/../../../arm-none-eabi/lib/thumb/v7e-m+dp/hard/libm.a(libm_a-pow.o)
__preinit_array_end                               /usr/lib/gcc/arm-none-eabi/13.2.1/../../../arm-none-eabi/lib/thumb/v7e-m+dp/hard/libc_nano.a(libc_a-init.o)
__preinit_array_start                             /usr/lib/gcc/arm-none-eabi/13.2.1/../../../arm-none-eabi/lib/thumb/v7e-m+dp/hard/libc_nano.a(libc_a-init.o)
__ratio                                           /usr/lib/gcc/arm-none-eabi/13.2.1/../../../arm-none-eabi/lib/thumb/v7e-m+dp/hard/libc_nano.a(libc_a-mprec.o)
__register_exitproc                               /usr/lib/gcc/arm-none-eabi/13.2.1/../../../arm-none-eabi/lib/thumb/v7e-m+dp/hard/libc_nano.a(libc_a-__atexit.o)
                                                  /usr/lib/gcc/arm-none-eabi/13.2.1/../../../arm-none-eabi/lib/thumb/v7e-m+dp/hard/libc_nano.a(libc_a-atexit.o)
__register_frame_info                             /usr/lib/gcc/arm-none-eabi/13.2.1/thumb/v7e-m+dp/hard/crtbegin.o
__s2b                                             /usr/lib/gcc/arm-none-eabi/13.2.1/../../../arm-none-eabi/lib/thumb/v7e-m+dp/hard/libc_nano.a(libc_a-mprec.o)
__sclose                                          /usr/lib/gcc/arm-none-eabi/13.2.1/../../../arm-none-eabi/lib/thumb/v7e-m+dp/hard/libc_nano.a(libc_a-stdio.o)
                                                  /usr/lib/gcc/arm-none-eabi/13.2.1/../../../arm-none-eabi/lib/thumb/v7e-m+dp/hard/libc_nano.a(libc_a-findfp.o)
__seofread                                        /usr/lib/gcc/arm-none-eabi/13.2.1/../../../arm-none-eabi/lib/thumb/v7e-m+dp/hard/libc_nano.a(libc_a-stdio.o)
__sf                                              /usr/lib/gcc/arm-none-eabi/13.2.1/../../../arm-none-eabi/lib/thumb/v7e-m+dp/hard/libc_nano.a(libc_a-findfp.o)
                                                  /usr/lib/gcc/arm-none-eabi/13.2.1/../../../arm-none-eabi/lib/thumb/v7e-m+dp/hard/libc_nano.a(libc_a-impure.o)
__sflush_r                                        /usr/lib/gcc/arm-none-eabi/13.2.1/../../../arm-none-eabi/lib/thumb/v7e-m+dp/hard/libc_nano.a(libc_a-fflush.o)
__sfp                                             /usr/lib/gcc/arm-none-eabi/13.2.1/../../../arm-none-eabi/lib/thumb/v7e-m+dp/hard/libc_nano.a(libc_a-findfp.o)
__sfp_lock_acquire                                /usr/lib/gcc/arm-none-eabi/13.2.1/../../../arm-none-eabi/lib/thumb/v7e-m+dp/hard/libc_nano.a(libc_a-findfp.o)
__sfp_lock_release                                /usr/lib/gcc/arm-none-eabi/13.2.1/../../../arm-none-eabi/lib/thumb/v7e-m+dp/hard/libc_nano.a(libc_a-findfp.o)
__sfputs_r                                        /usr/lib/gcc/arm-none-eabi/13.2.1/../../../arm-none-eabi/lib/thumb/v7e-m+dp/hard/libc_nano.a(libc_a-nano-vfprintf.o)
__sfvwrite_r                                      /usr/lib/gcc/arm-none-eabi/13.2.1/../../../arm-none-eabi/lib/thumb/v7e-m+dp/hard/libc_nano.a(libc_a-fvwrite.o)
                                                  /usr/lib/gcc/arm-none-eabi/13.2.1/../../../arm-none-eabi/lib/thumb/v7e-m+dp/hard/libc_nano.a(libc_a-nano-vfprintf.o)
__sglue                                           /usr/lib/gcc/arm-none-eabi/13.2.1/../../../arm-none-eabi/lib/thumb/v7e-m+dp/hard/libc_nano.a(libc_a-findfp.o)
                                                  /usr/lib/gcc/arm-none-eabi/13.2.1/../../../arm-none-eabi/lib/thumb/v7e-m+dp/hard/libc_nano.a(libc_a-fflush.o)
__sigtramp                                        /usr/lib/gcc/arm-none-eabi/13.2.1/../../../arm-none-eabi/lib/thumb/v7e-m+dp/hard/libc_nano.a(libc_a-signal.o)
__sigtramp_r                                      /usr/lib/gcc/arm-none-eabi/13.2.1/../../../arm-none-eabi/lib/thumb/v7e-m+dp/hard/libc_nano.a(libc_a-signal.o)
__sinit                                           /usr/lib/gcc/arm-none-eabi/13.2.1/../../../arm-none-eabi/lib/thumb/v7e-m+dp/hard/libc_nano.a(libc_a-findfp.o)
                                                  /usr/lib/gcc/arm-none-eabi/13.2.1/../../../arm-none-eabi/lib/thumb/v7e-m+dp/hard/libc_nano.a(libc_a-wsetup.o)
                                                  /usr/lib/gcc/arm-none-eabi/13.2.1/../../../arm-none-eabi/lib/thumb/v7e-m+dp/hard/libc_nano.a(libc_a-wbuf.o)
                                                  /usr/lib/gcc/arm-none-eabi/13.2.1/../../../arm-none-eabi/lib/thumb/v7e-m+dp/hard/libc_nano.a(libc_a-nano-vfprintf.o)
                                                  /usr/lib/gcc/arm-none-eabi/13.2.1/../../../arm-none-eabi/lib/thumb/v7e-m+dp/hard/libc_nano.a(libc_a-fflush.o)
__smakebuf_r                                      /usr/lib/gcc/arm-none-eabi/13.2.1/../../../arm-none-eabi/lib/thumb/v7e-m+dp/hard/libc_nano.a(libc_a-makebuf.o)
                                                  /usr/lib/gcc/arm-none-eabi/13.2.1/../../../arm-none-eabi/lib/thumb/v7e-m+dp/hard/libc_nano.a(libc_a-wsetup.o)
__sprint_r                                        /usr/lib/gcc/arm-none-eabi/13.2.1/../../../arm-none-eabi/lib/thumb/v7e-m+dp/hard/libc_nano.a(libc_a-nano-vfprintf.o)
__sread                                           /usr/lib/gcc/arm-none-eabi/13.2.1/../../../arm-none-eabi/lib/thumb/v7e-m+dp/hard/libc_nano.a(libc_a-stdio.o)
                                                  /usr/lib/gcc/arm-none-eabi/13.2.1/../../../arm-none-eabi/lib/thumb/v7e-m+dp/hard/libc_nano.a(libc_a-findfp.o)
__sseek                                           /usr/lib/gcc/arm-none-eabi/13.2.1/../../../arm-none-eabi/lib/thumb/v7e-m+dp/hard/libc_nano.a(libc_a-stdio.o)
                                                  /usr/lib/gcc/arm-none-eabi/13.2.1/../../../arm-none-eabi/lib/thumb/v7e-m+dp/hard/libc_nano.a(libc_a-findfp.o)
__stack                                           /usr/lib/gcc/arm-none-eabi/13.2.1/../../../arm-none-eabi/lib/thumb/v7e-m+dp/hard/crt0.o
__stdio_exit_handler                              /usr/lib/gcc/arm-none-eabi/13.2.1/../../../arm-none-eabi/lib/thumb/v7e-m+dp/hard/libc_nano.a(libc_a-findfp.o)
                                                  /usr/lib/gcc/arm-none-eabi/13.2.1/../../../arm-none-eabi/lib/thumb/v7e-m+dp/hard/libc_nano.a(libc_a-exit.o)
__swbuf                                           /usr/lib/gcc/arm-none-eabi/13.2.1/../../../arm-none-eabi/lib/thumb/v7e-m+dp/hard/libc_nano.a(libc_a-wbuf.o)
__swbuf_r                                         /usr/lib/gcc/arm-none-eabi/13.2.1/../../../arm-none-eabi/lib/thumb/v7e-m+dp/hard/libc_nano.a(libc_a-wbuf.o)
                                                  /usr/lib/gcc/arm-none-eabi/13.2.1/../../../arm-none-eabi/lib/thumb/v7e-m+dp/hard/libc_nano.a(libc_a-nano-vfprintf.o)
__swhatbuf_r                                      /usr/lib/gcc/arm-none-eabi/13.2.1/../../../arm-none-eabi/lib/thumb/v7e-m+dp/hard/libc_nano.a(libc_a-makebuf.o)
__swrite                                          /usr/lib/gcc/arm-none-eabi/13.2.1/../../../arm-none-eabi/lib/thumb/v7e-m+dp/hard/libc_nano.a(libc_a-stdio.o)
                                                  /usr/lib/gcc/arm-none-eabi/13.2.1/../../../arm-none-eabi/lib/thumb/v7e-m+dp/hard/libc_nano.a(libc_a-findfp.o)
__swsetup_r                                       /usr/lib/gcc/arm-none-eabi/13.2.1/../../../arm-none-eabi/lib/thumb/v7e-m+dp/hard/libc_nano.a(libc_a-wsetup.o)
                                                  /usr/lib/gcc/arm-none-eabi/13.2.1/../../../arm-none-eabi/lib/thumb/v7e-m+dp/hard/libc_nano.a(libc_a-fvwrite.o)
                                                  /usr/lib/gcc/arm-none-eabi/13.2.1/../../../arm-none-eabi/lib/thumb/v7e-m+dp/hard/libc_nano.a(libc_a-wbuf.o)
                                                  /usr/lib/gcc/arm-none-eabi/13.2.1/../../../arm-none-eabi/lib/thumb/v7e-m+dp/hard/libc_nano.a(libc_a-nano-vfprintf.o)
__ulp                                             /usr/lib/gcc/arm-none-eabi/13.2.1/../../../arm-none-eabi/lib/thumb/v7e-m+dp/hard/libc_nano.a(libc_a-mprec.o)
_calloc_r                                         /usr/lib/gcc/arm-none-eabi/13.2.1/../../../arm-none-eabi/lib/thumb/v7e-m+dp/hard/libc_nano.a(libc_a-callocr.o)
                                                  /usr/lib/gcc/arm-none-eabi/13.2.1/../../../arm-none-eabi/lib/thumb/v7e-m+dp/hard/libc_nano.a(libc_a-mprec.o)
_close                                            build/debug/syscalls.o
                                                  /usr/lib/gcc/arm-none-eabi/13.2.1/../../../arm-none-eabi/lib/thumb/v7e-m+dp/hard/libc_nano.a(libc_a-closer.o)
_close_r                                          /usr/lib/gcc/arm-none-eabi/13.2.1/../../../arm-none-eabi/lib/thumb/v7e-m+dp/hard/libc_nano.a(libc_a-closer.o)
                                                  /usr/lib/gcc/arm-none-eabi/13.2.1/../../../arm-none-eabi/lib/thumb/v7e-m+dp/hard/libc_nano.a(libc_a-stdio.o)
_ctype_                                           /usr/lib/gcc/arm-none-eabi/13.2.1/../../../arm-none-eabi/lib/thumb/v7e-m+dp/hard/libc_nano.a(libc_a-ctype_.o)
                                                  /usr/lib/gcc/arm-none-eabi/13.2.1/../../../arm-none-eabi/lib/thumb/v7e-m+dp/hard/libc_nano.a(libc_a-locale.o)
_dtoa_r                                           /usr/lib/gcc/arm-none-eabi/13.2.1/../../../arm-none-eabi/lib/thumb/v7e-m+dp/hard/libc_nano.a(libc_a-dtoa.o)
                                                  /usr/lib/gcc/arm-none-eabi/13.2.1/../../../arm-none-eabi/lib/thumb/v7e-m+dp/hard/libc_nano.a(libc_a-nano-vfprintf_float.o)
_ebss                                             build/debug/startup_stm32h725xx.o
_edata                                            build/debug/startup_stm32h725xx.o
_end                                              build/debug/sysmem.o
_estack                                           build/debug/startup_stm32h725xx.o
                                                  build/debug/sysmem.o
_execve                                           build/debug/syscalls.o
_exit                                             build/debug/syscalls.o
                                                  /usr/lib/gcc/arm-none-eabi/13.2.1/../../../arm-none-eabi/lib/thumb/v7e-m+dp/hard/libc_nano.a(libc_a-abort.o)
                                                  /usr/lib/gcc/arm-none-eabi/13.2.1/../../../arm-none-eabi/lib/thumb/v7e-m+dp/hard/libc_nano.a(libc_a-exit.o)
_fflush_r                                         /usr/lib/gcc/arm-none-eabi/13.2.1/../../../arm-none-eabi/lib/thumb/v7e-m+dp/hard/libc_nano.a(libc_a-fflush.o)
                                                  /usr/lib/gcc/arm-none-eabi/13.2.1/../../../arm-none-eabi/lib/thumb/v7e-m+dp/hard/libc_nano.a(libc_a-fvwrite.o)
                                                  /usr/lib/gcc/arm-none-eabi/13.2.1/../../../arm-none-eabi/lib/thumb/v7e-m+dp/hard/libc_nano.a(libc_a-wbuf.o)
                                                  /usr/lib/gcc/arm-none-eabi/13.2.1/../../../arm-none-eabi/lib/thumb/v7e-m+dp/hard/libc_nano.a(libc_a-findfp.o)
_fini                                             /usr/lib/gcc/arm-none-eabi/13.2.1/thumb/v7e-m+dp/hard/crti.o
                                                  /usr/lib/gcc/arm-none-eabi/13.2.1/../../../arm-none-eabi/lib/thumb/v7e-m+dp/hard/libc_nano.a(libc_a-fini.o)
_fiprintf_r                                       /usr/lib/gcc/arm-none-eabi/13.2.1/../../../arm-none-eabi/lib/thumb/v7e-m+dp/hard/libc_nano.a(libc_a-fprintf.o)
_fork                                             build/debug/syscalls.o
_fprintf_r                                        /usr/lib/gcc/arm-none-eabi/13.2.1/../../../arm-none-eabi/lib/thumb/v7e-m+dp/hard/libc_nano.a(libc_a-fprintf.o)
_free_r                                           /usr/lib/gcc/arm-none-eabi/13.2.1/../../../arm-none-eabi/lib/thumb/v7e-m+dp/hard/libc_nano.a(libc_a-freer.o)
                                                  /usr/lib/gcc/arm-none-eabi/13.2.1/../../../arm-none-eabi/lib/thumb/v7e-m+dp/hard/libc_nano.a(libc_a-reallocr.o)
                                                  /usr/lib/gcc/arm-none-eabi/13.2.1/../../../arm-none-eabi/lib/thumb/v7e-m+dp/hard/libc_nano.a(libc_a-reent.o)
                                                  /usr/lib/gcc/arm-none-eabi/13.2.1/../../../arm-none-eabi/lib/thumb/v7e-m+dp/hard/libc_nano.a(libc_a-wsetup.o)
                                                  /usr/lib/gcc/arm-none-eabi/13.2.1/../../../arm-none-eabi/lib/thumb/v7e-m+dp/hard/libc_nano.a(libc_a-fvwrite.o)
                                                  /usr/lib/gcc/arm-none-eabi/13.2.1/../../../arm-none-eabi/lib/thumb/v7e-m+dp/hard/libc_nano.a(libc_a-fflush.o)
                                                  /usr/lib/gcc/arm-none-eabi/13.2.1/../../../arm-none-eabi/lib/thumb/v7e-m+dp/hard/libc_nano.a(libc_a-malloc.o)
_fstat                                            build/debug/syscalls.o
                                                  /usr/lib/gcc/arm-none-eabi/13.2.1/../../../arm-none-eabi/lib/thumb/v7e-m+dp/hard/libc_nano.a(libc_a-fstatr.o)
_fstat_r                                          /usr/lib/gcc/arm-none-eabi/13.2.1/../../../arm-none-eabi/lib/thumb/v7e-m+dp/hard/libc_nano.a(libc_a-fstatr.o)
                                                  /usr/lib/gcc/arm-none-eabi/13.2.1/../../../arm-none-eabi/lib/thumb/v7e-m+dp/hard/libc_nano.a(libc_a-makebuf.o)
_fwalk_sglue                                      /usr/lib/gcc/arm-none-eabi/13.2.1/../../../arm-none-eabi/lib/thumb/v7e-m+dp/hard/libc_nano.a(libc_a-fwalk.o)
                                                  /usr/lib/gcc/arm-none-eabi/13.2.1/../../../arm-none-eabi/lib/thumb/v7e-m+dp/hard/libc_nano.a(libc_a-fflush.o)
                                                  /usr/lib/gcc/arm-none-eabi/13.2.1/../../../arm-none-eabi/lib/thumb/v7e-m+dp/hard/libc_nano.a(libc_a-findfp.o)
_getpid                                           build/debug/syscalls.o
                                                  /usr/lib/gcc/arm-none-eabi/13.2.1/../../../arm-none-eabi/lib/thumb/v7e-m+dp/hard/libc_nano.a(libc_a-signalr.o)
_getpid_r                                         /usr/lib/gcc/arm-none-eabi/13.2.1/../../../arm-none-eabi/lib/thumb/v7e-m+dp/hard/libc_nano.a(libc_a-signalr.o)
                                                  /usr/lib/gcc/arm-none-eabi/13.2.1/../../../arm-none-eabi/lib/thumb/v7e-m+dp/hard/libc_nano.a(libc_a-signal.o)
_impure_data                                      /usr/lib/gcc/arm-none-eabi/13.2.1/../../../arm-none-eabi/lib/thumb/v7e-m+dp/hard/libc_nano.a(libc_a-impure.o)
                                                  /usr/lib/gcc/arm-none-eabi/13.2.1/../../../arm-none-eabi/lib/thumb/v7e-m+dp/hard/libc_nano.a(libc_a-fflush.o)
                                                  /usr/lib/gcc/arm-none-eabi/13.2.1/../../../arm-none-eabi/lib/thumb/v7e-m+dp/hard/libc_nano.a(libc_a-findfp.o)
_impure_ptr                                       /usr/lib/gcc/arm-none-eabi/13.2.1/../../../arm-none-eabi/lib/thumb/v7e-m+dp/hard/libc_nano.a(libc_a-impure.o)
                                                  /usr/lib/gcc/arm-none-eabi/13.2.1/../../../arm-none-eabi/lib/thumb/v7e-m+dp/hard/libc_nano.a(libc_a-reent.o)
                                                  /usr/lib/gcc/arm-none-eabi/13.2.1/../../../arm-none-eabi/lib/thumb/v7e-m+dp/hard/libc_nano.a(libc_a-wsetup.o)
                                                  /usr/lib/gcc/arm-none-eabi/13.2.1/../../../arm-none-eabi/lib/thumb/v7e-m+dp/hard/libc_nano.a(libc_a-signal.o)
                                                  /usr/lib/gcc/arm-none-eabi/13.2.1/../../../arm-none-eabi/lib/thumb/v7e-m+dp/hard/libc_nano.a(libc_a-wbuf.o)
                                                  /usr/lib/gcc/arm-none-eabi/13.2.1/../../../arm-none-eabi/lib/thumb/v7e-m+dp/hard/libc_nano.a(libc_a-nano-vfprintf.o)
                                                  /usr/lib/gcc/arm-none-eabi/13.2.1/../../../arm-none-eabi/lib/thumb/v7e-m+dp/hard/libc_nano.a(libc_a-fprintf.o)
                                                  /usr/lib/gcc/arm-none-eabi/13.2.1/../../../arm-none-eabi/lib/thumb/v7e-m+dp/hard/libc_nano.a(libc_a-fflush.o)
                                                  /usr/lib/gcc/arm-none-eabi/13.2.1/../../../arm-none-eabi/lib/thumb/v7e-m+dp/hard/libc_nano.a(libc_a-assert.o)
                                                  /usr/lib/gcc/arm-none-eabi/13.2.1/../../../arm-none-eabi/lib/thumb/v7e-m+dp/hard/libc_nano.a(libc_a-malloc.o)
                                                  /usr/lib/gcc/arm-none-eabi/13.2.1/../../../arm-none-eabi/lib/thumb/v7e-m+dp/hard/libc_nano.a(libc_a-errno.o)
_init                                             /usr/lib/gcc/arm-none-eabi/13.2.1/thumb/v7e-m+dp/hard/crti.o
                                                  /usr/lib/gcc/arm-none-eabi/13.2.1/../../../arm-none-eabi/lib/thumb/v7e-m+dp/hard/libc_nano.a(libc_a-init.o)
_init_signal                                      /usr/lib/gcc/arm-none-eabi/13.2.1/../../../arm-none-eabi/lib/thumb/v7e-m+dp/hard/libc_nano.a(libc_a-signal.o)
_init_signal_r                                    /usr/lib/gcc/arm-none-eabi/13.2.1/../../../arm-none-eabi/lib/thumb/v7e-m+dp/hard/libc_nano.a(libc_a-signal.o)
_isatty                                           build/debug/syscalls.o
                                                  /usr/lib/gcc/arm-none-eabi/13.2.1/../../../arm-none-eabi/lib/thumb/v7e-m+dp/hard/libc_nano.a(libc_a-isattyr.o)
_isatty_r                                         /usr/lib/gcc/arm-none-eabi/13.2.1/../../../arm-none-eabi/lib/thumb/v7e-m+dp/hard/libc_nano.a(libc_a-isattyr.o)
                                                  /usr/lib/gcc/arm-none-eabi/13.2.1/../../../arm-none-eabi/lib/thumb/v7e-m+dp/hard/libc_nano.a(libc_a-makebuf.o)
_kill                                             build/debug/syscalls.o
                                                  /usr/lib/gcc/arm-none-eabi/13.2.1/../../../arm-none-eabi/lib/thumb/v7e-m+dp/hard/libc_nano.a(libc_a-signalr.o)
_kill_r                                           /usr/lib/gcc/arm-none-eabi/13.2.1/../../../arm-none-eabi/lib/thumb/v7e-m+dp/hard/libc_nano.a(libc_a-signalr.o)
                                                  /usr/lib/gcc/arm-none-eabi/13.2.1/../../../arm-none-eabi/lib/thumb/v7e-m+dp/hard/libc_nano.a(libc_a-signal.o)
_link                                             build/debug/syscalls.o
_localeconv_r                                     /usr/lib/gcc/arm-none-eabi/13.2.1/../../../arm-none-eabi/lib/thumb/v7e-m+dp/hard/libc_nano.a(libc_a-localeconv.o)
                                                  /usr/lib/gcc/arm-none-eabi/13.2.1/../../../arm-none-eabi/lib/thumb/v7e-m+dp/hard/libc_nano.a(libc_a-nano-vfprintf_float.o)
_lseek                                            build/debug/syscalls.o
                                                  /usr/lib/gcc/arm-none-eabi/13.2.1/../../../arm-none-eabi/lib/thumb/v7e-m+dp/hard/libc_nano.a(libc_a-lseekr.o)
_lseek_r                                          /usr/lib/gcc/arm-none-eabi/13.2.1/../../../arm-none-eabi/lib/thumb/v7e-m+dp/hard/libc_nano.a(libc_a-lseekr.o)
                                                  /usr/lib/gcc/arm-none-eabi/13.2.1/../../../arm-none-eabi/lib/thumb/v7e-m+dp/hard/libc_nano.a(libc_a-stdio.o)
_mainCRTStartup                                   /usr/lib/gcc/arm-none-eabi/13.2.1/../../../arm-none-eabi/lib/thumb/v7e-m+dp/hard/crt0.o
_malloc_r                                         /usr/lib/gcc/arm-none-eabi/13.2.1/../../../arm-none-eabi/lib/thumb/v7e-m+dp/hard/libc_nano.a(libc_a-mallocr.o)
                                                  /usr/lib/gcc/arm-none-eabi/13.2.1/../../../arm-none-eabi/lib/thumb/v7e-m+dp/hard/libc_nano.a(libc_a-makebuf.o)
                                                  /usr/lib/gcc/arm-none-eabi/13.2.1/../../../arm-none-eabi/lib/thumb/v7e-m+dp/hard/libc_nano.a(libc_a-reallocr.o)
                                                  /usr/lib/gcc/arm-none-eabi/13.2.1/../../../arm-none-eabi/lib/thumb/v7e-m+dp/hard/libc_nano.a(libc_a-signal.o)
                                                  /usr/lib/gcc/arm-none-eabi/13.2.1/../../../arm-none-eabi/lib/thumb/v7e-m+dp/hard/libc_nano.a(libc_a-fvwrite.o)
                                                  /usr/lib/gcc/arm-none-eabi/13.2.1/../../../arm-none-eabi/lib/thumb/v7e-m+dp/hard/libc_nano.a(libc_a-callocr.o)
                                                  /usr/lib/gcc/arm-none-eabi/13.2.1/../../../arm-none-eabi/lib/thumb/v7e-m+dp/hard/libc_nano.a(libc_a-findfp.o)
                                                  /usr/lib/gcc/arm-none-eabi/13.2.1/../../../arm-none-eabi/lib/thumb/v7e-m+dp/hard/libc_nano.a(libc_a-malloc.o)
_malloc_usable_size_r                             /usr/lib/gcc/arm-none-eabi/13.2.1/../../../arm-none-eabi/lib/thumb/v7e-m+dp/hard/libc_nano.a(libc_a-msizer.o)
                                                  /usr/lib/gcc/arm-none-eabi/13.2.1/../../../arm-none-eabi/lib/thumb/v7e-m+dp/hard/libc_nano.a(libc_a-reallocr.o)
_mbtowc_r                                         /usr/lib/gcc/arm-none-eabi/13.2.1/../../../arm-none-eabi/lib/thumb/v7e-m+dp/hard/libc_nano.a(libc_a-mbtowc_r.o)
_mprec_log10                                      /usr/lib/gcc/arm-none-eabi/13.2.1/../../../arm-none-eabi/lib/thumb/v7e-m+dp/hard/libc_nano.a(libc_a-mprec.o)
_open                                             build/debug/syscalls.o
_printf_common                                    /usr/lib/gcc/arm-none-eabi/13.2.1/../../../arm-none-eabi/lib/thumb/v7e-m+dp/hard/libc_nano.a(libc_a-nano-vfprintf_i.o)
                                                  /usr/lib/gcc/arm-none-eabi/13.2.1/../../../arm-none-eabi/lib/thumb/v7e-m+dp/hard/libc_nano.a(libc_a-nano-vfprintf_float.o)
_printf_float                                     /usr/lib/gcc/arm-none-eabi/13.2.1/../../../arm-none-eabi/lib/thumb/v7e-m+dp/hard/libc_nano.a(libc_a-nano-vfprintf_float.o)
                                                  /usr/lib/gcc/arm-none-eabi/13.2.1/../../../arm-none-eabi/lib/thumb/v7e-m+dp/hard/libc_nano.a(libc_a-nano-vfprintf.o)
_printf_i                                         /usr/lib/gcc/arm-none-eabi/13.2.1/../../../arm-none-eabi/lib/thumb/v7e-m+dp/hard/libc_nano.a(libc_a-nano-vfprintf_i.o)
                                                  /usr/lib/gcc/arm-none-eabi/13.2.1/../../../arm-none-eabi/lib/thumb/v7e-m+dp/hard/libc_nano.a(libc_a-nano-vfprintf.o)
_raise_r                                          /usr/lib/gcc/arm-none-eabi/13.2.1/../../../arm-none-eabi/lib/thumb/v7e-m+dp/hard/libc_nano.a(libc_a-signal.o)
_read                                             build/debug/syscalls.o
                                                  /usr/lib/gcc/arm-none-eabi/13.2.1/../../../arm-none-eabi/lib/thumb/v7e-m+dp/hard/libc_nano.a(libc_a-readr.o)
_read_r                                           /usr/lib/gcc/arm-none-eabi/13.2.1/../../../arm-none-eabi/lib/thumb/v7e-m+dp/hard/libc_nano.a(libc_a-readr.o)
                                                  /usr/lib/gcc/arm-none-eabi/13.2.1/../../../arm-none-eabi/lib/thumb/v7e-m+dp/hard/libc_nano.a(libc_a-stdio.o)
_realloc_r                                        /usr/lib/gcc/arm-none-eabi/13.2.1/../../../arm-none-eabi/lib/thumb/v7e-m+dp/hard/libc_nano.a(libc_a-reallocr.o)
                                                  /usr/lib/gcc/arm-none-eabi/13.2.1/../../../arm-none-eabi/lib/thumb/v7e-m+dp/hard/libc_nano.a(libc_a-fvwrite.o)
_reclaim_reent                                    /usr/lib/gcc/arm-none-eabi/13.2.1/../../../arm-none-eabi/lib/thumb/v7e-m+dp/hard/libc_nano.a(libc_a-reent.o)
_sbrk                                             build/debug/sysmem.o
                                                  /usr/lib/gcc/arm-none-eabi/13.2.1/../../../arm-none-eabi/lib/thumb/v7e-m+dp/hard/libc_nano.a(libc_a-sbrkr.o)
_sbrk_r                                           /usr/lib/gcc/arm-none-eabi/13.2.1/../../../arm-none-eabi/lib/thumb/v7e-m+dp/hard/libc_nano.a(libc_a-sbrkr.o)
                                                  /usr/lib/gcc/arm-none-eabi/13.2.1/../../../arm-none-eabi/lib/thumb/v7e-m+dp/hard/libc_nano.a(libc_a-mallocr.o)
_sbss                                             build/debug/startup_stm32h725xx.o
_sdata                                            build/debug/startup_stm32h725xx.o
_setlocale_r                                      /usr/lib/gcc/arm-none-eabi/13.2.1/../../../arm-none-eabi/lib/thumb/v7e-m+dp/hard/libc_nano.a(libc_a-locale.o)
_sidata                                           build/debug/startup_stm32h725xx.o
_signal_r                                         /usr/lib/gcc/arm-none-eabi/13.2.1/../../../arm-none-eabi/lib/thumb/v7e-m+dp/hard/libc_nano.a(libc_a-signal.o)
_stack_init                                       /usr/lib/gcc/arm-none-eabi/13.2.1/../../../arm-none-eabi/lib/thumb/v7e-m+dp/hard/crt0.o
_start                                            /usr/lib/gcc/arm-none-eabi/13.2.1/../../../arm-none-eabi/lib/thumb/v7e-m+dp/hard/crt0.o
_stat                                             build/debug/syscalls.o
_times                                            build/debug/syscalls.o
_unlink                                           build/debug/syscalls.o
_vfiprintf_r                                      /usr/lib/gcc/arm-none-eabi/13.2.1/../../../arm-none-eabi/lib/thumb/v7e-m+dp/hard/libc_nano.a(libc_a-nano-vfprintf.o)
_vfprintf_r                                       /usr/lib/gcc/arm-none-eabi/13.2.1/../../../arm-none-eabi/lib/thumb/v7e-m+dp/hard/libc_nano.a(libc_a-nano-vfprintf.o)
                                                  /usr/lib/gcc/arm-none-eabi/13.2.1/../../../arm-none-eabi/lib/thumb/v7e-m+dp/hard/libc_nano.a(libc_a-fprintf.o)
_wait                                             build/debug/syscalls.o
_wctomb_r                                         /usr/lib/gcc/arm-none-eabi/13.2.1/../../../arm-none-eabi/lib/thumb/v7e-m+dp/hard/libc_nano.a(libc_a-wctomb_r.o)
_write                                            build/debug/syscalls.o
                                                  /usr/lib/gcc/arm-none-eabi/13.2.1/../../../arm-none-eabi/lib/thumb/v7e-m+dp/hard/libc_nano.a(libc_a-writer.o)
_write_r                                          /usr/lib/gcc/arm-none-eabi/13.2.1/../../../arm-none-eabi/lib/thumb/v7e-m+dp/hard/libc_nano.a(libc_a-writer.o)
                                                  /usr/lib/gcc/arm-none-eabi/13.2.1/../../../arm-none-eabi/lib/thumb/v7e-m+dp/hard/libc_nano.a(libc_a-stdio.o)
abort                                             /usr/lib/gcc/arm-none-eabi/13.2.1/../../../arm-none-eabi/lib/thumb/v7e-m+dp/hard/libc_nano.a(libc_a-abort.o)
                                                  /usr/lib/gcc/arm-none-eabi/13.2.1/../../../arm-none-eabi/lib/thumb/v7e-m+dp/hard/libc_nano.a(libc_a-assert.o)
assert_failed                                     build/debug/main.o
                                                  build/debug/stm32h7xx_hal_tim_ex.o
                                                  build/debug/stm32h7xx_hal_tim.o
                                                  build/debug/stm32h7xx_hal_spi_ex.o
                                                  build/debug/stm32h7xx_hal_spi.o
                                                  build/debug/stm32h7xx_hal_rcc_ex.o
                                                  build/debug/stm32h7xx_hal_rcc.o
                                                  build/debug/stm32h7xx_hal_pwr_ex.o
                                                  build/debug/stm32h7xx_hal_pwr.o
                                                  build/debug/stm32h7xx_hal_pcd.o
                                                  build/debug/stm32h7xx_hal_mdma.o
                                                  build/debug/stm32h7xx_hal_i2c_ex.o
                                                  build/debug/stm32h7xx_hal_i2c.o
                                                  build/debug/stm32h7xx_hal_hsem.o
                                                  build/debug/stm32h7xx_hal_gpio.o
                                                  build/debug/stm32h7xx_hal_fmac.o
                                                  build/debug/stm32h7xx_hal_flash_ex.o
                                                  build/debug/stm32h7xx_hal_flash.o
                                                  build/debug/stm32h7xx_hal_exti.o
                                                  build/debug/stm32h7xx_hal_dma_ex.o
                                                  build/debug/stm32h7xx_hal_dma.o
                                                  build/debug/stm32h7xx_hal_cortex.o
                                                  build/debug/stm32h7xx_hal_cordic.o
                                                  build/debug/stm32h7xx_hal_adc_ex.o
                                                  build/debug/stm32h7xx_hal_adc.o
                                                  build/debug/stm32h7xx_hal.o
atexit                                            /usr/lib/gcc/arm-none-eabi/13.2.1/../../../arm-none-eabi/lib/thumb/v7e-m+dp/hard/libc_nano.a(libc_a-atexit.o)
                                                  /usr/lib/gcc/arm-none-eabi/13.2.1/../../../arm-none-eabi/lib/thumb/v7e-m+dp/hard/crt0.o
baroStep                                          build/debug/MS5607.o
cpp_main                                          build/debug/cpp_main.o
                                                  build/debug/main.o
environ                                           build/debug/syscalls.o
errno                                             /usr/lib/gcc/arm-none-eabi/13.2.1/../../../arm-none-eabi/lib/thumb/v7e-m+dp/hard/libc_nano.a(libc_a-reent.o)
                                                  /usr/lib/gcc/arm-none-eabi/13.2.1/../../../arm-none-eabi/lib/thumb/v7e-m+dp/hard/libc_nano.a(libc_a-fstatr.o)
                                                  /usr/lib/gcc/arm-none-eabi/13.2.1/../../../arm-none-eabi/lib/thumb/v7e-m+dp/hard/libc_nano.a(libc_a-signalr.o)
                                                  /usr/lib/gcc/arm-none-eabi/13.2.1/../../../arm-none-eabi/lib/thumb/v7e-m+dp/hard/libc_nano.a(libc_a-isattyr.o)
                                                  /usr/lib/gcc/arm-none-eabi/13.2.1/../../../arm-none-eabi/lib/thumb/v7e-m+dp/hard/libc_nano.a(libc_a-writer.o)
                                                  /usr/lib/gcc/arm-none-eabi/13.2.1/../../../arm-none-eabi/lib/thumb/v7e-m+dp/hard/libc_nano.a(libc_a-lseekr.o)
                                                  /usr/lib/gcc/arm-none-eabi/13.2.1/../../../arm-none-eabi/lib/thumb/v7e-m+dp/hard/libc_nano.a(libc_a-readr.o)
                                                  /usr/lib/gcc/arm-none-eabi/13.2.1/../../../arm-none-eabi/lib/thumb/v7e-m+dp/hard/libc_nano.a(libc_a-closer.o)
                                                  /usr/lib/gcc/arm-none-eabi/13.2.1/../../../arm-none-eabi/lib/thumb/v7e-m+dp/hard/libc_nano.a(libc_a-sbrkr.o)
exit                                              /usr/lib/gcc/arm-none-eabi/13.2.1/../../../arm-none-eabi/lib/thumb/v7e-m+dp/hard/libc_nano.a(libc_a-exit.o)
                                                  /usr/lib/gcc/arm-none-eabi/13.2.1/../../../arm-none-eabi/lib/thumb/v7e-m+dp/hard/crt0.o
fflush                                            /usr/lib/gcc/arm-none-eabi/13.2.1/../../../arm-none-eabi/lib/thumb/v7e-m+dp/hard/libc_nano.a(libc_a-fflush.o)
fiprintf                                          /usr/lib/gcc/arm-none-eabi/13.2.1/../../../arm-none-eabi/lib/thumb/v7e-m+dp/hard/libc_nano.a(libc_a-fprintf.o)
                                                  /usr/lib/gcc/arm-none-eabi/13.2.1/../../../arm-none-eabi/lib/thumb/v7e-m+dp/hard/libc_nano.a(libc_a-assert.o)
fprintf                                           /usr/lib/gcc/arm-none-eabi/13.2.1/../../../arm-none-eabi/lib/thumb/v7e-m+dp/hard/libc_nano.a(libc_a-fprintf.o)
free                                              /usr/lib/gcc/arm-none-eabi/13.2.1/../../../arm-none-eabi/lib/thumb/v7e-m+dp/hard/libc_nano.a(libc_a-malloc.o)
g_pfnVectors                                      build/debug/startup_stm32h725xx.o
hUsbDeviceHS                                      build/debug/usb_device.o
                                                  build/debug/usbd_cdc_if.o
hadc1                                             build/debug/adc.o
hardware_init_hook                                /usr/lib/gcc/arm-none-eabi/13.2.1/../../../arm-none-eabi/lib/thumb/v7e-m+dp/hard/crt0.o
hcordic                                           build/debug/cordic.o
hfmac                                             build/debug/fmac.o
hi2c3                                             build/debug/i2c.o
                                                  build/debug/cpp_main.o
                                                  build/debug/abstract.o
highGOfst                                         build/debug/cpp_main.o
hpcd_USB_OTG_HS                                   build/debug/usbd_conf.o
                                                  build/debug/stm32h7xx_it.o
hspi1                                             build/debug/spi.o
hspi2                                             build/debug/spi.o
htim2                                             build/debug/tim.o
htim4                                             build/debug/tim.o
i2cBuf                                            build/debug/cpp_main.o
i2cRead(unsigned char, unsigned char, unsigned char*, unsigned char) build/debug/abstract.o
i2cWrite(unsigned char, unsigned char, unsigned char*, unsigned char) build/debug/abstract.o
initialise_monitor_handles                        build/debug/syscalls.o
localeconv                                        /usr/lib/gcc/arm-none-eabi/13.2.1/../../../arm-none-eabi/lib/thumb/v7e-m+dp/hard/libc_nano.a(libc_a-localeconv.o)
main                                              build/debug/main.o
                                                  build/debug/startup_stm32h725xx.o
                                                  /usr/lib/gcc/arm-none-eabi/13.2.1/../../../arm-none-eabi/lib/thumb/v7e-m+dp/hard/crt0.o
malloc                                            /usr/lib/gcc/arm-none-eabi/13.2.1/../../../arm-none-eabi/lib/thumb/v7e-m+dp/hard/libc_nano.a(libc_a-malloc.o)
                                                  /usr/lib/gcc/arm-none-eabi/13.2.1/../../../arm-none-eabi/lib/thumb/v7e-m+dp/hard/libc_nano.a(libc_a-__atexit.o)
                                                  /usr/lib/gcc/arm-none-eabi/13.2.1/../../../arm-none-eabi/lib/thumb/v7e-m+dp/hard/libc_nano.a(libc_a-mprec.o)
                                                  /usr/lib/gcc/arm-none-eabi/13.2.1/../../../arm-none-eabi/lib/thumb/v7e-m+dp/hard/libc_nano.a(libc_a-dtoa.o)
memchr                                            /usr/lib/gcc/arm-none-eabi/13.2.1/../../../arm-none-eabi/lib/thumb/v7e-m+dp/hard/libc_nano.a(libc_a-memchr.o)
                                                  /usr/lib/gcc/arm-none-eabi/13.2.1/../../../arm-none-eabi/lib/thumb/v7e-m+dp/hard/libc_nano.a(libc_a-fvwrite.o)
                                                  /usr/lib/gcc/arm-none-eabi/13.2.1/../../../arm-none-eabi/lib/thumb/v7e-m+dp/hard/libc_nano.a(libc_a-nano-vfprintf.o)
                                                  /usr/lib/gcc/arm-none-eabi/13.2.1/../../../arm-none-eabi/lib/thumb/v7e-m+dp/hard/libc_nano.a(libc_a-nano-vfprintf_i.o)
memcpy                                            /usr/lib/gcc/arm-none-eabi/13.2.1/../../../arm-none-eabi/lib/thumb/v7e-m+dp/hard/libc_nano.a(libc_a-memcpy.o)
                                                  /usr/lib/gcc/arm-none-eabi/13.2.1/../../../arm-none-eabi/lib/thumb/v7e-m+dp/hard/libc_nano.a(libc_a-reallocr.o)
                                                  /usr/lib/gcc/arm-none-eabi/13.2.1/../../../arm-none-eabi/lib/thumb/v7e-m+dp/hard/libc_nano.a(libc_a-fvwrite.o)
                                                  /usr/lib/gcc/arm-none-eabi/13.2.1/../../../arm-none-eabi/lib/thumb/v7e-m+dp/hard/libc_nano.a(libc_a-mprec.o)
                                                  /usr/lib/gcc/arm-none-eabi/13.2.1/../../../arm-none-eabi/lib/thumb/v7e-m+dp/hard/libc_nano.a(libc_a-dtoa.o)
memmove                                           /usr/lib/gcc/arm-none-eabi/13.2.1/../../../arm-none-eabi/lib/thumb/v7e-m+dp/hard/libc_nano.a(libc_a-memmove.o)
                                                  /usr/lib/gcc/arm-none-eabi/13.2.1/../../../arm-none-eabi/lib/thumb/v7e-m+dp/hard/libc_nano.a(libc_a-fvwrite.o)
memset                                            /usr/lib/gcc/arm-none-eabi/13.2.1/../../../arm-none-eabi/lib/thumb/v7e-m+dp/hard/libc_nano.a(libc_a-memset.o)
                                                  /usr/lib/gcc/arm-none-eabi/13.2.1/../../../arm-none-eabi/lib/thumb/v7e-m+dp/hard/libc_nano.a(libc_a-callocr.o)
                                                  /usr/lib/gcc/arm-none-eabi/13.2.1/../../../arm-none-eabi/lib/thumb/v7e-m+dp/hard/libc_nano.a(libc_a-findfp.o)
                                                  build/debug/usbd_conf.o
                                                  build/debug/usbd_cdc.o
                                                  build/debug/main.o
                                                  build/debug/adc.o
                                                  /usr/lib/gcc/arm-none-eabi/13.2.1/../../../arm-none-eabi/lib/thumb/v7e-m+dp/hard/crt0.o
pFlash                                            build/debug/stm32h7xx_hal_flash.o
                                                  build/debug/stm32h7xx_hal_flash_ex.o
pow                                               /usr/lib/gcc/arm-none-eabi/13.2.1/../../../arm-none-eabi/lib/thumb/v7e-m+dp/hard/libm.a(libm_a-pow.o)
                                                  build/debug/MS5607.o
raise                                             /usr/lib/gcc/arm-none-eabi/13.2.1/../../../arm-none-eabi/lib/thumb/v7e-m+dp/hard/libc_nano.a(libc_a-signal.o)
                                                  /usr/lib/gcc/arm-none-eabi/13.2.1/../../../arm-none-eabi/lib/thumb/v7e-m+dp/hard/libc_nano.a(libc_a-abort.o)
setlocale                                         /usr/lib/gcc/arm-none-eabi/13.2.1/../../../arm-none-eabi/lib/thumb/v7e-m+dp/hard/libc_nano.a(libc_a-locale.o)
signal                                            /usr/lib/gcc/arm-none-eabi/13.2.1/../../../arm-none-eabi/lib/thumb/v7e-m+dp/hard/libc_nano.a(libc_a-signal.o)
software_init_hook                                /usr/lib/gcc/arm-none-eabi/13.2.1/../../../arm-none-eabi/lib/thumb/v7e-m+dp/hard/crt0.o
strcmp                                            /usr/lib/gcc/arm-none-eabi/13.2.1/../../../arm-none-eabi/lib/thumb/v7e-m+dp/hard/libc_nano.a(libc_a-strcmp.o)
                                                  /usr/lib/gcc/arm-none-eabi/13.2.1/../../../arm-none-eabi/lib/thumb/v7e-m+dp/hard/libc_nano.a(libc_a-locale.o)
strcpy                                            /usr/lib/gcc/arm-none-eabi/13.2.1/../../../arm-none-eabi/lib/thumb/v7e-m+dp/hard/libc_nano.a(libc_a-strcpy.o)
                                                  build/debug/abstract.o
strlen                                            /usr/lib/gcc/arm-none-eabi/13.2.1/../../../arm-none-eabi/lib/thumb/v7e-m+dp/hard/libc_nano.a(libc_a-strlen.o)
                                                  /usr/lib/gcc/arm-none-eabi/13.2.1/../../../arm-none-eabi/lib/thumb/v7e-m+dp/hard/libc_nano.a(libc_a-nano-vfprintf_float.o)
                                                  build/debug/abstract.o
usbTxBuf                                          build/debug/cpp_main.o
usbTxBufLen                                       build/debug/cpp_main.o
uwTick                                            build/debug/stm32h7xx_hal.o
uwTickFreq                                        build/debug/stm32h7xx_hal.o
uwTickPrio                                        build/debug/stm32h7xx_hal.o
                                                  build/debug/stm32h7xx_hal_rcc.o
vfiprintf                                         /usr/lib/gcc/arm-none-eabi/13.2.1/../../../arm-none-eabi/lib/thumb/v7e-m+dp/hard/libc_nano.a(libc_a-nano-vfprintf.o)
vfprintf                                          /usr/lib/gcc/arm-none-eabi/13.2.1/../../../arm-none-eabi/lib/thumb/v7e-m+dp/hard/libc_nano.a(libc_a-nano-vfprintf.o)
